ARM GAS  C:\Users\User\AppData\Local\Temp\ccPcfS0D.s 			page 1


   1              		.syntax unified
   2              		.cpu cortex-m0plus
   3              		.fpu softvfp
   4              		.eabi_attribute 20, 1
   5              		.eabi_attribute 21, 1
   6              		.eabi_attribute 23, 3
   7              		.eabi_attribute 24, 1
   8              		.eabi_attribute 25, 1
   9              		.eabi_attribute 26, 1
  10              		.eabi_attribute 30, 1
  11              		.eabi_attribute 34, 0
  12              		.eabi_attribute 18, 4
  13              		.thumb
  14              		.syntax unified
  15              		.file	"cy_ctb.c"
  16              		.text
  17              	.Ltext0:
  18              		.cfi_sections	.debug_frame
  19              		.section	.text.Cy_CTB_Init,"ax",%progbits
  20              		.align	2
  21              		.global	Cy_CTB_Init
  22              		.code	16
  23              		.thumb_func
  24              		.type	Cy_CTB_Init, %function
  25              	Cy_CTB_Init:
  26              	.LFB103:
  27              		.file 1 "Generated_Source\\PSoC6\\pdl\\drivers\\peripheral\\ctb\\cy_ctb.c"
   1:Generated_Source\PSoC6\pdl\drivers\peripheral\ctb/cy_ctb.c **** /***************************************************************************//**
   2:Generated_Source\PSoC6\pdl\drivers\peripheral\ctb/cy_ctb.c **** * \file cy_ctb.c
   3:Generated_Source\PSoC6\pdl\drivers\peripheral\ctb/cy_ctb.c **** * \version 1.10
   4:Generated_Source\PSoC6\pdl\drivers\peripheral\ctb/cy_ctb.c **** *
   5:Generated_Source\PSoC6\pdl\drivers\peripheral\ctb/cy_ctb.c **** * \brief
   6:Generated_Source\PSoC6\pdl\drivers\peripheral\ctb/cy_ctb.c **** * Provides the public functions for the CTB driver.
   7:Generated_Source\PSoC6\pdl\drivers\peripheral\ctb/cy_ctb.c **** *
   8:Generated_Source\PSoC6\pdl\drivers\peripheral\ctb/cy_ctb.c **** ********************************************************************************
   9:Generated_Source\PSoC6\pdl\drivers\peripheral\ctb/cy_ctb.c **** * \copyright
  10:Generated_Source\PSoC6\pdl\drivers\peripheral\ctb/cy_ctb.c **** * Copyright 2017-2018, Cypress Semiconductor Corporation. All rights reserved.
  11:Generated_Source\PSoC6\pdl\drivers\peripheral\ctb/cy_ctb.c **** * You may use this file only in accordance with the license, terms, conditions,
  12:Generated_Source\PSoC6\pdl\drivers\peripheral\ctb/cy_ctb.c **** * disclaimers, and limitations in the end user license agreement accompanying
  13:Generated_Source\PSoC6\pdl\drivers\peripheral\ctb/cy_ctb.c **** * the software package with which this file was provided.
  14:Generated_Source\PSoC6\pdl\drivers\peripheral\ctb/cy_ctb.c **** *******************************************************************************/
  15:Generated_Source\PSoC6\pdl\drivers\peripheral\ctb/cy_ctb.c **** 
  16:Generated_Source\PSoC6\pdl\drivers\peripheral\ctb/cy_ctb.c **** #include "cy_ctb.h"
  17:Generated_Source\PSoC6\pdl\drivers\peripheral\ctb/cy_ctb.c **** 
  18:Generated_Source\PSoC6\pdl\drivers\peripheral\ctb/cy_ctb.c **** #ifdef CY_IP_MXS40PASS_CTB
  19:Generated_Source\PSoC6\pdl\drivers\peripheral\ctb/cy_ctb.c **** 
  20:Generated_Source\PSoC6\pdl\drivers\peripheral\ctb/cy_ctb.c **** #if defined(__cplusplus)
  21:Generated_Source\PSoC6\pdl\drivers\peripheral\ctb/cy_ctb.c **** extern "C" {
  22:Generated_Source\PSoC6\pdl\drivers\peripheral\ctb/cy_ctb.c **** #endif
  23:Generated_Source\PSoC6\pdl\drivers\peripheral\ctb/cy_ctb.c **** 
  24:Generated_Source\PSoC6\pdl\drivers\peripheral\ctb/cy_ctb.c **** /***************************************
  25:Generated_Source\PSoC6\pdl\drivers\peripheral\ctb/cy_ctb.c **** *       Fast Config Selections
  26:Generated_Source\PSoC6\pdl\drivers\peripheral\ctb/cy_ctb.c **** ***************************************/
  27:Generated_Source\PSoC6\pdl\drivers\peripheral\ctb/cy_ctb.c **** const cy_stc_ctb_fast_config_oa0_t Cy_CTB_Fast_Opamp0_Unused =
  28:Generated_Source\PSoC6\pdl\drivers\peripheral\ctb/cy_ctb.c **** {
  29:Generated_Source\PSoC6\pdl\drivers\peripheral\ctb/cy_ctb.c ****     /*.oa0Power        */ CY_CTB_POWER_OFF,
  30:Generated_Source\PSoC6\pdl\drivers\peripheral\ctb/cy_ctb.c ****     /*.oa0Mode         */ CY_CTB_MODE_OPAMP1X,
ARM GAS  C:\Users\User\AppData\Local\Temp\ccPcfS0D.s 			page 2


  31:Generated_Source\PSoC6\pdl\drivers\peripheral\ctb/cy_ctb.c ****     /*.oa0SwitchCtrl   */ CY_CTB_DEINIT,
  32:Generated_Source\PSoC6\pdl\drivers\peripheral\ctb/cy_ctb.c ****     /*.ctdSwitchCtrl   */ CY_CTB_DEINIT,
  33:Generated_Source\PSoC6\pdl\drivers\peripheral\ctb/cy_ctb.c **** };
  34:Generated_Source\PSoC6\pdl\drivers\peripheral\ctb/cy_ctb.c **** 
  35:Generated_Source\PSoC6\pdl\drivers\peripheral\ctb/cy_ctb.c **** const cy_stc_ctb_fast_config_oa0_t Cy_CTB_Fast_Opamp0_Comp =
  36:Generated_Source\PSoC6\pdl\drivers\peripheral\ctb/cy_ctb.c **** {
  37:Generated_Source\PSoC6\pdl\drivers\peripheral\ctb/cy_ctb.c ****     /*.oa0Power        */ CY_CTB_POWER_MEDIUM,
  38:Generated_Source\PSoC6\pdl\drivers\peripheral\ctb/cy_ctb.c ****     /*.oa0Mode         */ CY_CTB_MODE_COMP,
  39:Generated_Source\PSoC6\pdl\drivers\peripheral\ctb/cy_ctb.c ****     /*.oa0SwitchCtrl   */ CY_CTB_DEINIT,
  40:Generated_Source\PSoC6\pdl\drivers\peripheral\ctb/cy_ctb.c ****     /*.ctdSwitchCtrl   */ CY_CTB_DEINIT,
  41:Generated_Source\PSoC6\pdl\drivers\peripheral\ctb/cy_ctb.c **** };
  42:Generated_Source\PSoC6\pdl\drivers\peripheral\ctb/cy_ctb.c **** 
  43:Generated_Source\PSoC6\pdl\drivers\peripheral\ctb/cy_ctb.c **** const cy_stc_ctb_fast_config_oa0_t Cy_CTB_Fast_Opamp0_Opamp1x =
  44:Generated_Source\PSoC6\pdl\drivers\peripheral\ctb/cy_ctb.c **** {
  45:Generated_Source\PSoC6\pdl\drivers\peripheral\ctb/cy_ctb.c ****     /*.oa0Power        */ CY_CTB_POWER_MEDIUM,
  46:Generated_Source\PSoC6\pdl\drivers\peripheral\ctb/cy_ctb.c ****     /*.oa0Mode         */ CY_CTB_MODE_OPAMP1X,
  47:Generated_Source\PSoC6\pdl\drivers\peripheral\ctb/cy_ctb.c ****     /*.oa0SwitchCtrl   */ CY_CTB_DEINIT,
  48:Generated_Source\PSoC6\pdl\drivers\peripheral\ctb/cy_ctb.c ****     /*.ctdSwitchCtrl   */ CY_CTB_DEINIT,
  49:Generated_Source\PSoC6\pdl\drivers\peripheral\ctb/cy_ctb.c **** };
  50:Generated_Source\PSoC6\pdl\drivers\peripheral\ctb/cy_ctb.c **** 
  51:Generated_Source\PSoC6\pdl\drivers\peripheral\ctb/cy_ctb.c **** const cy_stc_ctb_fast_config_oa0_t Cy_CTB_Fast_Opamp0_Opamp10x =
  52:Generated_Source\PSoC6\pdl\drivers\peripheral\ctb/cy_ctb.c **** {
  53:Generated_Source\PSoC6\pdl\drivers\peripheral\ctb/cy_ctb.c ****     /*.oa0Power        */ CY_CTB_POWER_MEDIUM,
  54:Generated_Source\PSoC6\pdl\drivers\peripheral\ctb/cy_ctb.c ****     /*.oa0Mode         */ CY_CTB_MODE_OPAMP10X,
  55:Generated_Source\PSoC6\pdl\drivers\peripheral\ctb/cy_ctb.c ****     /*.oa0SwitchCtrl   */ CY_CTB_DEINIT,
  56:Generated_Source\PSoC6\pdl\drivers\peripheral\ctb/cy_ctb.c ****     /*.ctdSwitchCtrl   */ CY_CTB_DEINIT,
  57:Generated_Source\PSoC6\pdl\drivers\peripheral\ctb/cy_ctb.c **** };
  58:Generated_Source\PSoC6\pdl\drivers\peripheral\ctb/cy_ctb.c **** 
  59:Generated_Source\PSoC6\pdl\drivers\peripheral\ctb/cy_ctb.c **** const cy_stc_ctb_fast_config_oa0_t Cy_CTB_Fast_Opamp0_Diffamp =
  60:Generated_Source\PSoC6\pdl\drivers\peripheral\ctb/cy_ctb.c **** {
  61:Generated_Source\PSoC6\pdl\drivers\peripheral\ctb/cy_ctb.c ****     /*.oa0Power        */ CY_CTB_POWER_MEDIUM,
  62:Generated_Source\PSoC6\pdl\drivers\peripheral\ctb/cy_ctb.c ****     /*.oa0Mode         */ CY_CTB_MODE_OPAMP10X,
  63:Generated_Source\PSoC6\pdl\drivers\peripheral\ctb/cy_ctb.c ****     /*.oa0SwitchCtrl   */ (uint32_t) CY_CTB_SW_OA0_POS_PIN0_MASK | (uint32_t) CY_CTB_SW_OA0_NEG_PIN
  64:Generated_Source\PSoC6\pdl\drivers\peripheral\ctb/cy_ctb.c ****     /*.ctdSwitchCtrl   */ (uint32_t) CY_CTB_SW_CTD_CHOLD_OA0_POS_ISOLATE_MASK,
  65:Generated_Source\PSoC6\pdl\drivers\peripheral\ctb/cy_ctb.c **** };
  66:Generated_Source\PSoC6\pdl\drivers\peripheral\ctb/cy_ctb.c **** 
  67:Generated_Source\PSoC6\pdl\drivers\peripheral\ctb/cy_ctb.c **** const cy_stc_ctb_fast_config_oa0_t Cy_CTB_Fast_Opamp0_Vdac_Out =
  68:Generated_Source\PSoC6\pdl\drivers\peripheral\ctb/cy_ctb.c **** {
  69:Generated_Source\PSoC6\pdl\drivers\peripheral\ctb/cy_ctb.c ****     /*.oa0Power        */ CY_CTB_POWER_MEDIUM,
  70:Generated_Source\PSoC6\pdl\drivers\peripheral\ctb/cy_ctb.c ****     /*.oa0Mode         */ CY_CTB_MODE_OPAMP10X,
  71:Generated_Source\PSoC6\pdl\drivers\peripheral\ctb/cy_ctb.c ****     /*.oa0SwitchCtrl   */ (uint32_t) CY_CTB_SW_OA0_NEG_OUT_MASK | (uint32_t) CY_CTB_SW_OA0_OUT_SHOR
  72:Generated_Source\PSoC6\pdl\drivers\peripheral\ctb/cy_ctb.c ****     /*.ctdSwitchCtrl   */ (uint32_t) CY_CTB_SW_CTD_OUT_CHOLD_MASK | (uint32_t) CY_CTB_SW_CTD_CHOLD_
  73:Generated_Source\PSoC6\pdl\drivers\peripheral\ctb/cy_ctb.c **** };
  74:Generated_Source\PSoC6\pdl\drivers\peripheral\ctb/cy_ctb.c **** 
  75:Generated_Source\PSoC6\pdl\drivers\peripheral\ctb/cy_ctb.c **** const cy_stc_ctb_fast_config_oa0_t Cy_CTB_Fast_Opamp0_Vdac_Out_SH =
  76:Generated_Source\PSoC6\pdl\drivers\peripheral\ctb/cy_ctb.c **** {
  77:Generated_Source\PSoC6\pdl\drivers\peripheral\ctb/cy_ctb.c ****     /*.oa0Power        */ CY_CTB_POWER_MEDIUM,
  78:Generated_Source\PSoC6\pdl\drivers\peripheral\ctb/cy_ctb.c ****     /*.oa0Mode         */ CY_CTB_MODE_OPAMP10X,
  79:Generated_Source\PSoC6\pdl\drivers\peripheral\ctb/cy_ctb.c ****     /*.oa0SwitchCtrl   */ (uint32_t) CY_CTB_SW_OA0_NEG_OUT_MASK | (uint32_t) CY_CTB_SW_OA0_OUT_SHOR
  80:Generated_Source\PSoC6\pdl\drivers\peripheral\ctb/cy_ctb.c ****     /*.ctdSwitchCtrl   */ (uint32_t) CY_CTB_SW_CTD_OUT_CHOLD_MASK | (uint32_t) CY_CTB_SW_CTD_CHOLD_
  81:Generated_Source\PSoC6\pdl\drivers\peripheral\ctb/cy_ctb.c **** };
  82:Generated_Source\PSoC6\pdl\drivers\peripheral\ctb/cy_ctb.c **** 
  83:Generated_Source\PSoC6\pdl\drivers\peripheral\ctb/cy_ctb.c **** const cy_stc_ctb_fast_config_oa1_t Cy_CTB_Fast_Opamp1_Unused =
  84:Generated_Source\PSoC6\pdl\drivers\peripheral\ctb/cy_ctb.c **** {
  85:Generated_Source\PSoC6\pdl\drivers\peripheral\ctb/cy_ctb.c ****     /*.oa1Power        */ CY_CTB_POWER_OFF,
  86:Generated_Source\PSoC6\pdl\drivers\peripheral\ctb/cy_ctb.c ****     /*.oa1Mode         */ CY_CTB_MODE_OPAMP1X,
  87:Generated_Source\PSoC6\pdl\drivers\peripheral\ctb/cy_ctb.c ****     /*.oa1SwitchCtrl   */ CY_CTB_DEINIT,
ARM GAS  C:\Users\User\AppData\Local\Temp\ccPcfS0D.s 			page 3


  88:Generated_Source\PSoC6\pdl\drivers\peripheral\ctb/cy_ctb.c ****     /*.ctdSwitchCtrl   */ CY_CTB_DEINIT,
  89:Generated_Source\PSoC6\pdl\drivers\peripheral\ctb/cy_ctb.c **** };
  90:Generated_Source\PSoC6\pdl\drivers\peripheral\ctb/cy_ctb.c **** 
  91:Generated_Source\PSoC6\pdl\drivers\peripheral\ctb/cy_ctb.c **** const cy_stc_ctb_fast_config_oa1_t Cy_CTB_Fast_Opamp1_Comp =
  92:Generated_Source\PSoC6\pdl\drivers\peripheral\ctb/cy_ctb.c **** {
  93:Generated_Source\PSoC6\pdl\drivers\peripheral\ctb/cy_ctb.c ****     /*.oa1Power        */ CY_CTB_POWER_MEDIUM,
  94:Generated_Source\PSoC6\pdl\drivers\peripheral\ctb/cy_ctb.c ****     /*.oa1Mode         */ CY_CTB_MODE_COMP,
  95:Generated_Source\PSoC6\pdl\drivers\peripheral\ctb/cy_ctb.c ****     /*.oa1SwitchCtrl   */ CY_CTB_DEINIT,
  96:Generated_Source\PSoC6\pdl\drivers\peripheral\ctb/cy_ctb.c ****     /*.ctdSwitchCtrl   */ CY_CTB_DEINIT,
  97:Generated_Source\PSoC6\pdl\drivers\peripheral\ctb/cy_ctb.c **** };
  98:Generated_Source\PSoC6\pdl\drivers\peripheral\ctb/cy_ctb.c **** 
  99:Generated_Source\PSoC6\pdl\drivers\peripheral\ctb/cy_ctb.c **** const cy_stc_ctb_fast_config_oa1_t Cy_CTB_Fast_Opamp1_Opamp1x =
 100:Generated_Source\PSoC6\pdl\drivers\peripheral\ctb/cy_ctb.c **** {
 101:Generated_Source\PSoC6\pdl\drivers\peripheral\ctb/cy_ctb.c ****     /*.oa1Power        */ CY_CTB_POWER_MEDIUM,
 102:Generated_Source\PSoC6\pdl\drivers\peripheral\ctb/cy_ctb.c ****     /*.oa1Mode         */ CY_CTB_MODE_OPAMP1X,
 103:Generated_Source\PSoC6\pdl\drivers\peripheral\ctb/cy_ctb.c ****     /*.oa1SwitchCtrl   */ CY_CTB_DEINIT,
 104:Generated_Source\PSoC6\pdl\drivers\peripheral\ctb/cy_ctb.c ****     /*.ctdSwitchCtrl   */ CY_CTB_DEINIT,
 105:Generated_Source\PSoC6\pdl\drivers\peripheral\ctb/cy_ctb.c **** };
 106:Generated_Source\PSoC6\pdl\drivers\peripheral\ctb/cy_ctb.c **** 
 107:Generated_Source\PSoC6\pdl\drivers\peripheral\ctb/cy_ctb.c **** const cy_stc_ctb_fast_config_oa1_t Cy_CTB_Fast_Opamp1_Opamp10x =
 108:Generated_Source\PSoC6\pdl\drivers\peripheral\ctb/cy_ctb.c **** {
 109:Generated_Source\PSoC6\pdl\drivers\peripheral\ctb/cy_ctb.c ****     /*.oa1Power        */ CY_CTB_POWER_MEDIUM,
 110:Generated_Source\PSoC6\pdl\drivers\peripheral\ctb/cy_ctb.c ****     /*.oa1Mode         */ CY_CTB_MODE_OPAMP10X,
 111:Generated_Source\PSoC6\pdl\drivers\peripheral\ctb/cy_ctb.c ****     /*.oa1SwitchCtrl   */ CY_CTB_DEINIT,
 112:Generated_Source\PSoC6\pdl\drivers\peripheral\ctb/cy_ctb.c ****     /*.ctdSwitchCtrl   */ CY_CTB_DEINIT,
 113:Generated_Source\PSoC6\pdl\drivers\peripheral\ctb/cy_ctb.c **** };
 114:Generated_Source\PSoC6\pdl\drivers\peripheral\ctb/cy_ctb.c **** 
 115:Generated_Source\PSoC6\pdl\drivers\peripheral\ctb/cy_ctb.c **** const cy_stc_ctb_fast_config_oa1_t Cy_CTB_Fast_Opamp1_Diffamp =
 116:Generated_Source\PSoC6\pdl\drivers\peripheral\ctb/cy_ctb.c **** {
 117:Generated_Source\PSoC6\pdl\drivers\peripheral\ctb/cy_ctb.c ****     /*.oa1Power        */ CY_CTB_POWER_MEDIUM,
 118:Generated_Source\PSoC6\pdl\drivers\peripheral\ctb/cy_ctb.c ****     /*.oa1Mode         */ CY_CTB_MODE_OPAMP10X,
 119:Generated_Source\PSoC6\pdl\drivers\peripheral\ctb/cy_ctb.c ****     /*.oa1SwitchCtrl   */ (uint32_t) CY_CTB_SW_OA1_POS_PIN7_MASK | (uint32_t) CY_CTB_SW_OA1_NEG_PIN
 120:Generated_Source\PSoC6\pdl\drivers\peripheral\ctb/cy_ctb.c ****     /*.ctdSwitchCtrl   */ CY_CTB_DEINIT,
 121:Generated_Source\PSoC6\pdl\drivers\peripheral\ctb/cy_ctb.c **** };
 122:Generated_Source\PSoC6\pdl\drivers\peripheral\ctb/cy_ctb.c **** 
 123:Generated_Source\PSoC6\pdl\drivers\peripheral\ctb/cy_ctb.c **** const cy_stc_ctb_fast_config_oa1_t Cy_CTB_Fast_Opamp1_Vdac_Ref_Aref =
 124:Generated_Source\PSoC6\pdl\drivers\peripheral\ctb/cy_ctb.c **** {
 125:Generated_Source\PSoC6\pdl\drivers\peripheral\ctb/cy_ctb.c ****     /*.oa1Power        */ CY_CTB_POWER_MEDIUM,
 126:Generated_Source\PSoC6\pdl\drivers\peripheral\ctb/cy_ctb.c ****     /*.oa1Mode         */ CY_CTB_MODE_OPAMP1X,
 127:Generated_Source\PSoC6\pdl\drivers\peripheral\ctb/cy_ctb.c ****     /*.oa1SwitchCtrl   */ (uint32_t) CY_CTB_SW_OA1_NEG_OUT_MASK | (uint32_t) CY_CTB_SW_OA1_POS_AREF
 128:Generated_Source\PSoC6\pdl\drivers\peripheral\ctb/cy_ctb.c ****     /*.ctdSwitchCtrl   */ (uint32_t) CY_CTB_SW_CTD_REF_OA1_OUT_MASK,
 129:Generated_Source\PSoC6\pdl\drivers\peripheral\ctb/cy_ctb.c **** };
 130:Generated_Source\PSoC6\pdl\drivers\peripheral\ctb/cy_ctb.c **** 
 131:Generated_Source\PSoC6\pdl\drivers\peripheral\ctb/cy_ctb.c **** const cy_stc_ctb_fast_config_oa1_t Cy_CTB_Fast_Opamp1_Vdac_Ref_Pin5 =
 132:Generated_Source\PSoC6\pdl\drivers\peripheral\ctb/cy_ctb.c **** {
 133:Generated_Source\PSoC6\pdl\drivers\peripheral\ctb/cy_ctb.c ****     /*.oa1Power        */ CY_CTB_POWER_MEDIUM,
 134:Generated_Source\PSoC6\pdl\drivers\peripheral\ctb/cy_ctb.c ****     /*.oa1Mode         */ CY_CTB_MODE_OPAMP1X,
 135:Generated_Source\PSoC6\pdl\drivers\peripheral\ctb/cy_ctb.c ****     /*.oa1SwitchCtrl   */ (uint32_t) CY_CTB_SW_OA1_NEG_OUT_MASK | (uint32_t) CY_CTB_SW_OA1_POS_PIN5
 136:Generated_Source\PSoC6\pdl\drivers\peripheral\ctb/cy_ctb.c ****     /*.ctdSwitchCtrl   */ (uint32_t) CY_CTB_SW_CTD_REF_OA1_OUT_MASK,
 137:Generated_Source\PSoC6\pdl\drivers\peripheral\ctb/cy_ctb.c **** };
 138:Generated_Source\PSoC6\pdl\drivers\peripheral\ctb/cy_ctb.c **** 
 139:Generated_Source\PSoC6\pdl\drivers\peripheral\ctb/cy_ctb.c **** /*******************************************************************************
 140:Generated_Source\PSoC6\pdl\drivers\peripheral\ctb/cy_ctb.c **** * Function Name: Cy_CTB_Init
 141:Generated_Source\PSoC6\pdl\drivers\peripheral\ctb/cy_ctb.c **** ****************************************************************************//**
 142:Generated_Source\PSoC6\pdl\drivers\peripheral\ctb/cy_ctb.c **** *
 143:Generated_Source\PSoC6\pdl\drivers\peripheral\ctb/cy_ctb.c **** * Initialize or restore the CTB and both opamps according to the
 144:Generated_Source\PSoC6\pdl\drivers\peripheral\ctb/cy_ctb.c **** * provided settings. Parameters are usually set only once, at initialization.
ARM GAS  C:\Users\User\AppData\Local\Temp\ccPcfS0D.s 			page 4


 145:Generated_Source\PSoC6\pdl\drivers\peripheral\ctb/cy_ctb.c **** *
 146:Generated_Source\PSoC6\pdl\drivers\peripheral\ctb/cy_ctb.c **** * \param base
 147:Generated_Source\PSoC6\pdl\drivers\peripheral\ctb/cy_ctb.c **** * Pointer to structure describing registers
 148:Generated_Source\PSoC6\pdl\drivers\peripheral\ctb/cy_ctb.c **** *
 149:Generated_Source\PSoC6\pdl\drivers\peripheral\ctb/cy_ctb.c **** * \param config
 150:Generated_Source\PSoC6\pdl\drivers\peripheral\ctb/cy_ctb.c **** * Pointer to structure containing configuration data for entire CTB
 151:Generated_Source\PSoC6\pdl\drivers\peripheral\ctb/cy_ctb.c **** *
 152:Generated_Source\PSoC6\pdl\drivers\peripheral\ctb/cy_ctb.c **** * \return
 153:Generated_Source\PSoC6\pdl\drivers\peripheral\ctb/cy_ctb.c **** * Status of initialization, \ref CY_CTB_SUCCESS or \ref CY_CTB_BAD_PARAM
 154:Generated_Source\PSoC6\pdl\drivers\peripheral\ctb/cy_ctb.c **** *
 155:Generated_Source\PSoC6\pdl\drivers\peripheral\ctb/cy_ctb.c **** * \funcusage
 156:Generated_Source\PSoC6\pdl\drivers\peripheral\ctb/cy_ctb.c **** *
 157:Generated_Source\PSoC6\pdl\drivers\peripheral\ctb/cy_ctb.c **** * The following code snippet configures Opamp0 as a comparator
 158:Generated_Source\PSoC6\pdl\drivers\peripheral\ctb/cy_ctb.c **** * and Opamp1 as an opamp follower with 10x drive. The terminals
 159:Generated_Source\PSoC6\pdl\drivers\peripheral\ctb/cy_ctb.c **** * are routed to external pins by closing the switches shown.
 160:Generated_Source\PSoC6\pdl\drivers\peripheral\ctb/cy_ctb.c **** *
 161:Generated_Source\PSoC6\pdl\drivers\peripheral\ctb/cy_ctb.c **** * \image html ctb_init_funcusage.png
 162:Generated_Source\PSoC6\pdl\drivers\peripheral\ctb/cy_ctb.c **** * \image latex ctb_init_funcusage.png
 163:Generated_Source\PSoC6\pdl\drivers\peripheral\ctb/cy_ctb.c **** *
 164:Generated_Source\PSoC6\pdl\drivers\peripheral\ctb/cy_ctb.c **** * \snippet ctb_sut_01.cydsn/main_cm0p.c SNIPPET_CTBINIT
 165:Generated_Source\PSoC6\pdl\drivers\peripheral\ctb/cy_ctb.c **** *
 166:Generated_Source\PSoC6\pdl\drivers\peripheral\ctb/cy_ctb.c **** *******************************************************************************/
 167:Generated_Source\PSoC6\pdl\drivers\peripheral\ctb/cy_ctb.c **** cy_en_ctb_status_t Cy_CTB_Init(CTBM_Type *base, const cy_stc_ctb_config_t *config)
 168:Generated_Source\PSoC6\pdl\drivers\peripheral\ctb/cy_ctb.c **** {
  28              		.loc 1 168 0
  29              		.cfi_startproc
  30              		@ args = 0, pretend = 0, frame = 0
  31              		@ frame_needed = 0, uses_anonymous_args = 0
  32              	.LVL0:
  33 0000 70B5     		push	{r4, r5, r6, lr}
  34              		.cfi_def_cfa_offset 16
  35              		.cfi_offset 4, -16
  36              		.cfi_offset 5, -12
  37              		.cfi_offset 6, -8
  38              		.cfi_offset 14, -4
  39 0002 0500     		movs	r5, r0
  40 0004 0C00     		movs	r4, r1
 169:Generated_Source\PSoC6\pdl\drivers\peripheral\ctb/cy_ctb.c ****     CY_ASSERT_L1(NULL != base);
  41              		.loc 1 169 0
  42 0006 0028     		cmp	r0, #0
  43 0008 03D1     		bne	.L2
  44              		.loc 1 169 0 is_stmt 0 discriminator 1
  45 000a A921     		movs	r1, #169
  46              	.LVL1:
  47 000c 9348     		ldr	r0, .L38
  48              	.LVL2:
  49 000e FFF7FEFF 		bl	Cy_SysLib_AssertFailed
  50              	.LVL3:
  51              	.L2:
 170:Generated_Source\PSoC6\pdl\drivers\peripheral\ctb/cy_ctb.c ****     CY_ASSERT_L1(NULL != config);
  52              		.loc 1 170 0 is_stmt 1
  53 0012 002C     		cmp	r4, #0
  54 0014 03D1     		bne	.L3
  55              		.loc 1 170 0 is_stmt 0 discriminator 1
  56 0016 AA21     		movs	r1, #170
  57 0018 9048     		ldr	r0, .L38
  58 001a FFF7FEFF 		bl	Cy_SysLib_AssertFailed
ARM GAS  C:\Users\User\AppData\Local\Temp\ccPcfS0D.s 			page 5


  59              	.LVL4:
  60              	.L3:
 171:Generated_Source\PSoC6\pdl\drivers\peripheral\ctb/cy_ctb.c **** 
 172:Generated_Source\PSoC6\pdl\drivers\peripheral\ctb/cy_ctb.c ****     cy_en_ctb_status_t result;
 173:Generated_Source\PSoC6\pdl\drivers\peripheral\ctb/cy_ctb.c **** 
 174:Generated_Source\PSoC6\pdl\drivers\peripheral\ctb/cy_ctb.c ****     if ((NULL == base) || (NULL == config))
  61              		.loc 1 174 0 is_stmt 1
  62 001e 002D     		cmp	r5, #0
  63 0020 00D1     		bne	.LCB33
  64 0022 15E1     		b	.L29	@long jump
  65              	.LCB33:
  66              		.loc 1 174 0 is_stmt 0 discriminator 1
  67 0024 002C     		cmp	r4, #0
  68 0026 00D1     		bne	.LCB35
  69 0028 14E1     		b	.L30	@long jump
  70              	.LCB35:
 175:Generated_Source\PSoC6\pdl\drivers\peripheral\ctb/cy_ctb.c ****     {
 176:Generated_Source\PSoC6\pdl\drivers\peripheral\ctb/cy_ctb.c ****        result = CY_CTB_BAD_PARAM;
 177:Generated_Source\PSoC6\pdl\drivers\peripheral\ctb/cy_ctb.c ****     }
 178:Generated_Source\PSoC6\pdl\drivers\peripheral\ctb/cy_ctb.c ****     else
 179:Generated_Source\PSoC6\pdl\drivers\peripheral\ctb/cy_ctb.c ****     {
 180:Generated_Source\PSoC6\pdl\drivers\peripheral\ctb/cy_ctb.c ****         CY_ASSERT_L3(CY_CTB_DEEPSLEEP(config->deepSleep));
  71              		.loc 1 180 0 is_stmt 1
  72 002a 2368     		ldr	r3, [r4]
  73 002c 002B     		cmp	r3, #0
  74 002e 07D0     		beq	.L5
  75              		.loc 1 180 0 is_stmt 0 discriminator 1
  76 0030 8022     		movs	r2, #128
  77 0032 D205     		lsls	r2, r2, #23
  78 0034 9342     		cmp	r3, r2
  79 0036 03D0     		beq	.L5
  80              		.loc 1 180 0 discriminator 2
  81 0038 B421     		movs	r1, #180
  82 003a 8848     		ldr	r0, .L38
  83 003c FFF7FEFF 		bl	Cy_SysLib_AssertFailed
  84              	.LVL5:
  85              	.L5:
 181:Generated_Source\PSoC6\pdl\drivers\peripheral\ctb/cy_ctb.c **** 
 182:Generated_Source\PSoC6\pdl\drivers\peripheral\ctb/cy_ctb.c ****         /* Enum checks for Opamp0 config */
 183:Generated_Source\PSoC6\pdl\drivers\peripheral\ctb/cy_ctb.c ****         CY_ASSERT_L3(CY_CTB_OAPOWER(config->oa0Power));
  86              		.loc 1 183 0 is_stmt 1
  87 0040 2379     		ldrb	r3, [r4, #4]
  88 0042 032B     		cmp	r3, #3
  89 0044 03D9     		bls	.L6
  90              		.loc 1 183 0 is_stmt 0 discriminator 1
  91 0046 B721     		movs	r1, #183
  92 0048 8448     		ldr	r0, .L38
  93 004a FFF7FEFF 		bl	Cy_SysLib_AssertFailed
  94              	.LVL6:
  95              	.L6:
 184:Generated_Source\PSoC6\pdl\drivers\peripheral\ctb/cy_ctb.c ****         CY_ASSERT_L3(CY_CTB_OAMODE(config->oa0Mode));
  96              		.loc 1 184 0 is_stmt 1
  97 004e 6379     		ldrb	r3, [r4, #5]
  98 0050 002B     		cmp	r3, #0
  99 0052 07D0     		beq	.L7
 100              		.loc 1 184 0 is_stmt 0 discriminator 1
 101 0054 082B     		cmp	r3, #8
ARM GAS  C:\Users\User\AppData\Local\Temp\ccPcfS0D.s 			page 6


 102 0056 05D0     		beq	.L7
 103              		.loc 1 184 0 discriminator 2
 104 0058 102B     		cmp	r3, #16
 105 005a 03D0     		beq	.L7
 106              		.loc 1 184 0 discriminator 3
 107 005c B821     		movs	r1, #184
 108 005e 7F48     		ldr	r0, .L38
 109 0060 FFF7FEFF 		bl	Cy_SysLib_AssertFailed
 110              	.LVL7:
 111              	.L7:
 185:Generated_Source\PSoC6\pdl\drivers\peripheral\ctb/cy_ctb.c ****         CY_ASSERT_L3(CY_CTB_OAPUMP(config->oa0Pump));
 112              		.loc 1 185 0 is_stmt 1
 113 0064 E388     		ldrh	r3, [r4, #6]
 114 0066 002B     		cmp	r3, #0
 115 0068 07D0     		beq	.L8
 116              		.loc 1 185 0 is_stmt 0 discriminator 1
 117 006a 8022     		movs	r2, #128
 118 006c 1201     		lsls	r2, r2, #4
 119 006e 9342     		cmp	r3, r2
 120 0070 03D0     		beq	.L8
 121              		.loc 1 185 0 discriminator 2
 122 0072 B921     		movs	r1, #185
 123 0074 7948     		ldr	r0, .L38
 124 0076 FFF7FEFF 		bl	Cy_SysLib_AssertFailed
 125              	.LVL8:
 126              	.L8:
 186:Generated_Source\PSoC6\pdl\drivers\peripheral\ctb/cy_ctb.c ****         CY_ASSERT_L3(CY_CTB_COMPEDGE(config->oa0CompEdge));
 127              		.loc 1 186 0 is_stmt 1
 128 007a 2389     		ldrh	r3, [r4, #8]
 129 007c 002B     		cmp	r3, #0
 130 007e 0FD0     		beq	.L9
 131              		.loc 1 186 0 is_stmt 0 discriminator 1
 132 0080 8022     		movs	r2, #128
 133 0082 5200     		lsls	r2, r2, #1
 134 0084 9342     		cmp	r3, r2
 135 0086 0BD0     		beq	.L9
 136              		.loc 1 186 0 discriminator 2
 137 0088 0132     		adds	r2, r2, #1
 138 008a FF32     		adds	r2, r2, #255
 139 008c 9342     		cmp	r3, r2
 140 008e 07D0     		beq	.L9
 141              		.loc 1 186 0 discriminator 3
 142 0090 0132     		adds	r2, r2, #1
 143 0092 FF32     		adds	r2, r2, #255
 144 0094 9342     		cmp	r3, r2
 145 0096 03D0     		beq	.L9
 146              		.loc 1 186 0 discriminator 4
 147 0098 BA21     		movs	r1, #186
 148 009a 7048     		ldr	r0, .L38
 149 009c FFF7FEFF 		bl	Cy_SysLib_AssertFailed
 150              	.LVL9:
 151              	.L9:
 187:Generated_Source\PSoC6\pdl\drivers\peripheral\ctb/cy_ctb.c ****         CY_ASSERT_L3(CY_CTB_COMPLEVEL(config->oa0CompLevel));
 152              		.loc 1 187 0 is_stmt 1
 153 00a0 A37A     		ldrb	r3, [r4, #10]
 154 00a2 002B     		cmp	r3, #0
 155 00a4 05D0     		beq	.L10
ARM GAS  C:\Users\User\AppData\Local\Temp\ccPcfS0D.s 			page 7


 156              		.loc 1 187 0 is_stmt 0 discriminator 1
 157 00a6 802B     		cmp	r3, #128
 158 00a8 03D0     		beq	.L10
 159              		.loc 1 187 0 discriminator 2
 160 00aa BB21     		movs	r1, #187
 161 00ac 6B48     		ldr	r0, .L38
 162 00ae FFF7FEFF 		bl	Cy_SysLib_AssertFailed
 163              	.LVL10:
 164              	.L10:
 188:Generated_Source\PSoC6\pdl\drivers\peripheral\ctb/cy_ctb.c ****         CY_ASSERT_L3(CY_CTB_COMPBYPASS(config->oa0CompBypass));
 165              		.loc 1 188 0 is_stmt 1
 166 00b2 E37A     		ldrb	r3, [r4, #11]
 167 00b4 002B     		cmp	r3, #0
 168 00b6 05D0     		beq	.L11
 169              		.loc 1 188 0 is_stmt 0 discriminator 1
 170 00b8 402B     		cmp	r3, #64
 171 00ba 03D0     		beq	.L11
 172              		.loc 1 188 0 discriminator 2
 173 00bc BC21     		movs	r1, #188
 174 00be 6748     		ldr	r0, .L38
 175 00c0 FFF7FEFF 		bl	Cy_SysLib_AssertFailed
 176              	.LVL11:
 177              	.L11:
 189:Generated_Source\PSoC6\pdl\drivers\peripheral\ctb/cy_ctb.c ****         CY_ASSERT_L3(CY_CTB_COMPHYST(config->oa0CompHyst));
 178              		.loc 1 189 0 is_stmt 1
 179 00c4 237B     		ldrb	r3, [r4, #12]
 180 00c6 002B     		cmp	r3, #0
 181 00c8 05D0     		beq	.L12
 182              		.loc 1 189 0 is_stmt 0 discriminator 1
 183 00ca 202B     		cmp	r3, #32
 184 00cc 03D0     		beq	.L12
 185              		.loc 1 189 0 discriminator 2
 186 00ce BD21     		movs	r1, #189
 187 00d0 6248     		ldr	r0, .L38
 188 00d2 FFF7FEFF 		bl	Cy_SysLib_AssertFailed
 189              	.LVL12:
 190              	.L12:
 190:Generated_Source\PSoC6\pdl\drivers\peripheral\ctb/cy_ctb.c **** 
 191:Generated_Source\PSoC6\pdl\drivers\peripheral\ctb/cy_ctb.c ****         /* Enum checks for Opamp0 config */
 192:Generated_Source\PSoC6\pdl\drivers\peripheral\ctb/cy_ctb.c ****         CY_ASSERT_L3(CY_CTB_OAPOWER(config->oa1Power));
 191              		.loc 1 192 0 is_stmt 1
 192 00d6 A37B     		ldrb	r3, [r4, #14]
 193 00d8 032B     		cmp	r3, #3
 194 00da 03D9     		bls	.L13
 195              		.loc 1 192 0 is_stmt 0 discriminator 1
 196 00dc C021     		movs	r1, #192
 197 00de 5F48     		ldr	r0, .L38
 198 00e0 FFF7FEFF 		bl	Cy_SysLib_AssertFailed
 199              	.LVL13:
 200              	.L13:
 193:Generated_Source\PSoC6\pdl\drivers\peripheral\ctb/cy_ctb.c ****         CY_ASSERT_L3(CY_CTB_OAMODE(config->oa1Mode));
 201              		.loc 1 193 0 is_stmt 1
 202 00e4 E37B     		ldrb	r3, [r4, #15]
 203 00e6 002B     		cmp	r3, #0
 204 00e8 07D0     		beq	.L14
 205              		.loc 1 193 0 is_stmt 0 discriminator 1
 206 00ea 082B     		cmp	r3, #8
ARM GAS  C:\Users\User\AppData\Local\Temp\ccPcfS0D.s 			page 8


 207 00ec 05D0     		beq	.L14
 208              		.loc 1 193 0 discriminator 2
 209 00ee 102B     		cmp	r3, #16
 210 00f0 03D0     		beq	.L14
 211              		.loc 1 193 0 discriminator 3
 212 00f2 C121     		movs	r1, #193
 213 00f4 5948     		ldr	r0, .L38
 214 00f6 FFF7FEFF 		bl	Cy_SysLib_AssertFailed
 215              	.LVL14:
 216              	.L14:
 194:Generated_Source\PSoC6\pdl\drivers\peripheral\ctb/cy_ctb.c ****         CY_ASSERT_L3(CY_CTB_OAPUMP(config->oa1Pump));
 217              		.loc 1 194 0 is_stmt 1
 218 00fa 238A     		ldrh	r3, [r4, #16]
 219 00fc 002B     		cmp	r3, #0
 220 00fe 07D0     		beq	.L15
 221              		.loc 1 194 0 is_stmt 0 discriminator 1
 222 0100 8022     		movs	r2, #128
 223 0102 1201     		lsls	r2, r2, #4
 224 0104 9342     		cmp	r3, r2
 225 0106 03D0     		beq	.L15
 226              		.loc 1 194 0 discriminator 2
 227 0108 C221     		movs	r1, #194
 228 010a 5448     		ldr	r0, .L38
 229 010c FFF7FEFF 		bl	Cy_SysLib_AssertFailed
 230              	.LVL15:
 231              	.L15:
 195:Generated_Source\PSoC6\pdl\drivers\peripheral\ctb/cy_ctb.c ****         CY_ASSERT_L3(CY_CTB_COMPEDGE(config->oa1CompEdge));
 232              		.loc 1 195 0 is_stmt 1
 233 0110 638A     		ldrh	r3, [r4, #18]
 234 0112 002B     		cmp	r3, #0
 235 0114 0FD0     		beq	.L16
 236              		.loc 1 195 0 is_stmt 0 discriminator 1
 237 0116 8022     		movs	r2, #128
 238 0118 5200     		lsls	r2, r2, #1
 239 011a 9342     		cmp	r3, r2
 240 011c 0BD0     		beq	.L16
 241              		.loc 1 195 0 discriminator 2
 242 011e 0132     		adds	r2, r2, #1
 243 0120 FF32     		adds	r2, r2, #255
 244 0122 9342     		cmp	r3, r2
 245 0124 07D0     		beq	.L16
 246              		.loc 1 195 0 discriminator 3
 247 0126 0132     		adds	r2, r2, #1
 248 0128 FF32     		adds	r2, r2, #255
 249 012a 9342     		cmp	r3, r2
 250 012c 03D0     		beq	.L16
 251              		.loc 1 195 0 discriminator 4
 252 012e C321     		movs	r1, #195
 253 0130 4A48     		ldr	r0, .L38
 254 0132 FFF7FEFF 		bl	Cy_SysLib_AssertFailed
 255              	.LVL16:
 256              	.L16:
 196:Generated_Source\PSoC6\pdl\drivers\peripheral\ctb/cy_ctb.c ****         CY_ASSERT_L3(CY_CTB_COMPLEVEL(config->oa1CompLevel));
 257              		.loc 1 196 0 is_stmt 1
 258 0136 237D     		ldrb	r3, [r4, #20]
 259 0138 002B     		cmp	r3, #0
 260 013a 05D0     		beq	.L17
ARM GAS  C:\Users\User\AppData\Local\Temp\ccPcfS0D.s 			page 9


 261              		.loc 1 196 0 is_stmt 0 discriminator 1
 262 013c 802B     		cmp	r3, #128
 263 013e 03D0     		beq	.L17
 264              		.loc 1 196 0 discriminator 2
 265 0140 C421     		movs	r1, #196
 266 0142 4648     		ldr	r0, .L38
 267 0144 FFF7FEFF 		bl	Cy_SysLib_AssertFailed
 268              	.LVL17:
 269              	.L17:
 197:Generated_Source\PSoC6\pdl\drivers\peripheral\ctb/cy_ctb.c ****         CY_ASSERT_L3(CY_CTB_COMPBYPASS(config->oa1CompBypass));
 270              		.loc 1 197 0 is_stmt 1
 271 0148 637D     		ldrb	r3, [r4, #21]
 272 014a 002B     		cmp	r3, #0
 273 014c 05D0     		beq	.L18
 274              		.loc 1 197 0 is_stmt 0 discriminator 1
 275 014e 402B     		cmp	r3, #64
 276 0150 03D0     		beq	.L18
 277              		.loc 1 197 0 discriminator 2
 278 0152 C521     		movs	r1, #197
 279 0154 4148     		ldr	r0, .L38
 280 0156 FFF7FEFF 		bl	Cy_SysLib_AssertFailed
 281              	.LVL18:
 282              	.L18:
 198:Generated_Source\PSoC6\pdl\drivers\peripheral\ctb/cy_ctb.c ****         CY_ASSERT_L3(CY_CTB_COMPHYST(config->oa1CompHyst));
 283              		.loc 1 198 0 is_stmt 1
 284 015a A37D     		ldrb	r3, [r4, #22]
 285 015c 002B     		cmp	r3, #0
 286 015e 05D0     		beq	.L19
 287              		.loc 1 198 0 is_stmt 0 discriminator 1
 288 0160 202B     		cmp	r3, #32
 289 0162 03D0     		beq	.L19
 290              		.loc 1 198 0 discriminator 2
 291 0164 C621     		movs	r1, #198
 292 0166 3D48     		ldr	r0, .L38
 293 0168 FFF7FEFF 		bl	Cy_SysLib_AssertFailed
 294              	.LVL19:
 295              	.L19:
 199:Generated_Source\PSoC6\pdl\drivers\peripheral\ctb/cy_ctb.c **** 
 200:Generated_Source\PSoC6\pdl\drivers\peripheral\ctb/cy_ctb.c ****         /* Boundary checks for analog routing switch masks */
 201:Generated_Source\PSoC6\pdl\drivers\peripheral\ctb/cy_ctb.c ****         CY_ASSERT_L2(CY_CTB_OA0SWITCH(config->oa0SwitchCtrl));
 296              		.loc 1 201 0 is_stmt 1
 297 016c 3C4B     		ldr	r3, .L38+4
 298 016e E269     		ldr	r2, [r4, #28]
 299 0170 1A42     		tst	r2, r3
 300 0172 03D0     		beq	.L20
 301              		.loc 1 201 0 is_stmt 0 discriminator 1
 302 0174 C921     		movs	r1, #201
 303 0176 3948     		ldr	r0, .L38
 304 0178 FFF7FEFF 		bl	Cy_SysLib_AssertFailed
 305              	.LVL20:
 306              	.L20:
 202:Generated_Source\PSoC6\pdl\drivers\peripheral\ctb/cy_ctb.c ****         CY_ASSERT_L2(CY_CTB_OA1SWITCH(config->oa1SwitchCtrl));
 307              		.loc 1 202 0 is_stmt 1
 308 017c 394B     		ldr	r3, .L38+8
 309 017e 226A     		ldr	r2, [r4, #32]
 310 0180 1A42     		tst	r2, r3
 311 0182 03D0     		beq	.L21
ARM GAS  C:\Users\User\AppData\Local\Temp\ccPcfS0D.s 			page 10


 312              		.loc 1 202 0 is_stmt 0 discriminator 1
 313 0184 CA21     		movs	r1, #202
 314 0186 3548     		ldr	r0, .L38
 315 0188 FFF7FEFF 		bl	Cy_SysLib_AssertFailed
 316              	.LVL21:
 317              	.L21:
 203:Generated_Source\PSoC6\pdl\drivers\peripheral\ctb/cy_ctb.c ****         CY_ASSERT_L2(CY_CTB_CTDSWITCH(config->ctdSwitchCtrl));
 318              		.loc 1 203 0 is_stmt 1
 319 018c 364B     		ldr	r3, .L38+12
 320 018e 626A     		ldr	r2, [r4, #36]
 321 0190 1A42     		tst	r2, r3
 322 0192 03D0     		beq	.L22
 323              		.loc 1 203 0 is_stmt 0 discriminator 1
 324 0194 CB21     		movs	r1, #203
 325 0196 3148     		ldr	r0, .L38
 326 0198 FFF7FEFF 		bl	Cy_SysLib_AssertFailed
 327              	.LVL22:
 328              	.L22:
 204:Generated_Source\PSoC6\pdl\drivers\peripheral\ctb/cy_ctb.c **** 
 205:Generated_Source\PSoC6\pdl\drivers\peripheral\ctb/cy_ctb.c ****         CTBM_CTB_CTRL(base) = (uint32_t) config->deepSleep;
 329              		.loc 1 205 0 is_stmt 1
 330 019c 2368     		ldr	r3, [r4]
 331 019e 2B60     		str	r3, [r5]
 206:Generated_Source\PSoC6\pdl\drivers\peripheral\ctb/cy_ctb.c ****         CTBM_OA_RES0_CTRL(base) = (uint32_t) config->oa0Power \
 332              		.loc 1 206 0
 333 01a0 2379     		ldrb	r3, [r4, #4]
 207:Generated_Source\PSoC6\pdl\drivers\peripheral\ctb/cy_ctb.c ****                              | (uint32_t) config->oa0Mode \
 334              		.loc 1 207 0
 335 01a2 6179     		ldrb	r1, [r4, #5]
 336 01a4 0B43     		orrs	r3, r1
 208:Generated_Source\PSoC6\pdl\drivers\peripheral\ctb/cy_ctb.c ****                              | (uint32_t) config->oa0Pump \
 337              		.loc 1 208 0
 338 01a6 E288     		ldrh	r2, [r4, #6]
 339 01a8 1343     		orrs	r3, r2
 209:Generated_Source\PSoC6\pdl\drivers\peripheral\ctb/cy_ctb.c ****                              | (uint32_t) config->oa0CompEdge \
 340              		.loc 1 209 0
 341 01aa 2289     		ldrh	r2, [r4, #8]
 342 01ac 1343     		orrs	r3, r2
 210:Generated_Source\PSoC6\pdl\drivers\peripheral\ctb/cy_ctb.c ****                              | (uint32_t) config->oa0CompLevel \
 343              		.loc 1 210 0
 344 01ae A27A     		ldrb	r2, [r4, #10]
 345 01b0 1343     		orrs	r3, r2
 211:Generated_Source\PSoC6\pdl\drivers\peripheral\ctb/cy_ctb.c ****                              | (uint32_t) config->oa0CompBypass \
 346              		.loc 1 211 0
 347 01b2 E27A     		ldrb	r2, [r4, #11]
 348 01b4 1343     		orrs	r3, r2
 212:Generated_Source\PSoC6\pdl\drivers\peripheral\ctb/cy_ctb.c ****                              | (uint32_t) config->oa0CompHyst \
 349              		.loc 1 212 0
 350 01b6 227B     		ldrb	r2, [r4, #12]
 351 01b8 1343     		orrs	r3, r2
 213:Generated_Source\PSoC6\pdl\drivers\peripheral\ctb/cy_ctb.c ****                              | ((CY_CTB_MODE_OPAMP1X == config->oa0Mode) ? CY_CTB_OPAMP_BOOST_ENABL
 352              		.loc 1 213 0
 353 01ba 0029     		cmp	r1, #0
 354 01bc 02D1     		bne	.L31
 355 01be 8022     		movs	r2, #128
 356 01c0 5201     		lsls	r2, r2, #5
 357 01c2 00E0     		b	.L23
ARM GAS  C:\Users\User\AppData\Local\Temp\ccPcfS0D.s 			page 11


 358              	.L31:
 359 01c4 0022     		movs	r2, #0
 360              	.L23:
 361              		.loc 1 213 0 is_stmt 0 discriminator 4
 362 01c6 1343     		orrs	r3, r2
 206:Generated_Source\PSoC6\pdl\drivers\peripheral\ctb/cy_ctb.c ****                              | (uint32_t) config->oa0Mode \
 363              		.loc 1 206 0 is_stmt 1 discriminator 4
 364 01c8 6B60     		str	r3, [r5, #4]
 214:Generated_Source\PSoC6\pdl\drivers\peripheral\ctb/cy_ctb.c **** 
 215:Generated_Source\PSoC6\pdl\drivers\peripheral\ctb/cy_ctb.c ****         CTBM_OA_RES1_CTRL(base) = (uint32_t) config->oa1Power \
 365              		.loc 1 215 0 discriminator 4
 366 01ca A37B     		ldrb	r3, [r4, #14]
 216:Generated_Source\PSoC6\pdl\drivers\peripheral\ctb/cy_ctb.c ****                              | (uint32_t) config->oa1Mode \
 367              		.loc 1 216 0 discriminator 4
 368 01cc E17B     		ldrb	r1, [r4, #15]
 369 01ce 0B43     		orrs	r3, r1
 217:Generated_Source\PSoC6\pdl\drivers\peripheral\ctb/cy_ctb.c ****                              | (uint32_t) config->oa1Pump \
 370              		.loc 1 217 0 discriminator 4
 371 01d0 228A     		ldrh	r2, [r4, #16]
 372 01d2 1343     		orrs	r3, r2
 218:Generated_Source\PSoC6\pdl\drivers\peripheral\ctb/cy_ctb.c ****                              | (uint32_t) config->oa1CompEdge \
 373              		.loc 1 218 0 discriminator 4
 374 01d4 628A     		ldrh	r2, [r4, #18]
 375 01d6 1343     		orrs	r3, r2
 219:Generated_Source\PSoC6\pdl\drivers\peripheral\ctb/cy_ctb.c ****                              | (uint32_t) config->oa1CompLevel \
 376              		.loc 1 219 0 discriminator 4
 377 01d8 227D     		ldrb	r2, [r4, #20]
 378 01da 1343     		orrs	r3, r2
 220:Generated_Source\PSoC6\pdl\drivers\peripheral\ctb/cy_ctb.c ****                              | (uint32_t) config->oa1CompBypass \
 379              		.loc 1 220 0 discriminator 4
 380 01dc 627D     		ldrb	r2, [r4, #21]
 381 01de 1343     		orrs	r3, r2
 221:Generated_Source\PSoC6\pdl\drivers\peripheral\ctb/cy_ctb.c ****                              | (uint32_t) config->oa1CompHyst \
 382              		.loc 1 221 0 discriminator 4
 383 01e0 A27D     		ldrb	r2, [r4, #22]
 384 01e2 1343     		orrs	r3, r2
 222:Generated_Source\PSoC6\pdl\drivers\peripheral\ctb/cy_ctb.c ****                              | ((CY_CTB_MODE_OPAMP1X == config->oa1Mode) ? CY_CTB_OPAMP_BOOST_ENABL
 385              		.loc 1 222 0 discriminator 4
 386 01e4 0029     		cmp	r1, #0
 387 01e6 02D1     		bne	.L32
 388              		.loc 1 222 0 is_stmt 0
 389 01e8 8022     		movs	r2, #128
 390 01ea 5201     		lsls	r2, r2, #5
 391 01ec 00E0     		b	.L24
 392              	.L32:
 393 01ee 0022     		movs	r2, #0
 394              	.L24:
 395              		.loc 1 222 0 discriminator 4
 396 01f0 1343     		orrs	r3, r2
 215:Generated_Source\PSoC6\pdl\drivers\peripheral\ctb/cy_ctb.c ****                              | (uint32_t) config->oa1Mode \
 397              		.loc 1 215 0 is_stmt 1 discriminator 4
 398 01f2 AB60     		str	r3, [r5, #8]
 223:Generated_Source\PSoC6\pdl\drivers\peripheral\ctb/cy_ctb.c **** 
 224:Generated_Source\PSoC6\pdl\drivers\peripheral\ctb/cy_ctb.c ****         CTBM_INTR_MASK(base) = (config->oa0CompIntrEn ? CTBM_INTR_MASK_COMP0_MASK_Msk : CY_CTB_DEIN
 399              		.loc 1 224 0 discriminator 4
 400 01f4 637B     		ldrb	r3, [r4, #13]
 401 01f6 002B     		cmp	r3, #0
ARM GAS  C:\Users\User\AppData\Local\Temp\ccPcfS0D.s 			page 12


 402 01f8 01D0     		beq	.L33
 403              		.loc 1 224 0 is_stmt 0
 404 01fa 0122     		movs	r2, #1
 405 01fc 00E0     		b	.L25
 406              	.L33:
 407 01fe 0022     		movs	r2, #0
 408              	.L25:
 225:Generated_Source\PSoC6\pdl\drivers\peripheral\ctb/cy_ctb.c ****                           | (config->oa1CompIntrEn ? CTBM_INTR_MASK_COMP1_MASK_Msk : CY_CTB_DEINIT)
 409              		.loc 1 225 0 is_stmt 1
 410 0200 E37D     		ldrb	r3, [r4, #23]
 411 0202 002B     		cmp	r3, #0
 412 0204 01D0     		beq	.L34
 413 0206 0223     		movs	r3, #2
 414 0208 00E0     		b	.L26
 415              	.L34:
 416 020a 0023     		movs	r3, #0
 417              	.L26:
 418              		.loc 1 225 0 is_stmt 0 discriminator 4
 419 020c 1343     		orrs	r3, r2
 224:Generated_Source\PSoC6\pdl\drivers\peripheral\ctb/cy_ctb.c ****                           | (config->oa1CompIntrEn ? CTBM_INTR_MASK_COMP1_MASK_Msk : CY_CTB_DEINIT)
 420              		.loc 1 224 0 is_stmt 1 discriminator 4
 421 020e AB62     		str	r3, [r5, #40]
 226:Generated_Source\PSoC6\pdl\drivers\peripheral\ctb/cy_ctb.c ****         CTBM_INTR(base) = (CTBM_INTR_MASK_COMP0_MASK_Msk | CTBM_INTR_MASK_COMP1_MASK_Msk);
 422              		.loc 1 226 0 discriminator 4
 423 0210 0323     		movs	r3, #3
 424 0212 2B62     		str	r3, [r5, #32]
 227:Generated_Source\PSoC6\pdl\drivers\peripheral\ctb/cy_ctb.c ****         
 228:Generated_Source\PSoC6\pdl\drivers\peripheral\ctb/cy_ctb.c ****         CTBM_OA0_COMP_TRIM(base) = (uint32_t) ((config->oa0Mode == CY_CTB_MODE_OPAMP10X) ? CY_CTB_O
 425              		.loc 1 228 0 discriminator 4
 426 0214 6379     		ldrb	r3, [r4, #5]
 427 0216 082B     		cmp	r3, #8
 428 0218 01D1     		bne	.L35
 429              		.loc 1 228 0 is_stmt 0
 430 021a 0322     		movs	r2, #3
 431 021c 00E0     		b	.L27
 432              	.L35:
 433 021e 0122     		movs	r2, #1
 434              	.L27:
 435              		.loc 1 228 0 discriminator 4
 436 0220 124B     		ldr	r3, .L38+16
 437 0222 EA50     		str	r2, [r5, r3]
 229:Generated_Source\PSoC6\pdl\drivers\peripheral\ctb/cy_ctb.c ****         CTBM_OA1_COMP_TRIM(base) = (uint32_t) ((config->oa1Mode == CY_CTB_MODE_OPAMP10X) ? CY_CTB_O
 438              		.loc 1 229 0 is_stmt 1 discriminator 4
 439 0224 E37B     		ldrb	r3, [r4, #15]
 440 0226 082B     		cmp	r3, #8
 441 0228 01D1     		bne	.L36
 442              		.loc 1 229 0 is_stmt 0
 443 022a 0322     		movs	r2, #3
 444 022c 00E0     		b	.L28
 445              	.L36:
 446 022e 0122     		movs	r2, #1
 447              	.L28:
 448              		.loc 1 229 0 discriminator 4
 449 0230 0F4B     		ldr	r3, .L38+20
 450 0232 EA50     		str	r2, [r5, r3]
 230:Generated_Source\PSoC6\pdl\drivers\peripheral\ctb/cy_ctb.c ****         
 231:Generated_Source\PSoC6\pdl\drivers\peripheral\ctb/cy_ctb.c ****         if (config->configRouting)
ARM GAS  C:\Users\User\AppData\Local\Temp\ccPcfS0D.s 			page 13


 451              		.loc 1 231 0 is_stmt 1 discriminator 4
 452 0234 237E     		ldrb	r3, [r4, #24]
 453 0236 002B     		cmp	r3, #0
 454 0238 0ED0     		beq	.L37
 232:Generated_Source\PSoC6\pdl\drivers\peripheral\ctb/cy_ctb.c ****         {
 233:Generated_Source\PSoC6\pdl\drivers\peripheral\ctb/cy_ctb.c ****             CTBM_OA0_SW(base) = config->oa0SwitchCtrl;
 455              		.loc 1 233 0
 456 023a 8023     		movs	r3, #128
 457 023c E269     		ldr	r2, [r4, #28]
 458 023e EA50     		str	r2, [r5, r3]
 234:Generated_Source\PSoC6\pdl\drivers\peripheral\ctb/cy_ctb.c ****             CTBM_OA1_SW(base) = config->oa1SwitchCtrl;
 459              		.loc 1 234 0
 460 0240 0833     		adds	r3, r3, #8
 461 0242 226A     		ldr	r2, [r4, #32]
 462 0244 EA50     		str	r2, [r5, r3]
 235:Generated_Source\PSoC6\pdl\drivers\peripheral\ctb/cy_ctb.c ****             CTBM_CTD_SW(base) = config->ctdSwitchCtrl;
 463              		.loc 1 235 0
 464 0246 626A     		ldr	r2, [r4, #36]
 465 0248 1833     		adds	r3, r3, #24
 466 024a EA50     		str	r2, [r5, r3]
 236:Generated_Source\PSoC6\pdl\drivers\peripheral\ctb/cy_ctb.c ****         }
 237:Generated_Source\PSoC6\pdl\drivers\peripheral\ctb/cy_ctb.c **** 
 238:Generated_Source\PSoC6\pdl\drivers\peripheral\ctb/cy_ctb.c ****         result = CY_CTB_SUCCESS;
 467              		.loc 1 238 0
 468 024c 0020     		movs	r0, #0
 469 024e 04E0     		b	.L4
 470              	.L29:
 176:Generated_Source\PSoC6\pdl\drivers\peripheral\ctb/cy_ctb.c ****     }
 471              		.loc 1 176 0
 472 0250 0848     		ldr	r0, .L38+24
 473 0252 02E0     		b	.L4
 474              	.L30:
 475 0254 0748     		ldr	r0, .L38+24
 476 0256 00E0     		b	.L4
 477              	.L37:
 478              		.loc 1 238 0
 479 0258 0020     		movs	r0, #0
 480              	.L4:
 481              	.LVL23:
 239:Generated_Source\PSoC6\pdl\drivers\peripheral\ctb/cy_ctb.c ****     }
 240:Generated_Source\PSoC6\pdl\drivers\peripheral\ctb/cy_ctb.c **** 
 241:Generated_Source\PSoC6\pdl\drivers\peripheral\ctb/cy_ctb.c ****     return result;
 242:Generated_Source\PSoC6\pdl\drivers\peripheral\ctb/cy_ctb.c **** }
 482              		.loc 1 242 0
 483              		@ sp needed
 484              	.LVL24:
 485              	.LVL25:
 486 025a 70BD     		pop	{r4, r5, r6, pc}
 487              	.L39:
 488              		.align	2
 489              	.L38:
 490 025c 00000000 		.word	.LC0
 491 0260 F2BEDBFF 		.word	-2375950
 492 0264 6CBED3FF 		.word	-2900372
 493 0268 CD08FFFF 		.word	-63283
 494 026c 080F0000 		.word	3848
 495 0270 140F0000 		.word	3860
ARM GAS  C:\Users\User\AppData\Local\Temp\ccPcfS0D.s 			page 14


 496 0274 01002E00 		.word	3014657
 497              		.cfi_endproc
 498              	.LFE103:
 499              		.size	Cy_CTB_Init, .-Cy_CTB_Init
 500              		.section	.text.Cy_CTB_OpampInit,"ax",%progbits
 501              		.align	2
 502              		.global	Cy_CTB_OpampInit
 503              		.code	16
 504              		.thumb_func
 505              		.type	Cy_CTB_OpampInit, %function
 506              	Cy_CTB_OpampInit:
 507              	.LFB104:
 243:Generated_Source\PSoC6\pdl\drivers\peripheral\ctb/cy_ctb.c **** 
 244:Generated_Source\PSoC6\pdl\drivers\peripheral\ctb/cy_ctb.c **** /*******************************************************************************
 245:Generated_Source\PSoC6\pdl\drivers\peripheral\ctb/cy_ctb.c **** * Function Name: Cy_CTB_OpampInit
 246:Generated_Source\PSoC6\pdl\drivers\peripheral\ctb/cy_ctb.c **** ****************************************************************************//**
 247:Generated_Source\PSoC6\pdl\drivers\peripheral\ctb/cy_ctb.c **** *
 248:Generated_Source\PSoC6\pdl\drivers\peripheral\ctb/cy_ctb.c **** * Initialize each opamp separately without impacting analog routing.
 249:Generated_Source\PSoC6\pdl\drivers\peripheral\ctb/cy_ctb.c **** * Intended for use by automatic analog routing and configuration tools
 250:Generated_Source\PSoC6\pdl\drivers\peripheral\ctb/cy_ctb.c **** * to configure each opamp without having to integrate the settings with
 251:Generated_Source\PSoC6\pdl\drivers\peripheral\ctb/cy_ctb.c **** * those of the other opamp first.
 252:Generated_Source\PSoC6\pdl\drivers\peripheral\ctb/cy_ctb.c **** *
 253:Generated_Source\PSoC6\pdl\drivers\peripheral\ctb/cy_ctb.c **** * Can also be used to configure both opamps to have the same settings.
 254:Generated_Source\PSoC6\pdl\drivers\peripheral\ctb/cy_ctb.c **** *
 255:Generated_Source\PSoC6\pdl\drivers\peripheral\ctb/cy_ctb.c **** * \param base
 256:Generated_Source\PSoC6\pdl\drivers\peripheral\ctb/cy_ctb.c **** * Pointer to structure describing registers
 257:Generated_Source\PSoC6\pdl\drivers\peripheral\ctb/cy_ctb.c **** *
 258:Generated_Source\PSoC6\pdl\drivers\peripheral\ctb/cy_ctb.c **** * \param opampNum
 259:Generated_Source\PSoC6\pdl\drivers\peripheral\ctb/cy_ctb.c **** * \ref CY_CTB_OPAMP_0, \ref CY_CTB_OPAMP_1, or \ref CY_CTB_OPAMP_BOTH
 260:Generated_Source\PSoC6\pdl\drivers\peripheral\ctb/cy_ctb.c **** *
 261:Generated_Source\PSoC6\pdl\drivers\peripheral\ctb/cy_ctb.c **** * \param config
 262:Generated_Source\PSoC6\pdl\drivers\peripheral\ctb/cy_ctb.c **** * Pointer to structure containing configuration data
 263:Generated_Source\PSoC6\pdl\drivers\peripheral\ctb/cy_ctb.c **** *
 264:Generated_Source\PSoC6\pdl\drivers\peripheral\ctb/cy_ctb.c **** * \return
 265:Generated_Source\PSoC6\pdl\drivers\peripheral\ctb/cy_ctb.c **** * Status of initialization, \ref CY_CTB_SUCCESS or \ref CY_CTB_BAD_PARAM
 266:Generated_Source\PSoC6\pdl\drivers\peripheral\ctb/cy_ctb.c **** *
 267:Generated_Source\PSoC6\pdl\drivers\peripheral\ctb/cy_ctb.c **** * \funcusage
 268:Generated_Source\PSoC6\pdl\drivers\peripheral\ctb/cy_ctb.c **** *
 269:Generated_Source\PSoC6\pdl\drivers\peripheral\ctb/cy_ctb.c **** * \snippet ctb_sut_01.cydsn/main_cm0p.c SNIPPET_OPAMPINIT
 270:Generated_Source\PSoC6\pdl\drivers\peripheral\ctb/cy_ctb.c **** *
 271:Generated_Source\PSoC6\pdl\drivers\peripheral\ctb/cy_ctb.c **** *******************************************************************************/
 272:Generated_Source\PSoC6\pdl\drivers\peripheral\ctb/cy_ctb.c **** cy_en_ctb_status_t Cy_CTB_OpampInit(CTBM_Type *base, cy_en_ctb_opamp_sel_t opampNum, const cy_stc_c
 273:Generated_Source\PSoC6\pdl\drivers\peripheral\ctb/cy_ctb.c **** {
 508              		.loc 1 273 0
 509              		.cfi_startproc
 510              		@ args = 0, pretend = 0, frame = 0
 511              		@ frame_needed = 0, uses_anonymous_args = 0
 512              	.LVL26:
 513 0000 70B5     		push	{r4, r5, r6, lr}
 514              		.cfi_def_cfa_offset 16
 515              		.cfi_offset 4, -16
 516              		.cfi_offset 5, -12
 517              		.cfi_offset 6, -8
 518              		.cfi_offset 14, -4
 519 0002 0500     		movs	r5, r0
 520 0004 0E00     		movs	r6, r1
 521 0006 1400     		movs	r4, r2
ARM GAS  C:\Users\User\AppData\Local\Temp\ccPcfS0D.s 			page 15


 274:Generated_Source\PSoC6\pdl\drivers\peripheral\ctb/cy_ctb.c ****     CY_ASSERT_L1(NULL != base);
 522              		.loc 1 274 0
 523 0008 0028     		cmp	r0, #0
 524 000a 04D1     		bne	.L41
 525              		.loc 1 274 0 is_stmt 0 discriminator 1
 526 000c 8921     		movs	r1, #137
 527              	.LVL27:
 528 000e 4900     		lsls	r1, r1, #1
 529 0010 6448     		ldr	r0, .L68
 530              	.LVL28:
 531 0012 FFF7FEFF 		bl	Cy_SysLib_AssertFailed
 532              	.LVL29:
 533              	.L41:
 275:Generated_Source\PSoC6\pdl\drivers\peripheral\ctb/cy_ctb.c ****     CY_ASSERT_L1(NULL != config);
 534              		.loc 1 275 0 is_stmt 1
 535 0016 002C     		cmp	r4, #0
 536 0018 04D1     		bne	.L42
 537              		.loc 1 275 0 is_stmt 0 discriminator 1
 538 001a 1421     		movs	r1, #20
 539 001c FF31     		adds	r1, r1, #255
 540 001e 6148     		ldr	r0, .L68
 541 0020 FFF7FEFF 		bl	Cy_SysLib_AssertFailed
 542              	.LVL30:
 543              	.L42:
 276:Generated_Source\PSoC6\pdl\drivers\peripheral\ctb/cy_ctb.c **** 
 277:Generated_Source\PSoC6\pdl\drivers\peripheral\ctb/cy_ctb.c ****     cy_en_ctb_status_t result;
 278:Generated_Source\PSoC6\pdl\drivers\peripheral\ctb/cy_ctb.c ****     uint32_t oaResCtrl;
 279:Generated_Source\PSoC6\pdl\drivers\peripheral\ctb/cy_ctb.c **** 
 280:Generated_Source\PSoC6\pdl\drivers\peripheral\ctb/cy_ctb.c ****     if ((NULL == base) || (NULL == config))
 544              		.loc 1 280 0 is_stmt 1
 545 0024 002D     		cmp	r5, #0
 546 0026 00D1     		bne	.LCB471
 547 0028 B5E0     		b	.L60	@long jump
 548              	.LCB471:
 549              		.loc 1 280 0 is_stmt 0 discriminator 1
 550 002a 002C     		cmp	r4, #0
 551 002c 00D1     		bne	.LCB473
 552 002e B4E0     		b	.L61	@long jump
 553              	.LCB473:
 281:Generated_Source\PSoC6\pdl\drivers\peripheral\ctb/cy_ctb.c ****     {
 282:Generated_Source\PSoC6\pdl\drivers\peripheral\ctb/cy_ctb.c ****        result = CY_CTB_BAD_PARAM;
 283:Generated_Source\PSoC6\pdl\drivers\peripheral\ctb/cy_ctb.c ****     }
 284:Generated_Source\PSoC6\pdl\drivers\peripheral\ctb/cy_ctb.c ****     else
 285:Generated_Source\PSoC6\pdl\drivers\peripheral\ctb/cy_ctb.c ****     {
 286:Generated_Source\PSoC6\pdl\drivers\peripheral\ctb/cy_ctb.c ****         CY_ASSERT_L3(CY_CTB_OPAMPNUM(opampNum));
 554              		.loc 1 286 0 is_stmt 1
 555 0030 731E     		subs	r3, r6, #1
 556 0032 DBB2     		uxtb	r3, r3
 557 0034 022B     		cmp	r3, #2
 558 0036 04D9     		bls	.L44
 559              		.loc 1 286 0 is_stmt 0 discriminator 1
 560 0038 8F21     		movs	r1, #143
 561 003a 4900     		lsls	r1, r1, #1
 562 003c 5948     		ldr	r0, .L68
 563 003e FFF7FEFF 		bl	Cy_SysLib_AssertFailed
 564              	.LVL31:
 565              	.L44:
ARM GAS  C:\Users\User\AppData\Local\Temp\ccPcfS0D.s 			page 16


 287:Generated_Source\PSoC6\pdl\drivers\peripheral\ctb/cy_ctb.c ****         CY_ASSERT_L3(CY_CTB_DEEPSLEEP(config->deepSleep));
 566              		.loc 1 287 0 is_stmt 1
 567 0042 2368     		ldr	r3, [r4]
 568 0044 002B     		cmp	r3, #0
 569 0046 08D0     		beq	.L45
 570              		.loc 1 287 0 is_stmt 0 discriminator 1
 571 0048 8022     		movs	r2, #128
 572 004a D205     		lsls	r2, r2, #23
 573 004c 9342     		cmp	r3, r2
 574 004e 04D0     		beq	.L45
 575              		.loc 1 287 0 discriminator 2
 576 0050 2021     		movs	r1, #32
 577 0052 FF31     		adds	r1, r1, #255
 578 0054 5348     		ldr	r0, .L68
 579 0056 FFF7FEFF 		bl	Cy_SysLib_AssertFailed
 580              	.LVL32:
 581              	.L45:
 288:Generated_Source\PSoC6\pdl\drivers\peripheral\ctb/cy_ctb.c ****         CY_ASSERT_L3(CY_CTB_OAPOWER(config->oaPower));
 582              		.loc 1 288 0 is_stmt 1
 583 005a 2379     		ldrb	r3, [r4, #4]
 584 005c 032B     		cmp	r3, #3
 585 005e 04D9     		bls	.L46
 586              		.loc 1 288 0 is_stmt 0 discriminator 1
 587 0060 9021     		movs	r1, #144
 588 0062 4900     		lsls	r1, r1, #1
 589 0064 4F48     		ldr	r0, .L68
 590 0066 FFF7FEFF 		bl	Cy_SysLib_AssertFailed
 591              	.LVL33:
 592              	.L46:
 289:Generated_Source\PSoC6\pdl\drivers\peripheral\ctb/cy_ctb.c ****         CY_ASSERT_L3(CY_CTB_OAMODE(config->oaMode));
 593              		.loc 1 289 0 is_stmt 1
 594 006a 6379     		ldrb	r3, [r4, #5]
 595 006c 002B     		cmp	r3, #0
 596 006e 08D0     		beq	.L47
 597              		.loc 1 289 0 is_stmt 0 discriminator 1
 598 0070 082B     		cmp	r3, #8
 599 0072 06D0     		beq	.L47
 600              		.loc 1 289 0 discriminator 2
 601 0074 102B     		cmp	r3, #16
 602 0076 04D0     		beq	.L47
 603              		.loc 1 289 0 discriminator 3
 604 0078 2221     		movs	r1, #34
 605 007a FF31     		adds	r1, r1, #255
 606 007c 4948     		ldr	r0, .L68
 607 007e FFF7FEFF 		bl	Cy_SysLib_AssertFailed
 608              	.LVL34:
 609              	.L47:
 290:Generated_Source\PSoC6\pdl\drivers\peripheral\ctb/cy_ctb.c ****         CY_ASSERT_L3(CY_CTB_OAPUMP(config->oaPump));
 610              		.loc 1 290 0 is_stmt 1
 611 0082 E388     		ldrh	r3, [r4, #6]
 612 0084 002B     		cmp	r3, #0
 613 0086 08D0     		beq	.L48
 614              		.loc 1 290 0 is_stmt 0 discriminator 1
 615 0088 8022     		movs	r2, #128
 616 008a 1201     		lsls	r2, r2, #4
 617 008c 9342     		cmp	r3, r2
 618 008e 04D0     		beq	.L48
ARM GAS  C:\Users\User\AppData\Local\Temp\ccPcfS0D.s 			page 17


 619              		.loc 1 290 0 discriminator 2
 620 0090 9121     		movs	r1, #145
 621 0092 4900     		lsls	r1, r1, #1
 622 0094 4348     		ldr	r0, .L68
 623 0096 FFF7FEFF 		bl	Cy_SysLib_AssertFailed
 624              	.LVL35:
 625              	.L48:
 291:Generated_Source\PSoC6\pdl\drivers\peripheral\ctb/cy_ctb.c ****         CY_ASSERT_L3(CY_CTB_COMPEDGE(config->oaCompEdge));
 626              		.loc 1 291 0 is_stmt 1
 627 009a 2389     		ldrh	r3, [r4, #8]
 628 009c 002B     		cmp	r3, #0
 629 009e 10D0     		beq	.L49
 630              		.loc 1 291 0 is_stmt 0 discriminator 1
 631 00a0 8022     		movs	r2, #128
 632 00a2 5200     		lsls	r2, r2, #1
 633 00a4 9342     		cmp	r3, r2
 634 00a6 0CD0     		beq	.L49
 635              		.loc 1 291 0 discriminator 2
 636 00a8 0132     		adds	r2, r2, #1
 637 00aa FF32     		adds	r2, r2, #255
 638 00ac 9342     		cmp	r3, r2
 639 00ae 08D0     		beq	.L49
 640              		.loc 1 291 0 discriminator 3
 641 00b0 0132     		adds	r2, r2, #1
 642 00b2 FF32     		adds	r2, r2, #255
 643 00b4 9342     		cmp	r3, r2
 644 00b6 04D0     		beq	.L49
 645              		.loc 1 291 0 discriminator 4
 646 00b8 2421     		movs	r1, #36
 647 00ba FF31     		adds	r1, r1, #255
 648 00bc 3948     		ldr	r0, .L68
 649 00be FFF7FEFF 		bl	Cy_SysLib_AssertFailed
 650              	.LVL36:
 651              	.L49:
 292:Generated_Source\PSoC6\pdl\drivers\peripheral\ctb/cy_ctb.c ****         CY_ASSERT_L3(CY_CTB_COMPLEVEL(config->oaCompLevel));
 652              		.loc 1 292 0 is_stmt 1
 653 00c2 A37A     		ldrb	r3, [r4, #10]
 654 00c4 002B     		cmp	r3, #0
 655 00c6 06D0     		beq	.L50
 656              		.loc 1 292 0 is_stmt 0 discriminator 1
 657 00c8 802B     		cmp	r3, #128
 658 00ca 04D0     		beq	.L50
 659              		.loc 1 292 0 discriminator 2
 660 00cc 9221     		movs	r1, #146
 661 00ce 4900     		lsls	r1, r1, #1
 662 00d0 3448     		ldr	r0, .L68
 663 00d2 FFF7FEFF 		bl	Cy_SysLib_AssertFailed
 664              	.LVL37:
 665              	.L50:
 293:Generated_Source\PSoC6\pdl\drivers\peripheral\ctb/cy_ctb.c ****         CY_ASSERT_L3(CY_CTB_COMPBYPASS(config->oaCompBypass));
 666              		.loc 1 293 0 is_stmt 1
 667 00d6 E37A     		ldrb	r3, [r4, #11]
 668 00d8 002B     		cmp	r3, #0
 669 00da 06D0     		beq	.L51
 670              		.loc 1 293 0 is_stmt 0 discriminator 1
 671 00dc 402B     		cmp	r3, #64
 672 00de 04D0     		beq	.L51
ARM GAS  C:\Users\User\AppData\Local\Temp\ccPcfS0D.s 			page 18


 673              		.loc 1 293 0 discriminator 2
 674 00e0 2621     		movs	r1, #38
 675 00e2 FF31     		adds	r1, r1, #255
 676 00e4 2F48     		ldr	r0, .L68
 677 00e6 FFF7FEFF 		bl	Cy_SysLib_AssertFailed
 678              	.LVL38:
 679              	.L51:
 294:Generated_Source\PSoC6\pdl\drivers\peripheral\ctb/cy_ctb.c ****         CY_ASSERT_L3(CY_CTB_COMPHYST(config->oaCompHyst));
 680              		.loc 1 294 0 is_stmt 1
 681 00ea 237B     		ldrb	r3, [r4, #12]
 682 00ec 002B     		cmp	r3, #0
 683 00ee 06D0     		beq	.L52
 684              		.loc 1 294 0 is_stmt 0 discriminator 1
 685 00f0 202B     		cmp	r3, #32
 686 00f2 04D0     		beq	.L52
 687              		.loc 1 294 0 discriminator 2
 688 00f4 9321     		movs	r1, #147
 689 00f6 4900     		lsls	r1, r1, #1
 690 00f8 2A48     		ldr	r0, .L68
 691 00fa FFF7FEFF 		bl	Cy_SysLib_AssertFailed
 692              	.LVL39:
 693              	.L52:
 295:Generated_Source\PSoC6\pdl\drivers\peripheral\ctb/cy_ctb.c **** 
 296:Generated_Source\PSoC6\pdl\drivers\peripheral\ctb/cy_ctb.c ****         CTBM_CTB_CTRL(base) = (uint32_t) config->deepSleep;
 694              		.loc 1 296 0 is_stmt 1
 695 00fe 2368     		ldr	r3, [r4]
 696 0100 2B60     		str	r3, [r5]
 297:Generated_Source\PSoC6\pdl\drivers\peripheral\ctb/cy_ctb.c **** 
 298:Generated_Source\PSoC6\pdl\drivers\peripheral\ctb/cy_ctb.c ****         /* The two opamp control registers are symmetrical */
 299:Generated_Source\PSoC6\pdl\drivers\peripheral\ctb/cy_ctb.c ****         oaResCtrl = (uint32_t) config->oaPower \
 697              		.loc 1 299 0
 698 0102 2379     		ldrb	r3, [r4, #4]
 300:Generated_Source\PSoC6\pdl\drivers\peripheral\ctb/cy_ctb.c ****                     | (uint32_t) config->oaMode \
 699              		.loc 1 300 0
 700 0104 6179     		ldrb	r1, [r4, #5]
 701 0106 0B43     		orrs	r3, r1
 301:Generated_Source\PSoC6\pdl\drivers\peripheral\ctb/cy_ctb.c ****                     | (uint32_t) config->oaPump \
 702              		.loc 1 301 0
 703 0108 E288     		ldrh	r2, [r4, #6]
 704 010a 1343     		orrs	r3, r2
 302:Generated_Source\PSoC6\pdl\drivers\peripheral\ctb/cy_ctb.c ****                     | (uint32_t) config->oaCompEdge \
 705              		.loc 1 302 0
 706 010c 2289     		ldrh	r2, [r4, #8]
 707 010e 1343     		orrs	r3, r2
 303:Generated_Source\PSoC6\pdl\drivers\peripheral\ctb/cy_ctb.c ****                     | (uint32_t) config->oaCompLevel \
 708              		.loc 1 303 0
 709 0110 A27A     		ldrb	r2, [r4, #10]
 710 0112 1343     		orrs	r3, r2
 304:Generated_Source\PSoC6\pdl\drivers\peripheral\ctb/cy_ctb.c ****                     | (uint32_t) config->oaCompBypass \
 711              		.loc 1 304 0
 712 0114 E27A     		ldrb	r2, [r4, #11]
 713 0116 1343     		orrs	r3, r2
 305:Generated_Source\PSoC6\pdl\drivers\peripheral\ctb/cy_ctb.c ****                     | (uint32_t) config->oaCompHyst \
 714              		.loc 1 305 0
 715 0118 227B     		ldrb	r2, [r4, #12]
 716 011a 1343     		orrs	r3, r2
 306:Generated_Source\PSoC6\pdl\drivers\peripheral\ctb/cy_ctb.c ****                     | ((CY_CTB_MODE_OPAMP1X == config->oaMode) ? CY_CTB_OPAMP_BOOST_ENABLE : CY_CTB
ARM GAS  C:\Users\User\AppData\Local\Temp\ccPcfS0D.s 			page 19


 717              		.loc 1 306 0
 718 011c 0029     		cmp	r1, #0
 719 011e 02D1     		bne	.L62
 720 0120 8022     		movs	r2, #128
 721 0122 5201     		lsls	r2, r2, #5
 722 0124 00E0     		b	.L53
 723              	.L62:
 724 0126 0022     		movs	r2, #0
 725              	.L53:
 299:Generated_Source\PSoC6\pdl\drivers\peripheral\ctb/cy_ctb.c ****                     | (uint32_t) config->oaMode \
 726              		.loc 1 299 0
 727 0128 1343     		orrs	r3, r2
 728              	.LVL40:
 307:Generated_Source\PSoC6\pdl\drivers\peripheral\ctb/cy_ctb.c **** 
 308:Generated_Source\PSoC6\pdl\drivers\peripheral\ctb/cy_ctb.c ****         if ((opampNum == CY_CTB_OPAMP_0) || (opampNum == CY_CTB_OPAMP_BOTH))
 729              		.loc 1 308 0
 730 012a 012E     		cmp	r6, #1
 731 012c 01D0     		beq	.L54
 732              		.loc 1 308 0 is_stmt 0 discriminator 1
 733 012e 032E     		cmp	r6, #3
 734 0130 15D1     		bne	.L55
 735              	.L54:
 309:Generated_Source\PSoC6\pdl\drivers\peripheral\ctb/cy_ctb.c ****         {
 310:Generated_Source\PSoC6\pdl\drivers\peripheral\ctb/cy_ctb.c ****             CTBM_OA_RES0_CTRL(base) = oaResCtrl;
 736              		.loc 1 310 0 is_stmt 1
 737 0132 6B60     		str	r3, [r5, #4]
 311:Generated_Source\PSoC6\pdl\drivers\peripheral\ctb/cy_ctb.c ****             CTBM_OA0_COMP_TRIM(base) = (uint32_t) ((config->oaMode == CY_CTB_MODE_OPAMP10X) ? CY_CT
 738              		.loc 1 311 0
 739 0134 6279     		ldrb	r2, [r4, #5]
 740 0136 082A     		cmp	r2, #8
 741 0138 01D1     		bne	.L63
 742 013a 0321     		movs	r1, #3
 743 013c 00E0     		b	.L56
 744              	.L63:
 745 013e 0121     		movs	r1, #1
 746              	.L56:
 747              		.loc 1 311 0 is_stmt 0 discriminator 4
 748 0140 194A     		ldr	r2, .L68+4
 749 0142 A950     		str	r1, [r5, r2]
 312:Generated_Source\PSoC6\pdl\drivers\peripheral\ctb/cy_ctb.c **** 
 313:Generated_Source\PSoC6\pdl\drivers\peripheral\ctb/cy_ctb.c ****             /* The INTR_MASK register is shared between the two opamps */
 314:Generated_Source\PSoC6\pdl\drivers\peripheral\ctb/cy_ctb.c ****             CTBM_INTR_MASK(base) |= (config->oaCompIntrEn ? CTBM_INTR_MASK_COMP0_MASK_Msk : CY_CTB_
 750              		.loc 1 314 0 is_stmt 1 discriminator 4
 751 0144 AA6A     		ldr	r2, [r5, #40]
 752 0146 617B     		ldrb	r1, [r4, #13]
 753 0148 0029     		cmp	r1, #0
 754 014a 01D0     		beq	.L64
 755              		.loc 1 314 0 is_stmt 0
 756 014c 0121     		movs	r1, #1
 757 014e 00E0     		b	.L57
 758              	.L64:
 759 0150 0021     		movs	r1, #0
 760              	.L57:
 761              		.loc 1 314 0 discriminator 4
 762 0152 0A43     		orrs	r2, r1
 763 0154 AA62     		str	r2, [r5, #40]
 315:Generated_Source\PSoC6\pdl\drivers\peripheral\ctb/cy_ctb.c ****             CTBM_INTR(base) |= CTBM_INTR_MASK_COMP0_MASK_Msk;
ARM GAS  C:\Users\User\AppData\Local\Temp\ccPcfS0D.s 			page 20


 764              		.loc 1 315 0 is_stmt 1 discriminator 4
 765 0156 296A     		ldr	r1, [r5, #32]
 766 0158 0122     		movs	r2, #1
 767 015a 0A43     		orrs	r2, r1
 768 015c 2A62     		str	r2, [r5, #32]
 769              	.L55:
 316:Generated_Source\PSoC6\pdl\drivers\peripheral\ctb/cy_ctb.c ****         }
 317:Generated_Source\PSoC6\pdl\drivers\peripheral\ctb/cy_ctb.c **** 
 318:Generated_Source\PSoC6\pdl\drivers\peripheral\ctb/cy_ctb.c ****         if ((opampNum == CY_CTB_OPAMP_1) || (opampNum == CY_CTB_OPAMP_BOTH))
 770              		.loc 1 318 0
 771 015e 023E     		subs	r6, r6, #2
 772 0160 F6B2     		uxtb	r6, r6
 773 0162 012E     		cmp	r6, #1
 774 0164 1BD8     		bhi	.L65
 319:Generated_Source\PSoC6\pdl\drivers\peripheral\ctb/cy_ctb.c ****         {
 320:Generated_Source\PSoC6\pdl\drivers\peripheral\ctb/cy_ctb.c ****             CTBM_OA_RES1_CTRL(base) = oaResCtrl;
 775              		.loc 1 320 0
 776 0166 AB60     		str	r3, [r5, #8]
 321:Generated_Source\PSoC6\pdl\drivers\peripheral\ctb/cy_ctb.c ****             CTBM_OA1_COMP_TRIM(base) = (uint32_t) ((config->oaMode == CY_CTB_MODE_OPAMP10X) ? CY_CT
 777              		.loc 1 321 0
 778 0168 6379     		ldrb	r3, [r4, #5]
 779              	.LVL41:
 780 016a 082B     		cmp	r3, #8
 781 016c 01D1     		bne	.L66
 782 016e 0322     		movs	r2, #3
 783 0170 00E0     		b	.L58
 784              	.L66:
 785 0172 0122     		movs	r2, #1
 786              	.L58:
 787              		.loc 1 321 0 is_stmt 0 discriminator 4
 788 0174 0D4B     		ldr	r3, .L68+8
 789 0176 EA50     		str	r2, [r5, r3]
 790              	.LVL42:
 322:Generated_Source\PSoC6\pdl\drivers\peripheral\ctb/cy_ctb.c **** 
 323:Generated_Source\PSoC6\pdl\drivers\peripheral\ctb/cy_ctb.c ****             /* The INTR_MASK register is shared between the two opamps */
 324:Generated_Source\PSoC6\pdl\drivers\peripheral\ctb/cy_ctb.c ****             CTBM_INTR_MASK(base) |= (config->oaCompIntrEn ? CTBM_INTR_MASK_COMP1_MASK_Msk : CY_CTB_
 791              		.loc 1 324 0 is_stmt 1 discriminator 4
 792 0178 AB6A     		ldr	r3, [r5, #40]
 793 017a 627B     		ldrb	r2, [r4, #13]
 794 017c 002A     		cmp	r2, #0
 795 017e 01D0     		beq	.L67
 796              		.loc 1 324 0 is_stmt 0
 797 0180 0222     		movs	r2, #2
 798 0182 00E0     		b	.L59
 799              	.L67:
 800 0184 0022     		movs	r2, #0
 801              	.L59:
 802              		.loc 1 324 0 discriminator 4
 803 0186 1343     		orrs	r3, r2
 804 0188 AB62     		str	r3, [r5, #40]
 325:Generated_Source\PSoC6\pdl\drivers\peripheral\ctb/cy_ctb.c ****             CTBM_INTR(base) |= CTBM_INTR_MASK_COMP1_MASK_Msk;
 805              		.loc 1 325 0 is_stmt 1 discriminator 4
 806 018a 2A6A     		ldr	r2, [r5, #32]
 807 018c 0223     		movs	r3, #2
 808 018e 1343     		orrs	r3, r2
 809 0190 2B62     		str	r3, [r5, #32]
 326:Generated_Source\PSoC6\pdl\drivers\peripheral\ctb/cy_ctb.c ****         }
ARM GAS  C:\Users\User\AppData\Local\Temp\ccPcfS0D.s 			page 21


 327:Generated_Source\PSoC6\pdl\drivers\peripheral\ctb/cy_ctb.c **** 
 328:Generated_Source\PSoC6\pdl\drivers\peripheral\ctb/cy_ctb.c ****         result = CY_CTB_SUCCESS;
 810              		.loc 1 328 0 discriminator 4
 811 0192 0020     		movs	r0, #0
 812 0194 04E0     		b	.L43
 813              	.L60:
 282:Generated_Source\PSoC6\pdl\drivers\peripheral\ctb/cy_ctb.c ****     }
 814              		.loc 1 282 0
 815 0196 0648     		ldr	r0, .L68+12
 816 0198 02E0     		b	.L43
 817              	.L61:
 818 019a 0548     		ldr	r0, .L68+12
 819 019c 00E0     		b	.L43
 820              	.LVL43:
 821              	.L65:
 822              		.loc 1 328 0
 823 019e 0020     		movs	r0, #0
 824              	.LVL44:
 825              	.L43:
 329:Generated_Source\PSoC6\pdl\drivers\peripheral\ctb/cy_ctb.c ****     }
 330:Generated_Source\PSoC6\pdl\drivers\peripheral\ctb/cy_ctb.c **** 
 331:Generated_Source\PSoC6\pdl\drivers\peripheral\ctb/cy_ctb.c ****     return result;
 332:Generated_Source\PSoC6\pdl\drivers\peripheral\ctb/cy_ctb.c **** }
 826              		.loc 1 332 0
 827              		@ sp needed
 828              	.LVL45:
 829              	.LVL46:
 830 01a0 70BD     		pop	{r4, r5, r6, pc}
 831              	.L69:
 832 01a2 C046     		.align	2
 833              	.L68:
 834 01a4 00000000 		.word	.LC0
 835 01a8 080F0000 		.word	3848
 836 01ac 140F0000 		.word	3860
 837 01b0 01002E00 		.word	3014657
 838              		.cfi_endproc
 839              	.LFE104:
 840              		.size	Cy_CTB_OpampInit, .-Cy_CTB_OpampInit
 841              		.section	.text.Cy_CTB_DeInit,"ax",%progbits
 842              		.align	2
 843              		.global	Cy_CTB_DeInit
 844              		.code	16
 845              		.thumb_func
 846              		.type	Cy_CTB_DeInit, %function
 847              	Cy_CTB_DeInit:
 848              	.LFB105:
 333:Generated_Source\PSoC6\pdl\drivers\peripheral\ctb/cy_ctb.c **** 
 334:Generated_Source\PSoC6\pdl\drivers\peripheral\ctb/cy_ctb.c **** /*******************************************************************************
 335:Generated_Source\PSoC6\pdl\drivers\peripheral\ctb/cy_ctb.c **** * Function Name: Cy_CTB_DeInit
 336:Generated_Source\PSoC6\pdl\drivers\peripheral\ctb/cy_ctb.c **** ****************************************************************************//**
 337:Generated_Source\PSoC6\pdl\drivers\peripheral\ctb/cy_ctb.c **** *
 338:Generated_Source\PSoC6\pdl\drivers\peripheral\ctb/cy_ctb.c **** * Reset CTB registers back to power on reset defaults.
 339:Generated_Source\PSoC6\pdl\drivers\peripheral\ctb/cy_ctb.c **** *
 340:Generated_Source\PSoC6\pdl\drivers\peripheral\ctb/cy_ctb.c **** * \param base
 341:Generated_Source\PSoC6\pdl\drivers\peripheral\ctb/cy_ctb.c **** * Pointer to structure describing registers
 342:Generated_Source\PSoC6\pdl\drivers\peripheral\ctb/cy_ctb.c **** *
 343:Generated_Source\PSoC6\pdl\drivers\peripheral\ctb/cy_ctb.c **** * \param deInitRouting
ARM GAS  C:\Users\User\AppData\Local\Temp\ccPcfS0D.s 			page 22


 344:Generated_Source\PSoC6\pdl\drivers\peripheral\ctb/cy_ctb.c **** * If true, all analog routing switches are reset to their default state.
 345:Generated_Source\PSoC6\pdl\drivers\peripheral\ctb/cy_ctb.c **** * If false, analog switch registers are untouched.
 346:Generated_Source\PSoC6\pdl\drivers\peripheral\ctb/cy_ctb.c **** *
 347:Generated_Source\PSoC6\pdl\drivers\peripheral\ctb/cy_ctb.c **** * \return
 348:Generated_Source\PSoC6\pdl\drivers\peripheral\ctb/cy_ctb.c **** * Status of initialization, \ref CY_CTB_SUCCESS or \ref CY_CTB_BAD_PARAM
 349:Generated_Source\PSoC6\pdl\drivers\peripheral\ctb/cy_ctb.c **** *
 350:Generated_Source\PSoC6\pdl\drivers\peripheral\ctb/cy_ctb.c **** *******************************************************************************/
 351:Generated_Source\PSoC6\pdl\drivers\peripheral\ctb/cy_ctb.c **** cy_en_ctb_status_t Cy_CTB_DeInit(CTBM_Type *base, bool deInitRouting)
 352:Generated_Source\PSoC6\pdl\drivers\peripheral\ctb/cy_ctb.c **** {
 849              		.loc 1 352 0
 850              		.cfi_startproc
 851              		@ args = 0, pretend = 0, frame = 0
 852              		@ frame_needed = 0, uses_anonymous_args = 0
 853              	.LVL47:
 854 0000 70B5     		push	{r4, r5, r6, lr}
 855              		.cfi_def_cfa_offset 16
 856              		.cfi_offset 4, -16
 857              		.cfi_offset 5, -12
 858              		.cfi_offset 6, -8
 859              		.cfi_offset 14, -4
 860 0002 0400     		movs	r4, r0
 861 0004 0D00     		movs	r5, r1
 353:Generated_Source\PSoC6\pdl\drivers\peripheral\ctb/cy_ctb.c ****     CY_ASSERT_L1(NULL != base);
 862              		.loc 1 353 0
 863 0006 0028     		cmp	r0, #0
 864 0008 04D1     		bne	.L71
 865              		.loc 1 353 0 is_stmt 0 discriminator 1
 866 000a 6221     		movs	r1, #98
 867              	.LVL48:
 868 000c FF31     		adds	r1, r1, #255
 869 000e 0D48     		ldr	r0, .L75
 870              	.LVL49:
 871 0010 FFF7FEFF 		bl	Cy_SysLib_AssertFailed
 872              	.LVL50:
 873              	.L71:
 354:Generated_Source\PSoC6\pdl\drivers\peripheral\ctb/cy_ctb.c **** 
 355:Generated_Source\PSoC6\pdl\drivers\peripheral\ctb/cy_ctb.c ****     cy_en_ctb_status_t result;
 356:Generated_Source\PSoC6\pdl\drivers\peripheral\ctb/cy_ctb.c **** 
 357:Generated_Source\PSoC6\pdl\drivers\peripheral\ctb/cy_ctb.c ****     if (NULL == base)
 874              		.loc 1 357 0 is_stmt 1
 875 0014 002C     		cmp	r4, #0
 876 0016 11D0     		beq	.L73
 358:Generated_Source\PSoC6\pdl\drivers\peripheral\ctb/cy_ctb.c ****     {
 359:Generated_Source\PSoC6\pdl\drivers\peripheral\ctb/cy_ctb.c ****         result = CY_CTB_BAD_PARAM;
 360:Generated_Source\PSoC6\pdl\drivers\peripheral\ctb/cy_ctb.c ****     }
 361:Generated_Source\PSoC6\pdl\drivers\peripheral\ctb/cy_ctb.c ****     else
 362:Generated_Source\PSoC6\pdl\drivers\peripheral\ctb/cy_ctb.c ****     {
 363:Generated_Source\PSoC6\pdl\drivers\peripheral\ctb/cy_ctb.c ****         CTBM_CTB_CTRL(base)          = CY_CTB_DEINIT;
 877              		.loc 1 363 0
 878 0018 0023     		movs	r3, #0
 879 001a 2360     		str	r3, [r4]
 364:Generated_Source\PSoC6\pdl\drivers\peripheral\ctb/cy_ctb.c ****         CTBM_OA_RES0_CTRL(base)      = CY_CTB_DEINIT;
 880              		.loc 1 364 0
 881 001c 6360     		str	r3, [r4, #4]
 365:Generated_Source\PSoC6\pdl\drivers\peripheral\ctb/cy_ctb.c ****         CTBM_OA_RES1_CTRL(base)      = CY_CTB_DEINIT;
 882              		.loc 1 365 0
 883 001e A360     		str	r3, [r4, #8]
ARM GAS  C:\Users\User\AppData\Local\Temp\ccPcfS0D.s 			page 23


 366:Generated_Source\PSoC6\pdl\drivers\peripheral\ctb/cy_ctb.c ****         CTBM_INTR_MASK(base)         = CY_CTB_DEINIT;
 884              		.loc 1 366 0
 885 0020 A362     		str	r3, [r4, #40]
 367:Generated_Source\PSoC6\pdl\drivers\peripheral\ctb/cy_ctb.c **** 
 368:Generated_Source\PSoC6\pdl\drivers\peripheral\ctb/cy_ctb.c ****         if (deInitRouting)
 886              		.loc 1 368 0
 887 0022 002D     		cmp	r5, #0
 888 0024 0CD0     		beq	.L74
 369:Generated_Source\PSoC6\pdl\drivers\peripheral\ctb/cy_ctb.c ****         {
 370:Generated_Source\PSoC6\pdl\drivers\peripheral\ctb/cy_ctb.c ****             CTBM_OA0_SW_CLEAR(base)   = CY_CTB_DEINIT_OA0_SW;
 889              		.loc 1 370 0
 890 0026 084A     		ldr	r2, .L75+4
 891 0028 8433     		adds	r3, r3, #132
 892 002a E250     		str	r2, [r4, r3]
 371:Generated_Source\PSoC6\pdl\drivers\peripheral\ctb/cy_ctb.c ****             CTBM_OA1_SW_CLEAR(base)   = CY_CTB_DEINIT_OA1_SW;
 893              		.loc 1 371 0
 894 002c 074A     		ldr	r2, .L75+8
 895 002e 0833     		adds	r3, r3, #8
 896 0030 E250     		str	r2, [r4, r3]
 372:Generated_Source\PSoC6\pdl\drivers\peripheral\ctb/cy_ctb.c ****             CTBM_CTD_SW_CLEAR(base)   = CY_CTB_DEINIT_CTD_SW;
 897              		.loc 1 372 0
 898 0032 074A     		ldr	r2, .L75+12
 899 0034 1833     		adds	r3, r3, #24
 900 0036 E250     		str	r2, [r4, r3]
 373:Generated_Source\PSoC6\pdl\drivers\peripheral\ctb/cy_ctb.c ****         }
 374:Generated_Source\PSoC6\pdl\drivers\peripheral\ctb/cy_ctb.c **** 
 375:Generated_Source\PSoC6\pdl\drivers\peripheral\ctb/cy_ctb.c ****         result                  = CY_CTB_SUCCESS;
 901              		.loc 1 375 0
 902 0038 0020     		movs	r0, #0
 903 003a 02E0     		b	.L72
 904              	.L73:
 359:Generated_Source\PSoC6\pdl\drivers\peripheral\ctb/cy_ctb.c ****     }
 905              		.loc 1 359 0
 906 003c 0548     		ldr	r0, .L75+16
 907 003e 00E0     		b	.L72
 908              	.L74:
 909              		.loc 1 375 0
 910 0040 0020     		movs	r0, #0
 911              	.L72:
 912              	.LVL51:
 376:Generated_Source\PSoC6\pdl\drivers\peripheral\ctb/cy_ctb.c ****     }
 377:Generated_Source\PSoC6\pdl\drivers\peripheral\ctb/cy_ctb.c **** 
 378:Generated_Source\PSoC6\pdl\drivers\peripheral\ctb/cy_ctb.c ****     return result;
 379:Generated_Source\PSoC6\pdl\drivers\peripheral\ctb/cy_ctb.c **** }
 913              		.loc 1 379 0
 914              		@ sp needed
 915              	.LVL52:
 916 0042 70BD     		pop	{r4, r5, r6, pc}
 917              	.L76:
 918              		.align	2
 919              	.L75:
 920 0044 00000000 		.word	.LC0
 921 0048 0D412400 		.word	2375949
 922 004c 93412C00 		.word	2900371
 923 0050 32F70000 		.word	63282
 924 0054 01002E00 		.word	3014657
 925              		.cfi_endproc
ARM GAS  C:\Users\User\AppData\Local\Temp\ccPcfS0D.s 			page 24


 926              	.LFE105:
 927              		.size	Cy_CTB_DeInit, .-Cy_CTB_DeInit
 928              		.section	.text.Cy_CTB_FastInit,"ax",%progbits
 929              		.align	2
 930              		.global	Cy_CTB_FastInit
 931              		.code	16
 932              		.thumb_func
 933              		.type	Cy_CTB_FastInit, %function
 934              	Cy_CTB_FastInit:
 935              	.LFB106:
 380:Generated_Source\PSoC6\pdl\drivers\peripheral\ctb/cy_ctb.c **** 
 381:Generated_Source\PSoC6\pdl\drivers\peripheral\ctb/cy_ctb.c **** /*******************************************************************************
 382:Generated_Source\PSoC6\pdl\drivers\peripheral\ctb/cy_ctb.c **** * Function Name: Cy_CTB_FastInit
 383:Generated_Source\PSoC6\pdl\drivers\peripheral\ctb/cy_ctb.c **** ****************************************************************************//**
 384:Generated_Source\PSoC6\pdl\drivers\peripheral\ctb/cy_ctb.c **** *
 385:Generated_Source\PSoC6\pdl\drivers\peripheral\ctb/cy_ctb.c **** * Initialize each opamp of the CTB to one of the common use modes.
 386:Generated_Source\PSoC6\pdl\drivers\peripheral\ctb/cy_ctb.c **** *
 387:Generated_Source\PSoC6\pdl\drivers\peripheral\ctb/cy_ctb.c **** * This function provides a quick and easy method of configuring the CTB
 388:Generated_Source\PSoC6\pdl\drivers\peripheral\ctb/cy_ctb.c **** * using pre-defined configurations.
 389:Generated_Source\PSoC6\pdl\drivers\peripheral\ctb/cy_ctb.c **** * Only routing switches required for the selected mode are configured, leaving final input and outp
 390:Generated_Source\PSoC6\pdl\drivers\peripheral\ctb/cy_ctb.c **** * to the user.
 391:Generated_Source\PSoC6\pdl\drivers\peripheral\ctb/cy_ctb.c **** * Additional use modes that relate to the \ref group_ctdac "CTDAC"
 392:Generated_Source\PSoC6\pdl\drivers\peripheral\ctb/cy_ctb.c **** * are provided to support easy configuration of the CTDAC output buffer and input
 393:Generated_Source\PSoC6\pdl\drivers\peripheral\ctb/cy_ctb.c **** * reference buffer.
 394:Generated_Source\PSoC6\pdl\drivers\peripheral\ctb/cy_ctb.c **** *
 395:Generated_Source\PSoC6\pdl\drivers\peripheral\ctb/cy_ctb.c **** * The fast configuration structures define the opamp power, mode, and routing.
 396:Generated_Source\PSoC6\pdl\drivers\peripheral\ctb/cy_ctb.c **** * This function sets the other configuration options of the CTB to:
 397:Generated_Source\PSoC6\pdl\drivers\peripheral\ctb/cy_ctb.c **** *   - .deepSleep    = CY_CTB_DEEPSLEEP_DISABLE
 398:Generated_Source\PSoC6\pdl\drivers\peripheral\ctb/cy_ctb.c **** *   - .oaPump       = \ref CY_CTB_PUMP_ENABLE
 399:Generated_Source\PSoC6\pdl\drivers\peripheral\ctb/cy_ctb.c **** *   - .oaCompEdge   = \ref CY_CTB_COMP_EDGE_BOTH
 400:Generated_Source\PSoC6\pdl\drivers\peripheral\ctb/cy_ctb.c **** *   - .oaCompLevel  = \ref CY_CTB_COMP_DSI_TRIGGER_OUT_LEVEL
 401:Generated_Source\PSoC6\pdl\drivers\peripheral\ctb/cy_ctb.c **** *   - .oaCompBypass = \ref CY_CTB_COMP_BYPASS_SYNC
 402:Generated_Source\PSoC6\pdl\drivers\peripheral\ctb/cy_ctb.c **** *   - .oaCompHyst   = \ref CY_CTB_COMP_HYST_10MV
 403:Generated_Source\PSoC6\pdl\drivers\peripheral\ctb/cy_ctb.c **** *   - .oaCompIntrEn = true
 404:Generated_Source\PSoC6\pdl\drivers\peripheral\ctb/cy_ctb.c **** 
 405:Generated_Source\PSoC6\pdl\drivers\peripheral\ctb/cy_ctb.c **** * \param base
 406:Generated_Source\PSoC6\pdl\drivers\peripheral\ctb/cy_ctb.c **** * Pointer to structure describing registers
 407:Generated_Source\PSoC6\pdl\drivers\peripheral\ctb/cy_ctb.c **** *
 408:Generated_Source\PSoC6\pdl\drivers\peripheral\ctb/cy_ctb.c **** * \param config0
 409:Generated_Source\PSoC6\pdl\drivers\peripheral\ctb/cy_ctb.c **** * Pointer to structure containing configuration data for quick initialization
 410:Generated_Source\PSoC6\pdl\drivers\peripheral\ctb/cy_ctb.c **** * of Opamp0. Defined your own or use one of the provided structures:
 411:Generated_Source\PSoC6\pdl\drivers\peripheral\ctb/cy_ctb.c **** * - \ref Cy_CTB_Fast_Opamp0_Unused
 412:Generated_Source\PSoC6\pdl\drivers\peripheral\ctb/cy_ctb.c **** * - \ref Cy_CTB_Fast_Opamp0_Comp
 413:Generated_Source\PSoC6\pdl\drivers\peripheral\ctb/cy_ctb.c **** * - \ref Cy_CTB_Fast_Opamp0_Opamp1x
 414:Generated_Source\PSoC6\pdl\drivers\peripheral\ctb/cy_ctb.c **** * - \ref Cy_CTB_Fast_Opamp0_Opamp10x
 415:Generated_Source\PSoC6\pdl\drivers\peripheral\ctb/cy_ctb.c **** * - \ref Cy_CTB_Fast_Opamp0_Diffamp
 416:Generated_Source\PSoC6\pdl\drivers\peripheral\ctb/cy_ctb.c **** * - \ref Cy_CTB_Fast_Opamp0_Vdac_Out
 417:Generated_Source\PSoC6\pdl\drivers\peripheral\ctb/cy_ctb.c **** * - \ref Cy_CTB_Fast_Opamp0_Vdac_Out_SH
 418:Generated_Source\PSoC6\pdl\drivers\peripheral\ctb/cy_ctb.c **** *
 419:Generated_Source\PSoC6\pdl\drivers\peripheral\ctb/cy_ctb.c **** * \param config1
 420:Generated_Source\PSoC6\pdl\drivers\peripheral\ctb/cy_ctb.c **** * Pointer to structure containing configuration data for quick initialization
 421:Generated_Source\PSoC6\pdl\drivers\peripheral\ctb/cy_ctb.c **** * of Opamp1. Defined your own or use one of the provided structures:
 422:Generated_Source\PSoC6\pdl\drivers\peripheral\ctb/cy_ctb.c **** * - \ref Cy_CTB_Fast_Opamp1_Unused
 423:Generated_Source\PSoC6\pdl\drivers\peripheral\ctb/cy_ctb.c **** * - \ref Cy_CTB_Fast_Opamp1_Comp
 424:Generated_Source\PSoC6\pdl\drivers\peripheral\ctb/cy_ctb.c **** * - \ref Cy_CTB_Fast_Opamp1_Opamp1x
 425:Generated_Source\PSoC6\pdl\drivers\peripheral\ctb/cy_ctb.c **** * - \ref Cy_CTB_Fast_Opamp1_Opamp10x
 426:Generated_Source\PSoC6\pdl\drivers\peripheral\ctb/cy_ctb.c **** * - \ref Cy_CTB_Fast_Opamp1_Diffamp
ARM GAS  C:\Users\User\AppData\Local\Temp\ccPcfS0D.s 			page 25


 427:Generated_Source\PSoC6\pdl\drivers\peripheral\ctb/cy_ctb.c **** * - \ref Cy_CTB_Fast_Opamp1_Vdac_Ref_Aref
 428:Generated_Source\PSoC6\pdl\drivers\peripheral\ctb/cy_ctb.c **** * - \ref Cy_CTB_Fast_Opamp1_Vdac_Ref_Pin5
 429:Generated_Source\PSoC6\pdl\drivers\peripheral\ctb/cy_ctb.c **** *
 430:Generated_Source\PSoC6\pdl\drivers\peripheral\ctb/cy_ctb.c **** * \return
 431:Generated_Source\PSoC6\pdl\drivers\peripheral\ctb/cy_ctb.c **** * Status of initialization, \ref CY_CTB_SUCCESS or \ref CY_CTB_BAD_PARAM
 432:Generated_Source\PSoC6\pdl\drivers\peripheral\ctb/cy_ctb.c **** *
 433:Generated_Source\PSoC6\pdl\drivers\peripheral\ctb/cy_ctb.c **** * \funcusage
 434:Generated_Source\PSoC6\pdl\drivers\peripheral\ctb/cy_ctb.c **** *
 435:Generated_Source\PSoC6\pdl\drivers\peripheral\ctb/cy_ctb.c **** * \snippet ctb_sut_01.cydsn/main_cm0p.c SNIPPET_FASTINIT
 436:Generated_Source\PSoC6\pdl\drivers\peripheral\ctb/cy_ctb.c **** *
 437:Generated_Source\PSoC6\pdl\drivers\peripheral\ctb/cy_ctb.c **** *******************************************************************************/
 438:Generated_Source\PSoC6\pdl\drivers\peripheral\ctb/cy_ctb.c **** cy_en_ctb_status_t Cy_CTB_FastInit(CTBM_Type *base, const cy_stc_ctb_fast_config_oa0_t *config0, co
 439:Generated_Source\PSoC6\pdl\drivers\peripheral\ctb/cy_ctb.c **** {
 936              		.loc 1 439 0
 937              		.cfi_startproc
 938              		@ args = 0, pretend = 0, frame = 0
 939              		@ frame_needed = 0, uses_anonymous_args = 0
 940              	.LVL53:
 941 0000 70B5     		push	{r4, r5, r6, lr}
 942              		.cfi_def_cfa_offset 16
 943              		.cfi_offset 4, -16
 944              		.cfi_offset 5, -12
 945              		.cfi_offset 6, -8
 946              		.cfi_offset 14, -4
 947 0002 0400     		movs	r4, r0
 948 0004 0D00     		movs	r5, r1
 949 0006 1600     		movs	r6, r2
 440:Generated_Source\PSoC6\pdl\drivers\peripheral\ctb/cy_ctb.c ****     CY_ASSERT_L1(NULL != base);
 950              		.loc 1 440 0
 951 0008 0028     		cmp	r0, #0
 952 000a 04D1     		bne	.L78
 953              		.loc 1 440 0 is_stmt 0 discriminator 1
 954 000c DC21     		movs	r1, #220
 955              	.LVL54:
 956 000e 4900     		lsls	r1, r1, #1
 957 0010 5448     		ldr	r0, .L101
 958              	.LVL55:
 959 0012 FFF7FEFF 		bl	Cy_SysLib_AssertFailed
 960              	.LVL56:
 961              	.L78:
 441:Generated_Source\PSoC6\pdl\drivers\peripheral\ctb/cy_ctb.c ****     CY_ASSERT_L1(NULL != config0);
 962              		.loc 1 441 0 is_stmt 1
 963 0016 002D     		cmp	r5, #0
 964 0018 04D1     		bne	.L79
 965              		.loc 1 441 0 is_stmt 0 discriminator 1
 966 001a BA21     		movs	r1, #186
 967 001c FF31     		adds	r1, r1, #255
 968 001e 5148     		ldr	r0, .L101
 969 0020 FFF7FEFF 		bl	Cy_SysLib_AssertFailed
 970              	.LVL57:
 971              	.L79:
 442:Generated_Source\PSoC6\pdl\drivers\peripheral\ctb/cy_ctb.c ****     CY_ASSERT_L1(NULL != config1);
 972              		.loc 1 442 0 is_stmt 1
 973 0024 002E     		cmp	r6, #0
 974 0026 04D1     		bne	.L80
 975              		.loc 1 442 0 is_stmt 0 discriminator 1
 976 0028 DD21     		movs	r1, #221
ARM GAS  C:\Users\User\AppData\Local\Temp\ccPcfS0D.s 			page 26


 977 002a 4900     		lsls	r1, r1, #1
 978 002c 4D48     		ldr	r0, .L101
 979 002e FFF7FEFF 		bl	Cy_SysLib_AssertFailed
 980              	.LVL58:
 981              	.L80:
 443:Generated_Source\PSoC6\pdl\drivers\peripheral\ctb/cy_ctb.c **** 
 444:Generated_Source\PSoC6\pdl\drivers\peripheral\ctb/cy_ctb.c ****     cy_en_ctb_status_t result;
 445:Generated_Source\PSoC6\pdl\drivers\peripheral\ctb/cy_ctb.c **** 
 446:Generated_Source\PSoC6\pdl\drivers\peripheral\ctb/cy_ctb.c ****     if ((NULL == base) || (NULL == config0) || (NULL == config1))
 982              		.loc 1 446 0 is_stmt 1
 983 0032 002C     		cmp	r4, #0
 984 0034 00D1     		bne	.LCB881
 985 0036 8EE0     		b	.L94	@long jump
 986              	.LCB881:
 987              		.loc 1 446 0 is_stmt 0 discriminator 1
 988 0038 002D     		cmp	r5, #0
 989 003a 00D1     		bne	.LCB883
 990 003c 8DE0     		b	.L95	@long jump
 991              	.LCB883:
 992              		.loc 1 446 0 discriminator 2
 993 003e 002E     		cmp	r6, #0
 994 0040 00D1     		bne	.LCB885
 995 0042 8CE0     		b	.L96	@long jump
 996              	.LCB885:
 447:Generated_Source\PSoC6\pdl\drivers\peripheral\ctb/cy_ctb.c ****     {
 448:Generated_Source\PSoC6\pdl\drivers\peripheral\ctb/cy_ctb.c ****         result = CY_CTB_BAD_PARAM;
 449:Generated_Source\PSoC6\pdl\drivers\peripheral\ctb/cy_ctb.c ****     }
 450:Generated_Source\PSoC6\pdl\drivers\peripheral\ctb/cy_ctb.c ****     else
 451:Generated_Source\PSoC6\pdl\drivers\peripheral\ctb/cy_ctb.c ****     {
 452:Generated_Source\PSoC6\pdl\drivers\peripheral\ctb/cy_ctb.c ****         /* Enum and boundary checks for config0 */
 453:Generated_Source\PSoC6\pdl\drivers\peripheral\ctb/cy_ctb.c ****         CY_ASSERT_L3(CY_CTB_OAPOWER(config0->oa0Power));
 997              		.loc 1 453 0 is_stmt 1
 998 0044 2B78     		ldrb	r3, [r5]
 999 0046 032B     		cmp	r3, #3
 1000 0048 04D9     		bls	.L82
 1001              		.loc 1 453 0 is_stmt 0 discriminator 1
 1002 004a C621     		movs	r1, #198
 1003 004c FF31     		adds	r1, r1, #255
 1004 004e 4548     		ldr	r0, .L101
 1005 0050 FFF7FEFF 		bl	Cy_SysLib_AssertFailed
 1006              	.LVL59:
 1007              	.L82:
 454:Generated_Source\PSoC6\pdl\drivers\peripheral\ctb/cy_ctb.c ****         CY_ASSERT_L3(CY_CTB_OAMODE(config0->oa0Mode));
 1008              		.loc 1 454 0 is_stmt 1
 1009 0054 6B78     		ldrb	r3, [r5, #1]
 1010 0056 002B     		cmp	r3, #0
 1011 0058 08D0     		beq	.L83
 1012              		.loc 1 454 0 is_stmt 0 discriminator 1
 1013 005a 082B     		cmp	r3, #8
 1014 005c 06D0     		beq	.L83
 1015              		.loc 1 454 0 discriminator 2
 1016 005e 102B     		cmp	r3, #16
 1017 0060 04D0     		beq	.L83
 1018              		.loc 1 454 0 discriminator 3
 1019 0062 E321     		movs	r1, #227
 1020 0064 4900     		lsls	r1, r1, #1
 1021 0066 3F48     		ldr	r0, .L101
ARM GAS  C:\Users\User\AppData\Local\Temp\ccPcfS0D.s 			page 27


 1022 0068 FFF7FEFF 		bl	Cy_SysLib_AssertFailed
 1023              	.LVL60:
 1024              	.L83:
 455:Generated_Source\PSoC6\pdl\drivers\peripheral\ctb/cy_ctb.c ****         CY_ASSERT_L2(CY_CTB_OA0SWITCH(config0->oa0SwitchCtrl));
 1025              		.loc 1 455 0 is_stmt 1
 1026 006c 3E4B     		ldr	r3, .L101+4
 1027 006e 6A68     		ldr	r2, [r5, #4]
 1028 0070 1A42     		tst	r2, r3
 1029 0072 04D0     		beq	.L84
 1030              		.loc 1 455 0 is_stmt 0 discriminator 1
 1031 0074 C821     		movs	r1, #200
 1032 0076 FF31     		adds	r1, r1, #255
 1033 0078 3A48     		ldr	r0, .L101
 1034 007a FFF7FEFF 		bl	Cy_SysLib_AssertFailed
 1035              	.LVL61:
 1036              	.L84:
 456:Generated_Source\PSoC6\pdl\drivers\peripheral\ctb/cy_ctb.c ****         CY_ASSERT_L2(CY_CTB_CTDSWITCH(config0->ctdSwitchCtrl));
 1037              		.loc 1 456 0 is_stmt 1
 1038 007e 3B4B     		ldr	r3, .L101+8
 1039 0080 AA68     		ldr	r2, [r5, #8]
 1040 0082 1A42     		tst	r2, r3
 1041 0084 04D0     		beq	.L85
 1042              		.loc 1 456 0 is_stmt 0 discriminator 1
 1043 0086 E421     		movs	r1, #228
 1044 0088 4900     		lsls	r1, r1, #1
 1045 008a 3648     		ldr	r0, .L101
 1046 008c FFF7FEFF 		bl	Cy_SysLib_AssertFailed
 1047              	.LVL62:
 1048              	.L85:
 457:Generated_Source\PSoC6\pdl\drivers\peripheral\ctb/cy_ctb.c **** 
 458:Generated_Source\PSoC6\pdl\drivers\peripheral\ctb/cy_ctb.c ****         /* Enum and boundary checks for config1 */
 459:Generated_Source\PSoC6\pdl\drivers\peripheral\ctb/cy_ctb.c ****         CY_ASSERT_L3(CY_CTB_OAPOWER(config1->oa1Power));
 1049              		.loc 1 459 0 is_stmt 1
 1050 0090 3378     		ldrb	r3, [r6]
 1051 0092 032B     		cmp	r3, #3
 1052 0094 04D9     		bls	.L86
 1053              		.loc 1 459 0 is_stmt 0 discriminator 1
 1054 0096 CC21     		movs	r1, #204
 1055 0098 FF31     		adds	r1, r1, #255
 1056 009a 3248     		ldr	r0, .L101
 1057 009c FFF7FEFF 		bl	Cy_SysLib_AssertFailed
 1058              	.LVL63:
 1059              	.L86:
 460:Generated_Source\PSoC6\pdl\drivers\peripheral\ctb/cy_ctb.c ****         CY_ASSERT_L3(CY_CTB_OAMODE(config1->oa1Mode));
 1060              		.loc 1 460 0 is_stmt 1
 1061 00a0 7378     		ldrb	r3, [r6, #1]
 1062 00a2 002B     		cmp	r3, #0
 1063 00a4 08D0     		beq	.L87
 1064              		.loc 1 460 0 is_stmt 0 discriminator 1
 1065 00a6 082B     		cmp	r3, #8
 1066 00a8 06D0     		beq	.L87
 1067              		.loc 1 460 0 discriminator 2
 1068 00aa 102B     		cmp	r3, #16
 1069 00ac 04D0     		beq	.L87
 1070              		.loc 1 460 0 discriminator 3
 1071 00ae E621     		movs	r1, #230
 1072 00b0 4900     		lsls	r1, r1, #1
ARM GAS  C:\Users\User\AppData\Local\Temp\ccPcfS0D.s 			page 28


 1073 00b2 2C48     		ldr	r0, .L101
 1074 00b4 FFF7FEFF 		bl	Cy_SysLib_AssertFailed
 1075              	.LVL64:
 1076              	.L87:
 461:Generated_Source\PSoC6\pdl\drivers\peripheral\ctb/cy_ctb.c ****         CY_ASSERT_L2(CY_CTB_OA1SWITCH(config1->oa1SwitchCtrl));
 1077              		.loc 1 461 0 is_stmt 1
 1078 00b8 2D4B     		ldr	r3, .L101+12
 1079 00ba 7268     		ldr	r2, [r6, #4]
 1080 00bc 1A42     		tst	r2, r3
 1081 00be 04D0     		beq	.L88
 1082              		.loc 1 461 0 is_stmt 0 discriminator 1
 1083 00c0 CE21     		movs	r1, #206
 1084 00c2 FF31     		adds	r1, r1, #255
 1085 00c4 2748     		ldr	r0, .L101
 1086 00c6 FFF7FEFF 		bl	Cy_SysLib_AssertFailed
 1087              	.LVL65:
 1088              	.L88:
 462:Generated_Source\PSoC6\pdl\drivers\peripheral\ctb/cy_ctb.c ****         CY_ASSERT_L2(CY_CTB_CTDSWITCH(config1->ctdSwitchCtrl));
 1089              		.loc 1 462 0 is_stmt 1
 1090 00ca 284B     		ldr	r3, .L101+8
 1091 00cc B268     		ldr	r2, [r6, #8]
 1092 00ce 1A42     		tst	r2, r3
 1093 00d0 04D0     		beq	.L89
 1094              		.loc 1 462 0 is_stmt 0 discriminator 1
 1095 00d2 E721     		movs	r1, #231
 1096 00d4 4900     		lsls	r1, r1, #1
 1097 00d6 2348     		ldr	r0, .L101
 1098 00d8 FFF7FEFF 		bl	Cy_SysLib_AssertFailed
 1099              	.LVL66:
 1100              	.L89:
 463:Generated_Source\PSoC6\pdl\drivers\peripheral\ctb/cy_ctb.c **** 
 464:Generated_Source\PSoC6\pdl\drivers\peripheral\ctb/cy_ctb.c ****         CTBM_CTB_CTRL(base) = (uint32_t) CY_CTB_DEEPSLEEP_DISABLE;
 1101              		.loc 1 464 0 is_stmt 1
 1102 00dc 0023     		movs	r3, #0
 1103 00de 2360     		str	r3, [r4]
 465:Generated_Source\PSoC6\pdl\drivers\peripheral\ctb/cy_ctb.c **** 
 466:Generated_Source\PSoC6\pdl\drivers\peripheral\ctb/cy_ctb.c ****         CTBM_OA_RES0_CTRL(base) = (uint32_t) config0->oa0Power \
 1104              		.loc 1 466 0
 1105 00e0 2B78     		ldrb	r3, [r5]
 467:Generated_Source\PSoC6\pdl\drivers\peripheral\ctb/cy_ctb.c ****                              | (uint32_t) config0->oa0Mode \
 1106              		.loc 1 467 0
 1107 00e2 6A78     		ldrb	r2, [r5, #1]
 1108 00e4 1343     		orrs	r3, r2
 468:Generated_Source\PSoC6\pdl\drivers\peripheral\ctb/cy_ctb.c ****                              | (uint32_t) CY_CTB_PUMP_ENABLE \
 469:Generated_Source\PSoC6\pdl\drivers\peripheral\ctb/cy_ctb.c ****                              | (uint32_t) CY_CTB_COMP_EDGE_BOTH \
 470:Generated_Source\PSoC6\pdl\drivers\peripheral\ctb/cy_ctb.c ****                              | (uint32_t) CY_CTB_COMP_DSI_TRIGGER_OUT_LEVEL \
 471:Generated_Source\PSoC6\pdl\drivers\peripheral\ctb/cy_ctb.c ****                              | (uint32_t) CY_CTB_COMP_BYPASS_SYNC \
 472:Generated_Source\PSoC6\pdl\drivers\peripheral\ctb/cy_ctb.c ****                              | (uint32_t) CY_CTB_COMP_HYST_10MV \
 473:Generated_Source\PSoC6\pdl\drivers\peripheral\ctb/cy_ctb.c ****                              | ((CY_CTB_MODE_OPAMP1X == config0->oa0Mode) ? CY_CTB_OPAMP_BOOST_ENAB
 1109              		.loc 1 473 0
 1110 00e6 002A     		cmp	r2, #0
 1111 00e8 02D1     		bne	.L97
 1112 00ea 8022     		movs	r2, #128
 1113 00ec 5201     		lsls	r2, r2, #5
 1114 00ee 00E0     		b	.L90
 1115              	.L97:
 1116 00f0 0022     		movs	r2, #0
ARM GAS  C:\Users\User\AppData\Local\Temp\ccPcfS0D.s 			page 29


 1117              	.L90:
 1118              		.loc 1 473 0 is_stmt 0 discriminator 4
 1119 00f2 1343     		orrs	r3, r2
 1120 00f4 BA22     		movs	r2, #186
 1121 00f6 1201     		lsls	r2, r2, #4
 1122 00f8 1343     		orrs	r3, r2
 466:Generated_Source\PSoC6\pdl\drivers\peripheral\ctb/cy_ctb.c ****                              | (uint32_t) config0->oa0Mode \
 1123              		.loc 1 466 0 is_stmt 1 discriminator 4
 1124 00fa 6360     		str	r3, [r4, #4]
 474:Generated_Source\PSoC6\pdl\drivers\peripheral\ctb/cy_ctb.c **** 
 475:Generated_Source\PSoC6\pdl\drivers\peripheral\ctb/cy_ctb.c ****         CTBM_OA_RES1_CTRL(base) = (uint32_t) config1->oa1Power \
 1125              		.loc 1 475 0 discriminator 4
 1126 00fc 3378     		ldrb	r3, [r6]
 476:Generated_Source\PSoC6\pdl\drivers\peripheral\ctb/cy_ctb.c ****                              | (uint32_t) config1->oa1Mode \
 1127              		.loc 1 476 0 discriminator 4
 1128 00fe 7278     		ldrb	r2, [r6, #1]
 1129 0100 1343     		orrs	r3, r2
 477:Generated_Source\PSoC6\pdl\drivers\peripheral\ctb/cy_ctb.c ****                              | (uint32_t) CY_CTB_PUMP_ENABLE \
 478:Generated_Source\PSoC6\pdl\drivers\peripheral\ctb/cy_ctb.c ****                              | (uint32_t) CY_CTB_COMP_EDGE_BOTH \
 479:Generated_Source\PSoC6\pdl\drivers\peripheral\ctb/cy_ctb.c ****                              | (uint32_t) CY_CTB_COMP_DSI_TRIGGER_OUT_LEVEL \
 480:Generated_Source\PSoC6\pdl\drivers\peripheral\ctb/cy_ctb.c ****                              | (uint32_t) CY_CTB_COMP_BYPASS_SYNC \
 481:Generated_Source\PSoC6\pdl\drivers\peripheral\ctb/cy_ctb.c ****                              | (uint32_t) CY_CTB_COMP_HYST_10MV \
 482:Generated_Source\PSoC6\pdl\drivers\peripheral\ctb/cy_ctb.c ****                              | ((CY_CTB_MODE_OPAMP1X == config1->oa1Mode) ? CY_CTB_OPAMP_BOOST_ENAB
 1130              		.loc 1 482 0 discriminator 4
 1131 0102 002A     		cmp	r2, #0
 1132 0104 02D1     		bne	.L98
 1133              		.loc 1 482 0 is_stmt 0
 1134 0106 8022     		movs	r2, #128
 1135 0108 5201     		lsls	r2, r2, #5
 1136 010a 00E0     		b	.L91
 1137              	.L98:
 1138 010c 0022     		movs	r2, #0
 1139              	.L91:
 1140              		.loc 1 482 0 discriminator 4
 1141 010e 1343     		orrs	r3, r2
 1142 0110 BA22     		movs	r2, #186
 1143 0112 1201     		lsls	r2, r2, #4
 1144 0114 1343     		orrs	r3, r2
 475:Generated_Source\PSoC6\pdl\drivers\peripheral\ctb/cy_ctb.c ****                              | (uint32_t) config1->oa1Mode \
 1145              		.loc 1 475 0 is_stmt 1 discriminator 4
 1146 0116 A360     		str	r3, [r4, #8]
 483:Generated_Source\PSoC6\pdl\drivers\peripheral\ctb/cy_ctb.c **** 
 484:Generated_Source\PSoC6\pdl\drivers\peripheral\ctb/cy_ctb.c ****         CTBM_INTR_MASK(base) = CTBM_INTR_MASK_COMP0_MASK_Msk | CTBM_INTR_MASK_COMP1_MASK_Msk;
 1147              		.loc 1 484 0 discriminator 4
 1148 0118 0323     		movs	r3, #3
 1149 011a A362     		str	r3, [r4, #40]
 485:Generated_Source\PSoC6\pdl\drivers\peripheral\ctb/cy_ctb.c **** 
 486:Generated_Source\PSoC6\pdl\drivers\peripheral\ctb/cy_ctb.c ****         CTBM_OA0_COMP_TRIM(base) = (uint32_t) ((config0->oa0Mode == CY_CTB_MODE_OPAMP10X) ? CY_CTB_
 1150              		.loc 1 486 0 discriminator 4
 1151 011c 6B78     		ldrb	r3, [r5, #1]
 1152 011e 082B     		cmp	r3, #8
 1153 0120 01D1     		bne	.L99
 1154              		.loc 1 486 0 is_stmt 0
 1155 0122 0322     		movs	r2, #3
 1156 0124 00E0     		b	.L92
 1157              	.L99:
 1158 0126 0122     		movs	r2, #1
ARM GAS  C:\Users\User\AppData\Local\Temp\ccPcfS0D.s 			page 30


 1159              	.L92:
 1160              		.loc 1 486 0 discriminator 4
 1161 0128 124B     		ldr	r3, .L101+16
 1162 012a E250     		str	r2, [r4, r3]
 487:Generated_Source\PSoC6\pdl\drivers\peripheral\ctb/cy_ctb.c ****         CTBM_OA1_COMP_TRIM(base) = (uint32_t) ((config1->oa1Mode == CY_CTB_MODE_OPAMP10X) ? CY_CTB_
 1163              		.loc 1 487 0 is_stmt 1 discriminator 4
 1164 012c 7378     		ldrb	r3, [r6, #1]
 1165 012e 082B     		cmp	r3, #8
 1166 0130 01D1     		bne	.L100
 1167              		.loc 1 487 0 is_stmt 0
 1168 0132 0322     		movs	r2, #3
 1169 0134 00E0     		b	.L93
 1170              	.L100:
 1171 0136 0122     		movs	r2, #1
 1172              	.L93:
 1173              		.loc 1 487 0 discriminator 4
 1174 0138 0F4B     		ldr	r3, .L101+20
 1175 013a E250     		str	r2, [r4, r3]
 488:Generated_Source\PSoC6\pdl\drivers\peripheral\ctb/cy_ctb.c **** 
 489:Generated_Source\PSoC6\pdl\drivers\peripheral\ctb/cy_ctb.c ****         CTBM_OA0_SW(base)   = config0->oa0SwitchCtrl;
 1176              		.loc 1 489 0 is_stmt 1 discriminator 4
 1177 013c 8023     		movs	r3, #128
 1178 013e 6A68     		ldr	r2, [r5, #4]
 1179 0140 E250     		str	r2, [r4, r3]
 490:Generated_Source\PSoC6\pdl\drivers\peripheral\ctb/cy_ctb.c ****         CTBM_OA1_SW(base)   = config1->oa1SwitchCtrl;
 1180              		.loc 1 490 0 discriminator 4
 1181 0142 0833     		adds	r3, r3, #8
 1182 0144 7268     		ldr	r2, [r6, #4]
 1183 0146 E250     		str	r2, [r4, r3]
 491:Generated_Source\PSoC6\pdl\drivers\peripheral\ctb/cy_ctb.c ****         CTBM_CTD_SW(base)   = config0->ctdSwitchCtrl | config1->ctdSwitchCtrl;
 1184              		.loc 1 491 0 discriminator 4
 1185 0148 AA68     		ldr	r2, [r5, #8]
 1186 014a B368     		ldr	r3, [r6, #8]
 1187 014c 1343     		orrs	r3, r2
 1188 014e A022     		movs	r2, #160
 1189 0150 A350     		str	r3, [r4, r2]
 1190              	.LVL67:
 492:Generated_Source\PSoC6\pdl\drivers\peripheral\ctb/cy_ctb.c **** 
 493:Generated_Source\PSoC6\pdl\drivers\peripheral\ctb/cy_ctb.c ****         result = CY_CTB_SUCCESS;
 1191              		.loc 1 493 0 discriminator 4
 1192 0152 0020     		movs	r0, #0
 1193 0154 04E0     		b	.L81
 1194              	.LVL68:
 1195              	.L94:
 448:Generated_Source\PSoC6\pdl\drivers\peripheral\ctb/cy_ctb.c ****     }
 1196              		.loc 1 448 0
 1197 0156 0948     		ldr	r0, .L101+24
 1198 0158 02E0     		b	.L81
 1199              	.L95:
 1200 015a 0848     		ldr	r0, .L101+24
 1201 015c 00E0     		b	.L81
 1202              	.L96:
 1203 015e 0748     		ldr	r0, .L101+24
 1204              	.L81:
 1205              	.LVL69:
 494:Generated_Source\PSoC6\pdl\drivers\peripheral\ctb/cy_ctb.c ****     }
 495:Generated_Source\PSoC6\pdl\drivers\peripheral\ctb/cy_ctb.c **** 
ARM GAS  C:\Users\User\AppData\Local\Temp\ccPcfS0D.s 			page 31


 496:Generated_Source\PSoC6\pdl\drivers\peripheral\ctb/cy_ctb.c ****     return result;
 497:Generated_Source\PSoC6\pdl\drivers\peripheral\ctb/cy_ctb.c **** }
 1206              		.loc 1 497 0
 1207              		@ sp needed
 1208              	.LVL70:
 1209              	.LVL71:
 1210              	.LVL72:
 1211 0160 70BD     		pop	{r4, r5, r6, pc}
 1212              	.L102:
 1213 0162 C046     		.align	2
 1214              	.L101:
 1215 0164 00000000 		.word	.LC0
 1216 0168 F2BEDBFF 		.word	-2375950
 1217 016c CD08FFFF 		.word	-63283
 1218 0170 6CBED3FF 		.word	-2900372
 1219 0174 080F0000 		.word	3848
 1220 0178 140F0000 		.word	3860
 1221 017c 01002E00 		.word	3014657
 1222              		.cfi_endproc
 1223              	.LFE106:
 1224              		.size	Cy_CTB_FastInit, .-Cy_CTB_FastInit
 1225              		.section	.text.Cy_CTB_SetDeepSleepMode,"ax",%progbits
 1226              		.align	2
 1227              		.global	Cy_CTB_SetDeepSleepMode
 1228              		.code	16
 1229              		.thumb_func
 1230              		.type	Cy_CTB_SetDeepSleepMode, %function
 1231              	Cy_CTB_SetDeepSleepMode:
 1232              	.LFB108:
 498:Generated_Source\PSoC6\pdl\drivers\peripheral\ctb/cy_ctb.c **** 
 499:Generated_Source\PSoC6\pdl\drivers\peripheral\ctb/cy_ctb.c **** /*******************************************************************************
 500:Generated_Source\PSoC6\pdl\drivers\peripheral\ctb/cy_ctb.c **** * Function Name: Cy_CTB_SetCurrentMode
 501:Generated_Source\PSoC6\pdl\drivers\peripheral\ctb/cy_ctb.c **** ****************************************************************************//**
 502:Generated_Source\PSoC6\pdl\drivers\peripheral\ctb/cy_ctb.c **** *
 503:Generated_Source\PSoC6\pdl\drivers\peripheral\ctb/cy_ctb.c **** * High level function to configure the current modes of the opamps.
 504:Generated_Source\PSoC6\pdl\drivers\peripheral\ctb/cy_ctb.c **** * This function configures all opamps of the CTB to the same current mode.
 505:Generated_Source\PSoC6\pdl\drivers\peripheral\ctb/cy_ctb.c **** * These modes are differentiated by the reference current level, the opamp
 506:Generated_Source\PSoC6\pdl\drivers\peripheral\ctb/cy_ctb.c **** * input range, and the Deep Sleep mode operation.
 507:Generated_Source\PSoC6\pdl\drivers\peripheral\ctb/cy_ctb.c **** *
 508:Generated_Source\PSoC6\pdl\drivers\peripheral\ctb/cy_ctb.c **** *   - The reference current level is set using \ref Cy_CTB_SetIptatLevel
 509:Generated_Source\PSoC6\pdl\drivers\peripheral\ctb/cy_ctb.c **** *   - When 1 uA current level is used in Deep Sleep,
 510:Generated_Source\PSoC6\pdl\drivers\peripheral\ctb/cy_ctb.c **** *       - All generators in the AREF must be enabled in Deep Sleep. That is,
 511:Generated_Source\PSoC6\pdl\drivers\peripheral\ctb/cy_ctb.c **** *           \ref Cy_SysAnalog_SetDeepSleepMode is called with CY_SYSANALOG_DEEPSLEEP_IPTAT_IZTAT_VR
 512:Generated_Source\PSoC6\pdl\drivers\peripheral\ctb/cy_ctb.c **** *   - When 100 nA current level is used,
 513:Generated_Source\PSoC6\pdl\drivers\peripheral\ctb/cy_ctb.c **** *       - \ref Cy_CTB_EnableRedirect is called to route the AREF IPTAT reference
 514:Generated_Source\PSoC6\pdl\drivers\peripheral\ctb/cy_ctb.c **** *           to the opamp IZTAT and disable the opamps IPTAT.
 515:Generated_Source\PSoC6\pdl\drivers\peripheral\ctb/cy_ctb.c **** *       - The IPTAT generator is enabled in Deep Sleep. That is,
 516:Generated_Source\PSoC6\pdl\drivers\peripheral\ctb/cy_ctb.c **** *           \ref Cy_SysAnalog_SetDeepSleepMode is called with CY_SYSANALOG_DEEPSLEEP_IPTAT_2
 517:Generated_Source\PSoC6\pdl\drivers\peripheral\ctb/cy_ctb.c **** *           unless it is already configured for CY_SYSANALOG_DEEPSLEEP_IPTAT_IZTAT_VREF.
 518:Generated_Source\PSoC6\pdl\drivers\peripheral\ctb/cy_ctb.c **** *
 519:Generated_Source\PSoC6\pdl\drivers\peripheral\ctb/cy_ctb.c **** * \note
 520:Generated_Source\PSoC6\pdl\drivers\peripheral\ctb/cy_ctb.c **** * The IPTAT level is a chip wide configuration so multiple
 521:Generated_Source\PSoC6\pdl\drivers\peripheral\ctb/cy_ctb.c **** * opamps cannot operate at different IPTAT levels.
 522:Generated_Source\PSoC6\pdl\drivers\peripheral\ctb/cy_ctb.c **** * When calling \ref Cy_CTB_SetCurrentMode for a CTB instance on the device,
 523:Generated_Source\PSoC6\pdl\drivers\peripheral\ctb/cy_ctb.c **** * it should be called for all other CTB instances as well.
 524:Generated_Source\PSoC6\pdl\drivers\peripheral\ctb/cy_ctb.c **** *
 525:Generated_Source\PSoC6\pdl\drivers\peripheral\ctb/cy_ctb.c **** * <table class="doxtable">
ARM GAS  C:\Users\User\AppData\Local\Temp\ccPcfS0D.s 			page 32


 526:Generated_Source\PSoC6\pdl\drivers\peripheral\ctb/cy_ctb.c **** *   <tr>
 527:Generated_Source\PSoC6\pdl\drivers\peripheral\ctb/cy_ctb.c **** *     <th>Current Mode</th>
 528:Generated_Source\PSoC6\pdl\drivers\peripheral\ctb/cy_ctb.c **** *     <th>IPTAT Level</th>
 529:Generated_Source\PSoC6\pdl\drivers\peripheral\ctb/cy_ctb.c **** *     <th>Input Range</th>
 530:Generated_Source\PSoC6\pdl\drivers\peripheral\ctb/cy_ctb.c **** *     <th>Deep Sleep Operation</th>
 531:Generated_Source\PSoC6\pdl\drivers\peripheral\ctb/cy_ctb.c **** *   </tr>
 532:Generated_Source\PSoC6\pdl\drivers\peripheral\ctb/cy_ctb.c **** *   <tr>
 533:Generated_Source\PSoC6\pdl\drivers\peripheral\ctb/cy_ctb.c **** *     <td>\ref CY_CTB_CURRENT_HIGH_ACTIVE</td>
 534:Generated_Source\PSoC6\pdl\drivers\peripheral\ctb/cy_ctb.c **** *     <td>1 uA</td>
 535:Generated_Source\PSoC6\pdl\drivers\peripheral\ctb/cy_ctb.c **** *     <td>Rail-to-Rail (charge pump enabled)</td>
 536:Generated_Source\PSoC6\pdl\drivers\peripheral\ctb/cy_ctb.c **** *     <td>Disabled in Deep Sleep</td>
 537:Generated_Source\PSoC6\pdl\drivers\peripheral\ctb/cy_ctb.c **** *   </tr>
 538:Generated_Source\PSoC6\pdl\drivers\peripheral\ctb/cy_ctb.c **** *   <tr>
 539:Generated_Source\PSoC6\pdl\drivers\peripheral\ctb/cy_ctb.c **** *     <td>\ref CY_CTB_CURRENT_HIGH_ACTIVE_DEEPSLEEP</td>
 540:Generated_Source\PSoC6\pdl\drivers\peripheral\ctb/cy_ctb.c **** *     <td>1 uA</td>
 541:Generated_Source\PSoC6\pdl\drivers\peripheral\ctb/cy_ctb.c **** *     <td>0 - VDDA-1.5 V (charge pump disabled)</td>
 542:Generated_Source\PSoC6\pdl\drivers\peripheral\ctb/cy_ctb.c **** *     <td>Enabled in Deep Sleep</td>
 543:Generated_Source\PSoC6\pdl\drivers\peripheral\ctb/cy_ctb.c **** *   </tr>
 544:Generated_Source\PSoC6\pdl\drivers\peripheral\ctb/cy_ctb.c **** *   <tr>
 545:Generated_Source\PSoC6\pdl\drivers\peripheral\ctb/cy_ctb.c **** *     <td>\ref CY_CTB_CURRENT_LOW_ACTIVE_DEEPSLEEP</td>
 546:Generated_Source\PSoC6\pdl\drivers\peripheral\ctb/cy_ctb.c **** *     <td>100 nA</td>
 547:Generated_Source\PSoC6\pdl\drivers\peripheral\ctb/cy_ctb.c **** *     <td>0 - VDDA-1.5 V (charge pump disabled)</td>
 548:Generated_Source\PSoC6\pdl\drivers\peripheral\ctb/cy_ctb.c **** *     <td>Enabled in Deep Sleep</td>
 549:Generated_Source\PSoC6\pdl\drivers\peripheral\ctb/cy_ctb.c **** *   </tr>
 550:Generated_Source\PSoC6\pdl\drivers\peripheral\ctb/cy_ctb.c **** * </table>
 551:Generated_Source\PSoC6\pdl\drivers\peripheral\ctb/cy_ctb.c **** *
 552:Generated_Source\PSoC6\pdl\drivers\peripheral\ctb/cy_ctb.c **** * \note
 553:Generated_Source\PSoC6\pdl\drivers\peripheral\ctb/cy_ctb.c **** * The output range of the opamp is 0.2 V to VDDA - 0.2 V (depending on output load).
 554:Generated_Source\PSoC6\pdl\drivers\peripheral\ctb/cy_ctb.c **** *
 555:Generated_Source\PSoC6\pdl\drivers\peripheral\ctb/cy_ctb.c **** * \param base
 556:Generated_Source\PSoC6\pdl\drivers\peripheral\ctb/cy_ctb.c **** * Pointer to structure describing registers
 557:Generated_Source\PSoC6\pdl\drivers\peripheral\ctb/cy_ctb.c **** *
 558:Generated_Source\PSoC6\pdl\drivers\peripheral\ctb/cy_ctb.c **** * \param currentMode
 559:Generated_Source\PSoC6\pdl\drivers\peripheral\ctb/cy_ctb.c **** * Current mode selection
 560:Generated_Source\PSoC6\pdl\drivers\peripheral\ctb/cy_ctb.c **** *
 561:Generated_Source\PSoC6\pdl\drivers\peripheral\ctb/cy_ctb.c **** * \return None
 562:Generated_Source\PSoC6\pdl\drivers\peripheral\ctb/cy_ctb.c **** *
 563:Generated_Source\PSoC6\pdl\drivers\peripheral\ctb/cy_ctb.c **** * \funcusage
 564:Generated_Source\PSoC6\pdl\drivers\peripheral\ctb/cy_ctb.c **** *
 565:Generated_Source\PSoC6\pdl\drivers\peripheral\ctb/cy_ctb.c **** * \snippet ctb_sut_01.cydsn/main_cm4.c CTB_SNIPPET_SET_CURRENT_MODE
 566:Generated_Source\PSoC6\pdl\drivers\peripheral\ctb/cy_ctb.c **** *
 567:Generated_Source\PSoC6\pdl\drivers\peripheral\ctb/cy_ctb.c **** *******************************************************************************/
 568:Generated_Source\PSoC6\pdl\drivers\peripheral\ctb/cy_ctb.c **** void Cy_CTB_SetCurrentMode(CTBM_Type *base, cy_en_ctb_current_mode_t currentMode)
 569:Generated_Source\PSoC6\pdl\drivers\peripheral\ctb/cy_ctb.c **** {
 570:Generated_Source\PSoC6\pdl\drivers\peripheral\ctb/cy_ctb.c ****     CY_ASSERT_L3(CY_CTB_CURRENTMODE(currentMode));
 571:Generated_Source\PSoC6\pdl\drivers\peripheral\ctb/cy_ctb.c **** 
 572:Generated_Source\PSoC6\pdl\drivers\peripheral\ctb/cy_ctb.c ****     cy_en_sysanalog_deep_sleep_t arefDeepSleep;
 573:Generated_Source\PSoC6\pdl\drivers\peripheral\ctb/cy_ctb.c **** 
 574:Generated_Source\PSoC6\pdl\drivers\peripheral\ctb/cy_ctb.c ****     switch(currentMode)
 575:Generated_Source\PSoC6\pdl\drivers\peripheral\ctb/cy_ctb.c ****     {
 576:Generated_Source\PSoC6\pdl\drivers\peripheral\ctb/cy_ctb.c ****     case CY_CTB_CURRENT_HIGH_ACTIVE:
 577:Generated_Source\PSoC6\pdl\drivers\peripheral\ctb/cy_ctb.c **** 
 578:Generated_Source\PSoC6\pdl\drivers\peripheral\ctb/cy_ctb.c ****         /* Does not disable AREF for Deep Sleep in case the AREF is used by other blocks */
 579:Generated_Source\PSoC6\pdl\drivers\peripheral\ctb/cy_ctb.c **** 
 580:Generated_Source\PSoC6\pdl\drivers\peripheral\ctb/cy_ctb.c ****         /* Use a 1 uA IPTAT level and disable redirection */
 581:Generated_Source\PSoC6\pdl\drivers\peripheral\ctb/cy_ctb.c ****         Cy_CTB_SetIptatLevel(CY_CTB_IPTAT_NORMAL);
 582:Generated_Source\PSoC6\pdl\drivers\peripheral\ctb/cy_ctb.c ****         Cy_CTB_DisableRedirect();
ARM GAS  C:\Users\User\AppData\Local\Temp\ccPcfS0D.s 			page 33


 583:Generated_Source\PSoC6\pdl\drivers\peripheral\ctb/cy_ctb.c **** 
 584:Generated_Source\PSoC6\pdl\drivers\peripheral\ctb/cy_ctb.c ****         /* Disable Deep Sleep mode for the CTB - not opamp specific */
 585:Generated_Source\PSoC6\pdl\drivers\peripheral\ctb/cy_ctb.c ****         Cy_CTB_SetDeepSleepMode(base, CY_CTB_DEEPSLEEP_DISABLE);
 586:Generated_Source\PSoC6\pdl\drivers\peripheral\ctb/cy_ctb.c **** 
 587:Generated_Source\PSoC6\pdl\drivers\peripheral\ctb/cy_ctb.c ****         /* Enable Opamp0 pump */
 588:Generated_Source\PSoC6\pdl\drivers\peripheral\ctb/cy_ctb.c ****         CTBM_OA_RES0_CTRL(base) |= CTBM_OA_RES0_CTRL_OA0_PUMP_EN_Msk;
 589:Generated_Source\PSoC6\pdl\drivers\peripheral\ctb/cy_ctb.c **** 
 590:Generated_Source\PSoC6\pdl\drivers\peripheral\ctb/cy_ctb.c ****         /* Enable Opamp1 pump */
 591:Generated_Source\PSoC6\pdl\drivers\peripheral\ctb/cy_ctb.c ****         CTBM_OA_RES1_CTRL(base) |= CTBM_OA_RES1_CTRL_OA1_PUMP_EN_Msk;
 592:Generated_Source\PSoC6\pdl\drivers\peripheral\ctb/cy_ctb.c **** 
 593:Generated_Source\PSoC6\pdl\drivers\peripheral\ctb/cy_ctb.c ****         break;
 594:Generated_Source\PSoC6\pdl\drivers\peripheral\ctb/cy_ctb.c ****     case CY_CTB_CURRENT_HIGH_ACTIVE_DEEPSLEEP:
 595:Generated_Source\PSoC6\pdl\drivers\peripheral\ctb/cy_ctb.c **** 
 596:Generated_Source\PSoC6\pdl\drivers\peripheral\ctb/cy_ctb.c ****         /* All generators (IPTAT, IZTAT, and VREF) of the AREF block must be enabled for Deep Sleep
 597:Generated_Source\PSoC6\pdl\drivers\peripheral\ctb/cy_ctb.c ****         Cy_SysAnalog_SetDeepSleepMode(CY_SYSANALOG_DEEPSLEEP_IPTAT_IZTAT_VREF);
 598:Generated_Source\PSoC6\pdl\drivers\peripheral\ctb/cy_ctb.c **** 
 599:Generated_Source\PSoC6\pdl\drivers\peripheral\ctb/cy_ctb.c ****         /* Use a 1 uA IPTAT level and disable redirection */
 600:Generated_Source\PSoC6\pdl\drivers\peripheral\ctb/cy_ctb.c ****         Cy_CTB_SetIptatLevel(CY_CTB_IPTAT_NORMAL);
 601:Generated_Source\PSoC6\pdl\drivers\peripheral\ctb/cy_ctb.c ****         Cy_CTB_DisableRedirect();
 602:Generated_Source\PSoC6\pdl\drivers\peripheral\ctb/cy_ctb.c **** 
 603:Generated_Source\PSoC6\pdl\drivers\peripheral\ctb/cy_ctb.c ****         /* Enable Deep Sleep mode for the CTB - not opamp specific */
 604:Generated_Source\PSoC6\pdl\drivers\peripheral\ctb/cy_ctb.c ****         Cy_CTB_SetDeepSleepMode(base, CY_CTB_DEEPSLEEP_ENABLE);
 605:Generated_Source\PSoC6\pdl\drivers\peripheral\ctb/cy_ctb.c **** 
 606:Generated_Source\PSoC6\pdl\drivers\peripheral\ctb/cy_ctb.c ****         /* Disable Opamp0 pump */
 607:Generated_Source\PSoC6\pdl\drivers\peripheral\ctb/cy_ctb.c ****         CTBM_OA_RES0_CTRL(base) &= ~CTBM_OA_RES0_CTRL_OA0_PUMP_EN_Msk;
 608:Generated_Source\PSoC6\pdl\drivers\peripheral\ctb/cy_ctb.c **** 
 609:Generated_Source\PSoC6\pdl\drivers\peripheral\ctb/cy_ctb.c ****         /* Disable Opamp1 pump */
 610:Generated_Source\PSoC6\pdl\drivers\peripheral\ctb/cy_ctb.c ****         CTBM_OA_RES1_CTRL(base) &= ~CTBM_OA_RES1_CTRL_OA1_PUMP_EN_Msk;
 611:Generated_Source\PSoC6\pdl\drivers\peripheral\ctb/cy_ctb.c **** 
 612:Generated_Source\PSoC6\pdl\drivers\peripheral\ctb/cy_ctb.c ****         break;
 613:Generated_Source\PSoC6\pdl\drivers\peripheral\ctb/cy_ctb.c ****     case CY_CTB_CURRENT_LOW_ACTIVE_DEEPSLEEP:
 614:Generated_Source\PSoC6\pdl\drivers\peripheral\ctb/cy_ctb.c ****     default:
 615:Generated_Source\PSoC6\pdl\drivers\peripheral\ctb/cy_ctb.c **** 
 616:Generated_Source\PSoC6\pdl\drivers\peripheral\ctb/cy_ctb.c ****         /* The AREF IPTAT output for the opamps must be enabled in Deep Sleep.
 617:Generated_Source\PSoC6\pdl\drivers\peripheral\ctb/cy_ctb.c ****          * This means a minimum Deep Sleep mode setting of CY_SYSANALOG_DEEPSLEEP_IPTAT_2. */
 618:Generated_Source\PSoC6\pdl\drivers\peripheral\ctb/cy_ctb.c ****         arefDeepSleep = Cy_SysAnalog_GetDeepSleepMode();
 619:Generated_Source\PSoC6\pdl\drivers\peripheral\ctb/cy_ctb.c ****         if ((arefDeepSleep == CY_SYSANALOG_DEEPSLEEP_DISABLE) || (arefDeepSleep == CY_SYSANALOG_DEE
 620:Generated_Source\PSoC6\pdl\drivers\peripheral\ctb/cy_ctb.c ****         {
 621:Generated_Source\PSoC6\pdl\drivers\peripheral\ctb/cy_ctb.c ****             Cy_SysAnalog_SetDeepSleepMode(CY_SYSANALOG_DEEPSLEEP_IPTAT_2);
 622:Generated_Source\PSoC6\pdl\drivers\peripheral\ctb/cy_ctb.c ****         }
 623:Generated_Source\PSoC6\pdl\drivers\peripheral\ctb/cy_ctb.c **** 
 624:Generated_Source\PSoC6\pdl\drivers\peripheral\ctb/cy_ctb.c ****         /* Use a 100 nA IPTAT level and enable redirection */
 625:Generated_Source\PSoC6\pdl\drivers\peripheral\ctb/cy_ctb.c ****         Cy_CTB_SetIptatLevel(CY_CTB_IPTAT_LOW);
 626:Generated_Source\PSoC6\pdl\drivers\peripheral\ctb/cy_ctb.c ****         Cy_CTB_EnableRedirect();
 627:Generated_Source\PSoC6\pdl\drivers\peripheral\ctb/cy_ctb.c **** 
 628:Generated_Source\PSoC6\pdl\drivers\peripheral\ctb/cy_ctb.c ****         /* Enable Deep Sleep mode for the CTB - not opamp specific */
 629:Generated_Source\PSoC6\pdl\drivers\peripheral\ctb/cy_ctb.c ****         Cy_CTB_SetDeepSleepMode(base, CY_CTB_DEEPSLEEP_ENABLE);
 630:Generated_Source\PSoC6\pdl\drivers\peripheral\ctb/cy_ctb.c **** 
 631:Generated_Source\PSoC6\pdl\drivers\peripheral\ctb/cy_ctb.c ****         /* Disable Opamp0 pump */
 632:Generated_Source\PSoC6\pdl\drivers\peripheral\ctb/cy_ctb.c ****         CTBM_OA_RES0_CTRL(base) &= ~CTBM_OA_RES0_CTRL_OA0_PUMP_EN_Msk;
 633:Generated_Source\PSoC6\pdl\drivers\peripheral\ctb/cy_ctb.c **** 
 634:Generated_Source\PSoC6\pdl\drivers\peripheral\ctb/cy_ctb.c ****         /* Disable Opamp1 pump */
 635:Generated_Source\PSoC6\pdl\drivers\peripheral\ctb/cy_ctb.c ****         CTBM_OA_RES1_CTRL(base) &= ~CTBM_OA_RES1_CTRL_OA1_PUMP_EN_Msk;
 636:Generated_Source\PSoC6\pdl\drivers\peripheral\ctb/cy_ctb.c ****         break;
 637:Generated_Source\PSoC6\pdl\drivers\peripheral\ctb/cy_ctb.c ****     }
 638:Generated_Source\PSoC6\pdl\drivers\peripheral\ctb/cy_ctb.c **** }
 639:Generated_Source\PSoC6\pdl\drivers\peripheral\ctb/cy_ctb.c **** 
ARM GAS  C:\Users\User\AppData\Local\Temp\ccPcfS0D.s 			page 34


 640:Generated_Source\PSoC6\pdl\drivers\peripheral\ctb/cy_ctb.c **** /*******************************************************************************
 641:Generated_Source\PSoC6\pdl\drivers\peripheral\ctb/cy_ctb.c **** * Function Name: Cy_CTB_SetDeepSleepMode
 642:Generated_Source\PSoC6\pdl\drivers\peripheral\ctb/cy_ctb.c **** ****************************************************************************//**
 643:Generated_Source\PSoC6\pdl\drivers\peripheral\ctb/cy_ctb.c **** *
 644:Generated_Source\PSoC6\pdl\drivers\peripheral\ctb/cy_ctb.c **** * Enable or disable the entire CTB (not per opamp) in Deep Sleep mode.
 645:Generated_Source\PSoC6\pdl\drivers\peripheral\ctb/cy_ctb.c **** *
 646:Generated_Source\PSoC6\pdl\drivers\peripheral\ctb/cy_ctb.c **** * If enabled, the AREF block must also be enabled for Deep Sleep to provide
 647:Generated_Source\PSoC6\pdl\drivers\peripheral\ctb/cy_ctb.c **** * the needed reference currents to the opamps (see \ref Cy_SysAnalog_SetDeepSleepMode).
 648:Generated_Source\PSoC6\pdl\drivers\peripheral\ctb/cy_ctb.c **** * Additionally, ensure that only internal CTB switches are used for routing.
 649:Generated_Source\PSoC6\pdl\drivers\peripheral\ctb/cy_ctb.c **** * Switches on AMUXBUSA and AMUXBUSB are not enabled in Deep Sleep.
 650:Generated_Source\PSoC6\pdl\drivers\peripheral\ctb/cy_ctb.c **** * See the \ref group_ctb_dependencies section for more information.
 651:Generated_Source\PSoC6\pdl\drivers\peripheral\ctb/cy_ctb.c **** *
 652:Generated_Source\PSoC6\pdl\drivers\peripheral\ctb/cy_ctb.c **** * \note
 653:Generated_Source\PSoC6\pdl\drivers\peripheral\ctb/cy_ctb.c **** * In Deep Sleep mode, the charge pumps are disabled so the input
 654:Generated_Source\PSoC6\pdl\drivers\peripheral\ctb/cy_ctb.c **** * range of the opamps is reduced to 0 V to VDDA - 1.5 V.
 655:Generated_Source\PSoC6\pdl\drivers\peripheral\ctb/cy_ctb.c **** *
 656:Generated_Source\PSoC6\pdl\drivers\peripheral\ctb/cy_ctb.c **** * \param base
 657:Generated_Source\PSoC6\pdl\drivers\peripheral\ctb/cy_ctb.c **** * Pointer to structure describing registers
 658:Generated_Source\PSoC6\pdl\drivers\peripheral\ctb/cy_ctb.c **** *
 659:Generated_Source\PSoC6\pdl\drivers\peripheral\ctb/cy_ctb.c **** * \param deepSleep
 660:Generated_Source\PSoC6\pdl\drivers\peripheral\ctb/cy_ctb.c **** * \ref CY_CTB_DEEPSLEEP_DISABLE or \ref CY_CTB_DEEPSLEEP_ENABLE from
 661:Generated_Source\PSoC6\pdl\drivers\peripheral\ctb/cy_ctb.c **** * \ref cy_en_ctb_deep_sleep_t.
 662:Generated_Source\PSoC6\pdl\drivers\peripheral\ctb/cy_ctb.c **** *
 663:Generated_Source\PSoC6\pdl\drivers\peripheral\ctb/cy_ctb.c **** * \return None
 664:Generated_Source\PSoC6\pdl\drivers\peripheral\ctb/cy_ctb.c **** *
 665:Generated_Source\PSoC6\pdl\drivers\peripheral\ctb/cy_ctb.c **** * \funcusage
 666:Generated_Source\PSoC6\pdl\drivers\peripheral\ctb/cy_ctb.c **** *
 667:Generated_Source\PSoC6\pdl\drivers\peripheral\ctb/cy_ctb.c **** * \snippet ctb_sut_01.cydsn/main_cm4.c CTB_SNIPPET_SET_DEEPSLEEP_MODE
 668:Generated_Source\PSoC6\pdl\drivers\peripheral\ctb/cy_ctb.c **** *
 669:Generated_Source\PSoC6\pdl\drivers\peripheral\ctb/cy_ctb.c **** *******************************************************************************/
 670:Generated_Source\PSoC6\pdl\drivers\peripheral\ctb/cy_ctb.c **** void Cy_CTB_SetDeepSleepMode(CTBM_Type *base, cy_en_ctb_deep_sleep_t deepSleep)
 671:Generated_Source\PSoC6\pdl\drivers\peripheral\ctb/cy_ctb.c **** {
 1233              		.loc 1 671 0
 1234              		.cfi_startproc
 1235              		@ args = 0, pretend = 0, frame = 0
 1236              		@ frame_needed = 0, uses_anonymous_args = 0
 1237              	.LVL73:
 1238 0000 70B5     		push	{r4, r5, r6, lr}
 1239              		.cfi_def_cfa_offset 16
 1240              		.cfi_offset 4, -16
 1241              		.cfi_offset 5, -12
 1242              		.cfi_offset 6, -8
 1243              		.cfi_offset 14, -4
 1244 0002 0500     		movs	r5, r0
 1245 0004 0C1E     		subs	r4, r1, #0
 672:Generated_Source\PSoC6\pdl\drivers\peripheral\ctb/cy_ctb.c ****     CY_ASSERT_L3(CY_CTB_DEEPSLEEP(deepSleep));
 1246              		.loc 1 672 0
 1247 0006 08D0     		beq	.L104
 1248              		.loc 1 672 0 is_stmt 0 discriminator 1
 1249 0008 8023     		movs	r3, #128
 1250 000a DB05     		lsls	r3, r3, #23
 1251 000c 9942     		cmp	r1, r3
 1252 000e 04D0     		beq	.L104
 1253              		.loc 1 672 0 discriminator 2
 1254 0010 A821     		movs	r1, #168
 1255              	.LVL74:
 1256 0012 8900     		lsls	r1, r1, #2
ARM GAS  C:\Users\User\AppData\Local\Temp\ccPcfS0D.s 			page 35


 1257 0014 0448     		ldr	r0, .L105
 1258              	.LVL75:
 1259 0016 FFF7FEFF 		bl	Cy_SysLib_AssertFailed
 1260              	.LVL76:
 1261              	.L104:
 673:Generated_Source\PSoC6\pdl\drivers\peripheral\ctb/cy_ctb.c **** 
 674:Generated_Source\PSoC6\pdl\drivers\peripheral\ctb/cy_ctb.c ****     uint32_t ctbCtrl;
 675:Generated_Source\PSoC6\pdl\drivers\peripheral\ctb/cy_ctb.c **** 
 676:Generated_Source\PSoC6\pdl\drivers\peripheral\ctb/cy_ctb.c ****     ctbCtrl = CTBM_CTB_CTRL(base) & ~CTBM_CTB_CTRL_DEEPSLEEP_ON_Msk;
 1262              		.loc 1 676 0 is_stmt 1
 1263 001a 2968     		ldr	r1, [r5]
 1264 001c 034B     		ldr	r3, .L105+4
 1265 001e 1940     		ands	r1, r3
 1266              	.LVL77:
 677:Generated_Source\PSoC6\pdl\drivers\peripheral\ctb/cy_ctb.c **** 
 678:Generated_Source\PSoC6\pdl\drivers\peripheral\ctb/cy_ctb.c ****     CTBM_CTB_CTRL(base) = ctbCtrl | (uint32_t)deepSleep;
 1267              		.loc 1 678 0
 1268 0020 2143     		orrs	r1, r4
 1269              	.LVL78:
 1270 0022 2960     		str	r1, [r5]
 679:Generated_Source\PSoC6\pdl\drivers\peripheral\ctb/cy_ctb.c **** }
 1271              		.loc 1 679 0
 1272              		@ sp needed
 1273              	.LVL79:
 1274              	.LVL80:
 1275 0024 70BD     		pop	{r4, r5, r6, pc}
 1276              	.L106:
 1277 0026 C046     		.align	2
 1278              	.L105:
 1279 0028 00000000 		.word	.LC0
 1280 002c FFFFFFBF 		.word	-1073741825
 1281              		.cfi_endproc
 1282              	.LFE108:
 1283              		.size	Cy_CTB_SetDeepSleepMode, .-Cy_CTB_SetDeepSleepMode
 1284              		.section	.text.Cy_CTB_SetCurrentMode,"ax",%progbits
 1285              		.align	2
 1286              		.global	Cy_CTB_SetCurrentMode
 1287              		.code	16
 1288              		.thumb_func
 1289              		.type	Cy_CTB_SetCurrentMode, %function
 1290              	Cy_CTB_SetCurrentMode:
 1291              	.LFB107:
 569:Generated_Source\PSoC6\pdl\drivers\peripheral\ctb/cy_ctb.c ****     CY_ASSERT_L3(CY_CTB_CURRENTMODE(currentMode));
 1292              		.loc 1 569 0
 1293              		.cfi_startproc
 1294              		@ args = 0, pretend = 0, frame = 0
 1295              		@ frame_needed = 0, uses_anonymous_args = 0
 1296              	.LVL81:
 1297 0000 70B5     		push	{r4, r5, r6, lr}
 1298              		.cfi_def_cfa_offset 16
 1299              		.cfi_offset 4, -16
 1300              		.cfi_offset 5, -12
 1301              		.cfi_offset 6, -8
 1302              		.cfi_offset 14, -4
 1303 0002 0400     		movs	r4, r0
 1304 0004 0D00     		movs	r5, r1
 570:Generated_Source\PSoC6\pdl\drivers\peripheral\ctb/cy_ctb.c **** 
ARM GAS  C:\Users\User\AppData\Local\Temp\ccPcfS0D.s 			page 36


 1305              		.loc 1 570 0
 1306 0006 0229     		cmp	r1, #2
 1307 0008 03D9     		bls	.L108
 570:Generated_Source\PSoC6\pdl\drivers\peripheral\ctb/cy_ctb.c **** 
 1308              		.loc 1 570 0 is_stmt 0 discriminator 1
 1309 000a 3C49     		ldr	r1, .L116
 1310              	.LVL82:
 1311 000c 3C48     		ldr	r0, .L116+4
 1312              	.LVL83:
 1313 000e FFF7FEFF 		bl	Cy_SysLib_AssertFailed
 1314              	.LVL84:
 1315              	.L108:
 574:Generated_Source\PSoC6\pdl\drivers\peripheral\ctb/cy_ctb.c ****     {
 1316              		.loc 1 574 0 is_stmt 1
 1317 0012 002D     		cmp	r5, #0
 1318 0014 02D0     		beq	.L110
 1319 0016 012D     		cmp	r5, #1
 1320 0018 1BD0     		beq	.L111
 1321 001a 3DE0     		b	.L115
 1322              	.L110:
 1323              	.LVL85:
 1324              	.LBB20:
 1325              	.LBB21:
 1326              		.file 2 "Generated_Source\\PSoC6\\pdl\\drivers\\peripheral\\ctb\\cy_ctb.h"
   1:Generated_Source\PSoC6\pdl\drivers\peripheral\ctb/cy_ctb.h **** /***************************************************************************//**
   2:Generated_Source\PSoC6\pdl\drivers\peripheral\ctb/cy_ctb.h **** * \file cy_ctb.h
   3:Generated_Source\PSoC6\pdl\drivers\peripheral\ctb/cy_ctb.h **** * \version 1.10
   4:Generated_Source\PSoC6\pdl\drivers\peripheral\ctb/cy_ctb.h **** *
   5:Generated_Source\PSoC6\pdl\drivers\peripheral\ctb/cy_ctb.h **** * Header file for the CTB driver
   6:Generated_Source\PSoC6\pdl\drivers\peripheral\ctb/cy_ctb.h **** *
   7:Generated_Source\PSoC6\pdl\drivers\peripheral\ctb/cy_ctb.h **** ********************************************************************************
   8:Generated_Source\PSoC6\pdl\drivers\peripheral\ctb/cy_ctb.h **** * \copyright
   9:Generated_Source\PSoC6\pdl\drivers\peripheral\ctb/cy_ctb.h **** * Copyright 2017-2018, Cypress Semiconductor Corporation. All rights reserved.
  10:Generated_Source\PSoC6\pdl\drivers\peripheral\ctb/cy_ctb.h **** * You may use this file only in accordance with the license, terms, conditions,
  11:Generated_Source\PSoC6\pdl\drivers\peripheral\ctb/cy_ctb.h **** * disclaimers, and limitations in the end user license agreement accompanying
  12:Generated_Source\PSoC6\pdl\drivers\peripheral\ctb/cy_ctb.h **** * the software package with which this file was provided.
  13:Generated_Source\PSoC6\pdl\drivers\peripheral\ctb/cy_ctb.h **** *******************************************************************************/
  14:Generated_Source\PSoC6\pdl\drivers\peripheral\ctb/cy_ctb.h **** 
  15:Generated_Source\PSoC6\pdl\drivers\peripheral\ctb/cy_ctb.h **** /**
  16:Generated_Source\PSoC6\pdl\drivers\peripheral\ctb/cy_ctb.h **** * \addtogroup group_ctb
  17:Generated_Source\PSoC6\pdl\drivers\peripheral\ctb/cy_ctb.h **** * \{
  18:Generated_Source\PSoC6\pdl\drivers\peripheral\ctb/cy_ctb.h **** * This driver provides API functions to configure and use the analog CTB.
  19:Generated_Source\PSoC6\pdl\drivers\peripheral\ctb/cy_ctb.h **** *
  20:Generated_Source\PSoC6\pdl\drivers\peripheral\ctb/cy_ctb.h **** * The functions and other declarations used in this driver are in cy_ctb.h. 
  21:Generated_Source\PSoC6\pdl\drivers\peripheral\ctb/cy_ctb.h **** * You can include cy_pdl.h (ModusToolbox only) to get access to all functions 
  22:Generated_Source\PSoC6\pdl\drivers\peripheral\ctb/cy_ctb.h **** * and declarations in the PDL.
  23:Generated_Source\PSoC6\pdl\drivers\peripheral\ctb/cy_ctb.h **** *
  24:Generated_Source\PSoC6\pdl\drivers\peripheral\ctb/cy_ctb.h **** * The CTB comprises two identical opamps, a switch routing matrix,
  25:Generated_Source\PSoC6\pdl\drivers\peripheral\ctb/cy_ctb.h **** * and a sample and hold (SH) circuit. The high level features are:
  26:Generated_Source\PSoC6\pdl\drivers\peripheral\ctb/cy_ctb.h **** *
  27:Generated_Source\PSoC6\pdl\drivers\peripheral\ctb/cy_ctb.h **** *   - Two highly configurable opamps
  28:Generated_Source\PSoC6\pdl\drivers\peripheral\ctb/cy_ctb.h **** *       - Each opamp has programmable power and output drive strength
  29:Generated_Source\PSoC6\pdl\drivers\peripheral\ctb/cy_ctb.h **** *       - Each opamp can be configured as a voltage follower using internal routing
  30:Generated_Source\PSoC6\pdl\drivers\peripheral\ctb/cy_ctb.h **** *       - Each opamp can be configured as a comparator with optional 10 mV hysteresis
  31:Generated_Source\PSoC6\pdl\drivers\peripheral\ctb/cy_ctb.h **** *   - Flexible input and output routing
  32:Generated_Source\PSoC6\pdl\drivers\peripheral\ctb/cy_ctb.h **** *   - Works as a buffer or amplifier for SAR ADC inputs
  33:Generated_Source\PSoC6\pdl\drivers\peripheral\ctb/cy_ctb.h **** *   - Works as a buffer, amplifier, or sample and hold (SH) for the CTDAC output
ARM GAS  C:\Users\User\AppData\Local\Temp\ccPcfS0D.s 			page 37


  34:Generated_Source\PSoC6\pdl\drivers\peripheral\ctb/cy_ctb.h **** *   - Can operate in Deep Sleep power mode
  35:Generated_Source\PSoC6\pdl\drivers\peripheral\ctb/cy_ctb.h **** *
  36:Generated_Source\PSoC6\pdl\drivers\peripheral\ctb/cy_ctb.h **** * Each opamp, marked OA0 and OA1, has one input and three output stages,
  37:Generated_Source\PSoC6\pdl\drivers\peripheral\ctb/cy_ctb.h **** * all of which share the common input stage.
  38:Generated_Source\PSoC6\pdl\drivers\peripheral\ctb/cy_ctb.h **** * Note that only one output stage can be selected at a time.
  39:Generated_Source\PSoC6\pdl\drivers\peripheral\ctb/cy_ctb.h **** * The output stage can operate as a low-drive strength opamp for internal connections (1X), a high-
  40:Generated_Source\PSoC6\pdl\drivers\peripheral\ctb/cy_ctb.h **** * opamp for driving a device pin (10X), or a comparator.
  41:Generated_Source\PSoC6\pdl\drivers\peripheral\ctb/cy_ctb.h **** *
  42:Generated_Source\PSoC6\pdl\drivers\peripheral\ctb/cy_ctb.h **** * Using the switching matrix, the opamp inputs and outputs
  43:Generated_Source\PSoC6\pdl\drivers\peripheral\ctb/cy_ctb.h **** * can be connected to dedicated general-purpose I/Os or other internal analog
  44:Generated_Source\PSoC6\pdl\drivers\peripheral\ctb/cy_ctb.h **** * blocks. See the device datasheet for the dedicated CTB port.
  45:Generated_Source\PSoC6\pdl\drivers\peripheral\ctb/cy_ctb.h **** *
  46:Generated_Source\PSoC6\pdl\drivers\peripheral\ctb/cy_ctb.h **** * \image html ctb_block_diagram.png "CTB Switch Diagram" width=1000px
  47:Generated_Source\PSoC6\pdl\drivers\peripheral\ctb/cy_ctb.h **** * \image latex ctb_block_diagram.png
  48:Generated_Source\PSoC6\pdl\drivers\peripheral\ctb/cy_ctb.h **** *
  49:Generated_Source\PSoC6\pdl\drivers\peripheral\ctb/cy_ctb.h **** * \section group_ctb_init Initialization and Enable
  50:Generated_Source\PSoC6\pdl\drivers\peripheral\ctb/cy_ctb.h **** *
  51:Generated_Source\PSoC6\pdl\drivers\peripheral\ctb/cy_ctb.h **** * Before enabling the CTB, set up any external components (such as resistors)
  52:Generated_Source\PSoC6\pdl\drivers\peripheral\ctb/cy_ctb.h **** * that are needed for the design. To configure the entire hardware block, call \ref Cy_CTB_Init.
  53:Generated_Source\PSoC6\pdl\drivers\peripheral\ctb/cy_ctb.h **** * The base address of the CTB hardware can be found in the device specific header file.
  54:Generated_Source\PSoC6\pdl\drivers\peripheral\ctb/cy_ctb.h **** * Alternatively, to configure only one opamp without any routing, call \ref Cy_CTB_OpampInit.
  55:Generated_Source\PSoC6\pdl\drivers\peripheral\ctb/cy_ctb.h **** * The driver also provides a \ref Cy_CTB_FastInit function for fast and easy initialization of the 
  56:Generated_Source\PSoC6\pdl\drivers\peripheral\ctb/cy_ctb.h **** * based on commonly used configurations. They are pre-defined in the driver as:
  57:Generated_Source\PSoC6\pdl\drivers\peripheral\ctb/cy_ctb.h **** *
  58:Generated_Source\PSoC6\pdl\drivers\peripheral\ctb/cy_ctb.h **** * <b> Opamp0 </b>
  59:Generated_Source\PSoC6\pdl\drivers\peripheral\ctb/cy_ctb.h **** * - \ref Cy_CTB_Fast_Opamp0_Unused
  60:Generated_Source\PSoC6\pdl\drivers\peripheral\ctb/cy_ctb.h **** * - \ref Cy_CTB_Fast_Opamp0_Comp
  61:Generated_Source\PSoC6\pdl\drivers\peripheral\ctb/cy_ctb.h **** * - \ref Cy_CTB_Fast_Opamp0_Opamp1x
  62:Generated_Source\PSoC6\pdl\drivers\peripheral\ctb/cy_ctb.h **** * - \ref Cy_CTB_Fast_Opamp0_Opamp10x
  63:Generated_Source\PSoC6\pdl\drivers\peripheral\ctb/cy_ctb.h **** * - \ref Cy_CTB_Fast_Opamp0_Diffamp
  64:Generated_Source\PSoC6\pdl\drivers\peripheral\ctb/cy_ctb.h **** * - \ref Cy_CTB_Fast_Opamp0_Vdac_Out
  65:Generated_Source\PSoC6\pdl\drivers\peripheral\ctb/cy_ctb.h **** * - \ref Cy_CTB_Fast_Opamp0_Vdac_Out_SH
  66:Generated_Source\PSoC6\pdl\drivers\peripheral\ctb/cy_ctb.h **** *
  67:Generated_Source\PSoC6\pdl\drivers\peripheral\ctb/cy_ctb.h **** * <b> Opamp1 </b>
  68:Generated_Source\PSoC6\pdl\drivers\peripheral\ctb/cy_ctb.h **** * - \ref Cy_CTB_Fast_Opamp1_Unused
  69:Generated_Source\PSoC6\pdl\drivers\peripheral\ctb/cy_ctb.h **** * - \ref Cy_CTB_Fast_Opamp1_Comp
  70:Generated_Source\PSoC6\pdl\drivers\peripheral\ctb/cy_ctb.h **** * - \ref Cy_CTB_Fast_Opamp1_Opamp1x
  71:Generated_Source\PSoC6\pdl\drivers\peripheral\ctb/cy_ctb.h **** * - \ref Cy_CTB_Fast_Opamp1_Opamp10x
  72:Generated_Source\PSoC6\pdl\drivers\peripheral\ctb/cy_ctb.h **** * - \ref Cy_CTB_Fast_Opamp1_Diffamp
  73:Generated_Source\PSoC6\pdl\drivers\peripheral\ctb/cy_ctb.h **** * - \ref Cy_CTB_Fast_Opamp1_Vdac_Ref_Aref
  74:Generated_Source\PSoC6\pdl\drivers\peripheral\ctb/cy_ctb.h **** * - \ref Cy_CTB_Fast_Opamp1_Vdac_Ref_Pin5
  75:Generated_Source\PSoC6\pdl\drivers\peripheral\ctb/cy_ctb.h **** *
  76:Generated_Source\PSoC6\pdl\drivers\peripheral\ctb/cy_ctb.h **** * After initialization, call \ref Cy_CTB_Enable to enable the hardware.
  77:Generated_Source\PSoC6\pdl\drivers\peripheral\ctb/cy_ctb.h **** *
  78:Generated_Source\PSoC6\pdl\drivers\peripheral\ctb/cy_ctb.h **** * \section group_ctb_io_connections Input/Output Connections
  79:Generated_Source\PSoC6\pdl\drivers\peripheral\ctb/cy_ctb.h **** *
  80:Generated_Source\PSoC6\pdl\drivers\peripheral\ctb/cy_ctb.h **** * The CTB has internal switches to support flexible input and output routing. If these switches
  81:Generated_Source\PSoC6\pdl\drivers\peripheral\ctb/cy_ctb.h **** * have not been configured during initialization, call \ref Cy_CTB_SetAnalogSwitch to
  82:Generated_Source\PSoC6\pdl\drivers\peripheral\ctb/cy_ctb.h **** * make the input and output connections.
  83:Generated_Source\PSoC6\pdl\drivers\peripheral\ctb/cy_ctb.h **** *
  84:Generated_Source\PSoC6\pdl\drivers\peripheral\ctb/cy_ctb.h **** * \snippet ctb_sut_01.cydsn/main_cm4.c CTB_SNIPPET_SET_ANALOG_SWITCH
  85:Generated_Source\PSoC6\pdl\drivers\peripheral\ctb/cy_ctb.h **** *
  86:Generated_Source\PSoC6\pdl\drivers\peripheral\ctb/cy_ctb.h **** * As shown in the CTB switch diagram, the 10x output of OA0 and OA1 have dedicated
  87:Generated_Source\PSoC6\pdl\drivers\peripheral\ctb/cy_ctb.h **** * connections to Pin 2 and Pin 3, respectively, of the CTB port. If different output
  88:Generated_Source\PSoC6\pdl\drivers\peripheral\ctb/cy_ctb.h **** * connections are required, the other CTB switches and/or AMUXBUX A/B switches can be used.
  89:Generated_Source\PSoC6\pdl\drivers\peripheral\ctb/cy_ctb.h **** *
  90:Generated_Source\PSoC6\pdl\drivers\peripheral\ctb/cy_ctb.h **** * \section group_ctb_comparator Comparator Mode
ARM GAS  C:\Users\User\AppData\Local\Temp\ccPcfS0D.s 			page 38


  91:Generated_Source\PSoC6\pdl\drivers\peripheral\ctb/cy_ctb.h **** *
  92:Generated_Source\PSoC6\pdl\drivers\peripheral\ctb/cy_ctb.h **** * Each opamp can be configured as a comparator. Note that when used as a
  93:Generated_Source\PSoC6\pdl\drivers\peripheral\ctb/cy_ctb.h **** * comparator, the hardware shuts down the 1X and 10X output drivers.
  94:Generated_Source\PSoC6\pdl\drivers\peripheral\ctb/cy_ctb.h **** * Specific to the comparator mode, there is an optional 10 mV input hysteresis
  95:Generated_Source\PSoC6\pdl\drivers\peripheral\ctb/cy_ctb.h **** * and configurable edge detection interrupt handling.
  96:Generated_Source\PSoC6\pdl\drivers\peripheral\ctb/cy_ctb.h **** *
  97:Generated_Source\PSoC6\pdl\drivers\peripheral\ctb/cy_ctb.h **** * - Negative input terminal: This input is usually connected to the reference voltage.
  98:Generated_Source\PSoC6\pdl\drivers\peripheral\ctb/cy_ctb.h **** * - Positive input terminal: This input is usually connected to the voltage that is being compared.
  99:Generated_Source\PSoC6\pdl\drivers\peripheral\ctb/cy_ctb.h **** * - Comparator digital output: This output goes high when the positive input voltage
 100:Generated_Source\PSoC6\pdl\drivers\peripheral\ctb/cy_ctb.h **** *   is greater than the negative input voltage.
 101:Generated_Source\PSoC6\pdl\drivers\peripheral\ctb/cy_ctb.h **** *
 102:Generated_Source\PSoC6\pdl\drivers\peripheral\ctb/cy_ctb.h **** * The comparator output can be routed to a pin or other components using HSIOM or trigger muxes.
 103:Generated_Source\PSoC6\pdl\drivers\peripheral\ctb/cy_ctb.h **** *
 104:Generated_Source\PSoC6\pdl\drivers\peripheral\ctb/cy_ctb.h **** * \snippet ctb_sut_01.cydsn/main_cm0p.c SNIPPET_COMP_OUT_ROUTING
 105:Generated_Source\PSoC6\pdl\drivers\peripheral\ctb/cy_ctb.h **** *
 106:Generated_Source\PSoC6\pdl\drivers\peripheral\ctb/cy_ctb.h **** * \subsection group_ctb_comparator_handling_interrupts Handling interrupts
 107:Generated_Source\PSoC6\pdl\drivers\peripheral\ctb/cy_ctb.h **** *
 108:Generated_Source\PSoC6\pdl\drivers\peripheral\ctb/cy_ctb.h **** * The comparator output is connected to an edge detector
 109:Generated_Source\PSoC6\pdl\drivers\peripheral\ctb/cy_ctb.h **** * block, which is used to detect the edge (rising, falling, both, or disabled)
 110:Generated_Source\PSoC6\pdl\drivers\peripheral\ctb/cy_ctb.h **** * for interrupt generation.
 111:Generated_Source\PSoC6\pdl\drivers\peripheral\ctb/cy_ctb.h **** *
 112:Generated_Source\PSoC6\pdl\drivers\peripheral\ctb/cy_ctb.h **** * The following code snippet demonstrates how to implement a routine to handle the interrupt.
 113:Generated_Source\PSoC6\pdl\drivers\peripheral\ctb/cy_ctb.h **** * The routine gets called when any comparator on the device generates an interrupt.
 114:Generated_Source\PSoC6\pdl\drivers\peripheral\ctb/cy_ctb.h **** *
 115:Generated_Source\PSoC6\pdl\drivers\peripheral\ctb/cy_ctb.h **** * \snippet ctb_sut_01.cydsn/main_cm0p.c SNIPPET_COMP_ISR
 116:Generated_Source\PSoC6\pdl\drivers\peripheral\ctb/cy_ctb.h **** *
 117:Generated_Source\PSoC6\pdl\drivers\peripheral\ctb/cy_ctb.h **** * The following code snippet demonstrates how to configure and enable the interrupt.
 118:Generated_Source\PSoC6\pdl\drivers\peripheral\ctb/cy_ctb.h **** *
 119:Generated_Source\PSoC6\pdl\drivers\peripheral\ctb/cy_ctb.h **** * \snippet ctb_sut_01.cydsn/main_cm0p.c SNIPPET_COMP_INTR_SETUP
 120:Generated_Source\PSoC6\pdl\drivers\peripheral\ctb/cy_ctb.h **** *
 121:Generated_Source\PSoC6\pdl\drivers\peripheral\ctb/cy_ctb.h **** * \section group_ctb_opamp_range Opamp Input and Output Range
 122:Generated_Source\PSoC6\pdl\drivers\peripheral\ctb/cy_ctb.h **** *
 123:Generated_Source\PSoC6\pdl\drivers\peripheral\ctb/cy_ctb.h **** * The input range of the opamp can be rail-to-rail if the charge pump is enabled.
 124:Generated_Source\PSoC6\pdl\drivers\peripheral\ctb/cy_ctb.h **** * Without the charge pump, the input range is 0 V to VDDA - 1.5 V. The output range
 125:Generated_Source\PSoC6\pdl\drivers\peripheral\ctb/cy_ctb.h **** * of the opamp is typically 0.2 V to VDDA - 0.2 V and will depend on the load. See the
 126:Generated_Source\PSoC6\pdl\drivers\peripheral\ctb/cy_ctb.h **** * device datasheet for more detail.
 127:Generated_Source\PSoC6\pdl\drivers\peripheral\ctb/cy_ctb.h **** *
 128:Generated_Source\PSoC6\pdl\drivers\peripheral\ctb/cy_ctb.h **** * <table class="doxtable">
 129:Generated_Source\PSoC6\pdl\drivers\peripheral\ctb/cy_ctb.h **** *   <tr>
 130:Generated_Source\PSoC6\pdl\drivers\peripheral\ctb/cy_ctb.h **** *     <th>Charge Pump</th>
 131:Generated_Source\PSoC6\pdl\drivers\peripheral\ctb/cy_ctb.h **** *     <th>Input Range</th></tr>
 132:Generated_Source\PSoC6\pdl\drivers\peripheral\ctb/cy_ctb.h **** *     <th>Output Range</th></tr>
 133:Generated_Source\PSoC6\pdl\drivers\peripheral\ctb/cy_ctb.h **** *   <tr>
 134:Generated_Source\PSoC6\pdl\drivers\peripheral\ctb/cy_ctb.h **** *     <td>Enabled</td>
 135:Generated_Source\PSoC6\pdl\drivers\peripheral\ctb/cy_ctb.h **** *     <td>0 V to VDDA</td>
 136:Generated_Source\PSoC6\pdl\drivers\peripheral\ctb/cy_ctb.h **** *     <td>0.2 V to VDDA - 0.2 V</td>
 137:Generated_Source\PSoC6\pdl\drivers\peripheral\ctb/cy_ctb.h **** *   </tr>
 138:Generated_Source\PSoC6\pdl\drivers\peripheral\ctb/cy_ctb.h **** *   <tr>
 139:Generated_Source\PSoC6\pdl\drivers\peripheral\ctb/cy_ctb.h **** *     <td>Disabled</td>
 140:Generated_Source\PSoC6\pdl\drivers\peripheral\ctb/cy_ctb.h **** *     <td>0 V to VDDA - 1.5 V</td>
 141:Generated_Source\PSoC6\pdl\drivers\peripheral\ctb/cy_ctb.h **** *     <td>0.2 V to VDDA - 0.2 V</td>
 142:Generated_Source\PSoC6\pdl\drivers\peripheral\ctb/cy_ctb.h **** *   </tr>
 143:Generated_Source\PSoC6\pdl\drivers\peripheral\ctb/cy_ctb.h **** * </table>
 144:Generated_Source\PSoC6\pdl\drivers\peripheral\ctb/cy_ctb.h **** *
 145:Generated_Source\PSoC6\pdl\drivers\peripheral\ctb/cy_ctb.h **** * \section group_ctb_sample_hold Sample and Hold Mode
 146:Generated_Source\PSoC6\pdl\drivers\peripheral\ctb/cy_ctb.h **** *
 147:Generated_Source\PSoC6\pdl\drivers\peripheral\ctb/cy_ctb.h **** * The CTB has a sample and hold (SH) circuit at the non-inverting input of Opamp0.
ARM GAS  C:\Users\User\AppData\Local\Temp\ccPcfS0D.s 			page 39


 148:Generated_Source\PSoC6\pdl\drivers\peripheral\ctb/cy_ctb.h **** * The circuit includes a hold capacitor, Chold, with a firmware controlled switch, CHD.
 149:Generated_Source\PSoC6\pdl\drivers\peripheral\ctb/cy_ctb.h **** * Sampling and holding the source voltage is performed
 150:Generated_Source\PSoC6\pdl\drivers\peripheral\ctb/cy_ctb.h **** * by closing and opening appropriate switches in the CTB using firmware.
 151:Generated_Source\PSoC6\pdl\drivers\peripheral\ctb/cy_ctb.h **** * If the SH circuit is used for the CTDAC, the \ref Cy_CTB_DACSampleAndHold function
 152:Generated_Source\PSoC6\pdl\drivers\peripheral\ctb/cy_ctb.h **** * should be called.
 153:Generated_Source\PSoC6\pdl\drivers\peripheral\ctb/cy_ctb.h **** *
 154:Generated_Source\PSoC6\pdl\drivers\peripheral\ctb/cy_ctb.h **** * \image html ctb_fast_config_vdac_sh.png
 155:Generated_Source\PSoC6\pdl\drivers\peripheral\ctb/cy_ctb.h **** * \image latex ctb_fast_config_vdac_sh.png
 156:Generated_Source\PSoC6\pdl\drivers\peripheral\ctb/cy_ctb.h **** *
 157:Generated_Source\PSoC6\pdl\drivers\peripheral\ctb/cy_ctb.h **** * \section group_ctb_dependencies Configuration Dependencies
 158:Generated_Source\PSoC6\pdl\drivers\peripheral\ctb/cy_ctb.h **** *
 159:Generated_Source\PSoC6\pdl\drivers\peripheral\ctb/cy_ctb.h **** * The CTB relies on other blocks to function properly. The dependencies
 160:Generated_Source\PSoC6\pdl\drivers\peripheral\ctb/cy_ctb.h **** * are documented here.
 161:Generated_Source\PSoC6\pdl\drivers\peripheral\ctb/cy_ctb.h **** *
 162:Generated_Source\PSoC6\pdl\drivers\peripheral\ctb/cy_ctb.h **** * \subsection group_ctb_dependencies_charge_pump Charge Pump Configuration
 163:Generated_Source\PSoC6\pdl\drivers\peripheral\ctb/cy_ctb.h **** *
 164:Generated_Source\PSoC6\pdl\drivers\peripheral\ctb/cy_ctb.h **** * Each opamp of the CTB has a charge pump that when enabled increases the
 165:Generated_Source\PSoC6\pdl\drivers\peripheral\ctb/cy_ctb.h **** * input range to the supply rails. When disabled, the opamp input range is 0 - VDDA - 1.5 V.
 166:Generated_Source\PSoC6\pdl\drivers\peripheral\ctb/cy_ctb.h **** * When enabled, the pump requires a clock.
 167:Generated_Source\PSoC6\pdl\drivers\peripheral\ctb/cy_ctb.h **** * Call the \ref Cy_CTB_SetClkPumpSource function in the \ref group_sysanalog driver to
 168:Generated_Source\PSoC6\pdl\drivers\peripheral\ctb/cy_ctb.h **** * set the clock source for all CTBs. This clock can come from one of two sources:
 169:Generated_Source\PSoC6\pdl\drivers\peripheral\ctb/cy_ctb.h **** *
 170:Generated_Source\PSoC6\pdl\drivers\peripheral\ctb/cy_ctb.h **** *   -# A dedicated clock divider from one of the CLK_PATH in the SRSS
 171:Generated_Source\PSoC6\pdl\drivers\peripheral\ctb/cy_ctb.h **** *
 172:Generated_Source\PSoC6\pdl\drivers\peripheral\ctb/cy_ctb.h **** *      Call the following functions to configure the pump clock from the SRSS:
 173:Generated_Source\PSoC6\pdl\drivers\peripheral\ctb/cy_ctb.h **** *       - \ref Cy_SysClk_ClkPumpSetSource
 174:Generated_Source\PSoC6\pdl\drivers\peripheral\ctb/cy_ctb.h **** *       - \ref Cy_SysClk_ClkPumpSetDivider
 175:Generated_Source\PSoC6\pdl\drivers\peripheral\ctb/cy_ctb.h **** *       - \ref Cy_SysClk_ClkPumpEnable
 176:Generated_Source\PSoC6\pdl\drivers\peripheral\ctb/cy_ctb.h **** *
 177:Generated_Source\PSoC6\pdl\drivers\peripheral\ctb/cy_ctb.h **** *      \snippet ctb_sut_01.cydsn/main_cm4.c CTB_SNIPPET_SET_CLK_PUMP_SOURCE_SRSS
 178:Generated_Source\PSoC6\pdl\drivers\peripheral\ctb/cy_ctb.h **** *
 179:Generated_Source\PSoC6\pdl\drivers\peripheral\ctb/cy_ctb.h **** *   -# One of the Peri Clock dividers
 180:Generated_Source\PSoC6\pdl\drivers\peripheral\ctb/cy_ctb.h **** *
 181:Generated_Source\PSoC6\pdl\drivers\peripheral\ctb/cy_ctb.h **** *      Call the following functions to configure a Peri Clock divider as the
 182:Generated_Source\PSoC6\pdl\drivers\peripheral\ctb/cy_ctb.h **** *      pump clock:
 183:Generated_Source\PSoC6\pdl\drivers\peripheral\ctb/cy_ctb.h **** *       - \ref Cy_SysClk_PeriphAssignDivider with the IP block set to PCLK_PASS_CLOCK_PUMP_PERI
 184:Generated_Source\PSoC6\pdl\drivers\peripheral\ctb/cy_ctb.h **** *       - \ref Cy_SysClk_PeriphSetDivider
 185:Generated_Source\PSoC6\pdl\drivers\peripheral\ctb/cy_ctb.h **** *       - \ref Cy_SysClk_PeriphEnableDivider
 186:Generated_Source\PSoC6\pdl\drivers\peripheral\ctb/cy_ctb.h **** *
 187:Generated_Source\PSoC6\pdl\drivers\peripheral\ctb/cy_ctb.h **** *      \snippet ctb_sut_01.cydsn/main_cm4.c CTB_SNIPPET_SET_CLK_PUMP_SOURCE_PERI
 188:Generated_Source\PSoC6\pdl\drivers\peripheral\ctb/cy_ctb.h **** *
 189:Generated_Source\PSoC6\pdl\drivers\peripheral\ctb/cy_ctb.h **** * When the charge pump is enabled, the clock frequency should be set as follows:
 190:Generated_Source\PSoC6\pdl\drivers\peripheral\ctb/cy_ctb.h **** *
 191:Generated_Source\PSoC6\pdl\drivers\peripheral\ctb/cy_ctb.h **** * <table class="doxtable">
 192:Generated_Source\PSoC6\pdl\drivers\peripheral\ctb/cy_ctb.h **** *   <tr><th>Opamp Power Level</th><th>Pump Clock Freq</th></tr>
 193:Generated_Source\PSoC6\pdl\drivers\peripheral\ctb/cy_ctb.h **** *   <tr>
 194:Generated_Source\PSoC6\pdl\drivers\peripheral\ctb/cy_ctb.h **** *     <td>Low or Medium</td>
 195:Generated_Source\PSoC6\pdl\drivers\peripheral\ctb/cy_ctb.h **** *     <td>8 - 24 MHz</td>
 196:Generated_Source\PSoC6\pdl\drivers\peripheral\ctb/cy_ctb.h **** *   </tr>
 197:Generated_Source\PSoC6\pdl\drivers\peripheral\ctb/cy_ctb.h **** *   <tr>
 198:Generated_Source\PSoC6\pdl\drivers\peripheral\ctb/cy_ctb.h **** *     <td>High</td>
 199:Generated_Source\PSoC6\pdl\drivers\peripheral\ctb/cy_ctb.h **** *     <td>24 MHz</td>
 200:Generated_Source\PSoC6\pdl\drivers\peripheral\ctb/cy_ctb.h **** *   </tr>
 201:Generated_Source\PSoC6\pdl\drivers\peripheral\ctb/cy_ctb.h **** * </table>
 202:Generated_Source\PSoC6\pdl\drivers\peripheral\ctb/cy_ctb.h **** *
 203:Generated_Source\PSoC6\pdl\drivers\peripheral\ctb/cy_ctb.h **** * The High power level of the opamp requires a 24 MHz pump clock.
 204:Generated_Source\PSoC6\pdl\drivers\peripheral\ctb/cy_ctb.h **** * In Deep Sleep mode, all high frequency clocks are
ARM GAS  C:\Users\User\AppData\Local\Temp\ccPcfS0D.s 			page 40


 205:Generated_Source\PSoC6\pdl\drivers\peripheral\ctb/cy_ctb.h **** * disabled and the charge pump will be disabled.
 206:Generated_Source\PSoC6\pdl\drivers\peripheral\ctb/cy_ctb.h **** *
 207:Generated_Source\PSoC6\pdl\drivers\peripheral\ctb/cy_ctb.h **** * \note
 208:Generated_Source\PSoC6\pdl\drivers\peripheral\ctb/cy_ctb.h **** * The same pump clock is used by all opamps on the device. Be aware of this
 209:Generated_Source\PSoC6\pdl\drivers\peripheral\ctb/cy_ctb.h **** * when configuring different opamps to different power levels.
 210:Generated_Source\PSoC6\pdl\drivers\peripheral\ctb/cy_ctb.h **** *
 211:Generated_Source\PSoC6\pdl\drivers\peripheral\ctb/cy_ctb.h **** * \subsection group_ctb_dependencies_reference_current Reference Current Configurations
 212:Generated_Source\PSoC6\pdl\drivers\peripheral\ctb/cy_ctb.h **** *
 213:Generated_Source\PSoC6\pdl\drivers\peripheral\ctb/cy_ctb.h **** * The CTB uses two reference current generators, IPTAT and IZTAT, from
 214:Generated_Source\PSoC6\pdl\drivers\peripheral\ctb/cy_ctb.h **** * the AREF block (see \ref group_sysanalog driver). The IPTAT current is
 215:Generated_Source\PSoC6\pdl\drivers\peripheral\ctb/cy_ctb.h **** * used to trim the slope of the opamp offset across temperature.
 216:Generated_Source\PSoC6\pdl\drivers\peripheral\ctb/cy_ctb.h **** * The AREF must be initialized and enabled for the CTB to function properly.
 217:Generated_Source\PSoC6\pdl\drivers\peripheral\ctb/cy_ctb.h **** *
 218:Generated_Source\PSoC6\pdl\drivers\peripheral\ctb/cy_ctb.h **** * If the CTB is configured to operate in Deep Sleep mode,
 219:Generated_Source\PSoC6\pdl\drivers\peripheral\ctb/cy_ctb.h **** * the appropriate reference current generators from the AREF block must be enabled in Deep Sleep.
 220:Generated_Source\PSoC6\pdl\drivers\peripheral\ctb/cy_ctb.h **** * When waking up from Deep Sleep,
 221:Generated_Source\PSoC6\pdl\drivers\peripheral\ctb/cy_ctb.h **** * the AREF block has a wakeup time that must be
 222:Generated_Source\PSoC6\pdl\drivers\peripheral\ctb/cy_ctb.h **** * considered. Note that configurations in the AREF block
 223:Generated_Source\PSoC6\pdl\drivers\peripheral\ctb/cy_ctb.h **** * are chip wide and affect all CTBs on the device.
 224:Generated_Source\PSoC6\pdl\drivers\peripheral\ctb/cy_ctb.h **** *
 225:Generated_Source\PSoC6\pdl\drivers\peripheral\ctb/cy_ctb.h **** * The following reference current configurations are supported:
 226:Generated_Source\PSoC6\pdl\drivers\peripheral\ctb/cy_ctb.h **** *
 227:Generated_Source\PSoC6\pdl\drivers\peripheral\ctb/cy_ctb.h **** * <table class="doxtable">
 228:Generated_Source\PSoC6\pdl\drivers\peripheral\ctb/cy_ctb.h **** *   <tr><th>Reference Current Level</th><th>Supported Mode</th><th>Input Range</th></tr>
 229:Generated_Source\PSoC6\pdl\drivers\peripheral\ctb/cy_ctb.h **** *   <tr>
 230:Generated_Source\PSoC6\pdl\drivers\peripheral\ctb/cy_ctb.h **** *     <td>1 uA</td>
 231:Generated_Source\PSoC6\pdl\drivers\peripheral\ctb/cy_ctb.h **** *     <td>Active/Low Power</td>
 232:Generated_Source\PSoC6\pdl\drivers\peripheral\ctb/cy_ctb.h **** *     <td>Rail-to-Rail (charge pump enabled)</td>
 233:Generated_Source\PSoC6\pdl\drivers\peripheral\ctb/cy_ctb.h **** *   </tr>
 234:Generated_Source\PSoC6\pdl\drivers\peripheral\ctb/cy_ctb.h **** *   <tr>
 235:Generated_Source\PSoC6\pdl\drivers\peripheral\ctb/cy_ctb.h **** *     <td>1 uA</td>
 236:Generated_Source\PSoC6\pdl\drivers\peripheral\ctb/cy_ctb.h **** *     <td>Active/Low Power/Deep Sleep</td>
 237:Generated_Source\PSoC6\pdl\drivers\peripheral\ctb/cy_ctb.h **** *     <td>0 - VDDA-1.5 V (charge pump disabled)</td>
 238:Generated_Source\PSoC6\pdl\drivers\peripheral\ctb/cy_ctb.h **** *   </tr>
 239:Generated_Source\PSoC6\pdl\drivers\peripheral\ctb/cy_ctb.h **** *   <tr>
 240:Generated_Source\PSoC6\pdl\drivers\peripheral\ctb/cy_ctb.h **** *     <td>100 nA</td>
 241:Generated_Source\PSoC6\pdl\drivers\peripheral\ctb/cy_ctb.h **** *     <td>Active/Low Power/Deep Sleep</td>
 242:Generated_Source\PSoC6\pdl\drivers\peripheral\ctb/cy_ctb.h **** *     <td>0 - VDDA-1.5 V (charge pump disabled)</td>
 243:Generated_Source\PSoC6\pdl\drivers\peripheral\ctb/cy_ctb.h **** *   </tr>
 244:Generated_Source\PSoC6\pdl\drivers\peripheral\ctb/cy_ctb.h **** * </table>
 245:Generated_Source\PSoC6\pdl\drivers\peripheral\ctb/cy_ctb.h **** *
 246:Generated_Source\PSoC6\pdl\drivers\peripheral\ctb/cy_ctb.h **** * The first configuration provides low offset and drift with maximum input range
 247:Generated_Source\PSoC6\pdl\drivers\peripheral\ctb/cy_ctb.h **** * while consuming the most current.
 248:Generated_Source\PSoC6\pdl\drivers\peripheral\ctb/cy_ctb.h **** * For Deep Sleep operation, use the other two configurations with the charge pump disabled.
 249:Generated_Source\PSoC6\pdl\drivers\peripheral\ctb/cy_ctb.h **** * For ultra low power, use the 100 nA current level.
 250:Generated_Source\PSoC6\pdl\drivers\peripheral\ctb/cy_ctb.h **** * To configure the opamps to operate in one of these options, call \ref Cy_CTB_SetCurrentMode.
 251:Generated_Source\PSoC6\pdl\drivers\peripheral\ctb/cy_ctb.h **** *
 252:Generated_Source\PSoC6\pdl\drivers\peripheral\ctb/cy_ctb.h **** * \subsection group_ctb_dependencies_sample_hold Sample and Hold Switch Control
 253:Generated_Source\PSoC6\pdl\drivers\peripheral\ctb/cy_ctb.h **** *
 254:Generated_Source\PSoC6\pdl\drivers\peripheral\ctb/cy_ctb.h **** * If you are using rev-08 of the CY8CKIT-062, the following eight switches
 255:Generated_Source\PSoC6\pdl\drivers\peripheral\ctb/cy_ctb.h **** * in the CTB are enabled by the CTDAC IP block:
 256:Generated_Source\PSoC6\pdl\drivers\peripheral\ctb/cy_ctb.h **** *
 257:Generated_Source\PSoC6\pdl\drivers\peripheral\ctb/cy_ctb.h **** *   - COS, CA0, CHD, CH6, COB, COR, CRS, and CRD
 258:Generated_Source\PSoC6\pdl\drivers\peripheral\ctb/cy_ctb.h **** *
 259:Generated_Source\PSoC6\pdl\drivers\peripheral\ctb/cy_ctb.h **** * On the rev-08 board, if any of the above switches are used, you must call \ref Cy_CTDAC_Enable
 260:Generated_Source\PSoC6\pdl\drivers\peripheral\ctb/cy_ctb.h **** * to enable these switches.
 261:Generated_Source\PSoC6\pdl\drivers\peripheral\ctb/cy_ctb.h **** *
ARM GAS  C:\Users\User\AppData\Local\Temp\ccPcfS0D.s 			page 41


 262:Generated_Source\PSoC6\pdl\drivers\peripheral\ctb/cy_ctb.h **** * Additionally, on the rev-08 board, if any of the switches are used in Deep Sleep mode,
 263:Generated_Source\PSoC6\pdl\drivers\peripheral\ctb/cy_ctb.h **** * the CTDAC must also be configured to operate in Deep Sleep (see \ref Cy_CTDAC_SetDeepSleepMode).
 264:Generated_Source\PSoC6\pdl\drivers\peripheral\ctb/cy_ctb.h **** *
 265:Generated_Source\PSoC6\pdl\drivers\peripheral\ctb/cy_ctb.h **** * In later revisions of the board, the switches are enabled by the CTB block so
 266:Generated_Source\PSoC6\pdl\drivers\peripheral\ctb/cy_ctb.h **** * calls to the CTDAC IP block are not necessary.
 267:Generated_Source\PSoC6\pdl\drivers\peripheral\ctb/cy_ctb.h **** *
 268:Generated_Source\PSoC6\pdl\drivers\peripheral\ctb/cy_ctb.h **** * \section group_ctb_more_information More Information
 269:Generated_Source\PSoC6\pdl\drivers\peripheral\ctb/cy_ctb.h **** *
 270:Generated_Source\PSoC6\pdl\drivers\peripheral\ctb/cy_ctb.h **** * Refer to technical reference manual (TRM) and the device datasheet.
 271:Generated_Source\PSoC6\pdl\drivers\peripheral\ctb/cy_ctb.h **** *
 272:Generated_Source\PSoC6\pdl\drivers\peripheral\ctb/cy_ctb.h **** * \section group_ctb_MISRA MISRA-C Compliance]
 273:Generated_Source\PSoC6\pdl\drivers\peripheral\ctb/cy_ctb.h **** *
 274:Generated_Source\PSoC6\pdl\drivers\peripheral\ctb/cy_ctb.h **** * This driver does not have any specific deviations.
 275:Generated_Source\PSoC6\pdl\drivers\peripheral\ctb/cy_ctb.h **** *
 276:Generated_Source\PSoC6\pdl\drivers\peripheral\ctb/cy_ctb.h **** * \section group_ctb_changelog Changelog
 277:Generated_Source\PSoC6\pdl\drivers\peripheral\ctb/cy_ctb.h **** * <table class="doxtable">
 278:Generated_Source\PSoC6\pdl\drivers\peripheral\ctb/cy_ctb.h **** *   <tr><th>Version</th><th>Changes</th><th>Reason for Change</th></tr>
 279:Generated_Source\PSoC6\pdl\drivers\peripheral\ctb/cy_ctb.h **** *   <tr>
 280:Generated_Source\PSoC6\pdl\drivers\peripheral\ctb/cy_ctb.h **** *     <td rowspan="2">1.10</td>
 281:Generated_Source\PSoC6\pdl\drivers\peripheral\ctb/cy_ctb.h **** *     <td>Flattened the organization of the driver source code into the single 
 282:Generated_Source\PSoC6\pdl\drivers\peripheral\ctb/cy_ctb.h **** *         source directory and the single include directory.
 283:Generated_Source\PSoC6\pdl\drivers\peripheral\ctb/cy_ctb.h **** *     </td>
 284:Generated_Source\PSoC6\pdl\drivers\peripheral\ctb/cy_ctb.h **** *     <td>Driver library directory-structure simplification.</td>
 285:Generated_Source\PSoC6\pdl\drivers\peripheral\ctb/cy_ctb.h **** *     </td>
 286:Generated_Source\PSoC6\pdl\drivers\peripheral\ctb/cy_ctb.h **** *   </tr>
 287:Generated_Source\PSoC6\pdl\drivers\peripheral\ctb/cy_ctb.h **** *   <tr>
 288:Generated_Source\PSoC6\pdl\drivers\peripheral\ctb/cy_ctb.h **** *     <td>Added register access layer. Use register access macros instead
 289:Generated_Source\PSoC6\pdl\drivers\peripheral\ctb/cy_ctb.h **** *         of direct register access using dereferenced pointers.</td>
 290:Generated_Source\PSoC6\pdl\drivers\peripheral\ctb/cy_ctb.h **** *     <td>Makes register access device-independent, so that the PDL does 
 291:Generated_Source\PSoC6\pdl\drivers\peripheral\ctb/cy_ctb.h **** *         not need to be recompiled for each supported part number.</td>
 292:Generated_Source\PSoC6\pdl\drivers\peripheral\ctb/cy_ctb.h **** *   </tr>
 293:Generated_Source\PSoC6\pdl\drivers\peripheral\ctb/cy_ctb.h **** *   <tr>
 294:Generated_Source\PSoC6\pdl\drivers\peripheral\ctb/cy_ctb.h **** *     <td>1.0</td>
 295:Generated_Source\PSoC6\pdl\drivers\peripheral\ctb/cy_ctb.h **** *     <td>Initial version</td>
 296:Generated_Source\PSoC6\pdl\drivers\peripheral\ctb/cy_ctb.h **** *     <td></td>
 297:Generated_Source\PSoC6\pdl\drivers\peripheral\ctb/cy_ctb.h **** *   </tr>
 298:Generated_Source\PSoC6\pdl\drivers\peripheral\ctb/cy_ctb.h **** * </table>
 299:Generated_Source\PSoC6\pdl\drivers\peripheral\ctb/cy_ctb.h **** *
 300:Generated_Source\PSoC6\pdl\drivers\peripheral\ctb/cy_ctb.h **** * \defgroup group_ctb_macros Macros
 301:Generated_Source\PSoC6\pdl\drivers\peripheral\ctb/cy_ctb.h **** * \defgroup group_ctb_functions Functions
 302:Generated_Source\PSoC6\pdl\drivers\peripheral\ctb/cy_ctb.h **** *   \{
 303:Generated_Source\PSoC6\pdl\drivers\peripheral\ctb/cy_ctb.h **** *       \defgroup group_ctb_functions_init          Initialization Functions
 304:Generated_Source\PSoC6\pdl\drivers\peripheral\ctb/cy_ctb.h **** *       \defgroup group_ctb_functions_basic         Basic Configuration Functions
 305:Generated_Source\PSoC6\pdl\drivers\peripheral\ctb/cy_ctb.h **** *       \defgroup group_ctb_functions_comparator    Comparator Functions
 306:Generated_Source\PSoC6\pdl\drivers\peripheral\ctb/cy_ctb.h **** *       \defgroup group_ctb_functions_sample_hold   Sample and Hold Functions
 307:Generated_Source\PSoC6\pdl\drivers\peripheral\ctb/cy_ctb.h **** *       \defgroup group_ctb_functions_interrupts    Interrupt Functions
 308:Generated_Source\PSoC6\pdl\drivers\peripheral\ctb/cy_ctb.h **** *       \defgroup group_ctb_functions_switches      Switch Control Functions
 309:Generated_Source\PSoC6\pdl\drivers\peripheral\ctb/cy_ctb.h **** *       \defgroup group_ctb_functions_trim          Offset and Slope Trim Functions
 310:Generated_Source\PSoC6\pdl\drivers\peripheral\ctb/cy_ctb.h **** *       \defgroup group_ctb_functions_aref          Reference Current Mode Functions
 311:Generated_Source\PSoC6\pdl\drivers\peripheral\ctb/cy_ctb.h **** *   \}
 312:Generated_Source\PSoC6\pdl\drivers\peripheral\ctb/cy_ctb.h **** * \defgroup group_ctb_globals Global Variables
 313:Generated_Source\PSoC6\pdl\drivers\peripheral\ctb/cy_ctb.h **** * \defgroup group_ctb_data_structures Data Structures
 314:Generated_Source\PSoC6\pdl\drivers\peripheral\ctb/cy_ctb.h **** * \defgroup group_ctb_enums Enumerated Types
 315:Generated_Source\PSoC6\pdl\drivers\peripheral\ctb/cy_ctb.h **** */
 316:Generated_Source\PSoC6\pdl\drivers\peripheral\ctb/cy_ctb.h **** 
 317:Generated_Source\PSoC6\pdl\drivers\peripheral\ctb/cy_ctb.h **** #if !defined(CY_CTB_H)
 318:Generated_Source\PSoC6\pdl\drivers\peripheral\ctb/cy_ctb.h **** #define CY_CTB_H
ARM GAS  C:\Users\User\AppData\Local\Temp\ccPcfS0D.s 			page 42


 319:Generated_Source\PSoC6\pdl\drivers\peripheral\ctb/cy_ctb.h **** 
 320:Generated_Source\PSoC6\pdl\drivers\peripheral\ctb/cy_ctb.h **** #include <stdint.h>
 321:Generated_Source\PSoC6\pdl\drivers\peripheral\ctb/cy_ctb.h **** #include <stdbool.h>
 322:Generated_Source\PSoC6\pdl\drivers\peripheral\ctb/cy_ctb.h **** #include <stddef.h>
 323:Generated_Source\PSoC6\pdl\drivers\peripheral\ctb/cy_ctb.h **** #include "cy_device_headers.h"
 324:Generated_Source\PSoC6\pdl\drivers\peripheral\ctb/cy_ctb.h **** #include "cy_device.h"
 325:Generated_Source\PSoC6\pdl\drivers\peripheral\ctb/cy_ctb.h **** #include "cy_syslib.h"
 326:Generated_Source\PSoC6\pdl\drivers\peripheral\ctb/cy_ctb.h **** #include "cy_sysanalog.h"
 327:Generated_Source\PSoC6\pdl\drivers\peripheral\ctb/cy_ctb.h **** 
 328:Generated_Source\PSoC6\pdl\drivers\peripheral\ctb/cy_ctb.h **** #ifdef CY_IP_MXS40PASS_CTB
 329:Generated_Source\PSoC6\pdl\drivers\peripheral\ctb/cy_ctb.h **** 
 330:Generated_Source\PSoC6\pdl\drivers\peripheral\ctb/cy_ctb.h **** #if defined(__cplusplus)
 331:Generated_Source\PSoC6\pdl\drivers\peripheral\ctb/cy_ctb.h **** extern "C" {
 332:Generated_Source\PSoC6\pdl\drivers\peripheral\ctb/cy_ctb.h **** #endif
 333:Generated_Source\PSoC6\pdl\drivers\peripheral\ctb/cy_ctb.h **** 
 334:Generated_Source\PSoC6\pdl\drivers\peripheral\ctb/cy_ctb.h **** /** \addtogroup group_ctb_macros
 335:Generated_Source\PSoC6\pdl\drivers\peripheral\ctb/cy_ctb.h **** * \{
 336:Generated_Source\PSoC6\pdl\drivers\peripheral\ctb/cy_ctb.h **** */
 337:Generated_Source\PSoC6\pdl\drivers\peripheral\ctb/cy_ctb.h **** 
 338:Generated_Source\PSoC6\pdl\drivers\peripheral\ctb/cy_ctb.h **** /** Driver major version */
 339:Generated_Source\PSoC6\pdl\drivers\peripheral\ctb/cy_ctb.h **** #define CY_CTB_DRV_VERSION_MAJOR            1
 340:Generated_Source\PSoC6\pdl\drivers\peripheral\ctb/cy_ctb.h **** 
 341:Generated_Source\PSoC6\pdl\drivers\peripheral\ctb/cy_ctb.h **** /** Driver minor version */
 342:Generated_Source\PSoC6\pdl\drivers\peripheral\ctb/cy_ctb.h **** #define CY_CTB_DRV_VERSION_MINOR            10
 343:Generated_Source\PSoC6\pdl\drivers\peripheral\ctb/cy_ctb.h **** 
 344:Generated_Source\PSoC6\pdl\drivers\peripheral\ctb/cy_ctb.h **** /** CTB driver identifier*/
 345:Generated_Source\PSoC6\pdl\drivers\peripheral\ctb/cy_ctb.h **** #define CY_CTB_ID                           CY_PDL_DRV_ID(0x0Bu)
 346:Generated_Source\PSoC6\pdl\drivers\peripheral\ctb/cy_ctb.h **** 
 347:Generated_Source\PSoC6\pdl\drivers\peripheral\ctb/cy_ctb.h **** /** \cond INTERNAL */
 348:Generated_Source\PSoC6\pdl\drivers\peripheral\ctb/cy_ctb.h **** 
 349:Generated_Source\PSoC6\pdl\drivers\peripheral\ctb/cy_ctb.h **** /**< De-init value for most CTB registers */
 350:Generated_Source\PSoC6\pdl\drivers\peripheral\ctb/cy_ctb.h **** #define CY_CTB_DEINIT                       (0uL)
 351:Generated_Source\PSoC6\pdl\drivers\peripheral\ctb/cy_ctb.h **** 
 352:Generated_Source\PSoC6\pdl\drivers\peripheral\ctb/cy_ctb.h **** /**< De-init value for the opamp0 switch control register */
 353:Generated_Source\PSoC6\pdl\drivers\peripheral\ctb/cy_ctb.h **** #define CY_CTB_DEINIT_OA0_SW                (CTBM_OA0_SW_CLEAR_OA0P_A00_Msk \
 354:Generated_Source\PSoC6\pdl\drivers\peripheral\ctb/cy_ctb.h ****                                             | CTBM_OA0_SW_CLEAR_OA0P_A20_Msk \
 355:Generated_Source\PSoC6\pdl\drivers\peripheral\ctb/cy_ctb.h ****                                             | CTBM_OA0_SW_CLEAR_OA0P_A30_Msk \
 356:Generated_Source\PSoC6\pdl\drivers\peripheral\ctb/cy_ctb.h ****                                             | CTBM_OA0_SW_CLEAR_OA0M_A11_Msk \
 357:Generated_Source\PSoC6\pdl\drivers\peripheral\ctb/cy_ctb.h ****                                             | CTBM_OA0_SW_CLEAR_OA0M_A81_Msk \
 358:Generated_Source\PSoC6\pdl\drivers\peripheral\ctb/cy_ctb.h ****                                             | CTBM_OA0_SW_CLEAR_OA0O_D51_Msk \
 359:Generated_Source\PSoC6\pdl\drivers\peripheral\ctb/cy_ctb.h ****                                             | CTBM_OA0_SW_CLEAR_OA0O_D81_Msk)
 360:Generated_Source\PSoC6\pdl\drivers\peripheral\ctb/cy_ctb.h **** 
 361:Generated_Source\PSoC6\pdl\drivers\peripheral\ctb/cy_ctb.h **** /**< De-init value for the opamp1 switch control register */
 362:Generated_Source\PSoC6\pdl\drivers\peripheral\ctb/cy_ctb.h **** #define CY_CTB_DEINIT_OA1_SW                (CTBM_OA1_SW_CLEAR_OA1P_A03_Msk \
 363:Generated_Source\PSoC6\pdl\drivers\peripheral\ctb/cy_ctb.h ****                                             | CTBM_OA1_SW_CLEAR_OA1P_A13_Msk \
 364:Generated_Source\PSoC6\pdl\drivers\peripheral\ctb/cy_ctb.h ****                                             | CTBM_OA1_SW_CLEAR_OA1P_A43_Msk \
 365:Generated_Source\PSoC6\pdl\drivers\peripheral\ctb/cy_ctb.h ****                                             | CTBM_OA1_SW_CLEAR_OA1P_A73_Msk \
 366:Generated_Source\PSoC6\pdl\drivers\peripheral\ctb/cy_ctb.h ****                                             | CTBM_OA1_SW_CLEAR_OA1M_A22_Msk \
 367:Generated_Source\PSoC6\pdl\drivers\peripheral\ctb/cy_ctb.h ****                                             | CTBM_OA1_SW_CLEAR_OA1M_A82_Msk \
 368:Generated_Source\PSoC6\pdl\drivers\peripheral\ctb/cy_ctb.h ****                                             | CTBM_OA1_SW_CLEAR_OA1O_D52_Msk \
 369:Generated_Source\PSoC6\pdl\drivers\peripheral\ctb/cy_ctb.h ****                                             | CTBM_OA1_SW_CLEAR_OA1O_D62_Msk \
 370:Generated_Source\PSoC6\pdl\drivers\peripheral\ctb/cy_ctb.h ****                                             | CTBM_OA1_SW_CLEAR_OA1O_D82_Msk)
 371:Generated_Source\PSoC6\pdl\drivers\peripheral\ctb/cy_ctb.h **** 
 372:Generated_Source\PSoC6\pdl\drivers\peripheral\ctb/cy_ctb.h **** /**< De-init value for the CTDAC switch control register */
 373:Generated_Source\PSoC6\pdl\drivers\peripheral\ctb/cy_ctb.h **** #define CY_CTB_DEINIT_CTD_SW                (CTBM_CTD_SW_CLEAR_CTDD_CRD_Msk \
 374:Generated_Source\PSoC6\pdl\drivers\peripheral\ctb/cy_ctb.h ****                                             | CTBM_CTD_SW_CLEAR_CTDS_CRS_Msk \
 375:Generated_Source\PSoC6\pdl\drivers\peripheral\ctb/cy_ctb.h ****                                             | CTBM_CTD_SW_CLEAR_CTDS_COR_Msk \
ARM GAS  C:\Users\User\AppData\Local\Temp\ccPcfS0D.s 			page 43


 376:Generated_Source\PSoC6\pdl\drivers\peripheral\ctb/cy_ctb.h ****                                             | CTBM_CTD_SW_CLEAR_CTDO_C6H_Msk \
 377:Generated_Source\PSoC6\pdl\drivers\peripheral\ctb/cy_ctb.h ****                                             | CTBM_CTD_SW_CLEAR_CTDO_COS_Msk \
 378:Generated_Source\PSoC6\pdl\drivers\peripheral\ctb/cy_ctb.h ****                                             | CTBM_CTD_SW_CLEAR_CTDH_COB_Msk \
 379:Generated_Source\PSoC6\pdl\drivers\peripheral\ctb/cy_ctb.h ****                                             | CTBM_CTD_SW_CLEAR_CTDH_CHD_Msk \
 380:Generated_Source\PSoC6\pdl\drivers\peripheral\ctb/cy_ctb.h ****                                             | CTBM_CTD_SW_CLEAR_CTDH_CA0_Msk \
 381:Generated_Source\PSoC6\pdl\drivers\peripheral\ctb/cy_ctb.h ****                                             | CTBM_CTD_SW_CLEAR_CTDH_CIS_Msk \
 382:Generated_Source\PSoC6\pdl\drivers\peripheral\ctb/cy_ctb.h ****                                             | CTBM_CTD_SW_CLEAR_CTDH_ILR_Msk)
 383:Generated_Source\PSoC6\pdl\drivers\peripheral\ctb/cy_ctb.h **** 
 384:Generated_Source\PSoC6\pdl\drivers\peripheral\ctb/cy_ctb.h **** #define CY_CTB_TRIM_VALUE_MAX               (63uL)
 385:Generated_Source\PSoC6\pdl\drivers\peripheral\ctb/cy_ctb.h **** 
 386:Generated_Source\PSoC6\pdl\drivers\peripheral\ctb/cy_ctb.h **** /**< Macros for conditions used by CY_ASSERT calls */
 387:Generated_Source\PSoC6\pdl\drivers\peripheral\ctb/cy_ctb.h **** 
 388:Generated_Source\PSoC6\pdl\drivers\peripheral\ctb/cy_ctb.h **** #define CY_CTB_OPAMPNUM(num)                (((num) == CY_CTB_OPAMP_0) || ((num) == CY_CTB_OPAMP_1)
 389:Generated_Source\PSoC6\pdl\drivers\peripheral\ctb/cy_ctb.h **** #define CY_CTB_OPAMPNUM_0_1(num)            (((num) == CY_CTB_OPAMP_0) || ((num) == CY_CTB_OPAMP_1)
 390:Generated_Source\PSoC6\pdl\drivers\peripheral\ctb/cy_ctb.h **** #define CY_CTB_OPAMPNUM_ALL(num)            (((num) == CY_CTB_OPAMP_NONE) \
 391:Generated_Source\PSoC6\pdl\drivers\peripheral\ctb/cy_ctb.h ****                                             || ((num) == CY_CTB_OPAMP_0) \
 392:Generated_Source\PSoC6\pdl\drivers\peripheral\ctb/cy_ctb.h ****                                             || ((num) == CY_CTB_OPAMP_1) \
 393:Generated_Source\PSoC6\pdl\drivers\peripheral\ctb/cy_ctb.h ****                                             || ((num) == CY_CTB_OPAMP_BOTH))
 394:Generated_Source\PSoC6\pdl\drivers\peripheral\ctb/cy_ctb.h **** #define CY_CTB_IPTAT(iptat)                 (((iptat) == CY_CTB_IPTAT_NORMAL) || ((iptat) == CY_CTB
 395:Generated_Source\PSoC6\pdl\drivers\peripheral\ctb/cy_ctb.h **** #define CY_CTB_CLKPUMP(clkPump)             (((clkPump) == CY_CTB_CLK_PUMP_SRSS) || ((clkPump) == C
 396:Generated_Source\PSoC6\pdl\drivers\peripheral\ctb/cy_ctb.h **** #define CY_CTB_DEEPSLEEP(deepSleep)         (((deepSleep) == CY_CTB_DEEPSLEEP_DISABLE) || ((deepSle
 397:Generated_Source\PSoC6\pdl\drivers\peripheral\ctb/cy_ctb.h **** #define CY_CTB_OAPOWER(power)               ((power) <= CY_CTB_POWER_HIGH)
 398:Generated_Source\PSoC6\pdl\drivers\peripheral\ctb/cy_ctb.h **** #define CY_CTB_OAMODE(mode)                 (((mode) == CY_CTB_MODE_OPAMP1X) \
 399:Generated_Source\PSoC6\pdl\drivers\peripheral\ctb/cy_ctb.h ****                                             || ((mode) == CY_CTB_MODE_OPAMP10X) \
 400:Generated_Source\PSoC6\pdl\drivers\peripheral\ctb/cy_ctb.h ****                                             || ((mode) == CY_CTB_MODE_COMP))
 401:Generated_Source\PSoC6\pdl\drivers\peripheral\ctb/cy_ctb.h **** #define CY_CTB_OAPUMP(pump)                 (((pump) == CY_CTB_PUMP_DISABLE) || ((pump) == CY_CTB_P
 402:Generated_Source\PSoC6\pdl\drivers\peripheral\ctb/cy_ctb.h **** #define CY_CTB_COMPEDGE(edge)               (((edge) == CY_CTB_COMP_EDGE_DISABLE) \
 403:Generated_Source\PSoC6\pdl\drivers\peripheral\ctb/cy_ctb.h ****                                             || ((edge) == CY_CTB_COMP_EDGE_RISING) \
 404:Generated_Source\PSoC6\pdl\drivers\peripheral\ctb/cy_ctb.h ****                                             || ((edge) == CY_CTB_COMP_EDGE_FALLING) \
 405:Generated_Source\PSoC6\pdl\drivers\peripheral\ctb/cy_ctb.h ****                                             || ((edge) == CY_CTB_COMP_EDGE_BOTH))
 406:Generated_Source\PSoC6\pdl\drivers\peripheral\ctb/cy_ctb.h **** #define CY_CTB_COMPLEVEL(level)             (((level) == CY_CTB_COMP_DSI_TRIGGER_OUT_PULSE) || ((le
 407:Generated_Source\PSoC6\pdl\drivers\peripheral\ctb/cy_ctb.h **** #define CY_CTB_COMPBYPASS(bypass)           (((bypass) == CY_CTB_COMP_BYPASS_SYNC) || ((bypass) == 
 408:Generated_Source\PSoC6\pdl\drivers\peripheral\ctb/cy_ctb.h **** #define CY_CTB_COMPHYST(hyst)               (((hyst) == CY_CTB_COMP_HYST_DISABLE) || ((hyst) == CY_
 409:Generated_Source\PSoC6\pdl\drivers\peripheral\ctb/cy_ctb.h **** #define CY_CTB_CURRENTMODE(mode)            (((mode) == CY_CTB_CURRENT_HIGH_ACTIVE) \
 410:Generated_Source\PSoC6\pdl\drivers\peripheral\ctb/cy_ctb.h ****                                             || ((mode) == CY_CTB_CURRENT_HIGH_ACTIVE_DEEPSLEEP) \
 411:Generated_Source\PSoC6\pdl\drivers\peripheral\ctb/cy_ctb.h ****                                             || ((mode) == CY_CTB_CURRENT_LOW_ACTIVE_DEEPSLEEP))
 412:Generated_Source\PSoC6\pdl\drivers\peripheral\ctb/cy_ctb.h **** #define CY_CTB_SAMPLEHOLD(mode)             ((mode) <= CY_CTB_SH_HOLD)
 413:Generated_Source\PSoC6\pdl\drivers\peripheral\ctb/cy_ctb.h **** #define CY_CTB_TRIM(trim)                   ((trim) <= CY_CTB_TRIM_VALUE_MAX)
 414:Generated_Source\PSoC6\pdl\drivers\peripheral\ctb/cy_ctb.h **** #define CY_CTB_SWITCHSELECT(select)         (((select) == CY_CTB_SWITCH_OA0_SW) \
 415:Generated_Source\PSoC6\pdl\drivers\peripheral\ctb/cy_ctb.h ****                                             || ((select) == CY_CTB_SWITCH_OA1_SW) \
 416:Generated_Source\PSoC6\pdl\drivers\peripheral\ctb/cy_ctb.h ****                                             || ((select) == CY_CTB_SWITCH_CTD_SW))
 417:Generated_Source\PSoC6\pdl\drivers\peripheral\ctb/cy_ctb.h **** #define CY_CTB_SWITCHSTATE(state)           (((state) == CY_CTB_SWITCH_OPEN) || ((state) == CY_CTB_
 418:Generated_Source\PSoC6\pdl\drivers\peripheral\ctb/cy_ctb.h **** #define CY_CTB_OA0SWITCH(mask)              (((mask) & (~CY_CTB_DEINIT_OA0_SW)) == 0uL)
 419:Generated_Source\PSoC6\pdl\drivers\peripheral\ctb/cy_ctb.h **** #define CY_CTB_OA1SWITCH(mask)              (((mask) & (~CY_CTB_DEINIT_OA1_SW)) == 0uL)
 420:Generated_Source\PSoC6\pdl\drivers\peripheral\ctb/cy_ctb.h **** #define CY_CTB_CTDSWITCH(mask)              (((mask) & (~CY_CTB_DEINIT_CTD_SW)) == 0uL)
 421:Generated_Source\PSoC6\pdl\drivers\peripheral\ctb/cy_ctb.h **** #define CY_CTB_SWITCHMASK(select,mask)      (((select) == CY_CTB_SWITCH_OA0_SW) ? (((mask) & (~CY_C
 422:Generated_Source\PSoC6\pdl\drivers\peripheral\ctb/cy_ctb.h ****                                             (((select) == CY_CTB_SWITCH_OA1_SW) ? (((mask) & (~CY_C
 423:Generated_Source\PSoC6\pdl\drivers\peripheral\ctb/cy_ctb.h ****                                             (((mask) & (~CY_CTB_DEINIT_CTD_SW)) == 0uL)))
 424:Generated_Source\PSoC6\pdl\drivers\peripheral\ctb/cy_ctb.h **** #define CY_CTB_SARSEQCTRL(mask)             (((mask) == CY_CTB_SW_SEQ_CTRL_D51_MASK) \
 425:Generated_Source\PSoC6\pdl\drivers\peripheral\ctb/cy_ctb.h ****                                             || ((mask) == CY_CTB_SW_SEQ_CTRL_D52_D62_MASK) \
 426:Generated_Source\PSoC6\pdl\drivers\peripheral\ctb/cy_ctb.h ****                                             || ((mask) == CY_CTB_SW_SEQ_CTRL_D51_D52_D62_MASK))
 427:Generated_Source\PSoC6\pdl\drivers\peripheral\ctb/cy_ctb.h **** 
 428:Generated_Source\PSoC6\pdl\drivers\peripheral\ctb/cy_ctb.h **** /** \endcond */
 429:Generated_Source\PSoC6\pdl\drivers\peripheral\ctb/cy_ctb.h **** 
 430:Generated_Source\PSoC6\pdl\drivers\peripheral\ctb/cy_ctb.h **** /** \} group_ctb_macros */
 431:Generated_Source\PSoC6\pdl\drivers\peripheral\ctb/cy_ctb.h **** 
 432:Generated_Source\PSoC6\pdl\drivers\peripheral\ctb/cy_ctb.h **** /***************************************
ARM GAS  C:\Users\User\AppData\Local\Temp\ccPcfS0D.s 			page 44


 433:Generated_Source\PSoC6\pdl\drivers\peripheral\ctb/cy_ctb.h **** *       Enumerated Types
 434:Generated_Source\PSoC6\pdl\drivers\peripheral\ctb/cy_ctb.h **** ***************************************/
 435:Generated_Source\PSoC6\pdl\drivers\peripheral\ctb/cy_ctb.h **** 
 436:Generated_Source\PSoC6\pdl\drivers\peripheral\ctb/cy_ctb.h **** /**
 437:Generated_Source\PSoC6\pdl\drivers\peripheral\ctb/cy_ctb.h **** * \addtogroup group_ctb_enums
 438:Generated_Source\PSoC6\pdl\drivers\peripheral\ctb/cy_ctb.h **** * \{
 439:Generated_Source\PSoC6\pdl\drivers\peripheral\ctb/cy_ctb.h **** */
 440:Generated_Source\PSoC6\pdl\drivers\peripheral\ctb/cy_ctb.h **** 
 441:Generated_Source\PSoC6\pdl\drivers\peripheral\ctb/cy_ctb.h **** /**
 442:Generated_Source\PSoC6\pdl\drivers\peripheral\ctb/cy_ctb.h **** * Most functions allow you to configure a single opamp or both opamps at once.
 443:Generated_Source\PSoC6\pdl\drivers\peripheral\ctb/cy_ctb.h **** * The \ref Cy_CTB_SetInterruptMask function can be called with \ref CY_CTB_OPAMP_NONE
 444:Generated_Source\PSoC6\pdl\drivers\peripheral\ctb/cy_ctb.h **** * and interrupts will be disabled.
 445:Generated_Source\PSoC6\pdl\drivers\peripheral\ctb/cy_ctb.h **** */
 446:Generated_Source\PSoC6\pdl\drivers\peripheral\ctb/cy_ctb.h **** typedef enum{
 447:Generated_Source\PSoC6\pdl\drivers\peripheral\ctb/cy_ctb.h ****     CY_CTB_OPAMP_NONE    = 0uL,                                          /**< For disabling interru
 448:Generated_Source\PSoC6\pdl\drivers\peripheral\ctb/cy_ctb.h ****     CY_CTB_OPAMP_0       = CTBM_INTR_COMP0_Msk,                        /**< For configuring Opamp0 
 449:Generated_Source\PSoC6\pdl\drivers\peripheral\ctb/cy_ctb.h ****     CY_CTB_OPAMP_1       = CTBM_INTR_COMP1_Msk,                        /**< For configuring Opamp1 
 450:Generated_Source\PSoC6\pdl\drivers\peripheral\ctb/cy_ctb.h ****     CY_CTB_OPAMP_BOTH    = CTBM_INTR_COMP0_Msk | CTBM_INTR_COMP1_Msk,  /**< For configuring both Op
 451:Generated_Source\PSoC6\pdl\drivers\peripheral\ctb/cy_ctb.h **** }cy_en_ctb_opamp_sel_t;
 452:Generated_Source\PSoC6\pdl\drivers\peripheral\ctb/cy_ctb.h **** 
 453:Generated_Source\PSoC6\pdl\drivers\peripheral\ctb/cy_ctb.h **** /** Enable or disable CTB while in Deep Sleep mode.
 454:Generated_Source\PSoC6\pdl\drivers\peripheral\ctb/cy_ctb.h **** */
 455:Generated_Source\PSoC6\pdl\drivers\peripheral\ctb/cy_ctb.h **** typedef enum {
 456:Generated_Source\PSoC6\pdl\drivers\peripheral\ctb/cy_ctb.h ****     CY_CTB_DEEPSLEEP_DISABLE   = 0uL,                               /**< CTB is disabled during Dee
 457:Generated_Source\PSoC6\pdl\drivers\peripheral\ctb/cy_ctb.h ****     CY_CTB_DEEPSLEEP_ENABLE    = CTBM_CTB_CTRL_DEEPSLEEP_ON_Msk,   /**< CTB remains enabled during 
 458:Generated_Source\PSoC6\pdl\drivers\peripheral\ctb/cy_ctb.h **** }cy_en_ctb_deep_sleep_t;
 459:Generated_Source\PSoC6\pdl\drivers\peripheral\ctb/cy_ctb.h **** 
 460:Generated_Source\PSoC6\pdl\drivers\peripheral\ctb/cy_ctb.h **** /**
 461:Generated_Source\PSoC6\pdl\drivers\peripheral\ctb/cy_ctb.h **** * Configure the power mode of each opamp. Each power setting
 462:Generated_Source\PSoC6\pdl\drivers\peripheral\ctb/cy_ctb.h **** * consumes different levels of current and supports a different
 463:Generated_Source\PSoC6\pdl\drivers\peripheral\ctb/cy_ctb.h **** * input range and gain bandwidth.
 464:Generated_Source\PSoC6\pdl\drivers\peripheral\ctb/cy_ctb.h **** *
 465:Generated_Source\PSoC6\pdl\drivers\peripheral\ctb/cy_ctb.h **** * <table class="doxtable">
 466:Generated_Source\PSoC6\pdl\drivers\peripheral\ctb/cy_ctb.h **** *   <tr><th>Opamp Power</th><th>IDD</th><th>Gain bandwidth</th></tr>
 467:Generated_Source\PSoC6\pdl\drivers\peripheral\ctb/cy_ctb.h **** *   <tr>
 468:Generated_Source\PSoC6\pdl\drivers\peripheral\ctb/cy_ctb.h **** *     <td>OFF</td>
 469:Generated_Source\PSoC6\pdl\drivers\peripheral\ctb/cy_ctb.h **** *     <td>0</td>
 470:Generated_Source\PSoC6\pdl\drivers\peripheral\ctb/cy_ctb.h **** *     <td>NA</td>
 471:Generated_Source\PSoC6\pdl\drivers\peripheral\ctb/cy_ctb.h **** *   </tr>
 472:Generated_Source\PSoC6\pdl\drivers\peripheral\ctb/cy_ctb.h **** *   <tr>
 473:Generated_Source\PSoC6\pdl\drivers\peripheral\ctb/cy_ctb.h **** *     <td>LOW</td>
 474:Generated_Source\PSoC6\pdl\drivers\peripheral\ctb/cy_ctb.h **** *     <td>350 uA</td>
 475:Generated_Source\PSoC6\pdl\drivers\peripheral\ctb/cy_ctb.h **** *     <td>1 MHz</td>
 476:Generated_Source\PSoC6\pdl\drivers\peripheral\ctb/cy_ctb.h **** *   </tr>
 477:Generated_Source\PSoC6\pdl\drivers\peripheral\ctb/cy_ctb.h **** *   <tr>
 478:Generated_Source\PSoC6\pdl\drivers\peripheral\ctb/cy_ctb.h **** *     <td>MEDIUM</td>
 479:Generated_Source\PSoC6\pdl\drivers\peripheral\ctb/cy_ctb.h **** *     <td>600 uA</td>
 480:Generated_Source\PSoC6\pdl\drivers\peripheral\ctb/cy_ctb.h **** *     <td>3 MHz for 1X, 2.5 MHz for 10x</td>
 481:Generated_Source\PSoC6\pdl\drivers\peripheral\ctb/cy_ctb.h **** *   </tr>
 482:Generated_Source\PSoC6\pdl\drivers\peripheral\ctb/cy_ctb.h **** *   <tr>
 483:Generated_Source\PSoC6\pdl\drivers\peripheral\ctb/cy_ctb.h **** *     <td>HIGH</td>
 484:Generated_Source\PSoC6\pdl\drivers\peripheral\ctb/cy_ctb.h **** *     <td>1.5 mA</td>
 485:Generated_Source\PSoC6\pdl\drivers\peripheral\ctb/cy_ctb.h **** *     <td>8 MHz for 1X, 6 MHz for 10x</td>
 486:Generated_Source\PSoC6\pdl\drivers\peripheral\ctb/cy_ctb.h **** *   </tr>
 487:Generated_Source\PSoC6\pdl\drivers\peripheral\ctb/cy_ctb.h **** * </table>
 488:Generated_Source\PSoC6\pdl\drivers\peripheral\ctb/cy_ctb.h **** *
 489:Generated_Source\PSoC6\pdl\drivers\peripheral\ctb/cy_ctb.h **** */
ARM GAS  C:\Users\User\AppData\Local\Temp\ccPcfS0D.s 			page 45


 490:Generated_Source\PSoC6\pdl\drivers\peripheral\ctb/cy_ctb.h **** typedef enum {
 491:Generated_Source\PSoC6\pdl\drivers\peripheral\ctb/cy_ctb.h ****     CY_CTB_POWER_OFF       = 0uL,     /**< Opamp is off */
 492:Generated_Source\PSoC6\pdl\drivers\peripheral\ctb/cy_ctb.h ****     CY_CTB_POWER_LOW       = 1uL,     /**< Low power: IDD = 350 uA, GBW = 1 MHz for both 1x and 10x
 493:Generated_Source\PSoC6\pdl\drivers\peripheral\ctb/cy_ctb.h ****     CY_CTB_POWER_MEDIUM    = 2uL,     /**< Medium power: IDD = 600 uA, GBW = 3 MHz for 1x and 2.5 M
 494:Generated_Source\PSoC6\pdl\drivers\peripheral\ctb/cy_ctb.h ****     CY_CTB_POWER_HIGH      = 3uL,     /**< High power: IDD = 1500 uA, GBW = 8 MHz for 1x and 6 MHz 
 495:Generated_Source\PSoC6\pdl\drivers\peripheral\ctb/cy_ctb.h **** }cy_en_ctb_power_t;
 496:Generated_Source\PSoC6\pdl\drivers\peripheral\ctb/cy_ctb.h **** 
 497:Generated_Source\PSoC6\pdl\drivers\peripheral\ctb/cy_ctb.h **** /**
 498:Generated_Source\PSoC6\pdl\drivers\peripheral\ctb/cy_ctb.h **** * The output stage of each opamp can be configured for low-drive strength (1X) to drive internal ci
 499:Generated_Source\PSoC6\pdl\drivers\peripheral\ctb/cy_ctb.h **** * for high-drive strength (10X) to drive external circuits, or as a comparator.
 500:Generated_Source\PSoC6\pdl\drivers\peripheral\ctb/cy_ctb.h **** */
 501:Generated_Source\PSoC6\pdl\drivers\peripheral\ctb/cy_ctb.h **** typedef enum {
 502:Generated_Source\PSoC6\pdl\drivers\peripheral\ctb/cy_ctb.h ****     CY_CTB_MODE_OPAMP1X    = 0uL,                                               /**< Configure opam
 503:Generated_Source\PSoC6\pdl\drivers\peripheral\ctb/cy_ctb.h ****     CY_CTB_MODE_OPAMP10X   = 1uL << CTBM_OA_RES0_CTRL_OA0_DRIVE_STR_SEL_Pos,    /**< Configure opam
 504:Generated_Source\PSoC6\pdl\drivers\peripheral\ctb/cy_ctb.h ****     CY_CTB_MODE_COMP       = 1uL << CTBM_OA_RES0_CTRL_OA0_COMP_EN_Pos,          /**< Configure opam
 505:Generated_Source\PSoC6\pdl\drivers\peripheral\ctb/cy_ctb.h **** }cy_en_ctb_mode_t;
 506:Generated_Source\PSoC6\pdl\drivers\peripheral\ctb/cy_ctb.h **** 
 507:Generated_Source\PSoC6\pdl\drivers\peripheral\ctb/cy_ctb.h **** /**
 508:Generated_Source\PSoC6\pdl\drivers\peripheral\ctb/cy_ctb.h **** * Each opamp has a charge pump to increase the input range to the rails.
 509:Generated_Source\PSoC6\pdl\drivers\peripheral\ctb/cy_ctb.h **** * When the charge pump is enabled, the input range is 0 to VDDA.
 510:Generated_Source\PSoC6\pdl\drivers\peripheral\ctb/cy_ctb.h **** * When disabled, the input range is 0 to VDDA - 1.5 V.
 511:Generated_Source\PSoC6\pdl\drivers\peripheral\ctb/cy_ctb.h **** *
 512:Generated_Source\PSoC6\pdl\drivers\peripheral\ctb/cy_ctb.h **** ** <table class="doxtable">
 513:Generated_Source\PSoC6\pdl\drivers\peripheral\ctb/cy_ctb.h **** *   <tr><th>Charge Pump</th><th>Input Range (V)</th></tr>
 514:Generated_Source\PSoC6\pdl\drivers\peripheral\ctb/cy_ctb.h **** *   <tr>
 515:Generated_Source\PSoC6\pdl\drivers\peripheral\ctb/cy_ctb.h **** *     <td>OFF</td>
 516:Generated_Source\PSoC6\pdl\drivers\peripheral\ctb/cy_ctb.h **** *     <td>0 to VDDA-1.5</td>
 517:Generated_Source\PSoC6\pdl\drivers\peripheral\ctb/cy_ctb.h **** *   </tr>
 518:Generated_Source\PSoC6\pdl\drivers\peripheral\ctb/cy_ctb.h **** *   <tr>
 519:Generated_Source\PSoC6\pdl\drivers\peripheral\ctb/cy_ctb.h **** *     <td>ON</td>
 520:Generated_Source\PSoC6\pdl\drivers\peripheral\ctb/cy_ctb.h **** *     <td>0 to VDDA</td>
 521:Generated_Source\PSoC6\pdl\drivers\peripheral\ctb/cy_ctb.h **** *   </tr>
 522:Generated_Source\PSoC6\pdl\drivers\peripheral\ctb/cy_ctb.h **** * </table>
 523:Generated_Source\PSoC6\pdl\drivers\peripheral\ctb/cy_ctb.h **** *
 524:Generated_Source\PSoC6\pdl\drivers\peripheral\ctb/cy_ctb.h **** * Note that in Deep Sleep mode, the charge pump is disabled so the input
 525:Generated_Source\PSoC6\pdl\drivers\peripheral\ctb/cy_ctb.h **** * range is reduced.
 526:Generated_Source\PSoC6\pdl\drivers\peripheral\ctb/cy_ctb.h **** */
 527:Generated_Source\PSoC6\pdl\drivers\peripheral\ctb/cy_ctb.h **** typedef enum{
 528:Generated_Source\PSoC6\pdl\drivers\peripheral\ctb/cy_ctb.h ****     CY_CTB_PUMP_DISABLE   = 0uL,                                           /**< Charge pump is disa
 529:Generated_Source\PSoC6\pdl\drivers\peripheral\ctb/cy_ctb.h ****     CY_CTB_PUMP_ENABLE    = CTBM_OA_RES0_CTRL_OA0_PUMP_EN_Msk,            /**< Charge pump is enabl
 530:Generated_Source\PSoC6\pdl\drivers\peripheral\ctb/cy_ctb.h **** }cy_en_ctb_pump_t;
 531:Generated_Source\PSoC6\pdl\drivers\peripheral\ctb/cy_ctb.h **** 
 532:Generated_Source\PSoC6\pdl\drivers\peripheral\ctb/cy_ctb.h **** /**
 533:Generated_Source\PSoC6\pdl\drivers\peripheral\ctb/cy_ctb.h **** * Configure the type of edge that will trigger a comparator interrupt or
 534:Generated_Source\PSoC6\pdl\drivers\peripheral\ctb/cy_ctb.h **** * disable the interrupt entirely.
 535:Generated_Source\PSoC6\pdl\drivers\peripheral\ctb/cy_ctb.h **** */
 536:Generated_Source\PSoC6\pdl\drivers\peripheral\ctb/cy_ctb.h **** typedef enum
 537:Generated_Source\PSoC6\pdl\drivers\peripheral\ctb/cy_ctb.h **** {
 538:Generated_Source\PSoC6\pdl\drivers\peripheral\ctb/cy_ctb.h ****     CY_CTB_COMP_EDGE_DISABLE       = 0uL,                                       /**< Disabled, no i
 539:Generated_Source\PSoC6\pdl\drivers\peripheral\ctb/cy_ctb.h ****     CY_CTB_COMP_EDGE_RISING        = 1uL << CTBM_OA_RES0_CTRL_OA0_COMPINT_Pos,  /**< Rising edge ge
 540:Generated_Source\PSoC6\pdl\drivers\peripheral\ctb/cy_ctb.h ****     CY_CTB_COMP_EDGE_FALLING       = 2uL << CTBM_OA_RES0_CTRL_OA0_COMPINT_Pos,  /**< Falling edge g
 541:Generated_Source\PSoC6\pdl\drivers\peripheral\ctb/cy_ctb.h ****     CY_CTB_COMP_EDGE_BOTH          = 3uL << CTBM_OA_RES0_CTRL_OA0_COMPINT_Pos,  /**< Both edges gen
 542:Generated_Source\PSoC6\pdl\drivers\peripheral\ctb/cy_ctb.h **** }cy_en_ctb_comp_edge_t;
 543:Generated_Source\PSoC6\pdl\drivers\peripheral\ctb/cy_ctb.h **** 
 544:Generated_Source\PSoC6\pdl\drivers\peripheral\ctb/cy_ctb.h **** /** Configure the comparator DSI trigger output level when output is synchronized. */
 545:Generated_Source\PSoC6\pdl\drivers\peripheral\ctb/cy_ctb.h **** typedef enum
 546:Generated_Source\PSoC6\pdl\drivers\peripheral\ctb/cy_ctb.h **** {
ARM GAS  C:\Users\User\AppData\Local\Temp\ccPcfS0D.s 			page 46


 547:Generated_Source\PSoC6\pdl\drivers\peripheral\ctb/cy_ctb.h ****     CY_CTB_COMP_DSI_TRIGGER_OUT_PULSE    = 0uL,                                        /**< Send pu
 548:Generated_Source\PSoC6\pdl\drivers\peripheral\ctb/cy_ctb.h ****     CY_CTB_COMP_DSI_TRIGGER_OUT_LEVEL    = CTBM_OA_RES0_CTRL_OA0_DSI_LEVEL_Msk,       /**< DSI outp
 549:Generated_Source\PSoC6\pdl\drivers\peripheral\ctb/cy_ctb.h **** }cy_en_ctb_comp_level_t;
 550:Generated_Source\PSoC6\pdl\drivers\peripheral\ctb/cy_ctb.h **** 
 551:Generated_Source\PSoC6\pdl\drivers\peripheral\ctb/cy_ctb.h **** /** Bypass the comparator output synchronization for DSI trigger. */
 552:Generated_Source\PSoC6\pdl\drivers\peripheral\ctb/cy_ctb.h **** typedef enum
 553:Generated_Source\PSoC6\pdl\drivers\peripheral\ctb/cy_ctb.h **** {
 554:Generated_Source\PSoC6\pdl\drivers\peripheral\ctb/cy_ctb.h ****     CY_CTB_COMP_BYPASS_SYNC          = 0uL,                                          /**< Comparato
 555:Generated_Source\PSoC6\pdl\drivers\peripheral\ctb/cy_ctb.h ****     CY_CTB_COMP_BYPASS_NO_SYNC       = CTBM_OA_RES0_CTRL_OA0_BYPASS_DSI_SYNC_Msk,   /**< Comparator
 556:Generated_Source\PSoC6\pdl\drivers\peripheral\ctb/cy_ctb.h **** }cy_en_ctb_comp_bypass_t;
 557:Generated_Source\PSoC6\pdl\drivers\peripheral\ctb/cy_ctb.h **** 
 558:Generated_Source\PSoC6\pdl\drivers\peripheral\ctb/cy_ctb.h **** /** Disable or enable the 10 mV hysteresis for the comparator. */
 559:Generated_Source\PSoC6\pdl\drivers\peripheral\ctb/cy_ctb.h **** typedef enum
 560:Generated_Source\PSoC6\pdl\drivers\peripheral\ctb/cy_ctb.h **** {
 561:Generated_Source\PSoC6\pdl\drivers\peripheral\ctb/cy_ctb.h ****     CY_CTB_COMP_HYST_DISABLE      = 0uL,                                    /**< Disable hysteresis
 562:Generated_Source\PSoC6\pdl\drivers\peripheral\ctb/cy_ctb.h ****     CY_CTB_COMP_HYST_10MV         = CTBM_OA_RES0_CTRL_OA0_HYST_EN_Msk,     /**< Enable the 10 mV hy
 563:Generated_Source\PSoC6\pdl\drivers\peripheral\ctb/cy_ctb.h **** }cy_en_ctb_comp_hyst_t;
 564:Generated_Source\PSoC6\pdl\drivers\peripheral\ctb/cy_ctb.h **** 
 565:Generated_Source\PSoC6\pdl\drivers\peripheral\ctb/cy_ctb.h **** /** Switch state, either open or closed, to be used in \ref Cy_CTB_SetAnalogSwitch. */
 566:Generated_Source\PSoC6\pdl\drivers\peripheral\ctb/cy_ctb.h **** typedef enum
 567:Generated_Source\PSoC6\pdl\drivers\peripheral\ctb/cy_ctb.h **** {
 568:Generated_Source\PSoC6\pdl\drivers\peripheral\ctb/cy_ctb.h ****     CY_CTB_SWITCH_OPEN      = 0uL,    /**< Open the switch */
 569:Generated_Source\PSoC6\pdl\drivers\peripheral\ctb/cy_ctb.h ****     CY_CTB_SWITCH_CLOSE     = 1uL     /**< Close the switch */
 570:Generated_Source\PSoC6\pdl\drivers\peripheral\ctb/cy_ctb.h **** }cy_en_ctb_switch_state_t;
 571:Generated_Source\PSoC6\pdl\drivers\peripheral\ctb/cy_ctb.h **** 
 572:Generated_Source\PSoC6\pdl\drivers\peripheral\ctb/cy_ctb.h **** /**
 573:Generated_Source\PSoC6\pdl\drivers\peripheral\ctb/cy_ctb.h **** * The switch register to be used in \ref Cy_CTB_SetAnalogSwitch.
 574:Generated_Source\PSoC6\pdl\drivers\peripheral\ctb/cy_ctb.h **** * The CTB has three registers for configuring the switch routing matrix.
 575:Generated_Source\PSoC6\pdl\drivers\peripheral\ctb/cy_ctb.h **** * */
 576:Generated_Source\PSoC6\pdl\drivers\peripheral\ctb/cy_ctb.h **** typedef enum
 577:Generated_Source\PSoC6\pdl\drivers\peripheral\ctb/cy_ctb.h **** {
 578:Generated_Source\PSoC6\pdl\drivers\peripheral\ctb/cy_ctb.h ****     CY_CTB_SWITCH_OA0_SW     = 0uL,     /**< Switch register for Opamp0 */
 579:Generated_Source\PSoC6\pdl\drivers\peripheral\ctb/cy_ctb.h ****     CY_CTB_SWITCH_OA1_SW     = 1uL,     /**< Switch register for Opamp1 */
 580:Generated_Source\PSoC6\pdl\drivers\peripheral\ctb/cy_ctb.h ****     CY_CTB_SWITCH_CTD_SW     = 2uL,     /**< Switch register for CTDAC routing */
 581:Generated_Source\PSoC6\pdl\drivers\peripheral\ctb/cy_ctb.h **** }cy_en_ctb_switch_register_sel_t;
 582:Generated_Source\PSoC6\pdl\drivers\peripheral\ctb/cy_ctb.h **** 
 583:Generated_Source\PSoC6\pdl\drivers\peripheral\ctb/cy_ctb.h **** /**
 584:Generated_Source\PSoC6\pdl\drivers\peripheral\ctb/cy_ctb.h **** * Switch masks for Opamp0 to be used in \ref Cy_CTB_SetAnalogSwitch.
 585:Generated_Source\PSoC6\pdl\drivers\peripheral\ctb/cy_ctb.h **** */
 586:Generated_Source\PSoC6\pdl\drivers\peripheral\ctb/cy_ctb.h **** typedef enum
 587:Generated_Source\PSoC6\pdl\drivers\peripheral\ctb/cy_ctb.h **** {
 588:Generated_Source\PSoC6\pdl\drivers\peripheral\ctb/cy_ctb.h ****     CY_CTB_SW_OA0_POS_AMUXBUSA_MASK     = CTBM_OA0_SW_OA0P_A00_Msk,       /**< Switch A00: Opamp0 n
 589:Generated_Source\PSoC6\pdl\drivers\peripheral\ctb/cy_ctb.h ****     CY_CTB_SW_OA0_POS_PIN0_MASK         = CTBM_OA0_SW_OA0P_A20_Msk,       /**< Switch A20: Opamp0 n
 590:Generated_Source\PSoC6\pdl\drivers\peripheral\ctb/cy_ctb.h ****     CY_CTB_SW_OA0_POS_PIN6_MASK         = CTBM_OA0_SW_OA0P_A30_Msk,       /**< Switch A30: Opamp0 n
 591:Generated_Source\PSoC6\pdl\drivers\peripheral\ctb/cy_ctb.h ****     CY_CTB_SW_OA0_NEG_PIN1_MASK         = CTBM_OA0_SW_OA0M_A11_Msk,       /**< Switch A11: Opamp0 i
 592:Generated_Source\PSoC6\pdl\drivers\peripheral\ctb/cy_ctb.h ****     CY_CTB_SW_OA0_NEG_OUT_MASK          = CTBM_OA0_SW_OA0M_A81_Msk,       /**< Switch A81: Opamp0 i
 593:Generated_Source\PSoC6\pdl\drivers\peripheral\ctb/cy_ctb.h ****     CY_CTB_SW_OA0_OUT_SARBUS0_MASK      = CTBM_OA0_SW_OA0O_D51_Msk,       /**< Switch D51: Opamp0 o
 594:Generated_Source\PSoC6\pdl\drivers\peripheral\ctb/cy_ctb.h ****     CY_CTB_SW_OA0_OUT_SHORT_1X_10X_MASK = CTBM_OA0_SW_OA0O_D81_Msk,       /**< Switch D81: Short Op
 595:Generated_Source\PSoC6\pdl\drivers\peripheral\ctb/cy_ctb.h **** }cy_en_ctb_oa0_switches_t;
 596:Generated_Source\PSoC6\pdl\drivers\peripheral\ctb/cy_ctb.h **** 
 597:Generated_Source\PSoC6\pdl\drivers\peripheral\ctb/cy_ctb.h **** /**
 598:Generated_Source\PSoC6\pdl\drivers\peripheral\ctb/cy_ctb.h **** * Switch masks for Opamp1 to be used in \ref Cy_CTB_SetAnalogSwitch.
 599:Generated_Source\PSoC6\pdl\drivers\peripheral\ctb/cy_ctb.h **** */
 600:Generated_Source\PSoC6\pdl\drivers\peripheral\ctb/cy_ctb.h **** typedef enum
 601:Generated_Source\PSoC6\pdl\drivers\peripheral\ctb/cy_ctb.h **** {
 602:Generated_Source\PSoC6\pdl\drivers\peripheral\ctb/cy_ctb.h ****     CY_CTB_SW_OA1_POS_AMUXBUSB_MASK     = CTBM_OA1_SW_OA1P_A03_Msk,       /**< Switch A03: Opamp1 n
 603:Generated_Source\PSoC6\pdl\drivers\peripheral\ctb/cy_ctb.h ****     CY_CTB_SW_OA1_POS_PIN5_MASK         = CTBM_OA1_SW_OA1P_A13_Msk,       /**< Switch A13: Opamp1 n
ARM GAS  C:\Users\User\AppData\Local\Temp\ccPcfS0D.s 			page 47


 604:Generated_Source\PSoC6\pdl\drivers\peripheral\ctb/cy_ctb.h ****     CY_CTB_SW_OA1_POS_PIN7_MASK         = CTBM_OA1_SW_OA1P_A43_Msk,       /**< Switch A43: Opamp1 n
 605:Generated_Source\PSoC6\pdl\drivers\peripheral\ctb/cy_ctb.h ****     CY_CTB_SW_OA1_POS_AREF_MASK         = CTBM_OA1_SW_OA1P_A73_Msk,       /**< Switch A73: Opamp1 n
 606:Generated_Source\PSoC6\pdl\drivers\peripheral\ctb/cy_ctb.h ****     CY_CTB_SW_OA1_NEG_PIN4_MASK         = CTBM_OA1_SW_OA1M_A22_Msk,       /**< Switch A22: Opamp1 i
 607:Generated_Source\PSoC6\pdl\drivers\peripheral\ctb/cy_ctb.h ****     CY_CTB_SW_OA1_NEG_OUT_MASK          = CTBM_OA1_SW_OA1M_A82_Msk,       /**< switch A82: Opamp1 i
 608:Generated_Source\PSoC6\pdl\drivers\peripheral\ctb/cy_ctb.h ****     CY_CTB_SW_OA1_OUT_SARBUS0_MASK      = CTBM_OA1_SW_OA1O_D52_Msk,       /**< Switch D52: Opamp1 o
 609:Generated_Source\PSoC6\pdl\drivers\peripheral\ctb/cy_ctb.h ****     CY_CTB_SW_OA1_OUT_SARBUS1_MASK      = CTBM_OA1_SW_OA1O_D62_Msk,       /**< Switch D62: Opamp1 o
 610:Generated_Source\PSoC6\pdl\drivers\peripheral\ctb/cy_ctb.h ****     CY_CTB_SW_OA1_OUT_SHORT_1X_10X_MASK = CTBM_OA1_SW_OA1O_D82_Msk,       /**< Switch D82: Short Op
 611:Generated_Source\PSoC6\pdl\drivers\peripheral\ctb/cy_ctb.h **** }cy_en_ctb_oa1_switches_t;
 612:Generated_Source\PSoC6\pdl\drivers\peripheral\ctb/cy_ctb.h **** 
 613:Generated_Source\PSoC6\pdl\drivers\peripheral\ctb/cy_ctb.h **** /**
 614:Generated_Source\PSoC6\pdl\drivers\peripheral\ctb/cy_ctb.h **** * Switch masks for CTDAC to CTB routing to be used in \ref Cy_CTB_SetAnalogSwitch.
 615:Generated_Source\PSoC6\pdl\drivers\peripheral\ctb/cy_ctb.h **** */
 616:Generated_Source\PSoC6\pdl\drivers\peripheral\ctb/cy_ctb.h **** typedef enum
 617:Generated_Source\PSoC6\pdl\drivers\peripheral\ctb/cy_ctb.h **** {
 618:Generated_Source\PSoC6\pdl\drivers\peripheral\ctb/cy_ctb.h ****     CY_CTB_SW_CTD_REF_OA1_OUT_MASK              = CTBM_CTD_SW_CTDD_CRD_Msk,       /**< Switch CRD: 
 619:Generated_Source\PSoC6\pdl\drivers\peripheral\ctb/cy_ctb.h ****     CY_CTB_SW_CTD_REFSENSE_OA1_NEG_MASK         = CTBM_CTD_SW_CTDS_CRS_Msk,       /**< Switch CRS: 
 620:Generated_Source\PSoC6\pdl\drivers\peripheral\ctb/cy_ctb.h ****     CY_CTB_SW_CTD_OUT_OA1_NEG_MASK              = CTBM_CTD_SW_CTDS_COR_Msk,       /**< Switch COR: 
 621:Generated_Source\PSoC6\pdl\drivers\peripheral\ctb/cy_ctb.h ****     CY_CTB_SW_CTD_OUT_PIN6_MASK                 = CTBM_CTD_SW_CTDO_C6H_Msk,       /**< Switch C6H: 
 622:Generated_Source\PSoC6\pdl\drivers\peripheral\ctb/cy_ctb.h ****     CY_CTB_SW_CTD_OUT_CHOLD_MASK                = CTBM_CTD_SW_CTDO_COS_Msk,       /**< Switch COS: 
 623:Generated_Source\PSoC6\pdl\drivers\peripheral\ctb/cy_ctb.h ****     CY_CTB_SW_CTD_OUT_OA0_1X_OUT_MASK           = CTBM_CTD_SW_CTDH_COB_Msk,       /**< Switch COB: 
 624:Generated_Source\PSoC6\pdl\drivers\peripheral\ctb/cy_ctb.h ****     CY_CTB_SW_CTD_CHOLD_CONNECT_MASK            = CTBM_CTD_SW_CTDH_CHD_Msk,       /**< Switch CHD: 
 625:Generated_Source\PSoC6\pdl\drivers\peripheral\ctb/cy_ctb.h ****     CY_CTB_SW_CTD_CHOLD_OA0_POS_MASK            = CTBM_CTD_SW_CTDH_CA0_Msk,       /**< Switch CA0: 
 626:Generated_Source\PSoC6\pdl\drivers\peripheral\ctb/cy_ctb.h ****     CY_CTB_SW_CTD_CHOLD_OA0_POS_ISOLATE_MASK    = CTBM_CTD_SW_CTDH_CIS_Msk,       /**< Switch CIS: 
 627:Generated_Source\PSoC6\pdl\drivers\peripheral\ctb/cy_ctb.h ****     CY_CTB_SW_CTD_CHOLD_LEAKAGE_REDUCTION_MASK  = CTBM_CTD_SW_CTDH_ILR_Msk,       /**< Switch ILR: 
 628:Generated_Source\PSoC6\pdl\drivers\peripheral\ctb/cy_ctb.h **** }cy_en_ctb_ctd_switches_t;
 629:Generated_Source\PSoC6\pdl\drivers\peripheral\ctb/cy_ctb.h **** 
 630:Generated_Source\PSoC6\pdl\drivers\peripheral\ctb/cy_ctb.h **** 
 631:Generated_Source\PSoC6\pdl\drivers\peripheral\ctb/cy_ctb.h **** /**
 632:Generated_Source\PSoC6\pdl\drivers\peripheral\ctb/cy_ctb.h **** * Masks for CTB switches that can be controlled by the SAR sequencer.
 633:Generated_Source\PSoC6\pdl\drivers\peripheral\ctb/cy_ctb.h **** * These masks are used in \ref Cy_CTB_EnableSarSeqCtrl and \ref Cy_CTB_DisableSarSeqCtrl.
 634:Generated_Source\PSoC6\pdl\drivers\peripheral\ctb/cy_ctb.h **** *
 635:Generated_Source\PSoC6\pdl\drivers\peripheral\ctb/cy_ctb.h **** * The SAR ADC subsystem supports analog routes through three CTB switches on SARBUS0 and SARBUS1.
 636:Generated_Source\PSoC6\pdl\drivers\peripheral\ctb/cy_ctb.h **** * This control allows for pins on the CTB dedicated port to route to the SAR ADC input channels:
 637:Generated_Source\PSoC6\pdl\drivers\peripheral\ctb/cy_ctb.h **** *
 638:Generated_Source\PSoC6\pdl\drivers\peripheral\ctb/cy_ctb.h **** *   - D51: Connects the inverting terminal of OA0 to SARBUS0
 639:Generated_Source\PSoC6\pdl\drivers\peripheral\ctb/cy_ctb.h **** *   - D52: Connects the inverting terminal of OA1 to SARBUS0
 640:Generated_Source\PSoC6\pdl\drivers\peripheral\ctb/cy_ctb.h **** *   - D62: Connects the inverting terminal of OA1 to SARBUS1
 641:Generated_Source\PSoC6\pdl\drivers\peripheral\ctb/cy_ctb.h **** */
 642:Generated_Source\PSoC6\pdl\drivers\peripheral\ctb/cy_ctb.h **** typedef enum
 643:Generated_Source\PSoC6\pdl\drivers\peripheral\ctb/cy_ctb.h **** {
 644:Generated_Source\PSoC6\pdl\drivers\peripheral\ctb/cy_ctb.h ****     CY_CTB_SW_SEQ_CTRL_D51_MASK            = CTBM_CTB_SW_SQ_CTRL_P2_SQ_CTRL23_Msk,  /**< Enable SAR
 645:Generated_Source\PSoC6\pdl\drivers\peripheral\ctb/cy_ctb.h ****     CY_CTB_SW_SEQ_CTRL_D52_D62_MASK        = CTBM_CTB_SW_SQ_CTRL_P3_SQ_CTRL23_Msk,  /**< Enable SAR
 646:Generated_Source\PSoC6\pdl\drivers\peripheral\ctb/cy_ctb.h ****     CY_CTB_SW_SEQ_CTRL_D51_D52_D62_MASK    = CTBM_CTB_SW_SQ_CTRL_P2_SQ_CTRL23_Msk | CTBM_CTB_SW_SQ_
 647:Generated_Source\PSoC6\pdl\drivers\peripheral\ctb/cy_ctb.h **** }cy_en_ctb_switch_sar_seq_t;
 648:Generated_Source\PSoC6\pdl\drivers\peripheral\ctb/cy_ctb.h **** 
 649:Generated_Source\PSoC6\pdl\drivers\peripheral\ctb/cy_ctb.h **** /**
 650:Generated_Source\PSoC6\pdl\drivers\peripheral\ctb/cy_ctb.h **** * Each opamp also has a programmable compensation capacitor block,
 651:Generated_Source\PSoC6\pdl\drivers\peripheral\ctb/cy_ctb.h **** * that optimizes the stability of the opamp performance based on output load.
 652:Generated_Source\PSoC6\pdl\drivers\peripheral\ctb/cy_ctb.h **** * The compensation cap will be set by the driver based on the opamp drive strength (1x or 10x) sele
 653:Generated_Source\PSoC6\pdl\drivers\peripheral\ctb/cy_ctb.h **** */
 654:Generated_Source\PSoC6\pdl\drivers\peripheral\ctb/cy_ctb.h **** typedef enum
 655:Generated_Source\PSoC6\pdl\drivers\peripheral\ctb/cy_ctb.h **** {
 656:Generated_Source\PSoC6\pdl\drivers\peripheral\ctb/cy_ctb.h ****     CY_CTB_OPAMP_COMPENSATION_CAP_OFF      = 0uL,       /**< No compensation */
 657:Generated_Source\PSoC6\pdl\drivers\peripheral\ctb/cy_ctb.h ****     CY_CTB_OPAMP_COMPENSATION_CAP_MIN      = 1uL,       /**< Minimum compensation - for 1x drive*/
 658:Generated_Source\PSoC6\pdl\drivers\peripheral\ctb/cy_ctb.h ****     CY_CTB_OPAMP_COMPENSATION_CAP_MED      = 2uL,       /**< Medium compensation */
 659:Generated_Source\PSoC6\pdl\drivers\peripheral\ctb/cy_ctb.h ****     CY_CTB_OPAMP_COMPENSATION_CAP_MAX      = 3uL,       /**< Maximum compensation - for 10x drive *
 660:Generated_Source\PSoC6\pdl\drivers\peripheral\ctb/cy_ctb.h **** }cy_en_ctb_compensation_cap_t;
ARM GAS  C:\Users\User\AppData\Local\Temp\ccPcfS0D.s 			page 48


 661:Generated_Source\PSoC6\pdl\drivers\peripheral\ctb/cy_ctb.h **** 
 662:Generated_Source\PSoC6\pdl\drivers\peripheral\ctb/cy_ctb.h **** /** Enable or disable the gain booster.
 663:Generated_Source\PSoC6\pdl\drivers\peripheral\ctb/cy_ctb.h **** * The gain booster will be set by the driver based on the opamp drive strength (1x or 10x) selectio
 664:Generated_Source\PSoC6\pdl\drivers\peripheral\ctb/cy_ctb.h **** */
 665:Generated_Source\PSoC6\pdl\drivers\peripheral\ctb/cy_ctb.h **** typedef enum
 666:Generated_Source\PSoC6\pdl\drivers\peripheral\ctb/cy_ctb.h **** {
 667:Generated_Source\PSoC6\pdl\drivers\peripheral\ctb/cy_ctb.h ****     CY_CTB_OPAMP_BOOST_DISABLE = 0uL,                                   /**< Disable gain booster -
 668:Generated_Source\PSoC6\pdl\drivers\peripheral\ctb/cy_ctb.h ****     CY_CTB_OPAMP_BOOST_ENABLE  = CTBM_OA_RES0_CTRL_OA0_BOOST_EN_Msk,   /**< Enable gain booster - f
 669:Generated_Source\PSoC6\pdl\drivers\peripheral\ctb/cy_ctb.h **** }cy_en_ctb_boost_en_t;
 670:Generated_Source\PSoC6\pdl\drivers\peripheral\ctb/cy_ctb.h **** 
 671:Generated_Source\PSoC6\pdl\drivers\peripheral\ctb/cy_ctb.h **** /** Sample and hold modes for firmware sampling of the CTDAC output.
 672:Generated_Source\PSoC6\pdl\drivers\peripheral\ctb/cy_ctb.h **** *
 673:Generated_Source\PSoC6\pdl\drivers\peripheral\ctb/cy_ctb.h **** * To perform a sample or a hold, a preparation step must first be executed to
 674:Generated_Source\PSoC6\pdl\drivers\peripheral\ctb/cy_ctb.h **** * open the required switches.
 675:Generated_Source\PSoC6\pdl\drivers\peripheral\ctb/cy_ctb.h **** *
 676:Generated_Source\PSoC6\pdl\drivers\peripheral\ctb/cy_ctb.h **** * -# Call \ref Cy_CTB_DACSampleAndHold with \ref CY_CTB_SH_PREPARE_SAMPLE or \ref CY_CTB_SH_PREPARE
 677:Generated_Source\PSoC6\pdl\drivers\peripheral\ctb/cy_ctb.h **** * -# Enable or disable CTDAC output
 678:Generated_Source\PSoC6\pdl\drivers\peripheral\ctb/cy_ctb.h **** * -# Call \ref Cy_CTB_DACSampleAndHold with \ref CY_CTB_SH_SAMPLE or \ref CY_CTB_SH_HOLD
 679:Generated_Source\PSoC6\pdl\drivers\peripheral\ctb/cy_ctb.h **** */
 680:Generated_Source\PSoC6\pdl\drivers\peripheral\ctb/cy_ctb.h **** typedef enum
 681:Generated_Source\PSoC6\pdl\drivers\peripheral\ctb/cy_ctb.h **** {
 682:Generated_Source\PSoC6\pdl\drivers\peripheral\ctb/cy_ctb.h ****     CY_CTB_SH_DISABLE           = 0uL,   /**< The hold capacitor is not connected - this disables s
 683:Generated_Source\PSoC6\pdl\drivers\peripheral\ctb/cy_ctb.h ****     CY_CTB_SH_PREPARE_SAMPLE    = 1uL,   /**< Prepares the required switches for a following sample
 684:Generated_Source\PSoC6\pdl\drivers\peripheral\ctb/cy_ctb.h ****     CY_CTB_SH_SAMPLE            = 2uL,   /**< Performs a sample of the voltage */
 685:Generated_Source\PSoC6\pdl\drivers\peripheral\ctb/cy_ctb.h ****     CY_CTB_SH_PREPARE_HOLD      = 3uL,   /**< Prepares the required switches for a following hold *
 686:Generated_Source\PSoC6\pdl\drivers\peripheral\ctb/cy_ctb.h ****     CY_CTB_SH_HOLD              = 4uL,   /**< Performs a hold of the previously sampled voltage */
 687:Generated_Source\PSoC6\pdl\drivers\peripheral\ctb/cy_ctb.h **** }cy_en_ctb_sample_hold_mode_t;
 688:Generated_Source\PSoC6\pdl\drivers\peripheral\ctb/cy_ctb.h **** 
 689:Generated_Source\PSoC6\pdl\drivers\peripheral\ctb/cy_ctb.h **** /** AREF IPTAT bias current output for the CTB
 690:Generated_Source\PSoC6\pdl\drivers\peripheral\ctb/cy_ctb.h **** *
 691:Generated_Source\PSoC6\pdl\drivers\peripheral\ctb/cy_ctb.h **** * The CTB bias current can be 1 uA (normal) or 100 nA (low current).
 692:Generated_Source\PSoC6\pdl\drivers\peripheral\ctb/cy_ctb.h **** */
 693:Generated_Source\PSoC6\pdl\drivers\peripheral\ctb/cy_ctb.h **** typedef enum
 694:Generated_Source\PSoC6\pdl\drivers\peripheral\ctb/cy_ctb.h **** {
 695:Generated_Source\PSoC6\pdl\drivers\peripheral\ctb/cy_ctb.h ****     CY_CTB_IPTAT_NORMAL       = 0uL,                                               /**< 1 uA bias c
 696:Generated_Source\PSoC6\pdl\drivers\peripheral\ctb/cy_ctb.h ****     CY_CTB_IPTAT_LOW          = 1uL << PASS_AREF_AREF_CTRL_CTB_IPTAT_SCALE_Pos,    /**< 100 nA bias
 697:Generated_Source\PSoC6\pdl\drivers\peripheral\ctb/cy_ctb.h **** }cy_en_ctb_iptat_t;
 698:Generated_Source\PSoC6\pdl\drivers\peripheral\ctb/cy_ctb.h **** 
 699:Generated_Source\PSoC6\pdl\drivers\peripheral\ctb/cy_ctb.h **** /** CTB charge pump clock sources
 700:Generated_Source\PSoC6\pdl\drivers\peripheral\ctb/cy_ctb.h **** *
 701:Generated_Source\PSoC6\pdl\drivers\peripheral\ctb/cy_ctb.h **** * The CTB pump clock can come from:
 702:Generated_Source\PSoC6\pdl\drivers\peripheral\ctb/cy_ctb.h **** *   - a dedicated divider clock in the SRSS
 703:Generated_Source\PSoC6\pdl\drivers\peripheral\ctb/cy_ctb.h **** *   - one of the CLK_PERI dividers
 704:Generated_Source\PSoC6\pdl\drivers\peripheral\ctb/cy_ctb.h **** */
 705:Generated_Source\PSoC6\pdl\drivers\peripheral\ctb/cy_ctb.h **** typedef enum
 706:Generated_Source\PSoC6\pdl\drivers\peripheral\ctb/cy_ctb.h **** {
 707:Generated_Source\PSoC6\pdl\drivers\peripheral\ctb/cy_ctb.h ****     CY_CTB_CLK_PUMP_SRSS       = 0uL,                                                   /**< Use th
 708:Generated_Source\PSoC6\pdl\drivers\peripheral\ctb/cy_ctb.h ****     CY_CTB_CLK_PUMP_PERI       = 1uL << PASS_AREF_AREF_CTRL_CLOCK_PUMP_PERI_SEL_Pos,    /**< Use on
 709:Generated_Source\PSoC6\pdl\drivers\peripheral\ctb/cy_ctb.h **** }cy_en_ctb_clk_pump_source_t;
 710:Generated_Source\PSoC6\pdl\drivers\peripheral\ctb/cy_ctb.h **** 
 711:Generated_Source\PSoC6\pdl\drivers\peripheral\ctb/cy_ctb.h **** /** High level opamp current modes */
 712:Generated_Source\PSoC6\pdl\drivers\peripheral\ctb/cy_ctb.h **** typedef enum
 713:Generated_Source\PSoC6\pdl\drivers\peripheral\ctb/cy_ctb.h **** {
 714:Generated_Source\PSoC6\pdl\drivers\peripheral\ctb/cy_ctb.h ****     CY_CTB_CURRENT_HIGH_ACTIVE             = 0uL,    /**< Uses 1 uA reference current with charge p
 715:Generated_Source\PSoC6\pdl\drivers\peripheral\ctb/cy_ctb.h ****     CY_CTB_CURRENT_HIGH_ACTIVE_DEEPSLEEP   = 1uL,    /**< Uses 1 uA reference current with charge p
 716:Generated_Source\PSoC6\pdl\drivers\peripheral\ctb/cy_ctb.h ****     CY_CTB_CURRENT_LOW_ACTIVE_DEEPSLEEP    = 2uL,    /**< Uses 100 nA reference current with charge
 717:Generated_Source\PSoC6\pdl\drivers\peripheral\ctb/cy_ctb.h **** }cy_en_ctb_current_mode_t;
ARM GAS  C:\Users\User\AppData\Local\Temp\ccPcfS0D.s 			page 49


 718:Generated_Source\PSoC6\pdl\drivers\peripheral\ctb/cy_ctb.h **** 
 719:Generated_Source\PSoC6\pdl\drivers\peripheral\ctb/cy_ctb.h **** /** Return states for \ref Cy_CTB_Init, \ref Cy_CTB_OpampInit, \ref Cy_CTB_DeInit, and \ref Cy_CTB_
 720:Generated_Source\PSoC6\pdl\drivers\peripheral\ctb/cy_ctb.h **** typedef enum {
 721:Generated_Source\PSoC6\pdl\drivers\peripheral\ctb/cy_ctb.h ****     CY_CTB_SUCCESS    = 0x00uL,                                      /**< Initialization completed 
 722:Generated_Source\PSoC6\pdl\drivers\peripheral\ctb/cy_ctb.h ****     CY_CTB_BAD_PARAM  = CY_CTB_ID | CY_PDL_STATUS_ERROR | 0x01uL,    /**< Input pointers were NULL 
 723:Generated_Source\PSoC6\pdl\drivers\peripheral\ctb/cy_ctb.h **** }cy_en_ctb_status_t;
 724:Generated_Source\PSoC6\pdl\drivers\peripheral\ctb/cy_ctb.h **** 
 725:Generated_Source\PSoC6\pdl\drivers\peripheral\ctb/cy_ctb.h **** /** \} group_ctb_enums */
 726:Generated_Source\PSoC6\pdl\drivers\peripheral\ctb/cy_ctb.h **** 
 727:Generated_Source\PSoC6\pdl\drivers\peripheral\ctb/cy_ctb.h **** /***************************************
 728:Generated_Source\PSoC6\pdl\drivers\peripheral\ctb/cy_ctb.h **** *       Configuration Structures
 729:Generated_Source\PSoC6\pdl\drivers\peripheral\ctb/cy_ctb.h **** ***************************************/
 730:Generated_Source\PSoC6\pdl\drivers\peripheral\ctb/cy_ctb.h **** 
 731:Generated_Source\PSoC6\pdl\drivers\peripheral\ctb/cy_ctb.h **** /**
 732:Generated_Source\PSoC6\pdl\drivers\peripheral\ctb/cy_ctb.h **** * \addtogroup group_ctb_data_structures
 733:Generated_Source\PSoC6\pdl\drivers\peripheral\ctb/cy_ctb.h **** * \{
 734:Generated_Source\PSoC6\pdl\drivers\peripheral\ctb/cy_ctb.h **** */
 735:Generated_Source\PSoC6\pdl\drivers\peripheral\ctb/cy_ctb.h **** 
 736:Generated_Source\PSoC6\pdl\drivers\peripheral\ctb/cy_ctb.h **** /**
 737:Generated_Source\PSoC6\pdl\drivers\peripheral\ctb/cy_ctb.h **** * Configuration structure to set up the entire CTB to be used with \ref Cy_CTB_Init.
 738:Generated_Source\PSoC6\pdl\drivers\peripheral\ctb/cy_ctb.h **** */
 739:Generated_Source\PSoC6\pdl\drivers\peripheral\ctb/cy_ctb.h **** typedef struct {
 740:Generated_Source\PSoC6\pdl\drivers\peripheral\ctb/cy_ctb.h ****     cy_en_ctb_deep_sleep_t      deepSleep;      /**< Enable or disable the CTB during Deep Sleep */
 741:Generated_Source\PSoC6\pdl\drivers\peripheral\ctb/cy_ctb.h **** 
 742:Generated_Source\PSoC6\pdl\drivers\peripheral\ctb/cy_ctb.h ****     /* Opamp0 configuration */
 743:Generated_Source\PSoC6\pdl\drivers\peripheral\ctb/cy_ctb.h ****     cy_en_ctb_power_t           oa0Power;       /**< Opamp0 power mode: off, low, medium, or high *
 744:Generated_Source\PSoC6\pdl\drivers\peripheral\ctb/cy_ctb.h ****     cy_en_ctb_mode_t            oa0Mode;        /**< Opamp0 usage mode: 1x drive, 10x drive, or as 
 745:Generated_Source\PSoC6\pdl\drivers\peripheral\ctb/cy_ctb.h ****     cy_en_ctb_pump_t            oa0Pump;        /**< Opamp0 charge pump: enable to increase input r
 746:Generated_Source\PSoC6\pdl\drivers\peripheral\ctb/cy_ctb.h ****     cy_en_ctb_comp_edge_t       oa0CompEdge;    /**< Opamp0 comparator edge detection: disable, ris
 747:Generated_Source\PSoC6\pdl\drivers\peripheral\ctb/cy_ctb.h ****     cy_en_ctb_comp_level_t      oa0CompLevel;   /**< Opamp0 comparator DSI (trigger) output: pulse 
 748:Generated_Source\PSoC6\pdl\drivers\peripheral\ctb/cy_ctb.h ****     cy_en_ctb_comp_bypass_t     oa0CompBypass;  /**< Opamp0 comparator DSI (trigger) output synchro
 749:Generated_Source\PSoC6\pdl\drivers\peripheral\ctb/cy_ctb.h ****     cy_en_ctb_comp_hyst_t       oa0CompHyst;    /**< Opamp0 comparator hysteresis: enable for 10 mV
 750:Generated_Source\PSoC6\pdl\drivers\peripheral\ctb/cy_ctb.h ****     bool                        oa0CompIntrEn;  /**< Opamp0 comparator interrupt enable */
 751:Generated_Source\PSoC6\pdl\drivers\peripheral\ctb/cy_ctb.h **** 
 752:Generated_Source\PSoC6\pdl\drivers\peripheral\ctb/cy_ctb.h ****     /* Opamp1 configuration */
 753:Generated_Source\PSoC6\pdl\drivers\peripheral\ctb/cy_ctb.h ****     cy_en_ctb_power_t           oa1Power;       /**< Opamp1 power mode: off, low, medium, or high *
 754:Generated_Source\PSoC6\pdl\drivers\peripheral\ctb/cy_ctb.h ****     cy_en_ctb_mode_t            oa1Mode;        /**< Opamp1 usage mode: 1x drive, 10x drive, or as 
 755:Generated_Source\PSoC6\pdl\drivers\peripheral\ctb/cy_ctb.h ****     cy_en_ctb_pump_t            oa1Pump;        /**< Opamp1 charge pump: enable to increase input r
 756:Generated_Source\PSoC6\pdl\drivers\peripheral\ctb/cy_ctb.h ****     cy_en_ctb_comp_edge_t       oa1CompEdge;    /**< Opamp1 comparator edge detection: disable, ris
 757:Generated_Source\PSoC6\pdl\drivers\peripheral\ctb/cy_ctb.h ****     cy_en_ctb_comp_level_t      oa1CompLevel;   /**< Opamp1 comparator DSI (trigger) output: pulse 
 758:Generated_Source\PSoC6\pdl\drivers\peripheral\ctb/cy_ctb.h ****     cy_en_ctb_comp_bypass_t     oa1CompBypass;  /**< Opamp1 comparator DSI (trigger) output synchro
 759:Generated_Source\PSoC6\pdl\drivers\peripheral\ctb/cy_ctb.h ****     cy_en_ctb_comp_hyst_t       oa1CompHyst;    /**< Opamp1 comparator hysteresis: enable for 10 mV
 760:Generated_Source\PSoC6\pdl\drivers\peripheral\ctb/cy_ctb.h ****     bool                        oa1CompIntrEn;  /**< Opamp1 comparator interrupt enable */
 761:Generated_Source\PSoC6\pdl\drivers\peripheral\ctb/cy_ctb.h **** 
 762:Generated_Source\PSoC6\pdl\drivers\peripheral\ctb/cy_ctb.h ****     /* Switch analog routing configuration */
 763:Generated_Source\PSoC6\pdl\drivers\peripheral\ctb/cy_ctb.h ****     bool                        configRouting;  /**< Configure or ignore routing related registers 
 764:Generated_Source\PSoC6\pdl\drivers\peripheral\ctb/cy_ctb.h ****     uint32_t                    oa0SwitchCtrl;  /**< Opamp0 routing control */
 765:Generated_Source\PSoC6\pdl\drivers\peripheral\ctb/cy_ctb.h ****     uint32_t                    oa1SwitchCtrl;  /**< Opamp1 routing control */
 766:Generated_Source\PSoC6\pdl\drivers\peripheral\ctb/cy_ctb.h ****     uint32_t                    ctdSwitchCtrl;  /**< Routing control between the CTDAC and CTB bloc
 767:Generated_Source\PSoC6\pdl\drivers\peripheral\ctb/cy_ctb.h **** }cy_stc_ctb_config_t;
 768:Generated_Source\PSoC6\pdl\drivers\peripheral\ctb/cy_ctb.h **** 
 769:Generated_Source\PSoC6\pdl\drivers\peripheral\ctb/cy_ctb.h **** /**
 770:Generated_Source\PSoC6\pdl\drivers\peripheral\ctb/cy_ctb.h **** * This configuration structure is used to initialize only one opamp of the CTB
 771:Generated_Source\PSoC6\pdl\drivers\peripheral\ctb/cy_ctb.h **** * without impacting analog routing. This structure is used with \ref Cy_CTB_OpampInit.
 772:Generated_Source\PSoC6\pdl\drivers\peripheral\ctb/cy_ctb.h **** */
 773:Generated_Source\PSoC6\pdl\drivers\peripheral\ctb/cy_ctb.h **** typedef struct {
 774:Generated_Source\PSoC6\pdl\drivers\peripheral\ctb/cy_ctb.h ****     cy_en_ctb_deep_sleep_t      deepSleep;      /**< Enable or disable the CTB during Deep Sleep */
ARM GAS  C:\Users\User\AppData\Local\Temp\ccPcfS0D.s 			page 50


 775:Generated_Source\PSoC6\pdl\drivers\peripheral\ctb/cy_ctb.h **** 
 776:Generated_Source\PSoC6\pdl\drivers\peripheral\ctb/cy_ctb.h ****     /* Opamp configuration */
 777:Generated_Source\PSoC6\pdl\drivers\peripheral\ctb/cy_ctb.h ****     cy_en_ctb_power_t           oaPower;        /**< Opamp power mode: off, low, medium, or high */
 778:Generated_Source\PSoC6\pdl\drivers\peripheral\ctb/cy_ctb.h ****     cy_en_ctb_mode_t            oaMode;         /**< Opamp usage mode: 1x drive, 10x drive, or as a
 779:Generated_Source\PSoC6\pdl\drivers\peripheral\ctb/cy_ctb.h ****     cy_en_ctb_pump_t            oaPump;         /**< Opamp charge pump: enable to increase input ra
 780:Generated_Source\PSoC6\pdl\drivers\peripheral\ctb/cy_ctb.h ****     cy_en_ctb_comp_edge_t       oaCompEdge;     /**< Opamp comparator edge detection: disable, risi
 781:Generated_Source\PSoC6\pdl\drivers\peripheral\ctb/cy_ctb.h ****     cy_en_ctb_comp_level_t      oaCompLevel;    /**< Opamp comparator DSI (trigger) output: pulse o
 782:Generated_Source\PSoC6\pdl\drivers\peripheral\ctb/cy_ctb.h ****     cy_en_ctb_comp_bypass_t     oaCompBypass;   /**< Opamp comparator DSI (trigger) output synchron
 783:Generated_Source\PSoC6\pdl\drivers\peripheral\ctb/cy_ctb.h ****     cy_en_ctb_comp_hyst_t       oaCompHyst;     /**< Opamp comparator hysteresis: enable for 10 mV 
 784:Generated_Source\PSoC6\pdl\drivers\peripheral\ctb/cy_ctb.h ****     bool                        oaCompIntrEn;   /**< Opamp comparator interrupt enable */
 785:Generated_Source\PSoC6\pdl\drivers\peripheral\ctb/cy_ctb.h **** }cy_stc_ctb_opamp_config_t;
 786:Generated_Source\PSoC6\pdl\drivers\peripheral\ctb/cy_ctb.h **** 
 787:Generated_Source\PSoC6\pdl\drivers\peripheral\ctb/cy_ctb.h **** /** This configuration structure is used to quickly initialize Opamp0 for the most commonly used co
 788:Generated_Source\PSoC6\pdl\drivers\peripheral\ctb/cy_ctb.h **** *
 789:Generated_Source\PSoC6\pdl\drivers\peripheral\ctb/cy_ctb.h **** * Other configuration options are set to:
 790:Generated_Source\PSoC6\pdl\drivers\peripheral\ctb/cy_ctb.h **** *   - .oa0Pump       = \ref CY_CTB_PUMP_ENABLE
 791:Generated_Source\PSoC6\pdl\drivers\peripheral\ctb/cy_ctb.h **** *   - .oa0CompEdge   = \ref CY_CTB_COMP_EDGE_BOTH
 792:Generated_Source\PSoC6\pdl\drivers\peripheral\ctb/cy_ctb.h **** *   - .oa0CompLevel  = \ref CY_CTB_COMP_DSI_TRIGGER_OUT_LEVEL
 793:Generated_Source\PSoC6\pdl\drivers\peripheral\ctb/cy_ctb.h **** *   - .oa0CompBypass = \ref CY_CTB_COMP_BYPASS_SYNC
 794:Generated_Source\PSoC6\pdl\drivers\peripheral\ctb/cy_ctb.h **** *   - .oa0CompHyst   = \ref CY_CTB_COMP_HYST_10MV
 795:Generated_Source\PSoC6\pdl\drivers\peripheral\ctb/cy_ctb.h **** *   - .oa0CompIntrEn = true
 796:Generated_Source\PSoC6\pdl\drivers\peripheral\ctb/cy_ctb.h **** */
 797:Generated_Source\PSoC6\pdl\drivers\peripheral\ctb/cy_ctb.h **** typedef struct
 798:Generated_Source\PSoC6\pdl\drivers\peripheral\ctb/cy_ctb.h **** {
 799:Generated_Source\PSoC6\pdl\drivers\peripheral\ctb/cy_ctb.h ****     cy_en_ctb_power_t   oa0Power;       /**< Opamp0 power mode: off, low, medium, or high */
 800:Generated_Source\PSoC6\pdl\drivers\peripheral\ctb/cy_ctb.h ****     cy_en_ctb_mode_t    oa0Mode;        /**< Opamp0 usage mode: 1x drive, 10x drive, or as a compar
 801:Generated_Source\PSoC6\pdl\drivers\peripheral\ctb/cy_ctb.h ****     uint32_t            oa0SwitchCtrl;  /**< Opamp0 routing control */
 802:Generated_Source\PSoC6\pdl\drivers\peripheral\ctb/cy_ctb.h ****     uint32_t            ctdSwitchCtrl;  /**< Routing control between the CTDAC and CTB blocks */
 803:Generated_Source\PSoC6\pdl\drivers\peripheral\ctb/cy_ctb.h **** }cy_stc_ctb_fast_config_oa0_t;
 804:Generated_Source\PSoC6\pdl\drivers\peripheral\ctb/cy_ctb.h **** 
 805:Generated_Source\PSoC6\pdl\drivers\peripheral\ctb/cy_ctb.h **** /** This configuration structure is used to quickly initialize Opamp1 for the most commonly used co
 806:Generated_Source\PSoC6\pdl\drivers\peripheral\ctb/cy_ctb.h **** *
 807:Generated_Source\PSoC6\pdl\drivers\peripheral\ctb/cy_ctb.h **** * Other configuration options are set to:
 808:Generated_Source\PSoC6\pdl\drivers\peripheral\ctb/cy_ctb.h **** *   - .oa1Pump       = \ref CY_CTB_PUMP_ENABLE
 809:Generated_Source\PSoC6\pdl\drivers\peripheral\ctb/cy_ctb.h **** *   - .oa1CompEdge   = \ref CY_CTB_COMP_EDGE_BOTH
 810:Generated_Source\PSoC6\pdl\drivers\peripheral\ctb/cy_ctb.h **** *   - .oa1CompLevel  = \ref CY_CTB_COMP_DSI_TRIGGER_OUT_LEVEL
 811:Generated_Source\PSoC6\pdl\drivers\peripheral\ctb/cy_ctb.h **** *   - .oa1CompBypass = \ref CY_CTB_COMP_BYPASS_SYNC
 812:Generated_Source\PSoC6\pdl\drivers\peripheral\ctb/cy_ctb.h **** *   - .oa1CompHyst   = \ref CY_CTB_COMP_HYST_10MV
 813:Generated_Source\PSoC6\pdl\drivers\peripheral\ctb/cy_ctb.h **** *   - .oa1CompIntrEn = true
 814:Generated_Source\PSoC6\pdl\drivers\peripheral\ctb/cy_ctb.h **** */
 815:Generated_Source\PSoC6\pdl\drivers\peripheral\ctb/cy_ctb.h **** typedef struct
 816:Generated_Source\PSoC6\pdl\drivers\peripheral\ctb/cy_ctb.h **** {
 817:Generated_Source\PSoC6\pdl\drivers\peripheral\ctb/cy_ctb.h ****     cy_en_ctb_power_t   oa1Power;       /**< Opamp1 power mode: off, low, medium, or high */
 818:Generated_Source\PSoC6\pdl\drivers\peripheral\ctb/cy_ctb.h ****     cy_en_ctb_mode_t    oa1Mode;        /**< Opamp1 usage mode: 1x drive, 10x drive, or as a compar
 819:Generated_Source\PSoC6\pdl\drivers\peripheral\ctb/cy_ctb.h ****     uint32_t            oa1SwitchCtrl;  /**< Opamp1 routing control */
 820:Generated_Source\PSoC6\pdl\drivers\peripheral\ctb/cy_ctb.h ****     uint32_t            ctdSwitchCtrl;  /**< Routing control between the CTDAC and CTB blocks */
 821:Generated_Source\PSoC6\pdl\drivers\peripheral\ctb/cy_ctb.h **** }cy_stc_ctb_fast_config_oa1_t;
 822:Generated_Source\PSoC6\pdl\drivers\peripheral\ctb/cy_ctb.h **** 
 823:Generated_Source\PSoC6\pdl\drivers\peripheral\ctb/cy_ctb.h **** /** \} group_ctb_data_structures */
 824:Generated_Source\PSoC6\pdl\drivers\peripheral\ctb/cy_ctb.h **** 
 825:Generated_Source\PSoC6\pdl\drivers\peripheral\ctb/cy_ctb.h **** 
 826:Generated_Source\PSoC6\pdl\drivers\peripheral\ctb/cy_ctb.h **** /** \addtogroup group_ctb_globals
 827:Generated_Source\PSoC6\pdl\drivers\peripheral\ctb/cy_ctb.h **** * \{
 828:Generated_Source\PSoC6\pdl\drivers\peripheral\ctb/cy_ctb.h **** */
 829:Generated_Source\PSoC6\pdl\drivers\peripheral\ctb/cy_ctb.h **** /***************************************
 830:Generated_Source\PSoC6\pdl\drivers\peripheral\ctb/cy_ctb.h **** *        Global Variables
 831:Generated_Source\PSoC6\pdl\drivers\peripheral\ctb/cy_ctb.h **** ***************************************/
ARM GAS  C:\Users\User\AppData\Local\Temp\ccPcfS0D.s 			page 51


 832:Generated_Source\PSoC6\pdl\drivers\peripheral\ctb/cy_ctb.h **** 
 833:Generated_Source\PSoC6\pdl\drivers\peripheral\ctb/cy_ctb.h **** /** Configure Opamp0 as unused - powered down. See \ref Cy_CTB_FastInit. */
 834:Generated_Source\PSoC6\pdl\drivers\peripheral\ctb/cy_ctb.h **** extern const cy_stc_ctb_fast_config_oa0_t Cy_CTB_Fast_Opamp0_Unused;
 835:Generated_Source\PSoC6\pdl\drivers\peripheral\ctb/cy_ctb.h **** 
 836:Generated_Source\PSoC6\pdl\drivers\peripheral\ctb/cy_ctb.h **** /** Configure Opamp0 as a comparator. No routing is configured.
 837:Generated_Source\PSoC6\pdl\drivers\peripheral\ctb/cy_ctb.h **** *
 838:Generated_Source\PSoC6\pdl\drivers\peripheral\ctb/cy_ctb.h **** * \image html ctb_fast_config_comp.png
 839:Generated_Source\PSoC6\pdl\drivers\peripheral\ctb/cy_ctb.h **** * \image latex ctb_fast_config_comp.png width=100px
 840:Generated_Source\PSoC6\pdl\drivers\peripheral\ctb/cy_ctb.h **** *
 841:Generated_Source\PSoC6\pdl\drivers\peripheral\ctb/cy_ctb.h **** * See \ref Cy_CTB_FastInit.
 842:Generated_Source\PSoC6\pdl\drivers\peripheral\ctb/cy_ctb.h **** */
 843:Generated_Source\PSoC6\pdl\drivers\peripheral\ctb/cy_ctb.h **** extern const cy_stc_ctb_fast_config_oa0_t Cy_CTB_Fast_Opamp0_Comp;
 844:Generated_Source\PSoC6\pdl\drivers\peripheral\ctb/cy_ctb.h **** 
 845:Generated_Source\PSoC6\pdl\drivers\peripheral\ctb/cy_ctb.h **** /** Configure Opamp0 as an opamp with 1x drive. No routing is configured.
 846:Generated_Source\PSoC6\pdl\drivers\peripheral\ctb/cy_ctb.h **** *
 847:Generated_Source\PSoC6\pdl\drivers\peripheral\ctb/cy_ctb.h **** * \image html ctb_fast_config_opamp1x.png
 848:Generated_Source\PSoC6\pdl\drivers\peripheral\ctb/cy_ctb.h **** * \image latex ctb_fast_config_opamp1x.png width=100px
 849:Generated_Source\PSoC6\pdl\drivers\peripheral\ctb/cy_ctb.h **** *
 850:Generated_Source\PSoC6\pdl\drivers\peripheral\ctb/cy_ctb.h **** * See \ref Cy_CTB_FastInit.
 851:Generated_Source\PSoC6\pdl\drivers\peripheral\ctb/cy_ctb.h **** */
 852:Generated_Source\PSoC6\pdl\drivers\peripheral\ctb/cy_ctb.h **** extern const cy_stc_ctb_fast_config_oa0_t Cy_CTB_Fast_Opamp0_Opamp1x;
 853:Generated_Source\PSoC6\pdl\drivers\peripheral\ctb/cy_ctb.h **** 
 854:Generated_Source\PSoC6\pdl\drivers\peripheral\ctb/cy_ctb.h **** /** Configure Opamp0 as an opamp with 10x drive. No routing is configured.
 855:Generated_Source\PSoC6\pdl\drivers\peripheral\ctb/cy_ctb.h **** *
 856:Generated_Source\PSoC6\pdl\drivers\peripheral\ctb/cy_ctb.h **** * \image html ctb_fast_config_opamp10x.png
 857:Generated_Source\PSoC6\pdl\drivers\peripheral\ctb/cy_ctb.h **** * \image latex ctb_fast_config_opamp10x.png width=100px
 858:Generated_Source\PSoC6\pdl\drivers\peripheral\ctb/cy_ctb.h **** *
 859:Generated_Source\PSoC6\pdl\drivers\peripheral\ctb/cy_ctb.h **** * See \ref Cy_CTB_FastInit.
 860:Generated_Source\PSoC6\pdl\drivers\peripheral\ctb/cy_ctb.h **** */
 861:Generated_Source\PSoC6\pdl\drivers\peripheral\ctb/cy_ctb.h **** extern const cy_stc_ctb_fast_config_oa0_t Cy_CTB_Fast_Opamp0_Opamp10x;
 862:Generated_Source\PSoC6\pdl\drivers\peripheral\ctb/cy_ctb.h **** 
 863:Generated_Source\PSoC6\pdl\drivers\peripheral\ctb/cy_ctb.h **** /** Configure Opamp0 as one stage of a differential amplifier.
 864:Generated_Source\PSoC6\pdl\drivers\peripheral\ctb/cy_ctb.h **** * The opamp is in 10x drive and the switches shown are closed.
 865:Generated_Source\PSoC6\pdl\drivers\peripheral\ctb/cy_ctb.h **** *
 866:Generated_Source\PSoC6\pdl\drivers\peripheral\ctb/cy_ctb.h **** * \image html ctb_fast_config_oa0_diffamp.png
 867:Generated_Source\PSoC6\pdl\drivers\peripheral\ctb/cy_ctb.h **** * \image latex ctb_fast_config_oa0_diffamp.png width=100px
 868:Generated_Source\PSoC6\pdl\drivers\peripheral\ctb/cy_ctb.h **** *
 869:Generated_Source\PSoC6\pdl\drivers\peripheral\ctb/cy_ctb.h **** * See the device datasheet for the dedicated CTB port.
 870:Generated_Source\PSoC6\pdl\drivers\peripheral\ctb/cy_ctb.h **** *
 871:Generated_Source\PSoC6\pdl\drivers\peripheral\ctb/cy_ctb.h **** * To be used with \ref Cy_CTB_FastInit and \ref Cy_CTB_Fast_Opamp1_Diffamp.
 872:Generated_Source\PSoC6\pdl\drivers\peripheral\ctb/cy_ctb.h **** */
 873:Generated_Source\PSoC6\pdl\drivers\peripheral\ctb/cy_ctb.h **** extern const cy_stc_ctb_fast_config_oa0_t Cy_CTB_Fast_Opamp0_Diffamp;
 874:Generated_Source\PSoC6\pdl\drivers\peripheral\ctb/cy_ctb.h **** 
 875:Generated_Source\PSoC6\pdl\drivers\peripheral\ctb/cy_ctb.h **** /** Configure Opamp0 as a buffer for the CTDAC output.
 876:Generated_Source\PSoC6\pdl\drivers\peripheral\ctb/cy_ctb.h **** * The buffer is in 10x drive and the switches shown are closed.
 877:Generated_Source\PSoC6\pdl\drivers\peripheral\ctb/cy_ctb.h **** * Configure the CTDAC for output buffer mode by calling \ref Cy_CTDAC_FastInit
 878:Generated_Source\PSoC6\pdl\drivers\peripheral\ctb/cy_ctb.h **** * with \ref Cy_CTDAC_Fast_VddaRef_BufferedOut or \ref Cy_CTDAC_Fast_OA1Ref_BufferedOut.
 879:Generated_Source\PSoC6\pdl\drivers\peripheral\ctb/cy_ctb.h **** *
 880:Generated_Source\PSoC6\pdl\drivers\peripheral\ctb/cy_ctb.h **** * \image html ctb_fast_config_vdac_output.png
 881:Generated_Source\PSoC6\pdl\drivers\peripheral\ctb/cy_ctb.h **** * \image latex ctb_fast_config_vdac_output.png
 882:Generated_Source\PSoC6\pdl\drivers\peripheral\ctb/cy_ctb.h **** *
 883:Generated_Source\PSoC6\pdl\drivers\peripheral\ctb/cy_ctb.h **** * See the device datasheet for the dedicated CTB port.
 884:Generated_Source\PSoC6\pdl\drivers\peripheral\ctb/cy_ctb.h **** *
 885:Generated_Source\PSoC6\pdl\drivers\peripheral\ctb/cy_ctb.h **** * See \ref Cy_CTB_FastInit.
 886:Generated_Source\PSoC6\pdl\drivers\peripheral\ctb/cy_ctb.h **** */
 887:Generated_Source\PSoC6\pdl\drivers\peripheral\ctb/cy_ctb.h **** extern const cy_stc_ctb_fast_config_oa0_t Cy_CTB_Fast_Opamp0_Vdac_Out;
 888:Generated_Source\PSoC6\pdl\drivers\peripheral\ctb/cy_ctb.h **** 
ARM GAS  C:\Users\User\AppData\Local\Temp\ccPcfS0D.s 			page 52


 889:Generated_Source\PSoC6\pdl\drivers\peripheral\ctb/cy_ctb.h **** /** Configure Opamp0 as a buffer for the CTDAC output with the sample and hold capacitor connected.
 890:Generated_Source\PSoC6\pdl\drivers\peripheral\ctb/cy_ctb.h **** * The buffer is in 10x drive and the switches shown are closed.
 891:Generated_Source\PSoC6\pdl\drivers\peripheral\ctb/cy_ctb.h **** * Configure the CTDAC for output buffer mode by calling \ref Cy_CTDAC_FastInit
 892:Generated_Source\PSoC6\pdl\drivers\peripheral\ctb/cy_ctb.h **** * with \ref Cy_CTDAC_Fast_VddaRef_BufferedOut or \ref Cy_CTDAC_Fast_OA1Ref_BufferedOut.
 893:Generated_Source\PSoC6\pdl\drivers\peripheral\ctb/cy_ctb.h **** 
 894:Generated_Source\PSoC6\pdl\drivers\peripheral\ctb/cy_ctb.h **** * \image html ctb_fast_config_vdac_sh.png
 895:Generated_Source\PSoC6\pdl\drivers\peripheral\ctb/cy_ctb.h **** * \image latex ctb_fast_config_vdac_sh.png
 896:Generated_Source\PSoC6\pdl\drivers\peripheral\ctb/cy_ctb.h **** *
 897:Generated_Source\PSoC6\pdl\drivers\peripheral\ctb/cy_ctb.h **** * See the device datasheet for the dedicated CTB port.
 898:Generated_Source\PSoC6\pdl\drivers\peripheral\ctb/cy_ctb.h **** *
 899:Generated_Source\PSoC6\pdl\drivers\peripheral\ctb/cy_ctb.h **** * See \ref Cy_CTB_FastInit.
 900:Generated_Source\PSoC6\pdl\drivers\peripheral\ctb/cy_ctb.h **** */
 901:Generated_Source\PSoC6\pdl\drivers\peripheral\ctb/cy_ctb.h **** extern const cy_stc_ctb_fast_config_oa0_t Cy_CTB_Fast_Opamp0_Vdac_Out_SH;
 902:Generated_Source\PSoC6\pdl\drivers\peripheral\ctb/cy_ctb.h **** 
 903:Generated_Source\PSoC6\pdl\drivers\peripheral\ctb/cy_ctb.h **** /** Configure Opamp1 as unused - powered down. See \ref Cy_CTB_FastInit.*/
 904:Generated_Source\PSoC6\pdl\drivers\peripheral\ctb/cy_ctb.h **** extern const cy_stc_ctb_fast_config_oa1_t Cy_CTB_Fast_Opamp1_Unused;
 905:Generated_Source\PSoC6\pdl\drivers\peripheral\ctb/cy_ctb.h **** 
 906:Generated_Source\PSoC6\pdl\drivers\peripheral\ctb/cy_ctb.h **** /** Configure Opamp1 as a comparator. No routing is configured.
 907:Generated_Source\PSoC6\pdl\drivers\peripheral\ctb/cy_ctb.h **** *
 908:Generated_Source\PSoC6\pdl\drivers\peripheral\ctb/cy_ctb.h **** * \image html ctb_fast_config_comp.png
 909:Generated_Source\PSoC6\pdl\drivers\peripheral\ctb/cy_ctb.h **** * \image latex ctb_fast_config_comp.png width=100px
 910:Generated_Source\PSoC6\pdl\drivers\peripheral\ctb/cy_ctb.h **** *
 911:Generated_Source\PSoC6\pdl\drivers\peripheral\ctb/cy_ctb.h **** * See \ref Cy_CTB_FastInit.
 912:Generated_Source\PSoC6\pdl\drivers\peripheral\ctb/cy_ctb.h **** */
 913:Generated_Source\PSoC6\pdl\drivers\peripheral\ctb/cy_ctb.h **** extern const cy_stc_ctb_fast_config_oa1_t Cy_CTB_Fast_Opamp1_Comp;
 914:Generated_Source\PSoC6\pdl\drivers\peripheral\ctb/cy_ctb.h **** 
 915:Generated_Source\PSoC6\pdl\drivers\peripheral\ctb/cy_ctb.h **** /** Configure Opamp1 as an opamp with 1x drive. No routing is configured.
 916:Generated_Source\PSoC6\pdl\drivers\peripheral\ctb/cy_ctb.h **** *
 917:Generated_Source\PSoC6\pdl\drivers\peripheral\ctb/cy_ctb.h **** * \image html ctb_fast_config_opamp1x.png
 918:Generated_Source\PSoC6\pdl\drivers\peripheral\ctb/cy_ctb.h **** * \image latex ctb_fast_config_opamp1x.png width=100px
 919:Generated_Source\PSoC6\pdl\drivers\peripheral\ctb/cy_ctb.h **** *
 920:Generated_Source\PSoC6\pdl\drivers\peripheral\ctb/cy_ctb.h **** * See \ref Cy_CTB_FastInit.
 921:Generated_Source\PSoC6\pdl\drivers\peripheral\ctb/cy_ctb.h **** */
 922:Generated_Source\PSoC6\pdl\drivers\peripheral\ctb/cy_ctb.h **** extern const cy_stc_ctb_fast_config_oa1_t Cy_CTB_Fast_Opamp1_Opamp1x;
 923:Generated_Source\PSoC6\pdl\drivers\peripheral\ctb/cy_ctb.h **** 
 924:Generated_Source\PSoC6\pdl\drivers\peripheral\ctb/cy_ctb.h **** /** Configure Opamp1 as an opamp with 10x drive. No routing is configured.
 925:Generated_Source\PSoC6\pdl\drivers\peripheral\ctb/cy_ctb.h **** *
 926:Generated_Source\PSoC6\pdl\drivers\peripheral\ctb/cy_ctb.h **** * \image html ctb_fast_config_opamp10x.png
 927:Generated_Source\PSoC6\pdl\drivers\peripheral\ctb/cy_ctb.h **** * \image latex ctb_fast_config_opamp10x.png width=100px
 928:Generated_Source\PSoC6\pdl\drivers\peripheral\ctb/cy_ctb.h **** *
 929:Generated_Source\PSoC6\pdl\drivers\peripheral\ctb/cy_ctb.h **** * See \ref Cy_CTB_FastInit.
 930:Generated_Source\PSoC6\pdl\drivers\peripheral\ctb/cy_ctb.h **** */
 931:Generated_Source\PSoC6\pdl\drivers\peripheral\ctb/cy_ctb.h **** extern const cy_stc_ctb_fast_config_oa1_t Cy_CTB_Fast_Opamp1_Opamp10x;
 932:Generated_Source\PSoC6\pdl\drivers\peripheral\ctb/cy_ctb.h **** 
 933:Generated_Source\PSoC6\pdl\drivers\peripheral\ctb/cy_ctb.h **** /** Configure Opamp1 as one stage of a differential amplifier.
 934:Generated_Source\PSoC6\pdl\drivers\peripheral\ctb/cy_ctb.h **** * The opamp is in 10x drive and the switches shown are closed.
 935:Generated_Source\PSoC6\pdl\drivers\peripheral\ctb/cy_ctb.h **** *
 936:Generated_Source\PSoC6\pdl\drivers\peripheral\ctb/cy_ctb.h **** * \image html ctb_fast_config_oa1_diffamp.png
 937:Generated_Source\PSoC6\pdl\drivers\peripheral\ctb/cy_ctb.h **** * \image latex ctb_fast_config_oa1_diffamp.png width=100px
 938:Generated_Source\PSoC6\pdl\drivers\peripheral\ctb/cy_ctb.h **** *
 939:Generated_Source\PSoC6\pdl\drivers\peripheral\ctb/cy_ctb.h **** * See the device datasheet for the dedicated CTB port.
 940:Generated_Source\PSoC6\pdl\drivers\peripheral\ctb/cy_ctb.h **** *
 941:Generated_Source\PSoC6\pdl\drivers\peripheral\ctb/cy_ctb.h **** * To be used with \ref Cy_CTB_FastInit and \ref Cy_CTB_Fast_Opamp0_Diffamp.
 942:Generated_Source\PSoC6\pdl\drivers\peripheral\ctb/cy_ctb.h **** *
 943:Generated_Source\PSoC6\pdl\drivers\peripheral\ctb/cy_ctb.h **** */
 944:Generated_Source\PSoC6\pdl\drivers\peripheral\ctb/cy_ctb.h **** extern const cy_stc_ctb_fast_config_oa1_t Cy_CTB_Fast_Opamp1_Diffamp;
 945:Generated_Source\PSoC6\pdl\drivers\peripheral\ctb/cy_ctb.h **** 
ARM GAS  C:\Users\User\AppData\Local\Temp\ccPcfS0D.s 			page 53


 946:Generated_Source\PSoC6\pdl\drivers\peripheral\ctb/cy_ctb.h **** /** Configure Opamp1 as a buffer for the CTDAC reference. The reference comes from the
 947:Generated_Source\PSoC6\pdl\drivers\peripheral\ctb/cy_ctb.h **** * internal analog reference block (AREF).
 948:Generated_Source\PSoC6\pdl\drivers\peripheral\ctb/cy_ctb.h **** * The buffer is in 1x drive and the switches shown are closed.
 949:Generated_Source\PSoC6\pdl\drivers\peripheral\ctb/cy_ctb.h **** * Configure the CTDAC to use the buffered reference by calling \ref Cy_CTDAC_FastInit
 950:Generated_Source\PSoC6\pdl\drivers\peripheral\ctb/cy_ctb.h **** * with \ref Cy_CTDAC_Fast_OA1Ref_UnbufferedOut or \ref Cy_CTDAC_Fast_OA1Ref_BufferedOut.
 951:Generated_Source\PSoC6\pdl\drivers\peripheral\ctb/cy_ctb.h **** *
 952:Generated_Source\PSoC6\pdl\drivers\peripheral\ctb/cy_ctb.h **** * \image html ctb_fast_config_vdac_aref.png
 953:Generated_Source\PSoC6\pdl\drivers\peripheral\ctb/cy_ctb.h **** * \image latex ctb_fast_config_vdac_aref.png
 954:Generated_Source\PSoC6\pdl\drivers\peripheral\ctb/cy_ctb.h **** *
 955:Generated_Source\PSoC6\pdl\drivers\peripheral\ctb/cy_ctb.h **** * See \ref Cy_CTB_FastInit.
 956:Generated_Source\PSoC6\pdl\drivers\peripheral\ctb/cy_ctb.h **** *
 957:Generated_Source\PSoC6\pdl\drivers\peripheral\ctb/cy_ctb.h **** * Note the AREF block needs to be configured using a separate driver.
 958:Generated_Source\PSoC6\pdl\drivers\peripheral\ctb/cy_ctb.h **** */
 959:Generated_Source\PSoC6\pdl\drivers\peripheral\ctb/cy_ctb.h **** extern const cy_stc_ctb_fast_config_oa1_t Cy_CTB_Fast_Opamp1_Vdac_Ref_Aref;
 960:Generated_Source\PSoC6\pdl\drivers\peripheral\ctb/cy_ctb.h **** 
 961:Generated_Source\PSoC6\pdl\drivers\peripheral\ctb/cy_ctb.h **** /** Configure Opamp1 as a buffer for the CTDAC reference. The reference comes from Pin 5.
 962:Generated_Source\PSoC6\pdl\drivers\peripheral\ctb/cy_ctb.h **** * The buffer is in 1x drive and the switches shown are closed.
 963:Generated_Source\PSoC6\pdl\drivers\peripheral\ctb/cy_ctb.h **** * Configure the CTDAC to use the buffered reference by calling \ref Cy_CTDAC_FastInit
 964:Generated_Source\PSoC6\pdl\drivers\peripheral\ctb/cy_ctb.h **** * with \ref Cy_CTDAC_Fast_OA1Ref_UnbufferedOut or \ref Cy_CTDAC_Fast_OA1Ref_BufferedOut.
 965:Generated_Source\PSoC6\pdl\drivers\peripheral\ctb/cy_ctb.h **** *
 966:Generated_Source\PSoC6\pdl\drivers\peripheral\ctb/cy_ctb.h **** * \image html ctb_fast_config_vdac_pin5.png
 967:Generated_Source\PSoC6\pdl\drivers\peripheral\ctb/cy_ctb.h **** * \image latex ctb_fast_config_vdac_pin5.png
 968:Generated_Source\PSoC6\pdl\drivers\peripheral\ctb/cy_ctb.h **** *
 969:Generated_Source\PSoC6\pdl\drivers\peripheral\ctb/cy_ctb.h **** * See the device datasheet for the dedicated CTB port.
 970:Generated_Source\PSoC6\pdl\drivers\peripheral\ctb/cy_ctb.h **** *
 971:Generated_Source\PSoC6\pdl\drivers\peripheral\ctb/cy_ctb.h **** * See \ref Cy_CTB_FastInit.
 972:Generated_Source\PSoC6\pdl\drivers\peripheral\ctb/cy_ctb.h **** */
 973:Generated_Source\PSoC6\pdl\drivers\peripheral\ctb/cy_ctb.h **** extern const cy_stc_ctb_fast_config_oa1_t Cy_CTB_Fast_Opamp1_Vdac_Ref_Pin5;
 974:Generated_Source\PSoC6\pdl\drivers\peripheral\ctb/cy_ctb.h **** 
 975:Generated_Source\PSoC6\pdl\drivers\peripheral\ctb/cy_ctb.h **** /** \} group_ctb_globals */
 976:Generated_Source\PSoC6\pdl\drivers\peripheral\ctb/cy_ctb.h **** 
 977:Generated_Source\PSoC6\pdl\drivers\peripheral\ctb/cy_ctb.h **** /***************************************
 978:Generated_Source\PSoC6\pdl\drivers\peripheral\ctb/cy_ctb.h **** *        Function Prototypes
 979:Generated_Source\PSoC6\pdl\drivers\peripheral\ctb/cy_ctb.h **** ***************************************/
 980:Generated_Source\PSoC6\pdl\drivers\peripheral\ctb/cy_ctb.h **** 
 981:Generated_Source\PSoC6\pdl\drivers\peripheral\ctb/cy_ctb.h **** /**
 982:Generated_Source\PSoC6\pdl\drivers\peripheral\ctb/cy_ctb.h **** * \addtogroup group_ctb_functions
 983:Generated_Source\PSoC6\pdl\drivers\peripheral\ctb/cy_ctb.h **** * \{
 984:Generated_Source\PSoC6\pdl\drivers\peripheral\ctb/cy_ctb.h **** */
 985:Generated_Source\PSoC6\pdl\drivers\peripheral\ctb/cy_ctb.h **** 
 986:Generated_Source\PSoC6\pdl\drivers\peripheral\ctb/cy_ctb.h **** /**
 987:Generated_Source\PSoC6\pdl\drivers\peripheral\ctb/cy_ctb.h **** * \addtogroup group_ctb_functions_init
 988:Generated_Source\PSoC6\pdl\drivers\peripheral\ctb/cy_ctb.h **** * This set of functions are for initializing, enabling, and disabling the CTB.
 989:Generated_Source\PSoC6\pdl\drivers\peripheral\ctb/cy_ctb.h **** * \{
 990:Generated_Source\PSoC6\pdl\drivers\peripheral\ctb/cy_ctb.h **** */
 991:Generated_Source\PSoC6\pdl\drivers\peripheral\ctb/cy_ctb.h **** cy_en_ctb_status_t Cy_CTB_Init(CTBM_Type *base, const cy_stc_ctb_config_t *config);
 992:Generated_Source\PSoC6\pdl\drivers\peripheral\ctb/cy_ctb.h **** cy_en_ctb_status_t Cy_CTB_OpampInit(CTBM_Type *base, cy_en_ctb_opamp_sel_t opampNum, const cy_stc_c
 993:Generated_Source\PSoC6\pdl\drivers\peripheral\ctb/cy_ctb.h **** cy_en_ctb_status_t Cy_CTB_DeInit(CTBM_Type *base, bool deInitRouting);
 994:Generated_Source\PSoC6\pdl\drivers\peripheral\ctb/cy_ctb.h **** cy_en_ctb_status_t Cy_CTB_FastInit(CTBM_Type *base, const cy_stc_ctb_fast_config_oa0_t *config0, co
 995:Generated_Source\PSoC6\pdl\drivers\peripheral\ctb/cy_ctb.h **** __STATIC_INLINE void Cy_CTB_Enable(CTBM_Type *base);
 996:Generated_Source\PSoC6\pdl\drivers\peripheral\ctb/cy_ctb.h **** __STATIC_INLINE void Cy_CTB_Disable(CTBM_Type *base);
 997:Generated_Source\PSoC6\pdl\drivers\peripheral\ctb/cy_ctb.h **** /** \} */
 998:Generated_Source\PSoC6\pdl\drivers\peripheral\ctb/cy_ctb.h **** 
 999:Generated_Source\PSoC6\pdl\drivers\peripheral\ctb/cy_ctb.h **** /**
1000:Generated_Source\PSoC6\pdl\drivers\peripheral\ctb/cy_ctb.h **** * \addtogroup group_ctb_functions_basic
1001:Generated_Source\PSoC6\pdl\drivers\peripheral\ctb/cy_ctb.h **** * This set of functions are for configuring basic usage of the CTB.
1002:Generated_Source\PSoC6\pdl\drivers\peripheral\ctb/cy_ctb.h **** * \{
ARM GAS  C:\Users\User\AppData\Local\Temp\ccPcfS0D.s 			page 54


1003:Generated_Source\PSoC6\pdl\drivers\peripheral\ctb/cy_ctb.h **** */
1004:Generated_Source\PSoC6\pdl\drivers\peripheral\ctb/cy_ctb.h **** void Cy_CTB_SetDeepSleepMode(CTBM_Type *base, cy_en_ctb_deep_sleep_t deepSleep);
1005:Generated_Source\PSoC6\pdl\drivers\peripheral\ctb/cy_ctb.h **** void Cy_CTB_SetOutputMode(CTBM_Type *base, cy_en_ctb_opamp_sel_t opampNum, cy_en_ctb_mode_t mode);
1006:Generated_Source\PSoC6\pdl\drivers\peripheral\ctb/cy_ctb.h **** void Cy_CTB_SetPower(CTBM_Type *base, cy_en_ctb_opamp_sel_t opampNum, cy_en_ctb_power_t power, cy_e
1007:Generated_Source\PSoC6\pdl\drivers\peripheral\ctb/cy_ctb.h **** /** \} */
1008:Generated_Source\PSoC6\pdl\drivers\peripheral\ctb/cy_ctb.h **** 
1009:Generated_Source\PSoC6\pdl\drivers\peripheral\ctb/cy_ctb.h **** /**
1010:Generated_Source\PSoC6\pdl\drivers\peripheral\ctb/cy_ctb.h **** * \addtogroup group_ctb_functions_sample_hold
1011:Generated_Source\PSoC6\pdl\drivers\peripheral\ctb/cy_ctb.h **** * This function enables sample and hold of the CTDAC output.
1012:Generated_Source\PSoC6\pdl\drivers\peripheral\ctb/cy_ctb.h **** * \{
1013:Generated_Source\PSoC6\pdl\drivers\peripheral\ctb/cy_ctb.h **** */
1014:Generated_Source\PSoC6\pdl\drivers\peripheral\ctb/cy_ctb.h **** void Cy_CTB_DACSampleAndHold(CTBM_Type *base, cy_en_ctb_sample_hold_mode_t mode);
1015:Generated_Source\PSoC6\pdl\drivers\peripheral\ctb/cy_ctb.h **** /** \} */
1016:Generated_Source\PSoC6\pdl\drivers\peripheral\ctb/cy_ctb.h **** 
1017:Generated_Source\PSoC6\pdl\drivers\peripheral\ctb/cy_ctb.h **** /**
1018:Generated_Source\PSoC6\pdl\drivers\peripheral\ctb/cy_ctb.h **** * \addtogroup group_ctb_functions_comparator
1019:Generated_Source\PSoC6\pdl\drivers\peripheral\ctb/cy_ctb.h **** * This set of functions are specific to the comparator mode
1020:Generated_Source\PSoC6\pdl\drivers\peripheral\ctb/cy_ctb.h **** * \{
1021:Generated_Source\PSoC6\pdl\drivers\peripheral\ctb/cy_ctb.h **** */
1022:Generated_Source\PSoC6\pdl\drivers\peripheral\ctb/cy_ctb.h **** void Cy_CTB_CompSetConfig(CTBM_Type *base, cy_en_ctb_opamp_sel_t compNum, cy_en_ctb_comp_level_t le
1023:Generated_Source\PSoC6\pdl\drivers\peripheral\ctb/cy_ctb.h **** uint32_t Cy_CTB_CompGetConfig(const CTBM_Type *base, cy_en_ctb_opamp_sel_t compNum);
1024:Generated_Source\PSoC6\pdl\drivers\peripheral\ctb/cy_ctb.h **** void Cy_CTB_CompSetInterruptEdgeType(CTBM_Type *base, cy_en_ctb_opamp_sel_t compNum, cy_en_ctb_comp
1025:Generated_Source\PSoC6\pdl\drivers\peripheral\ctb/cy_ctb.h **** uint32_t Cy_CTB_CompGetStatus(const CTBM_Type *base, cy_en_ctb_opamp_sel_t compNum);
1026:Generated_Source\PSoC6\pdl\drivers\peripheral\ctb/cy_ctb.h **** /** \} */
1027:Generated_Source\PSoC6\pdl\drivers\peripheral\ctb/cy_ctb.h **** 
1028:Generated_Source\PSoC6\pdl\drivers\peripheral\ctb/cy_ctb.h **** /**
1029:Generated_Source\PSoC6\pdl\drivers\peripheral\ctb/cy_ctb.h **** * \addtogroup group_ctb_functions_trim
1030:Generated_Source\PSoC6\pdl\drivers\peripheral\ctb/cy_ctb.h **** * These are advanced functions for trimming the offset and slope of the opamps.
1031:Generated_Source\PSoC6\pdl\drivers\peripheral\ctb/cy_ctb.h **** * Most users do not need to call these functions and can use the factory trimmed values.
1032:Generated_Source\PSoC6\pdl\drivers\peripheral\ctb/cy_ctb.h **** * \{
1033:Generated_Source\PSoC6\pdl\drivers\peripheral\ctb/cy_ctb.h **** */
1034:Generated_Source\PSoC6\pdl\drivers\peripheral\ctb/cy_ctb.h **** void Cy_CTB_OpampSetOffset(CTBM_Type *base, cy_en_ctb_opamp_sel_t opampNum, uint32_t trim);
1035:Generated_Source\PSoC6\pdl\drivers\peripheral\ctb/cy_ctb.h **** uint32_t Cy_CTB_OpampGetOffset(const CTBM_Type *base, cy_en_ctb_opamp_sel_t opampNum);
1036:Generated_Source\PSoC6\pdl\drivers\peripheral\ctb/cy_ctb.h **** void Cy_CTB_OpampSetSlope(CTBM_Type *base, cy_en_ctb_opamp_sel_t opampNum, uint32_t trim);
1037:Generated_Source\PSoC6\pdl\drivers\peripheral\ctb/cy_ctb.h **** uint32_t Cy_CTB_OpampGetSlope(const CTBM_Type *base, cy_en_ctb_opamp_sel_t opampNum);
1038:Generated_Source\PSoC6\pdl\drivers\peripheral\ctb/cy_ctb.h **** /** \} */
1039:Generated_Source\PSoC6\pdl\drivers\peripheral\ctb/cy_ctb.h **** 
1040:Generated_Source\PSoC6\pdl\drivers\peripheral\ctb/cy_ctb.h **** /**
1041:Generated_Source\PSoC6\pdl\drivers\peripheral\ctb/cy_ctb.h **** * \addtogroup group_ctb_functions_switches
1042:Generated_Source\PSoC6\pdl\drivers\peripheral\ctb/cy_ctb.h **** * This set of functions is for controlling routing switches.
1043:Generated_Source\PSoC6\pdl\drivers\peripheral\ctb/cy_ctb.h **** * \{
1044:Generated_Source\PSoC6\pdl\drivers\peripheral\ctb/cy_ctb.h **** */
1045:Generated_Source\PSoC6\pdl\drivers\peripheral\ctb/cy_ctb.h **** void Cy_CTB_SetAnalogSwitch(CTBM_Type *base, cy_en_ctb_switch_register_sel_t switchSelect, uint32_t
1046:Generated_Source\PSoC6\pdl\drivers\peripheral\ctb/cy_ctb.h **** uint32_t Cy_CTB_GetAnalogSwitch(const CTBM_Type *base, cy_en_ctb_switch_register_sel_t switchSelect
1047:Generated_Source\PSoC6\pdl\drivers\peripheral\ctb/cy_ctb.h **** __STATIC_INLINE void Cy_CTB_OpenAllSwitches(CTBM_Type *base);
1048:Generated_Source\PSoC6\pdl\drivers\peripheral\ctb/cy_ctb.h **** __STATIC_INLINE void Cy_CTB_EnableSarSeqCtrl(CTBM_Type *base, cy_en_ctb_switch_sar_seq_t switchMask
1049:Generated_Source\PSoC6\pdl\drivers\peripheral\ctb/cy_ctb.h **** __STATIC_INLINE void Cy_CTB_DisableSarSeqCtrl(CTBM_Type *base, cy_en_ctb_switch_sar_seq_t switchMas
1050:Generated_Source\PSoC6\pdl\drivers\peripheral\ctb/cy_ctb.h **** /** \} */
1051:Generated_Source\PSoC6\pdl\drivers\peripheral\ctb/cy_ctb.h **** 
1052:Generated_Source\PSoC6\pdl\drivers\peripheral\ctb/cy_ctb.h **** /**
1053:Generated_Source\PSoC6\pdl\drivers\peripheral\ctb/cy_ctb.h **** * \addtogroup group_ctb_functions_interrupts
1054:Generated_Source\PSoC6\pdl\drivers\peripheral\ctb/cy_ctb.h **** * This set of functions is related to the comparator interrupts.
1055:Generated_Source\PSoC6\pdl\drivers\peripheral\ctb/cy_ctb.h **** * \{
1056:Generated_Source\PSoC6\pdl\drivers\peripheral\ctb/cy_ctb.h **** */
1057:Generated_Source\PSoC6\pdl\drivers\peripheral\ctb/cy_ctb.h **** __STATIC_INLINE uint32_t Cy_CTB_GetInterruptStatus(const CTBM_Type *base, cy_en_ctb_opamp_sel_t com
1058:Generated_Source\PSoC6\pdl\drivers\peripheral\ctb/cy_ctb.h **** __STATIC_INLINE void Cy_CTB_ClearInterrupt(CTBM_Type *base, cy_en_ctb_opamp_sel_t compNum);
1059:Generated_Source\PSoC6\pdl\drivers\peripheral\ctb/cy_ctb.h **** __STATIC_INLINE void Cy_CTB_SetInterrupt(CTBM_Type *base, cy_en_ctb_opamp_sel_t compNum);
ARM GAS  C:\Users\User\AppData\Local\Temp\ccPcfS0D.s 			page 55


1060:Generated_Source\PSoC6\pdl\drivers\peripheral\ctb/cy_ctb.h **** __STATIC_INLINE void Cy_CTB_SetInterruptMask(CTBM_Type *base, cy_en_ctb_opamp_sel_t compNum);
1061:Generated_Source\PSoC6\pdl\drivers\peripheral\ctb/cy_ctb.h **** __STATIC_INLINE uint32_t Cy_CTB_GetInterruptMask(const CTBM_Type *base, cy_en_ctb_opamp_sel_t compN
1062:Generated_Source\PSoC6\pdl\drivers\peripheral\ctb/cy_ctb.h **** __STATIC_INLINE uint32_t Cy_CTB_GetInterruptStatusMasked(const CTBM_Type *base, cy_en_ctb_opamp_sel
1063:Generated_Source\PSoC6\pdl\drivers\peripheral\ctb/cy_ctb.h **** /** \} */
1064:Generated_Source\PSoC6\pdl\drivers\peripheral\ctb/cy_ctb.h **** 
1065:Generated_Source\PSoC6\pdl\drivers\peripheral\ctb/cy_ctb.h **** /**
1066:Generated_Source\PSoC6\pdl\drivers\peripheral\ctb/cy_ctb.h **** * \addtogroup group_ctb_functions_aref
1067:Generated_Source\PSoC6\pdl\drivers\peripheral\ctb/cy_ctb.h **** * This set of functions impacts all opamps on the chip.
1068:Generated_Source\PSoC6\pdl\drivers\peripheral\ctb/cy_ctb.h **** * Notice how some of these functions do not take a base address input.
1069:Generated_Source\PSoC6\pdl\drivers\peripheral\ctb/cy_ctb.h **** * When calling \ref Cy_CTB_SetCurrentMode for a CTB instance on the device,
1070:Generated_Source\PSoC6\pdl\drivers\peripheral\ctb/cy_ctb.h **** * it should be called for all other CTB instances as well. This is because
1071:Generated_Source\PSoC6\pdl\drivers\peripheral\ctb/cy_ctb.h **** * there is only one IPTAT level (1 uA or 100 nA) chip wide.
1072:Generated_Source\PSoC6\pdl\drivers\peripheral\ctb/cy_ctb.h **** * \{
1073:Generated_Source\PSoC6\pdl\drivers\peripheral\ctb/cy_ctb.h **** */
1074:Generated_Source\PSoC6\pdl\drivers\peripheral\ctb/cy_ctb.h **** void Cy_CTB_SetCurrentMode(CTBM_Type *base, cy_en_ctb_current_mode_t currentMode);
1075:Generated_Source\PSoC6\pdl\drivers\peripheral\ctb/cy_ctb.h **** __STATIC_INLINE void Cy_CTB_SetIptatLevel(cy_en_ctb_iptat_t iptat);
1076:Generated_Source\PSoC6\pdl\drivers\peripheral\ctb/cy_ctb.h **** __STATIC_INLINE void Cy_CTB_SetClkPumpSource(cy_en_ctb_clk_pump_source_t clkPump);
1077:Generated_Source\PSoC6\pdl\drivers\peripheral\ctb/cy_ctb.h **** __STATIC_INLINE void Cy_CTB_EnableRedirect(void);
1078:Generated_Source\PSoC6\pdl\drivers\peripheral\ctb/cy_ctb.h **** __STATIC_INLINE void Cy_CTB_DisableRedirect(void);
1079:Generated_Source\PSoC6\pdl\drivers\peripheral\ctb/cy_ctb.h **** /** \} */
1080:Generated_Source\PSoC6\pdl\drivers\peripheral\ctb/cy_ctb.h **** 
1081:Generated_Source\PSoC6\pdl\drivers\peripheral\ctb/cy_ctb.h **** /**
1082:Generated_Source\PSoC6\pdl\drivers\peripheral\ctb/cy_ctb.h **** * \addtogroup group_ctb_functions_init
1083:Generated_Source\PSoC6\pdl\drivers\peripheral\ctb/cy_ctb.h **** * \{
1084:Generated_Source\PSoC6\pdl\drivers\peripheral\ctb/cy_ctb.h **** */
1085:Generated_Source\PSoC6\pdl\drivers\peripheral\ctb/cy_ctb.h **** 
1086:Generated_Source\PSoC6\pdl\drivers\peripheral\ctb/cy_ctb.h **** /*******************************************************************************
1087:Generated_Source\PSoC6\pdl\drivers\peripheral\ctb/cy_ctb.h **** * Function Name: Cy_CTB_Enable
1088:Generated_Source\PSoC6\pdl\drivers\peripheral\ctb/cy_ctb.h **** ****************************************************************************//**
1089:Generated_Source\PSoC6\pdl\drivers\peripheral\ctb/cy_ctb.h **** *
1090:Generated_Source\PSoC6\pdl\drivers\peripheral\ctb/cy_ctb.h **** * Power up the CTB hardware block.
1091:Generated_Source\PSoC6\pdl\drivers\peripheral\ctb/cy_ctb.h **** *
1092:Generated_Source\PSoC6\pdl\drivers\peripheral\ctb/cy_ctb.h **** * \param base
1093:Generated_Source\PSoC6\pdl\drivers\peripheral\ctb/cy_ctb.h **** * Pointer to structure describing registers
1094:Generated_Source\PSoC6\pdl\drivers\peripheral\ctb/cy_ctb.h **** *
