ARM GAS  C:\Users\cmila\AppData\Local\Temp\cciWlBAf.s 			page 1


   1              		.syntax unified
   2              		.cpu cortex-m0plus
   3              		.fpu softvfp
   4              		.eabi_attribute 20, 1
   5              		.eabi_attribute 21, 1
   6              		.eabi_attribute 23, 3
   7              		.eabi_attribute 24, 1
   8              		.eabi_attribute 25, 1
   9              		.eabi_attribute 26, 1
  10              		.eabi_attribute 30, 4
  11              		.eabi_attribute 34, 0
  12              		.eabi_attribute 18, 4
  13              		.thumb
  14              		.syntax unified
  15              		.file	"cy_profile.c"
  16              		.text
  17              	.Ltext0:
  18              		.cfi_sections	.debug_frame
  19              		.section	.text.Cy_Profile_IsPtrValid,"ax",%progbits
  20              		.align	1
  21              		.code	16
  22              		.thumb_func
  23              		.type	Cy_Profile_IsPtrValid, %function
  24              	Cy_Profile_IsPtrValid:
  25              	.LFB50:
  26              		.file 1 "Generated_Source\\PSoC6\\pdl\\drivers\\peripheral\\profile\\cy_profile.c"
   1:Generated_Source\PSoC6\pdl\drivers\peripheral\profile/cy_profile.c **** /***************************************************************************//** 
   2:Generated_Source\PSoC6\pdl\drivers\peripheral\profile/cy_profile.c **** * \file cy_profile.c
   3:Generated_Source\PSoC6\pdl\drivers\peripheral\profile/cy_profile.c **** * \version 1.10
   4:Generated_Source\PSoC6\pdl\drivers\peripheral\profile/cy_profile.c **** * 
   5:Generated_Source\PSoC6\pdl\drivers\peripheral\profile/cy_profile.c **** * Provides an API declaration of the energy profiler (EP) driver. 
   6:Generated_Source\PSoC6\pdl\drivers\peripheral\profile/cy_profile.c **** *
   7:Generated_Source\PSoC6\pdl\drivers\peripheral\profile/cy_profile.c **** ******************************************************************************** 
   8:Generated_Source\PSoC6\pdl\drivers\peripheral\profile/cy_profile.c **** * \copyright 
   9:Generated_Source\PSoC6\pdl\drivers\peripheral\profile/cy_profile.c **** * Copyright 2016-2018, Cypress Semiconductor Corporation. All rights reserved. 
  10:Generated_Source\PSoC6\pdl\drivers\peripheral\profile/cy_profile.c **** * You may use this file only in accordance with the license, terms, conditions, 
  11:Generated_Source\PSoC6\pdl\drivers\peripheral\profile/cy_profile.c **** * disclaimers, and limitations in the end user license agreement accompanying 
  12:Generated_Source\PSoC6\pdl\drivers\peripheral\profile/cy_profile.c **** * the software package with which this file was provided.
  13:Generated_Source\PSoC6\pdl\drivers\peripheral\profile/cy_profile.c **** *******************************************************************************/
  14:Generated_Source\PSoC6\pdl\drivers\peripheral\profile/cy_profile.c **** 
  15:Generated_Source\PSoC6\pdl\drivers\peripheral\profile/cy_profile.c **** #include "cy_profile.h"
  16:Generated_Source\PSoC6\pdl\drivers\peripheral\profile/cy_profile.c **** #include <string.h>
  17:Generated_Source\PSoC6\pdl\drivers\peripheral\profile/cy_profile.c **** 
  18:Generated_Source\PSoC6\pdl\drivers\peripheral\profile/cy_profile.c **** #ifdef CY_IP_MXPROFILE
  19:Generated_Source\PSoC6\pdl\drivers\peripheral\profile/cy_profile.c **** 
  20:Generated_Source\PSoC6\pdl\drivers\peripheral\profile/cy_profile.c **** #if defined(__cplusplus)
  21:Generated_Source\PSoC6\pdl\drivers\peripheral\profile/cy_profile.c **** extern "C" {
  22:Generated_Source\PSoC6\pdl\drivers\peripheral\profile/cy_profile.c **** #endif /* __cplusplus */
  23:Generated_Source\PSoC6\pdl\drivers\peripheral\profile/cy_profile.c **** 
  24:Generated_Source\PSoC6\pdl\drivers\peripheral\profile/cy_profile.c **** /* Number of elements in an array */
  25:Generated_Source\PSoC6\pdl\drivers\peripheral\profile/cy_profile.c **** #define CY_N_ELMTS(a) (sizeof(a)/sizeof((a)[0]))
  26:Generated_Source\PSoC6\pdl\drivers\peripheral\profile/cy_profile.c **** 
  27:Generated_Source\PSoC6\pdl\drivers\peripheral\profile/cy_profile.c **** static cy_en_profile_status_t Cy_Profile_IsPtrValid(const cy_stc_profile_ctr_ptr_t ctrAddr);
  28:Generated_Source\PSoC6\pdl\drivers\peripheral\profile/cy_profile.c **** 
  29:Generated_Source\PSoC6\pdl\drivers\peripheral\profile/cy_profile.c **** /* Internal structure - Control and status information for each counter */
  30:Generated_Source\PSoC6\pdl\drivers\peripheral\profile/cy_profile.c **** static cy_stc_profile_ctr_t cy_ep_ctrs[CY_PROFILE_PRFL_CNT_NR];
  31:Generated_Source\PSoC6\pdl\drivers\peripheral\profile/cy_profile.c **** 
ARM GAS  C:\Users\cmila\AppData\Local\Temp\cciWlBAf.s 			page 2


  32:Generated_Source\PSoC6\pdl\drivers\peripheral\profile/cy_profile.c **** 
  33:Generated_Source\PSoC6\pdl\drivers\peripheral\profile/cy_profile.c **** /* ========================================================================== */
  34:Generated_Source\PSoC6\pdl\drivers\peripheral\profile/cy_profile.c **** /* =====================     LOCAL FUNCTION SECTION    ====================== */
  35:Generated_Source\PSoC6\pdl\drivers\peripheral\profile/cy_profile.c **** /* ========================================================================== */
  36:Generated_Source\PSoC6\pdl\drivers\peripheral\profile/cy_profile.c **** /*******************************************************************************
  37:Generated_Source\PSoC6\pdl\drivers\peripheral\profile/cy_profile.c **** * Function Name: Cy_Profile_IsPtrValid
  38:Generated_Source\PSoC6\pdl\drivers\peripheral\profile/cy_profile.c **** ****************************************************************************//**
  39:Generated_Source\PSoC6\pdl\drivers\peripheral\profile/cy_profile.c **** *
  40:Generated_Source\PSoC6\pdl\drivers\peripheral\profile/cy_profile.c **** * Local utility function: reports (1) whether or not a given pointer points into
  41:Generated_Source\PSoC6\pdl\drivers\peripheral\profile/cy_profile.c **** * the cy_ep_ctrs[] array, and (2) whether the counter has been assigned.
  42:Generated_Source\PSoC6\pdl\drivers\peripheral\profile/cy_profile.c **** *
  43:Generated_Source\PSoC6\pdl\drivers\peripheral\profile/cy_profile.c **** * \param ctrAddr The handle to (address of) the assigned counter
  44:Generated_Source\PSoC6\pdl\drivers\peripheral\profile/cy_profile.c **** * 
  45:Generated_Source\PSoC6\pdl\drivers\peripheral\profile/cy_profile.c **** * \return CY_PROFILE_SUCCESS, or CY_PROFILE_BAD_PARAM for invalid ctrAddr or counter not
  46:Generated_Source\PSoC6\pdl\drivers\peripheral\profile/cy_profile.c **** * in use.
  47:Generated_Source\PSoC6\pdl\drivers\peripheral\profile/cy_profile.c **** *
  48:Generated_Source\PSoC6\pdl\drivers\peripheral\profile/cy_profile.c **** *******************************************************************************/
  49:Generated_Source\PSoC6\pdl\drivers\peripheral\profile/cy_profile.c **** static cy_en_profile_status_t Cy_Profile_IsPtrValid(const cy_stc_profile_ctr_ptr_t ctrAddr)
  50:Generated_Source\PSoC6\pdl\drivers\peripheral\profile/cy_profile.c **** {
  27              		.loc 1 50 0
  28              		.cfi_startproc
  29              		@ args = 0, pretend = 0, frame = 0
  30              		@ frame_needed = 0, uses_anonymous_args = 0
  31              		@ link register save eliminated.
  32              	.LVL0:
  51:Generated_Source\PSoC6\pdl\drivers\peripheral\profile/cy_profile.c ****     cy_en_profile_status_t retStatus = CY_PROFILE_BAD_PARAM;
  52:Generated_Source\PSoC6\pdl\drivers\peripheral\profile/cy_profile.c **** 
  53:Generated_Source\PSoC6\pdl\drivers\peripheral\profile/cy_profile.c ****     /* check for valid ctrAddr */
  54:Generated_Source\PSoC6\pdl\drivers\peripheral\profile/cy_profile.c ****     uint32_t p_epCtrs = (uint32_t)cy_ep_ctrs;
  33              		.loc 1 54 0
  34 0000 054B     		ldr	r3, .L7
  35              	.LVL1:
  55:Generated_Source\PSoC6\pdl\drivers\peripheral\profile/cy_profile.c ****     if ((p_epCtrs <= (uint32_t)ctrAddr) && ((uint32_t)ctrAddr < (p_epCtrs + (uint32_t)sizeof(cy_ep_
  36              		.loc 1 55 0
  37 0002 8342     		cmp	r3, r0
  38 0004 06D8     		bhi	.L5
  39              		.loc 1 55 0 is_stmt 0 discriminator 1
  40 0006 E033     		adds	r3, r3, #224
  41              	.LVL2:
  42 0008 9842     		cmp	r0, r3
  43 000a 03D2     		bcs	.L5
  56:Generated_Source\PSoC6\pdl\drivers\peripheral\profile/cy_profile.c ****     {
  57:Generated_Source\PSoC6\pdl\drivers\peripheral\profile/cy_profile.c ****         if (ctrAddr->used != 0u) /* check for counter being used */
  44              		.loc 1 57 0 is_stmt 1
  45 000c 4378     		ldrb	r3, [r0, #1]
  58:Generated_Source\PSoC6\pdl\drivers\peripheral\profile/cy_profile.c ****         {
  59:Generated_Source\PSoC6\pdl\drivers\peripheral\profile/cy_profile.c ****             retStatus = CY_PROFILE_SUCCESS;
  46              		.loc 1 59 0
  47 000e 0020     		movs	r0, #0
  48              	.LVL3:
  57:Generated_Source\PSoC6\pdl\drivers\peripheral\profile/cy_profile.c ****         {
  49              		.loc 1 57 0
  50 0010 002B     		cmp	r3, #0
  51 0012 00D1     		bne	.L2
  52              	.L5:
  51:Generated_Source\PSoC6\pdl\drivers\peripheral\profile/cy_profile.c **** 
  53              		.loc 1 51 0
ARM GAS  C:\Users\cmila\AppData\Local\Temp\cciWlBAf.s 			page 3


  54 0014 0148     		ldr	r0, .L7+4
  55              	.L2:
  56              	.LVL4:
  60:Generated_Source\PSoC6\pdl\drivers\peripheral\profile/cy_profile.c ****         }
  61:Generated_Source\PSoC6\pdl\drivers\peripheral\profile/cy_profile.c ****     }
  62:Generated_Source\PSoC6\pdl\drivers\peripheral\profile/cy_profile.c ****     return (retStatus);
  63:Generated_Source\PSoC6\pdl\drivers\peripheral\profile/cy_profile.c **** }
  57              		.loc 1 63 0
  58              		@ sp needed
  59 0016 7047     		bx	lr
  60              	.L8:
  61              		.align	2
  62              	.L7:
  63 0018 00000000 		.word	.LANCHOR0
  64 001c 01007A00 		.word	7995393
  65              		.cfi_endproc
  66              	.LFE50:
  67              		.size	Cy_Profile_IsPtrValid, .-Cy_Profile_IsPtrValid
  68              		.section	.text.Cy_Profile_ISR,"ax",%progbits
  69              		.align	1
  70              		.global	Cy_Profile_ISR
  71              		.code	16
  72              		.thumb_func
  73              		.type	Cy_Profile_ISR, %function
  74              	Cy_Profile_ISR:
  75              	.LFB51:
  64:Generated_Source\PSoC6\pdl\drivers\peripheral\profile/cy_profile.c **** 
  65:Generated_Source\PSoC6\pdl\drivers\peripheral\profile/cy_profile.c **** 
  66:Generated_Source\PSoC6\pdl\drivers\peripheral\profile/cy_profile.c **** /* ========================================================================== */
  67:Generated_Source\PSoC6\pdl\drivers\peripheral\profile/cy_profile.c **** /* ====================    INTERRUPT FUNCTION SECTION    ==================== */
  68:Generated_Source\PSoC6\pdl\drivers\peripheral\profile/cy_profile.c **** /* ========================================================================== */
  69:Generated_Source\PSoC6\pdl\drivers\peripheral\profile/cy_profile.c **** /*******************************************************************************
  70:Generated_Source\PSoC6\pdl\drivers\peripheral\profile/cy_profile.c **** * Function Name: Cy_Profile_ISR
  71:Generated_Source\PSoC6\pdl\drivers\peripheral\profile/cy_profile.c **** ****************************************************************************//**
  72:Generated_Source\PSoC6\pdl\drivers\peripheral\profile/cy_profile.c **** *
  73:Generated_Source\PSoC6\pdl\drivers\peripheral\profile/cy_profile.c **** * EP interrupt handler: Increments the overflow member of the counter structure,
  74:Generated_Source\PSoC6\pdl\drivers\peripheral\profile/cy_profile.c **** * for each counter that is in use and has an overflow.
  75:Generated_Source\PSoC6\pdl\drivers\peripheral\profile/cy_profile.c **** *
  76:Generated_Source\PSoC6\pdl\drivers\peripheral\profile/cy_profile.c **** * This handler is not configured or used automatically. You must configure the 
  77:Generated_Source\PSoC6\pdl\drivers\peripheral\profile/cy_profile.c **** * interrupt handler for the EP, using Cy_SysInt_Init(). Typically you configure 
  78:Generated_Source\PSoC6\pdl\drivers\peripheral\profile/cy_profile.c **** * the system to use \ref Cy_Profile_ISR() as the overflow interrupt handler. You
  79:Generated_Source\PSoC6\pdl\drivers\peripheral\profile/cy_profile.c **** * can provide a custom interrupt handler to perform additional operations if
  80:Generated_Source\PSoC6\pdl\drivers\peripheral\profile/cy_profile.c **** * required. Your handler can call \ref Cy_Profile_ISR() to handle counter
  81:Generated_Source\PSoC6\pdl\drivers\peripheral\profile/cy_profile.c **** * overflow. 
  82:Generated_Source\PSoC6\pdl\drivers\peripheral\profile/cy_profile.c **** *
  83:Generated_Source\PSoC6\pdl\drivers\peripheral\profile/cy_profile.c **** *******************************************************************************/
  84:Generated_Source\PSoC6\pdl\drivers\peripheral\profile/cy_profile.c **** void Cy_Profile_ISR(void)
  85:Generated_Source\PSoC6\pdl\drivers\peripheral\profile/cy_profile.c **** {
  76              		.loc 1 85 0
  77              		.cfi_startproc
  78              		@ args = 0, pretend = 0, frame = 0
  79              		@ frame_needed = 0, uses_anonymous_args = 0
  86:Generated_Source\PSoC6\pdl\drivers\peripheral\profile/cy_profile.c ****     uint32_t ctr;
  87:Generated_Source\PSoC6\pdl\drivers\peripheral\profile/cy_profile.c **** 
  88:Generated_Source\PSoC6\pdl\drivers\peripheral\profile/cy_profile.c ****     /* Grab a copy of the overflow register. Each bit in the register indicates
  89:Generated_Source\PSoC6\pdl\drivers\peripheral\profile/cy_profile.c ****        whether or not the respective counter has overflowed. */
  90:Generated_Source\PSoC6\pdl\drivers\peripheral\profile/cy_profile.c ****     uint32_t ovflowBits = _FLD2VAL(PROFILE_INTR_MASKED_CNT_OVFLW, PROFILE_INTR_MASKED);
ARM GAS  C:\Users\cmila\AppData\Local\Temp\cciWlBAf.s 			page 4


  91:Generated_Source\PSoC6\pdl\drivers\peripheral\profile/cy_profile.c **** 
  92:Generated_Source\PSoC6\pdl\drivers\peripheral\profile/cy_profile.c ****     PROFILE_INTR = ovflowBits; /* clear the sources of the interrupts */
  80              		.loc 1 92 0
  81 0000 F821     		movs	r1, #248
  85:Generated_Source\PSoC6\pdl\drivers\peripheral\profile/cy_profile.c ****     uint32_t ctr;
  82              		.loc 1 85 0
  83 0002 30B5     		push	{r4, r5, lr}
  84              		.cfi_def_cfa_offset 12
  85              		.cfi_offset 4, -12
  86              		.cfi_offset 5, -8
  87              		.cfi_offset 14, -4
  93:Generated_Source\PSoC6\pdl\drivers\peripheral\profile/cy_profile.c **** 
  94:Generated_Source\PSoC6\pdl\drivers\peripheral\profile/cy_profile.c ****     /* scan through the overflow bits, i.e., for each counter */
  95:Generated_Source\PSoC6\pdl\drivers\peripheral\profile/cy_profile.c ****     for (ctr = 0UL; (ctr < (uint32_t)(CY_PROFILE_PRFL_CNT_NR)) && (ovflowBits != 0UL); ctr++)
  96:Generated_Source\PSoC6\pdl\drivers\peripheral\profile/cy_profile.c ****     {
  97:Generated_Source\PSoC6\pdl\drivers\peripheral\profile/cy_profile.c ****         /* Increment the overflow bit only if the counter is being used.
  98:Generated_Source\PSoC6\pdl\drivers\peripheral\profile/cy_profile.c ****            (which should always be the case.) */
  99:Generated_Source\PSoC6\pdl\drivers\peripheral\profile/cy_profile.c ****         if (((ovflowBits & 1UL) != 0UL) && (cy_ep_ctrs[ctr].used != 0u))
  88              		.loc 1 99 0
  89 0004 0125     		movs	r5, #1
  90:Generated_Source\PSoC6\pdl\drivers\peripheral\profile/cy_profile.c **** 
  90              		.loc 1 90 0
  91 0006 0C4A     		ldr	r2, .L21
  92 0008 0C4B     		ldr	r3, .L21+4
  92:Generated_Source\PSoC6\pdl\drivers\peripheral\profile/cy_profile.c **** 
  93              		.loc 1 92 0
  94 000a C900     		lsls	r1, r1, #3
  90:Generated_Source\PSoC6\pdl\drivers\peripheral\profile/cy_profile.c **** 
  95              		.loc 1 90 0
  96 000c D358     		ldr	r3, [r2, r3]
  97              	.LVL5:
  92:Generated_Source\PSoC6\pdl\drivers\peripheral\profile/cy_profile.c **** 
  98              		.loc 1 92 0
  99 000e 5350     		str	r3, [r2, r1]
 100              	.LVL6:
 101 0010 0B49     		ldr	r1, .L21+8
 102 0012 4A1C     		adds	r2, r1, #1
 103 0014 E131     		adds	r1, r1, #225
 104              	.LVL7:
 105              	.L10:
  95:Generated_Source\PSoC6\pdl\drivers\peripheral\profile/cy_profile.c ****     {
 106              		.loc 1 95 0 discriminator 3
 107 0016 002B     		cmp	r3, #0
 108 0018 0DD0     		beq	.L9
 109              		.loc 1 99 0
 110 001a 2B42     		tst	r3, r5
 111 001c 07D0     		beq	.L11
 112              		.loc 1 99 0 is_stmt 0 discriminator 1
 113 001e 1078     		ldrb	r0, [r2]
 114 0020 0028     		cmp	r0, #0
 115 0022 04D0     		beq	.L11
 116 0024 1400     		movs	r4, r2
 117 0026 1334     		adds	r4, r4, #19
 100:Generated_Source\PSoC6\pdl\drivers\peripheral\profile/cy_profile.c ****         {
 101:Generated_Source\PSoC6\pdl\drivers\peripheral\profile/cy_profile.c ****             cy_ep_ctrs[ctr].overflow++;
 118              		.loc 1 101 0 is_stmt 1
 119 0028 2068     		ldr	r0, [r4]
ARM GAS  C:\Users\cmila\AppData\Local\Temp\cciWlBAf.s 			page 5


 120 002a 0130     		adds	r0, r0, #1
 121 002c 2060     		str	r0, [r4]
 122              	.L11:
 123 002e 1C32     		adds	r2, r2, #28
 102:Generated_Source\PSoC6\pdl\drivers\peripheral\profile/cy_profile.c ****         }
 103:Generated_Source\PSoC6\pdl\drivers\peripheral\profile/cy_profile.c ****         ovflowBits >>= 1; /* check the next bit, by shifting it into the LS position */
 124              		.loc 1 103 0 discriminator 2
 125 0030 5B08     		lsrs	r3, r3, #1
 126              	.LVL8:
  95:Generated_Source\PSoC6\pdl\drivers\peripheral\profile/cy_profile.c ****     {
 127              		.loc 1 95 0 discriminator 2
 128 0032 8A42     		cmp	r2, r1
 129 0034 EFD1     		bne	.L10
 130              	.L9:
 104:Generated_Source\PSoC6\pdl\drivers\peripheral\profile/cy_profile.c ****     }
 105:Generated_Source\PSoC6\pdl\drivers\peripheral\profile/cy_profile.c **** }
 131              		.loc 1 105 0
 132              		@ sp needed
 133 0036 30BD     		pop	{r4, r5, pc}
 134              	.L22:
 135              		.align	2
 136              	.L21:
 137 0038 00002D40 		.word	1076690944
 138 003c CC070000 		.word	1996
 139 0040 00000000 		.word	.LANCHOR0
 140              		.cfi_endproc
 141              	.LFE51:
 142              		.size	Cy_Profile_ISR, .-Cy_Profile_ISR
 143              		.section	.text.Cy_Profile_StartProfiling,"ax",%progbits
 144              		.align	1
 145              		.global	Cy_Profile_StartProfiling
 146              		.code	16
 147              		.thumb_func
 148              		.type	Cy_Profile_StartProfiling, %function
 149              	Cy_Profile_StartProfiling:
 150              	.LFB52:
 106:Generated_Source\PSoC6\pdl\drivers\peripheral\profile/cy_profile.c **** 
 107:Generated_Source\PSoC6\pdl\drivers\peripheral\profile/cy_profile.c **** 
 108:Generated_Source\PSoC6\pdl\drivers\peripheral\profile/cy_profile.c **** /* ========================================================================== */
 109:Generated_Source\PSoC6\pdl\drivers\peripheral\profile/cy_profile.c **** /* ==================      GENERAL PROFILE FUNCTIONS     ==================== */
 110:Generated_Source\PSoC6\pdl\drivers\peripheral\profile/cy_profile.c **** /* ========================================================================== */
 111:Generated_Source\PSoC6\pdl\drivers\peripheral\profile/cy_profile.c **** /*******************************************************************************
 112:Generated_Source\PSoC6\pdl\drivers\peripheral\profile/cy_profile.c **** * Function Name: Cy_Profile_StartProfiling
 113:Generated_Source\PSoC6\pdl\drivers\peripheral\profile/cy_profile.c **** ****************************************************************************//**
 114:Generated_Source\PSoC6\pdl\drivers\peripheral\profile/cy_profile.c **** *
 115:Generated_Source\PSoC6\pdl\drivers\peripheral\profile/cy_profile.c **** * Starts the profiling/measurement window.
 116:Generated_Source\PSoC6\pdl\drivers\peripheral\profile/cy_profile.c **** *
 117:Generated_Source\PSoC6\pdl\drivers\peripheral\profile/cy_profile.c **** * This operation allows the enabled profile counters to start counting.
 118:Generated_Source\PSoC6\pdl\drivers\peripheral\profile/cy_profile.c **** *
 119:Generated_Source\PSoC6\pdl\drivers\peripheral\profile/cy_profile.c **** * \note The profile interrupt should be enabled before calling this function
 120:Generated_Source\PSoC6\pdl\drivers\peripheral\profile/cy_profile.c **** * for the firmware to be notified when a counter overflow occurs.
 121:Generated_Source\PSoC6\pdl\drivers\peripheral\profile/cy_profile.c **** *
 122:Generated_Source\PSoC6\pdl\drivers\peripheral\profile/cy_profile.c **** * \funcusage
 123:Generated_Source\PSoC6\pdl\drivers\peripheral\profile/cy_profile.c **** * \snippet profile/profile_v1_0_sut_01.cydsn/main_cm4.c snippet_Cy_Profile_StartProfiling
 124:Generated_Source\PSoC6\pdl\drivers\peripheral\profile/cy_profile.c **** *
 125:Generated_Source\PSoC6\pdl\drivers\peripheral\profile/cy_profile.c **** *******************************************************************************/
 126:Generated_Source\PSoC6\pdl\drivers\peripheral\profile/cy_profile.c **** void Cy_Profile_StartProfiling(void)
ARM GAS  C:\Users\cmila\AppData\Local\Temp\cciWlBAf.s 			page 6


 127:Generated_Source\PSoC6\pdl\drivers\peripheral\profile/cy_profile.c **** {
 151              		.loc 1 127 0
 152              		.cfi_startproc
 153              		@ args = 0, pretend = 0, frame = 0
 154              		@ frame_needed = 0, uses_anonymous_args = 0
 155              	.LVL9:
 128:Generated_Source\PSoC6\pdl\drivers\peripheral\profile/cy_profile.c ****     uint32_t i;
 129:Generated_Source\PSoC6\pdl\drivers\peripheral\profile/cy_profile.c **** 
 130:Generated_Source\PSoC6\pdl\drivers\peripheral\profile/cy_profile.c ****     /* clear all of the counter array overflow variables */
 131:Generated_Source\PSoC6\pdl\drivers\peripheral\profile/cy_profile.c ****     for (i = 0UL; i < CY_N_ELMTS(cy_ep_ctrs); cy_ep_ctrs[i++].overflow = 0UL){}
 156              		.loc 1 131 0
 157 0000 0023     		movs	r3, #0
 127:Generated_Source\PSoC6\pdl\drivers\peripheral\profile/cy_profile.c ****     uint32_t i;
 158              		.loc 1 127 0
 159 0002 10B5     		push	{r4, lr}
 160              		.cfi_def_cfa_offset 8
 161              		.cfi_offset 4, -8
 162              		.cfi_offset 14, -4
 163              		.loc 1 131 0
 164 0004 1900     		movs	r1, r3
 165 0006 1C24     		movs	r4, #28
 166 0008 0648     		ldr	r0, .L26
 167              	.LVL10:
 168              	.L24:
 169 000a 2200     		movs	r2, r4
 170              		.loc 1 131 0 is_stmt 0 discriminator 3
 171 000c 0133     		adds	r3, r3, #1
 172              	.LVL11:
 173 000e 5A43     		muls	r2, r3
 174 0010 083A     		subs	r2, r2, #8
 175 0012 8218     		adds	r2, r0, r2
 176 0014 1160     		str	r1, [r2]
 177 0016 082B     		cmp	r3, #8
 178 0018 F7D1     		bne	.L24
 132:Generated_Source\PSoC6\pdl\drivers\peripheral\profile/cy_profile.c ****     /* send the hardware command */
 133:Generated_Source\PSoC6\pdl\drivers\peripheral\profile/cy_profile.c ****     PROFILE_CMD = CY_PROFILE_START_TR;
 179              		.loc 1 133 0 is_stmt 1
 180 001a 0122     		movs	r2, #1
 181 001c 024B     		ldr	r3, .L26+4
 182              	.LVL12:
 134:Generated_Source\PSoC6\pdl\drivers\peripheral\profile/cy_profile.c **** }
 183              		.loc 1 134 0
 184              		@ sp needed
 133:Generated_Source\PSoC6\pdl\drivers\peripheral\profile/cy_profile.c **** }
 185              		.loc 1 133 0
 186 001e 1A61     		str	r2, [r3, #16]
 187              		.loc 1 134 0
 188 0020 10BD     		pop	{r4, pc}
 189              	.L27:
 190 0022 C046     		.align	2
 191              	.L26:
 192 0024 00000000 		.word	.LANCHOR0
 193 0028 00002D40 		.word	1076690944
 194              		.cfi_endproc
 195              	.LFE52:
 196              		.size	Cy_Profile_StartProfiling, .-Cy_Profile_StartProfiling
 197              		.section	.text.Cy_Profile_ClearConfiguration,"ax",%progbits
ARM GAS  C:\Users\cmila\AppData\Local\Temp\cciWlBAf.s 			page 7


 198              		.align	1
 199              		.global	Cy_Profile_ClearConfiguration
 200              		.code	16
 201              		.thumb_func
 202              		.type	Cy_Profile_ClearConfiguration, %function
 203              	Cy_Profile_ClearConfiguration:
 204              	.LFB53:
 135:Generated_Source\PSoC6\pdl\drivers\peripheral\profile/cy_profile.c **** 
 136:Generated_Source\PSoC6\pdl\drivers\peripheral\profile/cy_profile.c **** 
 137:Generated_Source\PSoC6\pdl\drivers\peripheral\profile/cy_profile.c **** /* ========================================================================== */
 138:Generated_Source\PSoC6\pdl\drivers\peripheral\profile/cy_profile.c **** /* ===================    COUNTER FUNCTIONS SECTION    ====================== */
 139:Generated_Source\PSoC6\pdl\drivers\peripheral\profile/cy_profile.c **** /* ========================================================================== */
 140:Generated_Source\PSoC6\pdl\drivers\peripheral\profile/cy_profile.c **** /*******************************************************************************
 141:Generated_Source\PSoC6\pdl\drivers\peripheral\profile/cy_profile.c **** * Function Name: Cy_Profile_ClearConfiguration
 142:Generated_Source\PSoC6\pdl\drivers\peripheral\profile/cy_profile.c **** ****************************************************************************//**
 143:Generated_Source\PSoC6\pdl\drivers\peripheral\profile/cy_profile.c **** *
 144:Generated_Source\PSoC6\pdl\drivers\peripheral\profile/cy_profile.c **** * Clears all counter configurations and sets all counters and overflow counters 
 145:Generated_Source\PSoC6\pdl\drivers\peripheral\profile/cy_profile.c **** * to 0. Calls Cy_Profile_ClearCounters() to clear counter registers.
 146:Generated_Source\PSoC6\pdl\drivers\peripheral\profile/cy_profile.c **** *
 147:Generated_Source\PSoC6\pdl\drivers\peripheral\profile/cy_profile.c **** * \funcusage
 148:Generated_Source\PSoC6\pdl\drivers\peripheral\profile/cy_profile.c **** * \snippet profile/profile_v1_0_sut_01.cydsn/main_cm4.c snippet_Cy_Profile_ClearConfiguration
 149:Generated_Source\PSoC6\pdl\drivers\peripheral\profile/cy_profile.c **** *
 150:Generated_Source\PSoC6\pdl\drivers\peripheral\profile/cy_profile.c **** *******************************************************************************/
 151:Generated_Source\PSoC6\pdl\drivers\peripheral\profile/cy_profile.c **** void Cy_Profile_ClearConfiguration(void)
 152:Generated_Source\PSoC6\pdl\drivers\peripheral\profile/cy_profile.c **** {
 205              		.loc 1 152 0
 206              		.cfi_startproc
 207              		@ args = 0, pretend = 0, frame = 0
 208              		@ frame_needed = 0, uses_anonymous_args = 0
 209 0000 10B5     		push	{r4, lr}
 210              		.cfi_def_cfa_offset 8
 211              		.cfi_offset 4, -8
 212              		.cfi_offset 14, -4
 153:Generated_Source\PSoC6\pdl\drivers\peripheral\profile/cy_profile.c ****     (void)memset((void *)cy_ep_ctrs, 0, sizeof(cy_ep_ctrs));
 213              		.loc 1 153 0
 214 0002 E022     		movs	r2, #224
 215 0004 0021     		movs	r1, #0
 216 0006 0448     		ldr	r0, .L29
 217 0008 FFF7FEFF 		bl	memset
 218              	.LVL13:
 219              	.LBB4:
 220              	.LBB5:
 221              		.file 2 "Generated_Source\\PSoC6\\pdl\\drivers\\peripheral\\profile\\cy_profile.h"
   1:Generated_Source\PSoC6\pdl\drivers\peripheral\profile/cy_profile.h **** /***************************************************************************//**
   2:Generated_Source\PSoC6\pdl\drivers\peripheral\profile/cy_profile.h **** * \file cy_profile.h
   3:Generated_Source\PSoC6\pdl\drivers\peripheral\profile/cy_profile.h **** * \version 1.10
   4:Generated_Source\PSoC6\pdl\drivers\peripheral\profile/cy_profile.h **** *
   5:Generated_Source\PSoC6\pdl\drivers\peripheral\profile/cy_profile.h **** * Provides an API declaration of the energy profiler driver.
   6:Generated_Source\PSoC6\pdl\drivers\peripheral\profile/cy_profile.h **** *
   7:Generated_Source\PSoC6\pdl\drivers\peripheral\profile/cy_profile.h **** ********************************************************************************
   8:Generated_Source\PSoC6\pdl\drivers\peripheral\profile/cy_profile.h **** * \copyright
   9:Generated_Source\PSoC6\pdl\drivers\peripheral\profile/cy_profile.h **** * Copyright 2016-2018, Cypress Semiconductor Corporation. All rights reserved.
  10:Generated_Source\PSoC6\pdl\drivers\peripheral\profile/cy_profile.h **** * You may use this file only in accordance with the license, terms, conditions,
  11:Generated_Source\PSoC6\pdl\drivers\peripheral\profile/cy_profile.h **** * disclaimers, and limitations in the end user license agreement accompanying
  12:Generated_Source\PSoC6\pdl\drivers\peripheral\profile/cy_profile.h **** * the software package with which this file was provided.
  13:Generated_Source\PSoC6\pdl\drivers\peripheral\profile/cy_profile.h **** *******************************************************************************/
  14:Generated_Source\PSoC6\pdl\drivers\peripheral\profile/cy_profile.h **** 
ARM GAS  C:\Users\cmila\AppData\Local\Temp\cciWlBAf.s 			page 8


  15:Generated_Source\PSoC6\pdl\drivers\peripheral\profile/cy_profile.h **** /**
  16:Generated_Source\PSoC6\pdl\drivers\peripheral\profile/cy_profile.h **** * \addtogroup group_energy_profiler
  17:Generated_Source\PSoC6\pdl\drivers\peripheral\profile/cy_profile.h **** * \{
  18:Generated_Source\PSoC6\pdl\drivers\peripheral\profile/cy_profile.h **** * 
  19:Generated_Source\PSoC6\pdl\drivers\peripheral\profile/cy_profile.h **** * The energy profiler driver is an API for configuring and using the profile 
  20:Generated_Source\PSoC6\pdl\drivers\peripheral\profile/cy_profile.h **** * hardware block. 
  21:Generated_Source\PSoC6\pdl\drivers\peripheral\profile/cy_profile.h **** *
  22:Generated_Source\PSoC6\pdl\drivers\peripheral\profile/cy_profile.h **** * The functions and other declarations used in this driver are in cy_profile.h. 
  23:Generated_Source\PSoC6\pdl\drivers\peripheral\profile/cy_profile.h **** * You can include cy_pdl.h (ModusToolbox only) to get access to all functions 
  24:Generated_Source\PSoC6\pdl\drivers\peripheral\profile/cy_profile.h **** * and declarations in the PDL. 
  25:Generated_Source\PSoC6\pdl\drivers\peripheral\profile/cy_profile.h **** *
  26:Generated_Source\PSoC6\pdl\drivers\peripheral\profile/cy_profile.h **** * The profile block enables measurement of the signal activity
  27:Generated_Source\PSoC6\pdl\drivers\peripheral\profile/cy_profile.h **** * of select peripherals and monitor sources during a measurement window. Using
  28:Generated_Source\PSoC6\pdl\drivers\peripheral\profile/cy_profile.h **** * these measurements, you can construct a profile of the energy consumed
  29:Generated_Source\PSoC6\pdl\drivers\peripheral\profile/cy_profile.h **** * in the device by scaling the individual peripheral activities with appropriate
  30:Generated_Source\PSoC6\pdl\drivers\peripheral\profile/cy_profile.h **** * scaling (weight) factors. This gives the application the ability to monitor
  31:Generated_Source\PSoC6\pdl\drivers\peripheral\profile/cy_profile.h **** * the energy consumed by the internal resources with minimal CPU overhead and
  32:Generated_Source\PSoC6\pdl\drivers\peripheral\profile/cy_profile.h **** * without external monitoring hardware.
  33:Generated_Source\PSoC6\pdl\drivers\peripheral\profile/cy_profile.h **** *
  34:Generated_Source\PSoC6\pdl\drivers\peripheral\profile/cy_profile.h **** * \section group_profile_details Details
  35:Generated_Source\PSoC6\pdl\drivers\peripheral\profile/cy_profile.h **** *
  36:Generated_Source\PSoC6\pdl\drivers\peripheral\profile/cy_profile.h **** * \subsection group_profile_hardware Profile Hardware
  37:Generated_Source\PSoC6\pdl\drivers\peripheral\profile/cy_profile.h **** *
  38:Generated_Source\PSoC6\pdl\drivers\peripheral\profile/cy_profile.h **** * The profile hardware consists of a number of profile counters that accept specific
  39:Generated_Source\PSoC6\pdl\drivers\peripheral\profile/cy_profile.h **** * triggers for incrementing the count value. This allows the events of the source 
  40:Generated_Source\PSoC6\pdl\drivers\peripheral\profile/cy_profile.h **** * (such as the number of SCB0 bus accesses or the duration of time the BLE RX radio
  41:Generated_Source\PSoC6\pdl\drivers\peripheral\profile/cy_profile.h **** * is active) to be counted during the measurement window. The available monitor 
  42:Generated_Source\PSoC6\pdl\drivers\peripheral\profile/cy_profile.h **** * sources in the device can be found in the en_ep_mon_sel_t enum in the device 
  43:Generated_Source\PSoC6\pdl\drivers\peripheral\profile/cy_profile.h **** * configuration file (e.g. psoc62_config.h). These can be sourced to any of the
  44:Generated_Source\PSoC6\pdl\drivers\peripheral\profile/cy_profile.h **** * profile counters as triggers. There are two methods of using the monitor sources
  45:Generated_Source\PSoC6\pdl\drivers\peripheral\profile/cy_profile.h **** * in a profile counter.
  46:Generated_Source\PSoC6\pdl\drivers\peripheral\profile/cy_profile.h **** *
  47:Generated_Source\PSoC6\pdl\drivers\peripheral\profile/cy_profile.h **** * - Event: The count value is incremented when a pulse event signal is seen by the
  48:Generated_Source\PSoC6\pdl\drivers\peripheral\profile/cy_profile.h **** *   counter. This type of monitoring is suitable when the monitoring source of 
  49:Generated_Source\PSoC6\pdl\drivers\peripheral\profile/cy_profile.h **** *   interest needs to count the discrete events (such as the number of flash read 
  50:Generated_Source\PSoC6\pdl\drivers\peripheral\profile/cy_profile.h **** *   accesses) happening in the measurement window.
  51:Generated_Source\PSoC6\pdl\drivers\peripheral\profile/cy_profile.h **** *
  52:Generated_Source\PSoC6\pdl\drivers\peripheral\profile/cy_profile.h **** * - Duration: The count value is incremented at every clock edge while the monitor
  53:Generated_Source\PSoC6\pdl\drivers\peripheral\profile/cy_profile.h **** *   signal is high. This type of monitoring is suitable when a signal is active for
  54:Generated_Source\PSoC6\pdl\drivers\peripheral\profile/cy_profile.h **** *   a finite amount of time (such as the time the BLE TX radio is active) and the
  55:Generated_Source\PSoC6\pdl\drivers\peripheral\profile/cy_profile.h **** *   duration must be expressed as number of clock cycles in the measurement window.
  56:Generated_Source\PSoC6\pdl\drivers\peripheral\profile/cy_profile.h **** *
  57:Generated_Source\PSoC6\pdl\drivers\peripheral\profile/cy_profile.h **** * Many of the available monitor sources are suitable for event type monitoring.
  58:Generated_Source\PSoC6\pdl\drivers\peripheral\profile/cy_profile.h **** * Using a duration type on these signals may not give valuable information. Review 
  59:Generated_Source\PSoC6\pdl\drivers\peripheral\profile/cy_profile.h **** * the device TRM for more information on the monitor sources and detail on how they
  60:Generated_Source\PSoC6\pdl\drivers\peripheral\profile/cy_profile.h **** * should be used.
  61:Generated_Source\PSoC6\pdl\drivers\peripheral\profile/cy_profile.h **** *
  62:Generated_Source\PSoC6\pdl\drivers\peripheral\profile/cy_profile.h **** * \subsection group_profile_measurement_types Measurement Types
  63:Generated_Source\PSoC6\pdl\drivers\peripheral\profile/cy_profile.h **** *
  64:Generated_Source\PSoC6\pdl\drivers\peripheral\profile/cy_profile.h **** * Depending on the item of interest, energy measurement can be performed by using
  65:Generated_Source\PSoC6\pdl\drivers\peripheral\profile/cy_profile.h **** * the following methods.
  66:Generated_Source\PSoC6\pdl\drivers\peripheral\profile/cy_profile.h **** *
  67:Generated_Source\PSoC6\pdl\drivers\peripheral\profile/cy_profile.h **** * - Continuous measurement: A profile counter can be assigned a monitor signal of
  68:Generated_Source\PSoC6\pdl\drivers\peripheral\profile/cy_profile.h **** *   constant 1 (PROFILE_ONE), which sets the counter to increment at every (assigned)
  69:Generated_Source\PSoC6\pdl\drivers\peripheral\profile/cy_profile.h **** *   clock cycle. This can be used to give a reference time for the measurement window
  70:Generated_Source\PSoC6\pdl\drivers\peripheral\profile/cy_profile.h **** *   and also allows the construction of timestamps. For example, a software controlled
  71:Generated_Source\PSoC6\pdl\drivers\peripheral\profile/cy_profile.h **** *   GPIO can be "timestamped" by reading the counter value (on the fly) before it is
ARM GAS  C:\Users\cmila\AppData\Local\Temp\cciWlBAf.s 			page 9


  72:Generated_Source\PSoC6\pdl\drivers\peripheral\profile/cy_profile.h **** *   toggled. When the measurement window ends, the energy contribution caused by the
  73:Generated_Source\PSoC6\pdl\drivers\peripheral\profile/cy_profile.h **** *   GPIO toggle can be incorporated into the final calculation.
  74:Generated_Source\PSoC6\pdl\drivers\peripheral\profile/cy_profile.h **** *
  75:Generated_Source\PSoC6\pdl\drivers\peripheral\profile/cy_profile.h **** * - Event measurement: Monitored events happening in a measurement window can be 
  76:Generated_Source\PSoC6\pdl\drivers\peripheral\profile/cy_profile.h **** *   used to increment a profile counter. This gives the activity numbers, which can
  77:Generated_Source\PSoC6\pdl\drivers\peripheral\profile/cy_profile.h **** *   then be multiplied by the instantaneous power numbers associated with the source
  78:Generated_Source\PSoC6\pdl\drivers\peripheral\profile/cy_profile.h **** *   to give the average energy consumption (Energy = Power x time). For example, the 
  79:Generated_Source\PSoC6\pdl\drivers\peripheral\profile/cy_profile.h **** *   energy consumed by an Operating System (OS) task can be estimated by monitoring
  80:Generated_Source\PSoC6\pdl\drivers\peripheral\profile/cy_profile.h **** *   the processor's active cycle count (E.g. CPUSS_MONITOR_CM4) and the flash read
  81:Generated_Source\PSoC6\pdl\drivers\peripheral\profile/cy_profile.h **** *   accesses (CPUSS_MONITOR_FLASH). Note that these activity numbers can also be 
  82:Generated_Source\PSoC6\pdl\drivers\peripheral\profile/cy_profile.h **** *   timestamped using the continuous measurement method to differentiate between the
  83:Generated_Source\PSoC6\pdl\drivers\peripheral\profile/cy_profile.h **** *   different task switches. The activity numbers are then multiplied by the associated
  84:Generated_Source\PSoC6\pdl\drivers\peripheral\profile/cy_profile.h **** *   processor and flash access power numbers to give the average energy consumed by
  85:Generated_Source\PSoC6\pdl\drivers\peripheral\profile/cy_profile.h **** *   that task.
  86:Generated_Source\PSoC6\pdl\drivers\peripheral\profile/cy_profile.h **** *
  87:Generated_Source\PSoC6\pdl\drivers\peripheral\profile/cy_profile.h **** * - Duration measurement: A peripheral event such as the SMIF select signal can be 
  88:Generated_Source\PSoC6\pdl\drivers\peripheral\profile/cy_profile.h **** *   used by a profile counter to measure the time spent on XIP communication through the 
  89:Generated_Source\PSoC6\pdl\drivers\peripheral\profile/cy_profile.h **** *   SPI interface. This activity number can then be multiplied by the power associated
  90:Generated_Source\PSoC6\pdl\drivers\peripheral\profile/cy_profile.h **** *   with that activity to give the average energy consumed by that block during the
  91:Generated_Source\PSoC6\pdl\drivers\peripheral\profile/cy_profile.h **** *   measurement window. This type of monitoring should be performed only for signals
  92:Generated_Source\PSoC6\pdl\drivers\peripheral\profile/cy_profile.h **** *   that are difficult to track in software. For example, a combination of interrupts
  93:Generated_Source\PSoC6\pdl\drivers\peripheral\profile/cy_profile.h **** *   and timestamps can be used to track the activity of many peripherals in a continuous
  94:Generated_Source\PSoC6\pdl\drivers\peripheral\profile/cy_profile.h **** *   monitoring model. However tracking the activity of signals such the BLE radio
  95:Generated_Source\PSoC6\pdl\drivers\peripheral\profile/cy_profile.h **** *   should be done using the duration measurement method.
  96:Generated_Source\PSoC6\pdl\drivers\peripheral\profile/cy_profile.h **** *
  97:Generated_Source\PSoC6\pdl\drivers\peripheral\profile/cy_profile.h **** * - Low power measurement: The profile counters do not support measurement during chip 
  98:Generated_Source\PSoC6\pdl\drivers\peripheral\profile/cy_profile.h **** *   Deep Sleep, Hibernate, and off states. I.e. the profile counters are meant for active
  99:Generated_Source\PSoC6\pdl\drivers\peripheral\profile/cy_profile.h **** *   run-time measurements only. To measure the time spent in low power modes (LPM),
 100:Generated_Source\PSoC6\pdl\drivers\peripheral\profile/cy_profile.h **** *   a real-time clock (RTC) should be used. Take a timestamp before LPM entry and a 
 101:Generated_Source\PSoC6\pdl\drivers\peripheral\profile/cy_profile.h **** *   timestamp upon LPM exit in a continuous measurement model. Then multiply the difference
 102:Generated_Source\PSoC6\pdl\drivers\peripheral\profile/cy_profile.h **** *   by the appropriate LPM power numbers.
 103:Generated_Source\PSoC6\pdl\drivers\peripheral\profile/cy_profile.h **** *
 104:Generated_Source\PSoC6\pdl\drivers\peripheral\profile/cy_profile.h **** * \subsection group_profile_usage Driver Usage
 105:Generated_Source\PSoC6\pdl\drivers\peripheral\profile/cy_profile.h **** *
 106:Generated_Source\PSoC6\pdl\drivers\peripheral\profile/cy_profile.h **** * At the highest level, the energy profiler must perform the following steps to 
 107:Generated_Source\PSoC6\pdl\drivers\peripheral\profile/cy_profile.h **** * obtain a measurement:
 108:Generated_Source\PSoC6\pdl\drivers\peripheral\profile/cy_profile.h **** *
 109:Generated_Source\PSoC6\pdl\drivers\peripheral\profile/cy_profile.h **** *  1. Initialize the profile hardware block.
 110:Generated_Source\PSoC6\pdl\drivers\peripheral\profile/cy_profile.h **** *  2. Initialize the profile interrupt (profile_interrupt_IRQn).
 111:Generated_Source\PSoC6\pdl\drivers\peripheral\profile/cy_profile.h **** *  3. Configure, initialize, and enable the profile counters.
 112:Generated_Source\PSoC6\pdl\drivers\peripheral\profile/cy_profile.h **** *  4. Enable the profile interrupt and start the profiling/measurement window.
 113:Generated_Source\PSoC6\pdl\drivers\peripheral\profile/cy_profile.h **** *  5. Perform run-time reads of the counters (if needed).
 114:Generated_Source\PSoC6\pdl\drivers\peripheral\profile/cy_profile.h **** *  6. Disable the profile interrupt and stop the profiling/measurement window.
 115:Generated_Source\PSoC6\pdl\drivers\peripheral\profile/cy_profile.h **** *  7. Read the counters and gather the results.
 116:Generated_Source\PSoC6\pdl\drivers\peripheral\profile/cy_profile.h **** *  8. Calculate the energy consumption.
 117:Generated_Source\PSoC6\pdl\drivers\peripheral\profile/cy_profile.h **** *
 118:Generated_Source\PSoC6\pdl\drivers\peripheral\profile/cy_profile.h **** * Refer to the SysInt driver on the details of configuring the profile hardware interrupt.
 119:Generated_Source\PSoC6\pdl\drivers\peripheral\profile/cy_profile.h **** *
 120:Generated_Source\PSoC6\pdl\drivers\peripheral\profile/cy_profile.h **** * The profile interrupt triggers when a counter overflow event is detected on any of the
 121:Generated_Source\PSoC6\pdl\drivers\peripheral\profile/cy_profile.h **** * enabled profile counters. A sample interrupt service routine Cy_Profile_ISR() is provided,
 122:Generated_Source\PSoC6\pdl\drivers\peripheral\profile/cy_profile.h **** * which can be used to update the internal counter states stored in RAM. Refer to the
 123:Generated_Source\PSoC6\pdl\drivers\peripheral\profile/cy_profile.h **** * Configuration Considerations for more information.
 124:Generated_Source\PSoC6\pdl\drivers\peripheral\profile/cy_profile.h **** *
 125:Generated_Source\PSoC6\pdl\drivers\peripheral\profile/cy_profile.h **** * \section group_profile_configuration Configuration Considerations
 126:Generated_Source\PSoC6\pdl\drivers\peripheral\profile/cy_profile.h **** * 
 127:Generated_Source\PSoC6\pdl\drivers\peripheral\profile/cy_profile.h **** * Each counter is a 32-bit register that counts either a number of clock cycles, 
 128:Generated_Source\PSoC6\pdl\drivers\peripheral\profile/cy_profile.h **** * or a number of events. Overflowing the 32-bit register is possible. To address
ARM GAS  C:\Users\cmila\AppData\Local\Temp\cciWlBAf.s 			page 10


 129:Generated_Source\PSoC6\pdl\drivers\peripheral\profile/cy_profile.h **** * this issue, the driver implements a 32-bit overflow counter. Combined with the 32-bit
 130:Generated_Source\PSoC6\pdl\drivers\peripheral\profile/cy_profile.h **** * register, this gives a 64-bit counter for each monitored source. 
 131:Generated_Source\PSoC6\pdl\drivers\peripheral\profile/cy_profile.h **** *
 132:Generated_Source\PSoC6\pdl\drivers\peripheral\profile/cy_profile.h **** * When an overflow occurs, the profile hardware generates an interrupt. The interrupt is 
 133:Generated_Source\PSoC6\pdl\drivers\peripheral\profile/cy_profile.h **** * configured using the SysInt driver, where the sample interrupt handler Cy_Profile_ISR()
 134:Generated_Source\PSoC6\pdl\drivers\peripheral\profile/cy_profile.h **** * can be used as the ISR. The ISR increments the overflow counter for each profiling counter 
 135:Generated_Source\PSoC6\pdl\drivers\peripheral\profile/cy_profile.h **** * and clears the interrupt.
 136:Generated_Source\PSoC6\pdl\drivers\peripheral\profile/cy_profile.h **** *
 137:Generated_Source\PSoC6\pdl\drivers\peripheral\profile/cy_profile.h **** * \section group_profile_more_information More Information
 138:Generated_Source\PSoC6\pdl\drivers\peripheral\profile/cy_profile.h **** *
 139:Generated_Source\PSoC6\pdl\drivers\peripheral\profile/cy_profile.h **** * See the profiler chapter of the device technical reference manual (TRM).
 140:Generated_Source\PSoC6\pdl\drivers\peripheral\profile/cy_profile.h **** *
 141:Generated_Source\PSoC6\pdl\drivers\peripheral\profile/cy_profile.h **** * \section group_profile_MISRA MISRA-C Compliance
 142:Generated_Source\PSoC6\pdl\drivers\peripheral\profile/cy_profile.h **** * <table class="doxtable">
 143:Generated_Source\PSoC6\pdl\drivers\peripheral\profile/cy_profile.h **** *   <tr>
 144:Generated_Source\PSoC6\pdl\drivers\peripheral\profile/cy_profile.h **** *     <th>MISRA Rule</th>
 145:Generated_Source\PSoC6\pdl\drivers\peripheral\profile/cy_profile.h **** *     <th>Rule Class (Required/Advisory)</th>
 146:Generated_Source\PSoC6\pdl\drivers\peripheral\profile/cy_profile.h **** *     <th>Rule Description</th>
 147:Generated_Source\PSoC6\pdl\drivers\peripheral\profile/cy_profile.h **** *     <th>Description of Deviation(s)</th>
 148:Generated_Source\PSoC6\pdl\drivers\peripheral\profile/cy_profile.h **** *   </tr>
 149:Generated_Source\PSoC6\pdl\drivers\peripheral\profile/cy_profile.h **** *   <tr>
 150:Generated_Source\PSoC6\pdl\drivers\peripheral\profile/cy_profile.h **** *     <td>12.4</td>
 151:Generated_Source\PSoC6\pdl\drivers\peripheral\profile/cy_profile.h **** *     <td>R</td>
 152:Generated_Source\PSoC6\pdl\drivers\peripheral\profile/cy_profile.h **** *     <td>Right hand operand of '&&' or '||' is an expression with possible side effects.</td>
 153:Generated_Source\PSoC6\pdl\drivers\peripheral\profile/cy_profile.h **** *     <td>Function-like macros are used to achieve more efficient code.</td>
 154:Generated_Source\PSoC6\pdl\drivers\peripheral\profile/cy_profile.h **** *   </tr>
 155:Generated_Source\PSoC6\pdl\drivers\peripheral\profile/cy_profile.h **** *   <tr>
 156:Generated_Source\PSoC6\pdl\drivers\peripheral\profile/cy_profile.h **** *     <td>16.7</td>
 157:Generated_Source\PSoC6\pdl\drivers\peripheral\profile/cy_profile.h **** *     <td>A</td>
 158:Generated_Source\PSoC6\pdl\drivers\peripheral\profile/cy_profile.h **** *     <td>A pointer parameter can be of type 'pointer to const'.</td>
 159:Generated_Source\PSoC6\pdl\drivers\peripheral\profile/cy_profile.h **** *     <td>The pointer is cast for comparison purposes and thus can't be a const.</td>
 160:Generated_Source\PSoC6\pdl\drivers\peripheral\profile/cy_profile.h **** *   </tr>
 161:Generated_Source\PSoC6\pdl\drivers\peripheral\profile/cy_profile.h **** * </table>
 162:Generated_Source\PSoC6\pdl\drivers\peripheral\profile/cy_profile.h **** *
 163:Generated_Source\PSoC6\pdl\drivers\peripheral\profile/cy_profile.h **** * \section group_profile_changelog Changelog
 164:Generated_Source\PSoC6\pdl\drivers\peripheral\profile/cy_profile.h **** * <table class="doxtable">
 165:Generated_Source\PSoC6\pdl\drivers\peripheral\profile/cy_profile.h **** *   <tr><th>Version</th><th>Changes</th><th>Reason for Change</th></tr>
 166:Generated_Source\PSoC6\pdl\drivers\peripheral\profile/cy_profile.h **** *   <tr>
 167:Generated_Source\PSoC6\pdl\drivers\peripheral\profile/cy_profile.h **** *     <td rowspan="3">1.10</td>
 168:Generated_Source\PSoC6\pdl\drivers\peripheral\profile/cy_profile.h **** *     <td>Flattened the organization of the driver source code into the single source directory and
 169:Generated_Source\PSoC6\pdl\drivers\peripheral\profile/cy_profile.h **** *     <td>Driver library directory-structure simplification.</td>
 170:Generated_Source\PSoC6\pdl\drivers\peripheral\profile/cy_profile.h **** *   </tr>
 171:Generated_Source\PSoC6\pdl\drivers\peripheral\profile/cy_profile.h **** *   <tr>
 172:Generated_Source\PSoC6\pdl\drivers\peripheral\profile/cy_profile.h **** *     <td>Added register access layer. Use register access macros instead
 173:Generated_Source\PSoC6\pdl\drivers\peripheral\profile/cy_profile.h **** *         of direct register access using dereferenced pointers.</td>
 174:Generated_Source\PSoC6\pdl\drivers\peripheral\profile/cy_profile.h **** *     <td>Makes register access device-independent, so that the PDL does 
 175:Generated_Source\PSoC6\pdl\drivers\peripheral\profile/cy_profile.h **** *         not need to be recompiled for each supported part number.</td>
 176:Generated_Source\PSoC6\pdl\drivers\peripheral\profile/cy_profile.h **** *   </tr>
 177:Generated_Source\PSoC6\pdl\drivers\peripheral\profile/cy_profile.h **** *   <tr>
 178:Generated_Source\PSoC6\pdl\drivers\peripheral\profile/cy_profile.h **** *     <td>Added parameter check asserts.</td>
 179:Generated_Source\PSoC6\pdl\drivers\peripheral\profile/cy_profile.h **** *     <td>Driver defect fix.</td>
 180:Generated_Source\PSoC6\pdl\drivers\peripheral\profile/cy_profile.h **** *   </tr>
 181:Generated_Source\PSoC6\pdl\drivers\peripheral\profile/cy_profile.h **** *   <tr>
 182:Generated_Source\PSoC6\pdl\drivers\peripheral\profile/cy_profile.h **** *     <td>1.0</td>
 183:Generated_Source\PSoC6\pdl\drivers\peripheral\profile/cy_profile.h **** *     <td>Initial version</td>
 184:Generated_Source\PSoC6\pdl\drivers\peripheral\profile/cy_profile.h **** *     <td></td>
 185:Generated_Source\PSoC6\pdl\drivers\peripheral\profile/cy_profile.h **** *   </tr>
ARM GAS  C:\Users\cmila\AppData\Local\Temp\cciWlBAf.s 			page 11


 186:Generated_Source\PSoC6\pdl\drivers\peripheral\profile/cy_profile.h **** * </table>
 187:Generated_Source\PSoC6\pdl\drivers\peripheral\profile/cy_profile.h **** *
 188:Generated_Source\PSoC6\pdl\drivers\peripheral\profile/cy_profile.h **** * \defgroup group_profile_macros Macros
 189:Generated_Source\PSoC6\pdl\drivers\peripheral\profile/cy_profile.h **** * \defgroup group_profile_functions Functions
 190:Generated_Source\PSoC6\pdl\drivers\peripheral\profile/cy_profile.h **** * \{
 191:Generated_Source\PSoC6\pdl\drivers\peripheral\profile/cy_profile.h **** *   \defgroup group_profile_functions_interrupt    Interrupt Functions
 192:Generated_Source\PSoC6\pdl\drivers\peripheral\profile/cy_profile.h **** *   \defgroup group_profile_functions_general      General Functions
 193:Generated_Source\PSoC6\pdl\drivers\peripheral\profile/cy_profile.h **** *   \defgroup group_profile_functions_counter      Counter Functions
 194:Generated_Source\PSoC6\pdl\drivers\peripheral\profile/cy_profile.h **** *   \defgroup group_profile_functions_calculation  Calculation Functions
 195:Generated_Source\PSoC6\pdl\drivers\peripheral\profile/cy_profile.h **** * \}
 196:Generated_Source\PSoC6\pdl\drivers\peripheral\profile/cy_profile.h **** * \defgroup group_profile_data_structures Data Structures
 197:Generated_Source\PSoC6\pdl\drivers\peripheral\profile/cy_profile.h **** * \defgroup group_profile_enums Enumerated Types
 198:Generated_Source\PSoC6\pdl\drivers\peripheral\profile/cy_profile.h **** */
 199:Generated_Source\PSoC6\pdl\drivers\peripheral\profile/cy_profile.h **** 
 200:Generated_Source\PSoC6\pdl\drivers\peripheral\profile/cy_profile.h **** #if !defined(CY_PROFILE_H)
 201:Generated_Source\PSoC6\pdl\drivers\peripheral\profile/cy_profile.h **** #define CY_PROFILE_H
 202:Generated_Source\PSoC6\pdl\drivers\peripheral\profile/cy_profile.h **** 
 203:Generated_Source\PSoC6\pdl\drivers\peripheral\profile/cy_profile.h **** #include "cy_device.h"
 204:Generated_Source\PSoC6\pdl\drivers\peripheral\profile/cy_profile.h **** #include "cy_device_headers.h"
 205:Generated_Source\PSoC6\pdl\drivers\peripheral\profile/cy_profile.h **** #include "cy_syslib.h"
 206:Generated_Source\PSoC6\pdl\drivers\peripheral\profile/cy_profile.h **** #include <stddef.h>
 207:Generated_Source\PSoC6\pdl\drivers\peripheral\profile/cy_profile.h **** 
 208:Generated_Source\PSoC6\pdl\drivers\peripheral\profile/cy_profile.h **** #ifdef CY_IP_MXPROFILE
 209:Generated_Source\PSoC6\pdl\drivers\peripheral\profile/cy_profile.h **** 
 210:Generated_Source\PSoC6\pdl\drivers\peripheral\profile/cy_profile.h **** #if defined(__cplusplus)
 211:Generated_Source\PSoC6\pdl\drivers\peripheral\profile/cy_profile.h **** extern "C" {
 212:Generated_Source\PSoC6\pdl\drivers\peripheral\profile/cy_profile.h **** #endif /* __cplusplus */
 213:Generated_Source\PSoC6\pdl\drivers\peripheral\profile/cy_profile.h **** 
 214:Generated_Source\PSoC6\pdl\drivers\peripheral\profile/cy_profile.h **** /** \addtogroup group_profile_macros
 215:Generated_Source\PSoC6\pdl\drivers\peripheral\profile/cy_profile.h **** * \{
 216:Generated_Source\PSoC6\pdl\drivers\peripheral\profile/cy_profile.h **** */
 217:Generated_Source\PSoC6\pdl\drivers\peripheral\profile/cy_profile.h **** 
 218:Generated_Source\PSoC6\pdl\drivers\peripheral\profile/cy_profile.h **** /** Driver major version */
 219:Generated_Source\PSoC6\pdl\drivers\peripheral\profile/cy_profile.h **** #define CY_PROFILE_DRV_VERSION_MAJOR  1
 220:Generated_Source\PSoC6\pdl\drivers\peripheral\profile/cy_profile.h **** 
 221:Generated_Source\PSoC6\pdl\drivers\peripheral\profile/cy_profile.h **** /** Driver minor version */
 222:Generated_Source\PSoC6\pdl\drivers\peripheral\profile/cy_profile.h **** #define CY_PROFILE_DRV_VERSION_MINOR  10
 223:Generated_Source\PSoC6\pdl\drivers\peripheral\profile/cy_profile.h **** 
 224:Generated_Source\PSoC6\pdl\drivers\peripheral\profile/cy_profile.h **** /** Profile driver identifier */
 225:Generated_Source\PSoC6\pdl\drivers\peripheral\profile/cy_profile.h **** #define CY_PROFILE_ID   CY_PDL_DRV_ID(0x1EU)
 226:Generated_Source\PSoC6\pdl\drivers\peripheral\profile/cy_profile.h **** 
 227:Generated_Source\PSoC6\pdl\drivers\peripheral\profile/cy_profile.h **** /** Start profiling command for the CMD register */
 228:Generated_Source\PSoC6\pdl\drivers\peripheral\profile/cy_profile.h **** #define CY_PROFILE_START_TR    1UL  
 229:Generated_Source\PSoC6\pdl\drivers\peripheral\profile/cy_profile.h **** 
 230:Generated_Source\PSoC6\pdl\drivers\peripheral\profile/cy_profile.h **** /** Stop profiling command for the CMD register */
 231:Generated_Source\PSoC6\pdl\drivers\peripheral\profile/cy_profile.h **** #define CY_PROFILE_STOP_TR     2UL  
 232:Generated_Source\PSoC6\pdl\drivers\peripheral\profile/cy_profile.h **** 
 233:Generated_Source\PSoC6\pdl\drivers\peripheral\profile/cy_profile.h **** /** Command to clear all counter registers to 0 */
 234:Generated_Source\PSoC6\pdl\drivers\peripheral\profile/cy_profile.h **** #define CY_PROFILE_CLR_ALL_CNT 0x100UL
 235:Generated_Source\PSoC6\pdl\drivers\peripheral\profile/cy_profile.h **** 
 236:Generated_Source\PSoC6\pdl\drivers\peripheral\profile/cy_profile.h **** /** \} group_profile_macros */
 237:Generated_Source\PSoC6\pdl\drivers\peripheral\profile/cy_profile.h **** 
 238:Generated_Source\PSoC6\pdl\drivers\peripheral\profile/cy_profile.h **** /***************************************
 239:Generated_Source\PSoC6\pdl\drivers\peripheral\profile/cy_profile.h **** *        Constants
 240:Generated_Source\PSoC6\pdl\drivers\peripheral\profile/cy_profile.h **** ***************************************/
 241:Generated_Source\PSoC6\pdl\drivers\peripheral\profile/cy_profile.h **** 
 242:Generated_Source\PSoC6\pdl\drivers\peripheral\profile/cy_profile.h **** /** \cond INTERNAL */
ARM GAS  C:\Users\cmila\AppData\Local\Temp\cciWlBAf.s 			page 12


 243:Generated_Source\PSoC6\pdl\drivers\peripheral\profile/cy_profile.h **** 
 244:Generated_Source\PSoC6\pdl\drivers\peripheral\profile/cy_profile.h **** #define CY_PROFILE_PRFL_CNT_NR                  (8u)
 245:Generated_Source\PSoC6\pdl\drivers\peripheral\profile/cy_profile.h **** 
 246:Generated_Source\PSoC6\pdl\drivers\peripheral\profile/cy_profile.h **** /* Parameter check macros */
 247:Generated_Source\PSoC6\pdl\drivers\peripheral\profile/cy_profile.h **** #define CY_PROFILE_IS_MONITOR_VALID(monitor)    ((uint32_t)CY_EP_MONITOR_COUNT > ((uint32_t)(monito
 248:Generated_Source\PSoC6\pdl\drivers\peripheral\profile/cy_profile.h **** #define CY_PROFILE_IS_DURATION_VALID(duration)  (((duration) == CY_PROFILE_EVENT) || \
 249:Generated_Source\PSoC6\pdl\drivers\peripheral\profile/cy_profile.h ****                                                  ((duration) == CY_PROFILE_DURATION))
 250:Generated_Source\PSoC6\pdl\drivers\peripheral\profile/cy_profile.h **** #define CY_PROFILE_IS_REFCLK_VALID(refClk)      (((refClk) == CY_PROFILE_CLK_TIMER) || \
 251:Generated_Source\PSoC6\pdl\drivers\peripheral\profile/cy_profile.h ****                                                  ((refClk) == CY_PROFILE_CLK_IMO) || \
 252:Generated_Source\PSoC6\pdl\drivers\peripheral\profile/cy_profile.h ****                                                  ((refClk) == CY_PROFILE_CLK_ECO) || \
 253:Generated_Source\PSoC6\pdl\drivers\peripheral\profile/cy_profile.h ****                                                  ((refClk) == CY_PROFILE_CLK_LF) || \
 254:Generated_Source\PSoC6\pdl\drivers\peripheral\profile/cy_profile.h ****                                                  ((refClk) == CY_PROFILE_CLK_HF) || \
 255:Generated_Source\PSoC6\pdl\drivers\peripheral\profile/cy_profile.h ****                                                  ((refClk) == CY_PROFILE_CLK_PERI))
 256:Generated_Source\PSoC6\pdl\drivers\peripheral\profile/cy_profile.h **** #define CY_PROFILE_IS_CNT_VALID(numCounters)    ((uint32_t)CY_PROFILE_PRFL_CNT_NR > (numCounters))
 257:Generated_Source\PSoC6\pdl\drivers\peripheral\profile/cy_profile.h **** 
 258:Generated_Source\PSoC6\pdl\drivers\peripheral\profile/cy_profile.h **** /** \endcond */
 259:Generated_Source\PSoC6\pdl\drivers\peripheral\profile/cy_profile.h **** 
 260:Generated_Source\PSoC6\pdl\drivers\peripheral\profile/cy_profile.h **** /***************************************
 261:Generated_Source\PSoC6\pdl\drivers\peripheral\profile/cy_profile.h **** *        Enumerations
 262:Generated_Source\PSoC6\pdl\drivers\peripheral\profile/cy_profile.h **** ***************************************/
 263:Generated_Source\PSoC6\pdl\drivers\peripheral\profile/cy_profile.h **** 
 264:Generated_Source\PSoC6\pdl\drivers\peripheral\profile/cy_profile.h **** /**
 265:Generated_Source\PSoC6\pdl\drivers\peripheral\profile/cy_profile.h **** * \addtogroup group_profile_enums
 266:Generated_Source\PSoC6\pdl\drivers\peripheral\profile/cy_profile.h **** * \{
 267:Generated_Source\PSoC6\pdl\drivers\peripheral\profile/cy_profile.h **** */
 268:Generated_Source\PSoC6\pdl\drivers\peripheral\profile/cy_profile.h **** 
 269:Generated_Source\PSoC6\pdl\drivers\peripheral\profile/cy_profile.h **** /**
 270:Generated_Source\PSoC6\pdl\drivers\peripheral\profile/cy_profile.h **** * Profile counter reference clock source. Used when duration monitoring.
 271:Generated_Source\PSoC6\pdl\drivers\peripheral\profile/cy_profile.h **** */
 272:Generated_Source\PSoC6\pdl\drivers\peripheral\profile/cy_profile.h **** typedef enum 
 273:Generated_Source\PSoC6\pdl\drivers\peripheral\profile/cy_profile.h **** {
 274:Generated_Source\PSoC6\pdl\drivers\peripheral\profile/cy_profile.h ****     CY_PROFILE_CLK_TIMER  = 0, /**< Timer clock (TimerClk) */
 275:Generated_Source\PSoC6\pdl\drivers\peripheral\profile/cy_profile.h ****     CY_PROFILE_CLK_IMO    = 1, /**< Internal main oscillator (IMO) */
 276:Generated_Source\PSoC6\pdl\drivers\peripheral\profile/cy_profile.h ****     CY_PROFILE_CLK_ECO    = 2, /**< External crystal oscillator (ECO) */
 277:Generated_Source\PSoC6\pdl\drivers\peripheral\profile/cy_profile.h ****     CY_PROFILE_CLK_LF     = 3, /**< Low-frequency clock (LFCLK) */
 278:Generated_Source\PSoC6\pdl\drivers\peripheral\profile/cy_profile.h ****     CY_PROFILE_CLK_HF     = 4, /**< High-Frequency clock (HFCLK0) */
 279:Generated_Source\PSoC6\pdl\drivers\peripheral\profile/cy_profile.h ****     CY_PROFILE_CLK_PERI   = 5, /**< Peripheral clock (PeriClk) */
 280:Generated_Source\PSoC6\pdl\drivers\peripheral\profile/cy_profile.h **** } cy_en_profile_ref_clk_t;
 281:Generated_Source\PSoC6\pdl\drivers\peripheral\profile/cy_profile.h **** 
 282:Generated_Source\PSoC6\pdl\drivers\peripheral\profile/cy_profile.h **** /**
 283:Generated_Source\PSoC6\pdl\drivers\peripheral\profile/cy_profile.h **** * Monitor method type.
 284:Generated_Source\PSoC6\pdl\drivers\peripheral\profile/cy_profile.h **** */
 285:Generated_Source\PSoC6\pdl\drivers\peripheral\profile/cy_profile.h **** typedef enum 
 286:Generated_Source\PSoC6\pdl\drivers\peripheral\profile/cy_profile.h **** {
 287:Generated_Source\PSoC6\pdl\drivers\peripheral\profile/cy_profile.h ****     CY_PROFILE_EVENT    = 0,  /**< Count (edge-detected) module events  */
 288:Generated_Source\PSoC6\pdl\drivers\peripheral\profile/cy_profile.h ****     CY_PROFILE_DURATION = 1,  /**< Count (level) duration in clock cycles */
 289:Generated_Source\PSoC6\pdl\drivers\peripheral\profile/cy_profile.h **** } cy_en_profile_duration_t;
 290:Generated_Source\PSoC6\pdl\drivers\peripheral\profile/cy_profile.h **** 
 291:Generated_Source\PSoC6\pdl\drivers\peripheral\profile/cy_profile.h **** /** Profiler status codes */
 292:Generated_Source\PSoC6\pdl\drivers\peripheral\profile/cy_profile.h **** typedef enum 
 293:Generated_Source\PSoC6\pdl\drivers\peripheral\profile/cy_profile.h **** {
 294:Generated_Source\PSoC6\pdl\drivers\peripheral\profile/cy_profile.h ****     CY_PROFILE_SUCCESS = 0x00U,                                      /**< Operation completed succe
 295:Generated_Source\PSoC6\pdl\drivers\peripheral\profile/cy_profile.h ****     CY_PROFILE_BAD_PARAM = CY_PROFILE_ID | CY_PDL_STATUS_ERROR | 1UL /**< Invalid input parameters 
 296:Generated_Source\PSoC6\pdl\drivers\peripheral\profile/cy_profile.h **** 
 297:Generated_Source\PSoC6\pdl\drivers\peripheral\profile/cy_profile.h ****  } cy_en_profile_status_t;
 298:Generated_Source\PSoC6\pdl\drivers\peripheral\profile/cy_profile.h **** 
 299:Generated_Source\PSoC6\pdl\drivers\peripheral\profile/cy_profile.h ****  /** \} group_profile_enums */
ARM GAS  C:\Users\cmila\AppData\Local\Temp\cciWlBAf.s 			page 13


 300:Generated_Source\PSoC6\pdl\drivers\peripheral\profile/cy_profile.h **** 
 301:Generated_Source\PSoC6\pdl\drivers\peripheral\profile/cy_profile.h **** /***************************************
 302:Generated_Source\PSoC6\pdl\drivers\peripheral\profile/cy_profile.h **** *       Configuration Structures
 303:Generated_Source\PSoC6\pdl\drivers\peripheral\profile/cy_profile.h **** ***************************************/
 304:Generated_Source\PSoC6\pdl\drivers\peripheral\profile/cy_profile.h **** 
 305:Generated_Source\PSoC6\pdl\drivers\peripheral\profile/cy_profile.h **** /**
 306:Generated_Source\PSoC6\pdl\drivers\peripheral\profile/cy_profile.h **** * \addtogroup group_profile_data_structures
 307:Generated_Source\PSoC6\pdl\drivers\peripheral\profile/cy_profile.h **** * \{
 308:Generated_Source\PSoC6\pdl\drivers\peripheral\profile/cy_profile.h **** */
 309:Generated_Source\PSoC6\pdl\drivers\peripheral\profile/cy_profile.h **** 
 310:Generated_Source\PSoC6\pdl\drivers\peripheral\profile/cy_profile.h **** /**
 311:Generated_Source\PSoC6\pdl\drivers\peripheral\profile/cy_profile.h **** * Profile counter control register structure. For each counter, holds the CTL register fields.
 312:Generated_Source\PSoC6\pdl\drivers\peripheral\profile/cy_profile.h **** */
 313:Generated_Source\PSoC6\pdl\drivers\peripheral\profile/cy_profile.h **** typedef struct
 314:Generated_Source\PSoC6\pdl\drivers\peripheral\profile/cy_profile.h **** {
 315:Generated_Source\PSoC6\pdl\drivers\peripheral\profile/cy_profile.h ****     cy_en_profile_duration_t  cntDuration; /**< 0 = event; 1 = duration */
 316:Generated_Source\PSoC6\pdl\drivers\peripheral\profile/cy_profile.h ****     cy_en_profile_ref_clk_t   refClkSel;   /**< The reference clock used by the counter */
 317:Generated_Source\PSoC6\pdl\drivers\peripheral\profile/cy_profile.h ****     en_ep_mon_sel_t           monSel;      /**< The monitor signal to be observed by the counter */
 318:Generated_Source\PSoC6\pdl\drivers\peripheral\profile/cy_profile.h **** } cy_stc_profile_ctr_ctl_t; 
 319:Generated_Source\PSoC6\pdl\drivers\peripheral\profile/cy_profile.h **** 
 320:Generated_Source\PSoC6\pdl\drivers\peripheral\profile/cy_profile.h **** /**
 321:Generated_Source\PSoC6\pdl\drivers\peripheral\profile/cy_profile.h **** * Software structure for holding a profile counter status and configuration information.
 322:Generated_Source\PSoC6\pdl\drivers\peripheral\profile/cy_profile.h **** */
 323:Generated_Source\PSoC6\pdl\drivers\peripheral\profile/cy_profile.h **** typedef struct
 324:Generated_Source\PSoC6\pdl\drivers\peripheral\profile/cy_profile.h **** {
 325:Generated_Source\PSoC6\pdl\drivers\peripheral\profile/cy_profile.h ****     uint8_t                   ctrNum;      /**< Profile counter number */ 
 326:Generated_Source\PSoC6\pdl\drivers\peripheral\profile/cy_profile.h ****     uint8_t                   used;        /**< 0 = available; 1 = used */
 327:Generated_Source\PSoC6\pdl\drivers\peripheral\profile/cy_profile.h ****     cy_stc_profile_ctr_ctl_t  ctlRegVals;  /**< Initial counter CTL register settings */
 328:Generated_Source\PSoC6\pdl\drivers\peripheral\profile/cy_profile.h ****     PROFILE_CNT_STRUCT_Type * cntAddr;     /**< Base address of the counter instance registers */
 329:Generated_Source\PSoC6\pdl\drivers\peripheral\profile/cy_profile.h ****     uint32_t                  ctlReg;      /**< Current CTL register value */
 330:Generated_Source\PSoC6\pdl\drivers\peripheral\profile/cy_profile.h ****     uint32_t                  cntReg;      /**< Current CNT register value */
 331:Generated_Source\PSoC6\pdl\drivers\peripheral\profile/cy_profile.h ****     uint32_t                  overflow;    /**< Extension of cntReg to form a 64-bit counter value 
 332:Generated_Source\PSoC6\pdl\drivers\peripheral\profile/cy_profile.h ****     uint32_t                  weight;      /**< Weighting factor for the counter */
 333:Generated_Source\PSoC6\pdl\drivers\peripheral\profile/cy_profile.h **** } cy_stc_profile_ctr_t;
 334:Generated_Source\PSoC6\pdl\drivers\peripheral\profile/cy_profile.h **** 
 335:Generated_Source\PSoC6\pdl\drivers\peripheral\profile/cy_profile.h **** /**
 336:Generated_Source\PSoC6\pdl\drivers\peripheral\profile/cy_profile.h **** * Pointer to a structure holding the status information for a profile counter.
 337:Generated_Source\PSoC6\pdl\drivers\peripheral\profile/cy_profile.h **** */
 338:Generated_Source\PSoC6\pdl\drivers\peripheral\profile/cy_profile.h **** typedef cy_stc_profile_ctr_t * cy_stc_profile_ctr_ptr_t;
 339:Generated_Source\PSoC6\pdl\drivers\peripheral\profile/cy_profile.h **** /** \} group_profile_data_structures */
 340:Generated_Source\PSoC6\pdl\drivers\peripheral\profile/cy_profile.h **** 
 341:Generated_Source\PSoC6\pdl\drivers\peripheral\profile/cy_profile.h **** /**
 342:Generated_Source\PSoC6\pdl\drivers\peripheral\profile/cy_profile.h **** * \addtogroup group_profile_functions
 343:Generated_Source\PSoC6\pdl\drivers\peripheral\profile/cy_profile.h **** * \{
 344:Generated_Source\PSoC6\pdl\drivers\peripheral\profile/cy_profile.h **** */
 345:Generated_Source\PSoC6\pdl\drivers\peripheral\profile/cy_profile.h **** 
 346:Generated_Source\PSoC6\pdl\drivers\peripheral\profile/cy_profile.h **** /**
 347:Generated_Source\PSoC6\pdl\drivers\peripheral\profile/cy_profile.h **** * \addtogroup group_profile_functions_interrupt
 348:Generated_Source\PSoC6\pdl\drivers\peripheral\profile/cy_profile.h **** * \{
 349:Generated_Source\PSoC6\pdl\drivers\peripheral\profile/cy_profile.h **** */
 350:Generated_Source\PSoC6\pdl\drivers\peripheral\profile/cy_profile.h **** /* ========================================================================== */
 351:Generated_Source\PSoC6\pdl\drivers\peripheral\profile/cy_profile.h **** /* ====================    INTERRUPT FUNCTION SECTION    ==================== */
 352:Generated_Source\PSoC6\pdl\drivers\peripheral\profile/cy_profile.h **** /* ========================================================================== */
 353:Generated_Source\PSoC6\pdl\drivers\peripheral\profile/cy_profile.h **** void Cy_Profile_ISR(void);
 354:Generated_Source\PSoC6\pdl\drivers\peripheral\profile/cy_profile.h **** /** \} group_profile_functions_interrupt */
 355:Generated_Source\PSoC6\pdl\drivers\peripheral\profile/cy_profile.h **** 
 356:Generated_Source\PSoC6\pdl\drivers\peripheral\profile/cy_profile.h **** /**
ARM GAS  C:\Users\cmila\AppData\Local\Temp\cciWlBAf.s 			page 14


 357:Generated_Source\PSoC6\pdl\drivers\peripheral\profile/cy_profile.h **** * \addtogroup group_profile_functions_general
 358:Generated_Source\PSoC6\pdl\drivers\peripheral\profile/cy_profile.h **** * \{
 359:Generated_Source\PSoC6\pdl\drivers\peripheral\profile/cy_profile.h **** */
 360:Generated_Source\PSoC6\pdl\drivers\peripheral\profile/cy_profile.h **** __STATIC_INLINE void Cy_Profile_Init(void);
 361:Generated_Source\PSoC6\pdl\drivers\peripheral\profile/cy_profile.h **** __STATIC_INLINE void Cy_Profile_DeInit(void);
 362:Generated_Source\PSoC6\pdl\drivers\peripheral\profile/cy_profile.h ****                 void Cy_Profile_StartProfiling(void);
 363:Generated_Source\PSoC6\pdl\drivers\peripheral\profile/cy_profile.h **** __STATIC_INLINE void Cy_Profile_StopProfiling(void);
 364:Generated_Source\PSoC6\pdl\drivers\peripheral\profile/cy_profile.h **** __STATIC_INLINE uint32_t Cy_Profile_IsProfiling(void);
 365:Generated_Source\PSoC6\pdl\drivers\peripheral\profile/cy_profile.h **** 
 366:Generated_Source\PSoC6\pdl\drivers\peripheral\profile/cy_profile.h **** 
 367:Generated_Source\PSoC6\pdl\drivers\peripheral\profile/cy_profile.h **** /* ========================================================================== */
 368:Generated_Source\PSoC6\pdl\drivers\peripheral\profile/cy_profile.h **** /* ===============    GENERAL PROFILE FUNCTIONS SECTION     ================= */
 369:Generated_Source\PSoC6\pdl\drivers\peripheral\profile/cy_profile.h **** /* ========================================================================== */
 370:Generated_Source\PSoC6\pdl\drivers\peripheral\profile/cy_profile.h **** /*******************************************************************************
 371:Generated_Source\PSoC6\pdl\drivers\peripheral\profile/cy_profile.h **** * Function Name: Cy_Profile_Init
 372:Generated_Source\PSoC6\pdl\drivers\peripheral\profile/cy_profile.h **** ****************************************************************************//**
 373:Generated_Source\PSoC6\pdl\drivers\peripheral\profile/cy_profile.h **** *
 374:Generated_Source\PSoC6\pdl\drivers\peripheral\profile/cy_profile.h **** * Initializes and enables the profile hardware. 
 375:Generated_Source\PSoC6\pdl\drivers\peripheral\profile/cy_profile.h **** *
 376:Generated_Source\PSoC6\pdl\drivers\peripheral\profile/cy_profile.h **** * This function must be called once when energy profiling is desired. The 
 377:Generated_Source\PSoC6\pdl\drivers\peripheral\profile/cy_profile.h **** * operation does not start a profiling session.
 378:Generated_Source\PSoC6\pdl\drivers\peripheral\profile/cy_profile.h **** *
 379:Generated_Source\PSoC6\pdl\drivers\peripheral\profile/cy_profile.h **** * \note The profile interrupt must also be configured. \ref Cy_Profile_ISR() 
 380:Generated_Source\PSoC6\pdl\drivers\peripheral\profile/cy_profile.h **** * can be used as its handler.
 381:Generated_Source\PSoC6\pdl\drivers\peripheral\profile/cy_profile.h **** *
 382:Generated_Source\PSoC6\pdl\drivers\peripheral\profile/cy_profile.h **** * \funcusage
 383:Generated_Source\PSoC6\pdl\drivers\peripheral\profile/cy_profile.h **** * \snippet profile/profile_v1_0_sut_01.cydsn/main_cm4.c snippet_Cy_Profile_Init
 384:Generated_Source\PSoC6\pdl\drivers\peripheral\profile/cy_profile.h **** *
 385:Generated_Source\PSoC6\pdl\drivers\peripheral\profile/cy_profile.h **** *******************************************************************************/
 386:Generated_Source\PSoC6\pdl\drivers\peripheral\profile/cy_profile.h **** __STATIC_INLINE void Cy_Profile_Init(void)
 387:Generated_Source\PSoC6\pdl\drivers\peripheral\profile/cy_profile.h **** {
 388:Generated_Source\PSoC6\pdl\drivers\peripheral\profile/cy_profile.h ****     PROFILE_CTL = _VAL2FLD(PROFILE_CTL_ENABLED,  1UL/*enabled */) | 
 389:Generated_Source\PSoC6\pdl\drivers\peripheral\profile/cy_profile.h ****                   _VAL2FLD(PROFILE_CTL_WIN_MODE, 0UL/*start/stop mode*/);
 390:Generated_Source\PSoC6\pdl\drivers\peripheral\profile/cy_profile.h ****     PROFILE_INTR_MASK = 0UL; /* clear all counter interrupt mask bits */
 391:Generated_Source\PSoC6\pdl\drivers\peripheral\profile/cy_profile.h **** }
 392:Generated_Source\PSoC6\pdl\drivers\peripheral\profile/cy_profile.h **** 
 393:Generated_Source\PSoC6\pdl\drivers\peripheral\profile/cy_profile.h **** 
 394:Generated_Source\PSoC6\pdl\drivers\peripheral\profile/cy_profile.h **** /*******************************************************************************
 395:Generated_Source\PSoC6\pdl\drivers\peripheral\profile/cy_profile.h **** * Function Name: Cy_Profile_DeInit
 396:Generated_Source\PSoC6\pdl\drivers\peripheral\profile/cy_profile.h **** ****************************************************************************//**
 397:Generated_Source\PSoC6\pdl\drivers\peripheral\profile/cy_profile.h **** *
 398:Generated_Source\PSoC6\pdl\drivers\peripheral\profile/cy_profile.h **** * Clears the interrupt mask and disables the profile hardware. 
 399:Generated_Source\PSoC6\pdl\drivers\peripheral\profile/cy_profile.h **** *
 400:Generated_Source\PSoC6\pdl\drivers\peripheral\profile/cy_profile.h **** * This function should be called when energy profiling is no longer desired.
 401:Generated_Source\PSoC6\pdl\drivers\peripheral\profile/cy_profile.h **** *
 402:Generated_Source\PSoC6\pdl\drivers\peripheral\profile/cy_profile.h **** * \note The profile interrupt is not disabled by this operation and must be
 403:Generated_Source\PSoC6\pdl\drivers\peripheral\profile/cy_profile.h **** * disabled separately.
 404:Generated_Source\PSoC6\pdl\drivers\peripheral\profile/cy_profile.h **** *
 405:Generated_Source\PSoC6\pdl\drivers\peripheral\profile/cy_profile.h **** * \funcusage
 406:Generated_Source\PSoC6\pdl\drivers\peripheral\profile/cy_profile.h **** * \snippet profile/profile_v1_0_sut_01.cydsn/main_cm4.c snippet_Cy_Profile_DeInit
 407:Generated_Source\PSoC6\pdl\drivers\peripheral\profile/cy_profile.h **** *
 408:Generated_Source\PSoC6\pdl\drivers\peripheral\profile/cy_profile.h **** *******************************************************************************/
 409:Generated_Source\PSoC6\pdl\drivers\peripheral\profile/cy_profile.h **** __STATIC_INLINE void Cy_Profile_DeInit(void)
 410:Generated_Source\PSoC6\pdl\drivers\peripheral\profile/cy_profile.h **** {
 411:Generated_Source\PSoC6\pdl\drivers\peripheral\profile/cy_profile.h ****     PROFILE_CTL = _VAL2FLD(PROFILE_CTL_ENABLED, 0UL/*disabled */);
 412:Generated_Source\PSoC6\pdl\drivers\peripheral\profile/cy_profile.h ****     PROFILE_INTR_MASK = 0UL; /* clear all counter interrupt mask bits */
 413:Generated_Source\PSoC6\pdl\drivers\peripheral\profile/cy_profile.h **** }
ARM GAS  C:\Users\cmila\AppData\Local\Temp\cciWlBAf.s 			page 15


 414:Generated_Source\PSoC6\pdl\drivers\peripheral\profile/cy_profile.h **** 
 415:Generated_Source\PSoC6\pdl\drivers\peripheral\profile/cy_profile.h **** 
 416:Generated_Source\PSoC6\pdl\drivers\peripheral\profile/cy_profile.h **** /*******************************************************************************
 417:Generated_Source\PSoC6\pdl\drivers\peripheral\profile/cy_profile.h **** * Function Name: Cy_Profile_StopProfiling
 418:Generated_Source\PSoC6\pdl\drivers\peripheral\profile/cy_profile.h **** ****************************************************************************//**
 419:Generated_Source\PSoC6\pdl\drivers\peripheral\profile/cy_profile.h **** *
 420:Generated_Source\PSoC6\pdl\drivers\peripheral\profile/cy_profile.h **** * Stops the profiling/measurement window.
 421:Generated_Source\PSoC6\pdl\drivers\peripheral\profile/cy_profile.h **** *
 422:Generated_Source\PSoC6\pdl\drivers\peripheral\profile/cy_profile.h **** * This operation prevents the enabled profile counters from counting.
 423:Generated_Source\PSoC6\pdl\drivers\peripheral\profile/cy_profile.h **** *
 424:Generated_Source\PSoC6\pdl\drivers\peripheral\profile/cy_profile.h **** * \note The profile interrupt should be disabled before calling this function.
 425:Generated_Source\PSoC6\pdl\drivers\peripheral\profile/cy_profile.h **** *
 426:Generated_Source\PSoC6\pdl\drivers\peripheral\profile/cy_profile.h **** * \funcusage
 427:Generated_Source\PSoC6\pdl\drivers\peripheral\profile/cy_profile.h **** * \snippet profile/profile_v1_0_sut_01.cydsn/main_cm4.c snippet_Cy_Profile_StopProfiling
 428:Generated_Source\PSoC6\pdl\drivers\peripheral\profile/cy_profile.h **** *
 429:Generated_Source\PSoC6\pdl\drivers\peripheral\profile/cy_profile.h **** *******************************************************************************/
 430:Generated_Source\PSoC6\pdl\drivers\peripheral\profile/cy_profile.h **** __STATIC_INLINE void Cy_Profile_StopProfiling(void)
 431:Generated_Source\PSoC6\pdl\drivers\peripheral\profile/cy_profile.h **** {
 432:Generated_Source\PSoC6\pdl\drivers\peripheral\profile/cy_profile.h ****     PROFILE_CMD = CY_PROFILE_STOP_TR;
 433:Generated_Source\PSoC6\pdl\drivers\peripheral\profile/cy_profile.h **** }
 434:Generated_Source\PSoC6\pdl\drivers\peripheral\profile/cy_profile.h **** 
 435:Generated_Source\PSoC6\pdl\drivers\peripheral\profile/cy_profile.h **** 
 436:Generated_Source\PSoC6\pdl\drivers\peripheral\profile/cy_profile.h **** /*******************************************************************************
 437:Generated_Source\PSoC6\pdl\drivers\peripheral\profile/cy_profile.h **** * Function Name: Cy_Profile_IsProfiling
 438:Generated_Source\PSoC6\pdl\drivers\peripheral\profile/cy_profile.h **** ****************************************************************************//**
 439:Generated_Source\PSoC6\pdl\drivers\peripheral\profile/cy_profile.h **** *
 440:Generated_Source\PSoC6\pdl\drivers\peripheral\profile/cy_profile.h **** * Reports the active status of the profiling window.
 441:Generated_Source\PSoC6\pdl\drivers\peripheral\profile/cy_profile.h **** *
 442:Generated_Source\PSoC6\pdl\drivers\peripheral\profile/cy_profile.h **** * \return 0 = profiling is not active; 1 = profiling is active
 443:Generated_Source\PSoC6\pdl\drivers\peripheral\profile/cy_profile.h **** *
 444:Generated_Source\PSoC6\pdl\drivers\peripheral\profile/cy_profile.h **** * \funcusage
 445:Generated_Source\PSoC6\pdl\drivers\peripheral\profile/cy_profile.h **** * \snippet profile/profile_v1_0_sut_01.cydsn/main_cm4.c snippet_Cy_Profile_IsProfiling
 446:Generated_Source\PSoC6\pdl\drivers\peripheral\profile/cy_profile.h **** *
 447:Generated_Source\PSoC6\pdl\drivers\peripheral\profile/cy_profile.h **** *******************************************************************************/
 448:Generated_Source\PSoC6\pdl\drivers\peripheral\profile/cy_profile.h **** __STATIC_INLINE uint32_t Cy_Profile_IsProfiling(void)
 449:Generated_Source\PSoC6\pdl\drivers\peripheral\profile/cy_profile.h **** {
 450:Generated_Source\PSoC6\pdl\drivers\peripheral\profile/cy_profile.h ****     return _FLD2VAL(PROFILE_STATUS_WIN_ACTIVE, PROFILE_STATUS);
 451:Generated_Source\PSoC6\pdl\drivers\peripheral\profile/cy_profile.h **** }
 452:Generated_Source\PSoC6\pdl\drivers\peripheral\profile/cy_profile.h **** /** \} group_profile_functions_general */
 453:Generated_Source\PSoC6\pdl\drivers\peripheral\profile/cy_profile.h **** 
 454:Generated_Source\PSoC6\pdl\drivers\peripheral\profile/cy_profile.h **** /**
 455:Generated_Source\PSoC6\pdl\drivers\peripheral\profile/cy_profile.h **** * \addtogroup group_profile_functions_counter
 456:Generated_Source\PSoC6\pdl\drivers\peripheral\profile/cy_profile.h **** * \{
 457:Generated_Source\PSoC6\pdl\drivers\peripheral\profile/cy_profile.h **** */
 458:Generated_Source\PSoC6\pdl\drivers\peripheral\profile/cy_profile.h **** void Cy_Profile_ClearConfiguration(void);
 459:Generated_Source\PSoC6\pdl\drivers\peripheral\profile/cy_profile.h **** __STATIC_INLINE void Cy_Profile_ClearCounters(void);
 460:Generated_Source\PSoC6\pdl\drivers\peripheral\profile/cy_profile.h **** cy_stc_profile_ctr_ptr_t Cy_Profile_ConfigureCounter(en_ep_mon_sel_t monitor, cy_en_profile_duratio
 461:Generated_Source\PSoC6\pdl\drivers\peripheral\profile/cy_profile.h **** cy_en_profile_status_t Cy_Profile_FreeCounter(cy_stc_profile_ctr_ptr_t ctrAddr);
 462:Generated_Source\PSoC6\pdl\drivers\peripheral\profile/cy_profile.h **** cy_en_profile_status_t Cy_Profile_EnableCounter(cy_stc_profile_ctr_ptr_t ctrAddr);
 463:Generated_Source\PSoC6\pdl\drivers\peripheral\profile/cy_profile.h **** cy_en_profile_status_t Cy_Profile_DisableCounter(cy_stc_profile_ctr_ptr_t ctrAddr);
 464:Generated_Source\PSoC6\pdl\drivers\peripheral\profile/cy_profile.h **** 
 465:Generated_Source\PSoC6\pdl\drivers\peripheral\profile/cy_profile.h **** /* ========================================================================== */
 466:Generated_Source\PSoC6\pdl\drivers\peripheral\profile/cy_profile.h **** /* ===================    COUNTER FUNCTIONS SECTION    ====================== */
 467:Generated_Source\PSoC6\pdl\drivers\peripheral\profile/cy_profile.h **** /* ========================================================================== */
 468:Generated_Source\PSoC6\pdl\drivers\peripheral\profile/cy_profile.h **** /*******************************************************************************
 469:Generated_Source\PSoC6\pdl\drivers\peripheral\profile/cy_profile.h **** * Function Name: Cy_Profile_ClearCounters
 470:Generated_Source\PSoC6\pdl\drivers\peripheral\profile/cy_profile.h **** ****************************************************************************//**
ARM GAS  C:\Users\cmila\AppData\Local\Temp\cciWlBAf.s 			page 16


 471:Generated_Source\PSoC6\pdl\drivers\peripheral\profile/cy_profile.h **** *
 472:Generated_Source\PSoC6\pdl\drivers\peripheral\profile/cy_profile.h **** * Clears all hardware counters to 0.
 473:Generated_Source\PSoC6\pdl\drivers\peripheral\profile/cy_profile.h **** *
 474:Generated_Source\PSoC6\pdl\drivers\peripheral\profile/cy_profile.h **** * \funcusage
 475:Generated_Source\PSoC6\pdl\drivers\peripheral\profile/cy_profile.h **** * \snippet profile/profile_v1_0_sut_01.cydsn/main_cm4.c snippet_Cy_Profile_ClearCounters
 476:Generated_Source\PSoC6\pdl\drivers\peripheral\profile/cy_profile.h **** *
 477:Generated_Source\PSoC6\pdl\drivers\peripheral\profile/cy_profile.h **** *******************************************************************************/
 478:Generated_Source\PSoC6\pdl\drivers\peripheral\profile/cy_profile.h **** __STATIC_INLINE void Cy_Profile_ClearCounters(void)
 479:Generated_Source\PSoC6\pdl\drivers\peripheral\profile/cy_profile.h **** {
 480:Generated_Source\PSoC6\pdl\drivers\peripheral\profile/cy_profile.h ****     PROFILE_CMD = CY_PROFILE_CLR_ALL_CNT;
 222              		.loc 2 480 0
 223 000c 8022     		movs	r2, #128
 224 000e 034B     		ldr	r3, .L29+4
 225 0010 5200     		lsls	r2, r2, #1
 226 0012 1A61     		str	r2, [r3, #16]
 227              	.LBE5:
 228              	.LBE4:
 154:Generated_Source\PSoC6\pdl\drivers\peripheral\profile/cy_profile.c ****     Cy_Profile_ClearCounters();
 155:Generated_Source\PSoC6\pdl\drivers\peripheral\profile/cy_profile.c **** }
 229              		.loc 1 155 0
 230              		@ sp needed
 231 0014 10BD     		pop	{r4, pc}
 232              	.L30:
 233 0016 C046     		.align	2
 234              	.L29:
 235 0018 00000000 		.word	.LANCHOR0
 236 001c 00002D40 		.word	1076690944
 237              		.cfi_endproc
 238              	.LFE53:
 239              		.size	Cy_Profile_ClearConfiguration, .-Cy_Profile_ClearConfiguration
 240              		.section	.text.Cy_Profile_ConfigureCounter,"ax",%progbits
 241              		.align	1
 242              		.global	Cy_Profile_ConfigureCounter
 243              		.code	16
 244              		.thumb_func
 245              		.type	Cy_Profile_ConfigureCounter, %function
 246              	Cy_Profile_ConfigureCounter:
 247              	.LFB54:
 156:Generated_Source\PSoC6\pdl\drivers\peripheral\profile/cy_profile.c **** 
 157:Generated_Source\PSoC6\pdl\drivers\peripheral\profile/cy_profile.c **** 
 158:Generated_Source\PSoC6\pdl\drivers\peripheral\profile/cy_profile.c **** /*******************************************************************************
 159:Generated_Source\PSoC6\pdl\drivers\peripheral\profile/cy_profile.c **** * Function Name: Cy_Profile_ConfigureCounter
 160:Generated_Source\PSoC6\pdl\drivers\peripheral\profile/cy_profile.c **** ****************************************************************************//**
 161:Generated_Source\PSoC6\pdl\drivers\peripheral\profile/cy_profile.c **** *
 162:Generated_Source\PSoC6\pdl\drivers\peripheral\profile/cy_profile.c **** * Configures and assigns a hardware profile counter to the list of used counters.
 163:Generated_Source\PSoC6\pdl\drivers\peripheral\profile/cy_profile.c **** *
 164:Generated_Source\PSoC6\pdl\drivers\peripheral\profile/cy_profile.c **** * This function assigns an available profile counter to a slot in the internal 
 165:Generated_Source\PSoC6\pdl\drivers\peripheral\profile/cy_profile.c **** * software data structure and returns the handle for that slot location. The data
 166:Generated_Source\PSoC6\pdl\drivers\peripheral\profile/cy_profile.c **** * structure is used to keep track of the counter status and to implement a 64-bit
 167:Generated_Source\PSoC6\pdl\drivers\peripheral\profile/cy_profile.c **** * profile counter. If no counter slots are available, the function returns a
 168:Generated_Source\PSoC6\pdl\drivers\peripheral\profile/cy_profile.c **** * NULL pointer.
 169:Generated_Source\PSoC6\pdl\drivers\peripheral\profile/cy_profile.c **** * 
 170:Generated_Source\PSoC6\pdl\drivers\peripheral\profile/cy_profile.c **** * \param monitor The monitor source number
 171:Generated_Source\PSoC6\pdl\drivers\peripheral\profile/cy_profile.c **** *
 172:Generated_Source\PSoC6\pdl\drivers\peripheral\profile/cy_profile.c **** * \param duration Events are monitored (0), or duration is monitored (1)
 173:Generated_Source\PSoC6\pdl\drivers\peripheral\profile/cy_profile.c **** *
 174:Generated_Source\PSoC6\pdl\drivers\peripheral\profile/cy_profile.c **** * \param refClk Counter reference clock
ARM GAS  C:\Users\cmila\AppData\Local\Temp\cciWlBAf.s 			page 17


 175:Generated_Source\PSoC6\pdl\drivers\peripheral\profile/cy_profile.c **** *
 176:Generated_Source\PSoC6\pdl\drivers\peripheral\profile/cy_profile.c **** * \param weight Weighting factor for the counter value
 177:Generated_Source\PSoC6\pdl\drivers\peripheral\profile/cy_profile.c **** * 
 178:Generated_Source\PSoC6\pdl\drivers\peripheral\profile/cy_profile.c **** * \return A pointer to the counter data structure. NULL if no counter is
 179:Generated_Source\PSoC6\pdl\drivers\peripheral\profile/cy_profile.c **** * available.
 180:Generated_Source\PSoC6\pdl\drivers\peripheral\profile/cy_profile.c **** *
 181:Generated_Source\PSoC6\pdl\drivers\peripheral\profile/cy_profile.c **** * \funcusage
 182:Generated_Source\PSoC6\pdl\drivers\peripheral\profile/cy_profile.c **** * \snippet profile/profile_v1_0_sut_01.cydsn/main_cm4.c snippet_Cy_Profile_ConfigureCounter
 183:Generated_Source\PSoC6\pdl\drivers\peripheral\profile/cy_profile.c **** *
 184:Generated_Source\PSoC6\pdl\drivers\peripheral\profile/cy_profile.c **** *******************************************************************************/
 185:Generated_Source\PSoC6\pdl\drivers\peripheral\profile/cy_profile.c **** cy_stc_profile_ctr_ptr_t Cy_Profile_ConfigureCounter(en_ep_mon_sel_t monitor, cy_en_profile_duratio
 186:Generated_Source\PSoC6\pdl\drivers\peripheral\profile/cy_profile.c ****                                                      cy_en_profile_ref_clk_t refClk,  uint32_t weig
 187:Generated_Source\PSoC6\pdl\drivers\peripheral\profile/cy_profile.c **** {
 248              		.loc 1 187 0
 249              		.cfi_startproc
 250              		@ args = 0, pretend = 0, frame = 16
 251              		@ frame_needed = 0, uses_anonymous_args = 0
 252              	.LVL14:
 253 0000 F0B5     		push	{r4, r5, r6, r7, lr}
 254              		.cfi_def_cfa_offset 20
 255              		.cfi_offset 4, -20
 256              		.cfi_offset 5, -16
 257              		.cfi_offset 6, -12
 258              		.cfi_offset 7, -8
 259              		.cfi_offset 14, -4
 260 0002 85B0     		sub	sp, sp, #20
 261              		.cfi_def_cfa_offset 40
 262              		.loc 1 187 0
 263 0004 0193     		str	r3, [sp, #4]
 188:Generated_Source\PSoC6\pdl\drivers\peripheral\profile/cy_profile.c ****     CY_ASSERT_L1(CY_PROFILE_IS_MONITOR_VALID(monitor));
 189:Generated_Source\PSoC6\pdl\drivers\peripheral\profile/cy_profile.c ****     CY_ASSERT_L3(CY_PROFILE_IS_DURATION_VALID(duration));
 190:Generated_Source\PSoC6\pdl\drivers\peripheral\profile/cy_profile.c ****     CY_ASSERT_L3(CY_PROFILE_IS_REFCLK_VALID(refClk));
 191:Generated_Source\PSoC6\pdl\drivers\peripheral\profile/cy_profile.c ****     
 192:Generated_Source\PSoC6\pdl\drivers\peripheral\profile/cy_profile.c ****     cy_stc_profile_ctr_ptr_t retVal = NULL; /* error value if no counter is available */
 193:Generated_Source\PSoC6\pdl\drivers\peripheral\profile/cy_profile.c ****     volatile uint8_t i;
 194:Generated_Source\PSoC6\pdl\drivers\peripheral\profile/cy_profile.c ****     
 195:Generated_Source\PSoC6\pdl\drivers\peripheral\profile/cy_profile.c ****     /* Scan through the counters for an unused one */
 196:Generated_Source\PSoC6\pdl\drivers\peripheral\profile/cy_profile.c ****     for (i = 0u; (cy_ep_ctrs[i].used != 0u) && (i < (CY_N_ELMTS(cy_ep_ctrs))); i++){}
 264              		.loc 1 196 0
 265 0006 02AB     		add	r3, sp, #8
 266              	.LVL15:
 267 0008 DD1D     		adds	r5, r3, #7
 268 000a 0023     		movs	r3, #0
 269 000c 1C26     		movs	r6, #28
 270 000e 2C4C     		ldr	r4, .L40
 187:Generated_Source\PSoC6\pdl\drivers\peripheral\profile/cy_profile.c ****     CY_ASSERT_L1(CY_PROFILE_IS_MONITOR_VALID(monitor));
 271              		.loc 1 187 0
 272 0010 0092     		str	r2, [sp]
 273              		.loc 1 196 0
 274 0012 2B70     		strb	r3, [r5]
 275              	.L32:
 276              		.loc 1 196 0 is_stmt 0 discriminator 1
 277 0014 2B78     		ldrb	r3, [r5]
 278 0016 7343     		muls	r3, r6
 279 0018 E318     		adds	r3, r4, r3
 280 001a 5B78     		ldrb	r3, [r3, #1]
 281 001c 002B     		cmp	r3, #0
ARM GAS  C:\Users\cmila\AppData\Local\Temp\cciWlBAf.s 			page 18


 282 001e 07D0     		beq	.L33
 283              		.loc 1 196 0 discriminator 3
 284 0020 2B78     		ldrb	r3, [r5]
 285 0022 072B     		cmp	r3, #7
 286 0024 04D8     		bhi	.L33
 287              		.loc 1 196 0 discriminator 4
 288 0026 2B78     		ldrb	r3, [r5]
 289 0028 0133     		adds	r3, r3, #1
 290 002a DBB2     		uxtb	r3, r3
 291 002c 2B70     		strb	r3, [r5]
 292 002e F1E7     		b	.L32
 293              	.L33:
 197:Generated_Source\PSoC6\pdl\drivers\peripheral\profile/cy_profile.c ****     if (i < CY_N_ELMTS(cy_ep_ctrs))
 294              		.loc 1 197 0 is_stmt 1
 295 0030 2B78     		ldrb	r3, [r5]
 192:Generated_Source\PSoC6\pdl\drivers\peripheral\profile/cy_profile.c ****     volatile uint8_t i;
 296              		.loc 1 192 0
 297 0032 0026     		movs	r6, #0
 298              		.loc 1 197 0
 299 0034 072B     		cmp	r3, #7
 300 0036 3FD8     		bhi	.L35
 198:Generated_Source\PSoC6\pdl\drivers\peripheral\profile/cy_profile.c ****     { /* found one, fill in its data structure */
 199:Generated_Source\PSoC6\pdl\drivers\peripheral\profile/cy_profile.c ****         cy_ep_ctrs[i].ctrNum = i;
 301              		.loc 1 199 0
 302 0038 1C24     		movs	r4, #28
 303 003a 2B78     		ldrb	r3, [r5]
 304 003c 204E     		ldr	r6, .L40
 305 003e 6343     		muls	r3, r4
 306 0040 2F78     		ldrb	r7, [r5]
 200:Generated_Source\PSoC6\pdl\drivers\peripheral\profile/cy_profile.c ****         cy_ep_ctrs[i].used = 1u;
 201:Generated_Source\PSoC6\pdl\drivers\peripheral\profile/cy_profile.c ****         cy_ep_ctrs[i].cntAddr = (PROFILE_CNT_STRUCT_Type *)&(PROFILE_CNT_STRUCT[i]);
 307              		.loc 1 201 0
 308 0042 204A     		ldr	r2, .L40+4
 309              	.LVL16:
 199:Generated_Source\PSoC6\pdl\drivers\peripheral\profile/cy_profile.c ****         cy_ep_ctrs[i].used = 1u;
 310              		.loc 1 199 0
 311 0044 F754     		strb	r7, [r6, r3]
 200:Generated_Source\PSoC6\pdl\drivers\peripheral\profile/cy_profile.c ****         cy_ep_ctrs[i].used = 1u;
 312              		.loc 1 200 0
 313 0046 0127     		movs	r7, #1
 314 0048 2B78     		ldrb	r3, [r5]
 315 004a BC46     		mov	ip, r7
 316 004c 6343     		muls	r3, r4
 317 004e F318     		adds	r3, r6, r3
 318 0050 5F70     		strb	r7, [r3, #1]
 319              		.loc 1 201 0
 320 0052 2F78     		ldrb	r7, [r5]
 321 0054 2B78     		ldrb	r3, [r5]
 322 0056 6743     		muls	r7, r4
 323 0058 1B01     		lsls	r3, r3, #4
 324 005a 9B18     		adds	r3, r3, r2
 202:Generated_Source\PSoC6\pdl\drivers\peripheral\profile/cy_profile.c ****         cy_ep_ctrs[i].ctlRegVals.cntDuration = duration;
 203:Generated_Source\PSoC6\pdl\drivers\peripheral\profile/cy_profile.c ****         cy_ep_ctrs[i].ctlRegVals.refClkSel = refClk;
 325              		.loc 1 203 0
 326 005c 6A46     		mov	r2, sp
 201:Generated_Source\PSoC6\pdl\drivers\peripheral\profile/cy_profile.c ****         cy_ep_ctrs[i].ctlRegVals.cntDuration = duration;
 327              		.loc 1 201 0
ARM GAS  C:\Users\cmila\AppData\Local\Temp\cciWlBAf.s 			page 19


 328 005e F719     		adds	r7, r6, r7
 329 0060 BB60     		str	r3, [r7, #8]
 202:Generated_Source\PSoC6\pdl\drivers\peripheral\profile/cy_profile.c ****         cy_ep_ctrs[i].ctlRegVals.cntDuration = duration;
 330              		.loc 1 202 0
 331 0062 2B78     		ldrb	r3, [r5]
 332              		.loc 1 203 0
 333 0064 1278     		ldrb	r2, [r2]
 202:Generated_Source\PSoC6\pdl\drivers\peripheral\profile/cy_profile.c ****         cy_ep_ctrs[i].ctlRegVals.cntDuration = duration;
 334              		.loc 1 202 0
 335 0066 6343     		muls	r3, r4
 336 0068 F318     		adds	r3, r6, r3
 337 006a 9970     		strb	r1, [r3, #2]
 338              		.loc 1 203 0
 339 006c 2B78     		ldrb	r3, [r5]
 340 006e 6343     		muls	r3, r4
 341 0070 F318     		adds	r3, r6, r3
 342 0072 DA70     		strb	r2, [r3, #3]
 204:Generated_Source\PSoC6\pdl\drivers\peripheral\profile/cy_profile.c ****         cy_ep_ctrs[i].ctlRegVals.monSel = monitor;
 205:Generated_Source\PSoC6\pdl\drivers\peripheral\profile/cy_profile.c ****         cy_ep_ctrs[i].overflow = 0UL;
 343              		.loc 1 205 0
 344 0074 0022     		movs	r2, #0
 204:Generated_Source\PSoC6\pdl\drivers\peripheral\profile/cy_profile.c ****         cy_ep_ctrs[i].ctlRegVals.monSel = monitor;
 345              		.loc 1 204 0
 346 0076 2B78     		ldrb	r3, [r5]
 347 0078 6343     		muls	r3, r4
 348 007a F318     		adds	r3, r6, r3
 349 007c 1871     		strb	r0, [r3, #4]
 350              		.loc 1 205 0
 351 007e 2B78     		ldrb	r3, [r5]
 352 0080 6343     		muls	r3, r4
 353 0082 F318     		adds	r3, r6, r3
 354 0084 5A61     		str	r2, [r3, #20]
 206:Generated_Source\PSoC6\pdl\drivers\peripheral\profile/cy_profile.c ****         cy_ep_ctrs[i].weight = weight;
 355              		.loc 1 206 0
 356 0086 2B78     		ldrb	r3, [r5]
 357 0088 019A     		ldr	r2, [sp, #4]
 358 008a 6343     		muls	r3, r4
 359 008c F318     		adds	r3, r6, r3
 360 008e 9A61     		str	r2, [r3, #24]
 207:Generated_Source\PSoC6\pdl\drivers\peripheral\profile/cy_profile.c ****         /* Pass back the handle to (address of) the counter data structure */
 208:Generated_Source\PSoC6\pdl\drivers\peripheral\profile/cy_profile.c ****         retVal = &cy_ep_ctrs[i];
 209:Generated_Source\PSoC6\pdl\drivers\peripheral\profile/cy_profile.c ****         
 210:Generated_Source\PSoC6\pdl\drivers\peripheral\profile/cy_profile.c ****         /* Load the CTL register bitfields of the assigned counter. */
 211:Generated_Source\PSoC6\pdl\drivers\peripheral\profile/cy_profile.c ****         retVal->cntAddr->CTL =
 212:Generated_Source\PSoC6\pdl\drivers\peripheral\profile/cy_profile.c ****             _VAL2FLD(PROFILE_CNT_STRUCT_CTL_CNT_DURATION, retVal->ctlRegVals.cntDuration) |
 213:Generated_Source\PSoC6\pdl\drivers\peripheral\profile/cy_profile.c ****             _VAL2FLD(PROFILE_CNT_STRUCT_CTL_REF_CLK_SEL,  retVal->ctlRegVals.refClkSel)   |
 361              		.loc 1 213 0
 362 0090 7022     		movs	r2, #112
 208:Generated_Source\PSoC6\pdl\drivers\peripheral\profile/cy_profile.c ****         
 363              		.loc 1 208 0
 364 0092 2878     		ldrb	r0, [r5]
 365              	.LVL17:
 366 0094 4443     		muls	r4, r0
 367 0096 3619     		adds	r6, r6, r4
 368              	.LVL18:
 369              		.loc 1 213 0
 370 0098 F178     		ldrb	r1, [r6, #3]
ARM GAS  C:\Users\cmila\AppData\Local\Temp\cciWlBAf.s 			page 20


 371              	.LVL19:
 372 009a 3379     		ldrb	r3, [r6, #4]
 373 009c 0901     		lsls	r1, r1, #4
 374 009e 1140     		ands	r1, r2
 375 00a0 FE22     		movs	r2, #254
 376 00a2 1B04     		lsls	r3, r3, #16
 377 00a4 D203     		lsls	r2, r2, #15
 378 00a6 1340     		ands	r3, r2
 379 00a8 6246     		mov	r2, ip
 380 00aa 1943     		orrs	r1, r3
 381 00ac B378     		ldrb	r3, [r6, #2]
 211:Generated_Source\PSoC6\pdl\drivers\peripheral\profile/cy_profile.c ****             _VAL2FLD(PROFILE_CNT_STRUCT_CTL_CNT_DURATION, retVal->ctlRegVals.cntDuration) |
 382              		.loc 1 211 0
 383 00ae B068     		ldr	r0, [r6, #8]
 384              		.loc 1 213 0
 385 00b0 1A40     		ands	r2, r3
 386 00b2 0B00     		movs	r3, r1
 387 00b4 1343     		orrs	r3, r2
 211:Generated_Source\PSoC6\pdl\drivers\peripheral\profile/cy_profile.c ****             _VAL2FLD(PROFILE_CNT_STRUCT_CTL_CNT_DURATION, retVal->ctlRegVals.cntDuration) |
 388              		.loc 1 211 0
 389 00b6 0360     		str	r3, [r0]
 390              	.LVL20:
 391              	.L35:
 214:Generated_Source\PSoC6\pdl\drivers\peripheral\profile/cy_profile.c ****             _VAL2FLD(PROFILE_CNT_STRUCT_CTL_MON_SEL,      retVal->ctlRegVals.monSel);
 215:Generated_Source\PSoC6\pdl\drivers\peripheral\profile/cy_profile.c **** 
 216:Generated_Source\PSoC6\pdl\drivers\peripheral\profile/cy_profile.c ****     }
 217:Generated_Source\PSoC6\pdl\drivers\peripheral\profile/cy_profile.c ****     return (retVal);
 218:Generated_Source\PSoC6\pdl\drivers\peripheral\profile/cy_profile.c **** }
 392              		.loc 1 218 0
 393 00b8 3000     		movs	r0, r6
 394 00ba 05B0     		add	sp, sp, #20
 395              		@ sp needed
 396              	.LVL21:
 397 00bc F0BD     		pop	{r4, r5, r6, r7, pc}
 398              	.L41:
 399 00be C046     		.align	2
 400              	.L40:
 401 00c0 00000000 		.word	.LANCHOR0
 402 00c4 00082D40 		.word	1076692992
 403              		.cfi_endproc
 404              	.LFE54:
 405              		.size	Cy_Profile_ConfigureCounter, .-Cy_Profile_ConfigureCounter
 406              		.section	.text.Cy_Profile_FreeCounter,"ax",%progbits
 407              		.align	1
 408              		.global	Cy_Profile_FreeCounter
 409              		.code	16
 410              		.thumb_func
 411              		.type	Cy_Profile_FreeCounter, %function
 412              	Cy_Profile_FreeCounter:
 413              	.LFB55:
 219:Generated_Source\PSoC6\pdl\drivers\peripheral\profile/cy_profile.c **** 
 220:Generated_Source\PSoC6\pdl\drivers\peripheral\profile/cy_profile.c **** 
 221:Generated_Source\PSoC6\pdl\drivers\peripheral\profile/cy_profile.c **** /*******************************************************************************
 222:Generated_Source\PSoC6\pdl\drivers\peripheral\profile/cy_profile.c **** * Function Name: Cy_Profile_FreeCounter
 223:Generated_Source\PSoC6\pdl\drivers\peripheral\profile/cy_profile.c **** ****************************************************************************//**
 224:Generated_Source\PSoC6\pdl\drivers\peripheral\profile/cy_profile.c **** *
 225:Generated_Source\PSoC6\pdl\drivers\peripheral\profile/cy_profile.c **** * Frees up a counter from a previously-assigned monitor source.
ARM GAS  C:\Users\cmila\AppData\Local\Temp\cciWlBAf.s 			page 21


 226:Generated_Source\PSoC6\pdl\drivers\peripheral\profile/cy_profile.c **** *
 227:Generated_Source\PSoC6\pdl\drivers\peripheral\profile/cy_profile.c **** * \ref Cy_Profile_ConfigureCounter() must have been called for this counter
 228:Generated_Source\PSoC6\pdl\drivers\peripheral\profile/cy_profile.c **** * before calling this function.
 229:Generated_Source\PSoC6\pdl\drivers\peripheral\profile/cy_profile.c **** *
 230:Generated_Source\PSoC6\pdl\drivers\peripheral\profile/cy_profile.c **** * \param ctrAddr The handle to the assigned counter (returned by calling
 231:Generated_Source\PSoC6\pdl\drivers\peripheral\profile/cy_profile.c **** * \ref Cy_Profile_ConfigureCounter()).
 232:Generated_Source\PSoC6\pdl\drivers\peripheral\profile/cy_profile.c **** * 
 233:Generated_Source\PSoC6\pdl\drivers\peripheral\profile/cy_profile.c **** * \return 
 234:Generated_Source\PSoC6\pdl\drivers\peripheral\profile/cy_profile.c **** * Status of the operation.
 235:Generated_Source\PSoC6\pdl\drivers\peripheral\profile/cy_profile.c **** *
 236:Generated_Source\PSoC6\pdl\drivers\peripheral\profile/cy_profile.c **** * \note The counter is not disabled by this function.
 237:Generated_Source\PSoC6\pdl\drivers\peripheral\profile/cy_profile.c **** *
 238:Generated_Source\PSoC6\pdl\drivers\peripheral\profile/cy_profile.c **** * \funcusage
 239:Generated_Source\PSoC6\pdl\drivers\peripheral\profile/cy_profile.c **** * \snippet profile/profile_v1_0_sut_01.cydsn/main_cm4.c snippet_Cy_Profile_FreeCounter
 240:Generated_Source\PSoC6\pdl\drivers\peripheral\profile/cy_profile.c **** *
 241:Generated_Source\PSoC6\pdl\drivers\peripheral\profile/cy_profile.c **** *******************************************************************************/
 242:Generated_Source\PSoC6\pdl\drivers\peripheral\profile/cy_profile.c **** cy_en_profile_status_t Cy_Profile_FreeCounter(cy_stc_profile_ctr_ptr_t ctrAddr)
 243:Generated_Source\PSoC6\pdl\drivers\peripheral\profile/cy_profile.c **** {
 414              		.loc 1 243 0
 415              		.cfi_startproc
 416              		@ args = 0, pretend = 0, frame = 0
 417              		@ frame_needed = 0, uses_anonymous_args = 0
 418              	.LVL22:
 419 0000 10B5     		push	{r4, lr}
 420              		.cfi_def_cfa_offset 8
 421              		.cfi_offset 4, -8
 422              		.cfi_offset 14, -4
 423              		.loc 1 243 0
 424 0002 0400     		movs	r4, r0
 244:Generated_Source\PSoC6\pdl\drivers\peripheral\profile/cy_profile.c ****    cy_en_profile_status_t retStatus = CY_PROFILE_BAD_PARAM;
 245:Generated_Source\PSoC6\pdl\drivers\peripheral\profile/cy_profile.c ****    
 246:Generated_Source\PSoC6\pdl\drivers\peripheral\profile/cy_profile.c ****     retStatus = Cy_Profile_IsPtrValid(ctrAddr);
 425              		.loc 1 246 0
 426 0004 FFF7FEFF 		bl	Cy_Profile_IsPtrValid
 427              	.LVL23:
 247:Generated_Source\PSoC6\pdl\drivers\peripheral\profile/cy_profile.c ****     if (retStatus == CY_PROFILE_SUCCESS)
 428              		.loc 1 247 0
 429 0008 0028     		cmp	r0, #0
 430 000a 00D1     		bne	.L43
 248:Generated_Source\PSoC6\pdl\drivers\peripheral\profile/cy_profile.c ****     {
 249:Generated_Source\PSoC6\pdl\drivers\peripheral\profile/cy_profile.c ****         ctrAddr->used = 0u;
 431              		.loc 1 249 0
 432 000c 6070     		strb	r0, [r4, #1]
 433              	.L43:
 250:Generated_Source\PSoC6\pdl\drivers\peripheral\profile/cy_profile.c ****     }
 251:Generated_Source\PSoC6\pdl\drivers\peripheral\profile/cy_profile.c ****     return (retStatus);
 252:Generated_Source\PSoC6\pdl\drivers\peripheral\profile/cy_profile.c **** }
 434              		.loc 1 252 0
 435              		@ sp needed
 436              	.LVL24:
 437 000e 10BD     		pop	{r4, pc}
 438              		.cfi_endproc
 439              	.LFE55:
 440              		.size	Cy_Profile_FreeCounter, .-Cy_Profile_FreeCounter
 441              		.section	.text.Cy_Profile_EnableCounter,"ax",%progbits
 442              		.align	1
 443              		.global	Cy_Profile_EnableCounter
ARM GAS  C:\Users\cmila\AppData\Local\Temp\cciWlBAf.s 			page 22


 444              		.code	16
 445              		.thumb_func
 446              		.type	Cy_Profile_EnableCounter, %function
 447              	Cy_Profile_EnableCounter:
 448              	.LFB56:
 253:Generated_Source\PSoC6\pdl\drivers\peripheral\profile/cy_profile.c **** 
 254:Generated_Source\PSoC6\pdl\drivers\peripheral\profile/cy_profile.c **** 
 255:Generated_Source\PSoC6\pdl\drivers\peripheral\profile/cy_profile.c **** /*******************************************************************************
 256:Generated_Source\PSoC6\pdl\drivers\peripheral\profile/cy_profile.c **** * Function Name: Cy_Profile_EnableCounter
 257:Generated_Source\PSoC6\pdl\drivers\peripheral\profile/cy_profile.c **** ****************************************************************************//**
 258:Generated_Source\PSoC6\pdl\drivers\peripheral\profile/cy_profile.c **** *
 259:Generated_Source\PSoC6\pdl\drivers\peripheral\profile/cy_profile.c **** * Enables an assigned counter. 
 260:Generated_Source\PSoC6\pdl\drivers\peripheral\profile/cy_profile.c **** *
 261:Generated_Source\PSoC6\pdl\drivers\peripheral\profile/cy_profile.c **** * \ref Cy_Profile_ConfigureCounter() must have been called for this counter
 262:Generated_Source\PSoC6\pdl\drivers\peripheral\profile/cy_profile.c **** * before calling this function.
 263:Generated_Source\PSoC6\pdl\drivers\peripheral\profile/cy_profile.c **** *
 264:Generated_Source\PSoC6\pdl\drivers\peripheral\profile/cy_profile.c **** * \param ctrAddr The handle to the assigned counter, (returned by calling
 265:Generated_Source\PSoC6\pdl\drivers\peripheral\profile/cy_profile.c **** * \ref Cy_Profile_ConfigureCounter()).
 266:Generated_Source\PSoC6\pdl\drivers\peripheral\profile/cy_profile.c **** * 
 267:Generated_Source\PSoC6\pdl\drivers\peripheral\profile/cy_profile.c **** * \return 
 268:Generated_Source\PSoC6\pdl\drivers\peripheral\profile/cy_profile.c **** * Status of the operation.
 269:Generated_Source\PSoC6\pdl\drivers\peripheral\profile/cy_profile.c **** *
 270:Generated_Source\PSoC6\pdl\drivers\peripheral\profile/cy_profile.c **** * \funcusage
 271:Generated_Source\PSoC6\pdl\drivers\peripheral\profile/cy_profile.c **** * \snippet profile/profile_v1_0_sut_01.cydsn/main_cm4.c snippet_Cy_Profile_EnableCounter
 272:Generated_Source\PSoC6\pdl\drivers\peripheral\profile/cy_profile.c **** *
 273:Generated_Source\PSoC6\pdl\drivers\peripheral\profile/cy_profile.c **** *******************************************************************************/
 274:Generated_Source\PSoC6\pdl\drivers\peripheral\profile/cy_profile.c **** cy_en_profile_status_t Cy_Profile_EnableCounter(cy_stc_profile_ctr_ptr_t ctrAddr)
 275:Generated_Source\PSoC6\pdl\drivers\peripheral\profile/cy_profile.c **** {
 449              		.loc 1 275 0
 450              		.cfi_startproc
 451              		@ args = 0, pretend = 0, frame = 0
 452              		@ frame_needed = 0, uses_anonymous_args = 0
 453              	.LVL25:
 454 0000 70B5     		push	{r4, r5, r6, lr}
 455              		.cfi_def_cfa_offset 16
 456              		.cfi_offset 4, -16
 457              		.cfi_offset 5, -12
 458              		.cfi_offset 6, -8
 459              		.cfi_offset 14, -4
 460              		.loc 1 275 0
 461 0002 0400     		movs	r4, r0
 276:Generated_Source\PSoC6\pdl\drivers\peripheral\profile/cy_profile.c ****     cy_en_profile_status_t retStatus = Cy_Profile_IsPtrValid(ctrAddr);
 462              		.loc 1 276 0
 463 0004 FFF7FEFF 		bl	Cy_Profile_IsPtrValid
 464              	.LVL26:
 277:Generated_Source\PSoC6\pdl\drivers\peripheral\profile/cy_profile.c ****     
 278:Generated_Source\PSoC6\pdl\drivers\peripheral\profile/cy_profile.c ****     if (CY_PROFILE_SUCCESS == retStatus)
 465              		.loc 1 278 0
 466 0008 0028     		cmp	r0, #0
 467 000a 0ED1     		bne	.L45
 279:Generated_Source\PSoC6\pdl\drivers\peripheral\profile/cy_profile.c ****     {
 280:Generated_Source\PSoC6\pdl\drivers\peripheral\profile/cy_profile.c ****         /* set the ENABLED bit */
 281:Generated_Source\PSoC6\pdl\drivers\peripheral\profile/cy_profile.c ****         ctrAddr->cntAddr->CTL |= _VAL2FLD(PROFILE_CNT_STRUCT_CTL_ENABLED, 1UL);
 468              		.loc 1 281 0
 469 000c 8021     		movs	r1, #128
 470 000e A268     		ldr	r2, [r4, #8]
 471 0010 0906     		lsls	r1, r1, #24
ARM GAS  C:\Users\cmila\AppData\Local\Temp\cciWlBAf.s 			page 23


 472 0012 1368     		ldr	r3, [r2]
 282:Generated_Source\PSoC6\pdl\drivers\peripheral\profile/cy_profile.c ****         /* set the INTR_MASK bit for the counter being used */
 283:Generated_Source\PSoC6\pdl\drivers\peripheral\profile/cy_profile.c ****         PROFILE_INTR_MASK |= (1UL << (ctrAddr->ctrNum));
 473              		.loc 1 283 0
 474 0014 054D     		ldr	r5, .L46
 281:Generated_Source\PSoC6\pdl\drivers\peripheral\profile/cy_profile.c ****         /* set the INTR_MASK bit for the counter being used */
 475              		.loc 1 281 0
 476 0016 0B43     		orrs	r3, r1
 477 0018 1360     		str	r3, [r2]
 478              		.loc 1 283 0
 479 001a 0123     		movs	r3, #1
 480 001c F921     		movs	r1, #249
 481 001e 2478     		ldrb	r4, [r4]
 482              	.LVL27:
 483 0020 C900     		lsls	r1, r1, #3
 484 0022 A340     		lsls	r3, r3, r4
 485 0024 6A58     		ldr	r2, [r5, r1]
 486 0026 1343     		orrs	r3, r2
 487 0028 6B50     		str	r3, [r5, r1]
 488              	.L45:
 284:Generated_Source\PSoC6\pdl\drivers\peripheral\profile/cy_profile.c ****     }
 285:Generated_Source\PSoC6\pdl\drivers\peripheral\profile/cy_profile.c ****     
 286:Generated_Source\PSoC6\pdl\drivers\peripheral\profile/cy_profile.c ****     return (retStatus);
 287:Generated_Source\PSoC6\pdl\drivers\peripheral\profile/cy_profile.c **** }
 489              		.loc 1 287 0
 490              		@ sp needed
 491 002a 70BD     		pop	{r4, r5, r6, pc}
 492              	.L47:
 493              		.align	2
 494              	.L46:
 495 002c 00002D40 		.word	1076690944
 496              		.cfi_endproc
 497              	.LFE56:
 498              		.size	Cy_Profile_EnableCounter, .-Cy_Profile_EnableCounter
 499              		.section	.text.Cy_Profile_DisableCounter,"ax",%progbits
 500              		.align	1
 501              		.global	Cy_Profile_DisableCounter
 502              		.code	16
 503              		.thumb_func
 504              		.type	Cy_Profile_DisableCounter, %function
 505              	Cy_Profile_DisableCounter:
 506              	.LFB57:
 288:Generated_Source\PSoC6\pdl\drivers\peripheral\profile/cy_profile.c **** 
 289:Generated_Source\PSoC6\pdl\drivers\peripheral\profile/cy_profile.c **** 
 290:Generated_Source\PSoC6\pdl\drivers\peripheral\profile/cy_profile.c **** /*******************************************************************************
 291:Generated_Source\PSoC6\pdl\drivers\peripheral\profile/cy_profile.c **** * Function Name: Cy_Profile_DisableCounter
 292:Generated_Source\PSoC6\pdl\drivers\peripheral\profile/cy_profile.c **** ****************************************************************************//**
 293:Generated_Source\PSoC6\pdl\drivers\peripheral\profile/cy_profile.c **** *
 294:Generated_Source\PSoC6\pdl\drivers\peripheral\profile/cy_profile.c **** * Disables an assigned counter.
 295:Generated_Source\PSoC6\pdl\drivers\peripheral\profile/cy_profile.c **** *
 296:Generated_Source\PSoC6\pdl\drivers\peripheral\profile/cy_profile.c **** * \ref Cy_Profile_ConfigureCounter() must have been called for this counter
 297:Generated_Source\PSoC6\pdl\drivers\peripheral\profile/cy_profile.c **** * before calling this function.
 298:Generated_Source\PSoC6\pdl\drivers\peripheral\profile/cy_profile.c **** *
 299:Generated_Source\PSoC6\pdl\drivers\peripheral\profile/cy_profile.c **** * \param ctrAddr The handle to the assigned counter, (returned by calling
 300:Generated_Source\PSoC6\pdl\drivers\peripheral\profile/cy_profile.c **** * \ref Cy_Profile_ConfigureCounter()).
 301:Generated_Source\PSoC6\pdl\drivers\peripheral\profile/cy_profile.c **** * 
 302:Generated_Source\PSoC6\pdl\drivers\peripheral\profile/cy_profile.c **** * \return 
ARM GAS  C:\Users\cmila\AppData\Local\Temp\cciWlBAf.s 			page 24


 303:Generated_Source\PSoC6\pdl\drivers\peripheral\profile/cy_profile.c **** * Status of the operation.
 304:Generated_Source\PSoC6\pdl\drivers\peripheral\profile/cy_profile.c **** *
 305:Generated_Source\PSoC6\pdl\drivers\peripheral\profile/cy_profile.c **** * \funcusage
 306:Generated_Source\PSoC6\pdl\drivers\peripheral\profile/cy_profile.c **** * \snippet profile/profile_v1_0_sut_01.cydsn/main_cm4.c snippet_Cy_Profile_DisableCounter
 307:Generated_Source\PSoC6\pdl\drivers\peripheral\profile/cy_profile.c **** *
 308:Generated_Source\PSoC6\pdl\drivers\peripheral\profile/cy_profile.c **** *******************************************************************************/
 309:Generated_Source\PSoC6\pdl\drivers\peripheral\profile/cy_profile.c **** cy_en_profile_status_t Cy_Profile_DisableCounter(cy_stc_profile_ctr_ptr_t ctrAddr)
 310:Generated_Source\PSoC6\pdl\drivers\peripheral\profile/cy_profile.c **** {
 507              		.loc 1 310 0
 508              		.cfi_startproc
 509              		@ args = 0, pretend = 0, frame = 0
 510              		@ frame_needed = 0, uses_anonymous_args = 0
 511              	.LVL28:
 512 0000 70B5     		push	{r4, r5, r6, lr}
 513              		.cfi_def_cfa_offset 16
 514              		.cfi_offset 4, -16
 515              		.cfi_offset 5, -12
 516              		.cfi_offset 6, -8
 517              		.cfi_offset 14, -4
 518              		.loc 1 310 0
 519 0002 0400     		movs	r4, r0
 311:Generated_Source\PSoC6\pdl\drivers\peripheral\profile/cy_profile.c ****     cy_en_profile_status_t retStatus = Cy_Profile_IsPtrValid(ctrAddr);
 520              		.loc 1 311 0
 521 0004 FFF7FEFF 		bl	Cy_Profile_IsPtrValid
 522              	.LVL29:
 312:Generated_Source\PSoC6\pdl\drivers\peripheral\profile/cy_profile.c ****     
 313:Generated_Source\PSoC6\pdl\drivers\peripheral\profile/cy_profile.c ****     if (CY_PROFILE_SUCCESS == retStatus)
 523              		.loc 1 313 0
 524 0008 0028     		cmp	r0, #0
 525 000a 0DD1     		bne	.L49
 314:Generated_Source\PSoC6\pdl\drivers\peripheral\profile/cy_profile.c ****     {
 315:Generated_Source\PSoC6\pdl\drivers\peripheral\profile/cy_profile.c ****         /* clear the ENABLED bit */
 316:Generated_Source\PSoC6\pdl\drivers\peripheral\profile/cy_profile.c ****         ctrAddr->cntAddr->CTL &= ~(_VAL2FLD(PROFILE_CNT_STRUCT_CTL_ENABLED, 1UL));
 526              		.loc 1 316 0
 527 000c A268     		ldr	r2, [r4, #8]
 317:Generated_Source\PSoC6\pdl\drivers\peripheral\profile/cy_profile.c ****         /* clear the INTR_MASK bit for the counter being used */
 318:Generated_Source\PSoC6\pdl\drivers\peripheral\profile/cy_profile.c ****         PROFILE_INTR_MASK &= ~(1UL << (ctrAddr->ctrNum));
 528              		.loc 1 318 0
 529 000e F921     		movs	r1, #249
 316:Generated_Source\PSoC6\pdl\drivers\peripheral\profile/cy_profile.c ****         /* clear the INTR_MASK bit for the counter being used */
 530              		.loc 1 316 0
 531 0010 1368     		ldr	r3, [r2]
 532              		.loc 1 318 0
 533 0012 064D     		ldr	r5, .L50
 316:Generated_Source\PSoC6\pdl\drivers\peripheral\profile/cy_profile.c ****         /* clear the INTR_MASK bit for the counter being used */
 534              		.loc 1 316 0
 535 0014 5B00     		lsls	r3, r3, #1
 536 0016 5B08     		lsrs	r3, r3, #1
 537 0018 1360     		str	r3, [r2]
 538              		.loc 1 318 0
 539 001a 0122     		movs	r2, #1
 540 001c 2478     		ldrb	r4, [r4]
 541              	.LVL30:
 542 001e C900     		lsls	r1, r1, #3
 543 0020 A240     		lsls	r2, r2, r4
 544 0022 6B58     		ldr	r3, [r5, r1]
 545 0024 9343     		bics	r3, r2
ARM GAS  C:\Users\cmila\AppData\Local\Temp\cciWlBAf.s 			page 25


 546 0026 6B50     		str	r3, [r5, r1]
 547              	.L49:
 319:Generated_Source\PSoC6\pdl\drivers\peripheral\profile/cy_profile.c ****     }
 320:Generated_Source\PSoC6\pdl\drivers\peripheral\profile/cy_profile.c ****     
 321:Generated_Source\PSoC6\pdl\drivers\peripheral\profile/cy_profile.c ****     return (retStatus);
 322:Generated_Source\PSoC6\pdl\drivers\peripheral\profile/cy_profile.c **** }
 548              		.loc 1 322 0
 549              		@ sp needed
 550 0028 70BD     		pop	{r4, r5, r6, pc}
 551              	.L51:
 552 002a C046     		.align	2
 553              	.L50:
 554 002c 00002D40 		.word	1076690944
 555              		.cfi_endproc
 556              	.LFE57:
 557              		.size	Cy_Profile_DisableCounter, .-Cy_Profile_DisableCounter
 558              		.section	.text.Cy_Profile_GetRawCount,"ax",%progbits
 559              		.align	1
 560              		.global	Cy_Profile_GetRawCount
 561              		.code	16
 562              		.thumb_func
 563              		.type	Cy_Profile_GetRawCount, %function
 564              	Cy_Profile_GetRawCount:
 565              	.LFB58:
 323:Generated_Source\PSoC6\pdl\drivers\peripheral\profile/cy_profile.c **** 
 324:Generated_Source\PSoC6\pdl\drivers\peripheral\profile/cy_profile.c **** 
 325:Generated_Source\PSoC6\pdl\drivers\peripheral\profile/cy_profile.c **** /* ========================================================================== */
 326:Generated_Source\PSoC6\pdl\drivers\peripheral\profile/cy_profile.c **** /* ==================    CALCULATION FUNCTIONS SECTION    =================== */
 327:Generated_Source\PSoC6\pdl\drivers\peripheral\profile/cy_profile.c **** /* ========================================================================== */
 328:Generated_Source\PSoC6\pdl\drivers\peripheral\profile/cy_profile.c **** /*******************************************************************************
 329:Generated_Source\PSoC6\pdl\drivers\peripheral\profile/cy_profile.c **** * Function Name: Cy_Profile_GetRawCount
 330:Generated_Source\PSoC6\pdl\drivers\peripheral\profile/cy_profile.c **** ****************************************************************************//**
 331:Generated_Source\PSoC6\pdl\drivers\peripheral\profile/cy_profile.c **** *
 332:Generated_Source\PSoC6\pdl\drivers\peripheral\profile/cy_profile.c **** * Reports the raw count value for a specified counter.
 333:Generated_Source\PSoC6\pdl\drivers\peripheral\profile/cy_profile.c **** *
 334:Generated_Source\PSoC6\pdl\drivers\peripheral\profile/cy_profile.c **** * \param ctrAddr The handle to the assigned counter, (returned by calling
 335:Generated_Source\PSoC6\pdl\drivers\peripheral\profile/cy_profile.c **** * \ref Cy_Profile_ConfigureCounter()).
 336:Generated_Source\PSoC6\pdl\drivers\peripheral\profile/cy_profile.c **** *
 337:Generated_Source\PSoC6\pdl\drivers\peripheral\profile/cy_profile.c **** * \param result Output parameter used to write in the result.
 338:Generated_Source\PSoC6\pdl\drivers\peripheral\profile/cy_profile.c **** * 
 339:Generated_Source\PSoC6\pdl\drivers\peripheral\profile/cy_profile.c **** * \return 
 340:Generated_Source\PSoC6\pdl\drivers\peripheral\profile/cy_profile.c **** * Status of the operation.
 341:Generated_Source\PSoC6\pdl\drivers\peripheral\profile/cy_profile.c **** *
 342:Generated_Source\PSoC6\pdl\drivers\peripheral\profile/cy_profile.c **** * \funcusage
 343:Generated_Source\PSoC6\pdl\drivers\peripheral\profile/cy_profile.c **** * \snippet profile/profile_v1_0_sut_01.cydsn/main_cm4.c snippet_Cy_Profile_GetRawCount
 344:Generated_Source\PSoC6\pdl\drivers\peripheral\profile/cy_profile.c **** *
 345:Generated_Source\PSoC6\pdl\drivers\peripheral\profile/cy_profile.c **** *******************************************************************************/
 346:Generated_Source\PSoC6\pdl\drivers\peripheral\profile/cy_profile.c **** cy_en_profile_status_t Cy_Profile_GetRawCount(cy_stc_profile_ctr_ptr_t ctrAddr, uint64_t *result)
 347:Generated_Source\PSoC6\pdl\drivers\peripheral\profile/cy_profile.c **** {
 566              		.loc 1 347 0
 567              		.cfi_startproc
 568              		@ args = 0, pretend = 0, frame = 0
 569              		@ frame_needed = 0, uses_anonymous_args = 0
 570              	.LVL31:
 571 0000 70B5     		push	{r4, r5, r6, lr}
 572              		.cfi_def_cfa_offset 16
 573              		.cfi_offset 4, -16
ARM GAS  C:\Users\cmila\AppData\Local\Temp\cciWlBAf.s 			page 26


 574              		.cfi_offset 5, -12
 575              		.cfi_offset 6, -8
 576              		.cfi_offset 14, -4
 577              		.loc 1 347 0
 578 0002 0D00     		movs	r5, r1
 579 0004 0400     		movs	r4, r0
 348:Generated_Source\PSoC6\pdl\drivers\peripheral\profile/cy_profile.c ****     cy_en_profile_status_t retStatus = Cy_Profile_IsPtrValid(ctrAddr);
 580              		.loc 1 348 0
 581 0006 FFF7FEFF 		bl	Cy_Profile_IsPtrValid
 582              	.LVL32:
 349:Generated_Source\PSoC6\pdl\drivers\peripheral\profile/cy_profile.c ****     
 350:Generated_Source\PSoC6\pdl\drivers\peripheral\profile/cy_profile.c ****     if ((result != NULL) && (CY_PROFILE_SUCCESS == retStatus))
 583              		.loc 1 350 0
 584 000a 002D     		cmp	r5, #0
 585 000c 09D0     		beq	.L53
 586              		.loc 1 350 0 is_stmt 0 discriminator 1
 587 000e 0028     		cmp	r0, #0
 588 0010 07D1     		bne	.L53
 589              	.LVL33:
 590              	.LBB8:
 591              	.LBB9:
 351:Generated_Source\PSoC6\pdl\drivers\peripheral\profile/cy_profile.c ****     {
 352:Generated_Source\PSoC6\pdl\drivers\peripheral\profile/cy_profile.c ****         /* read the counter control register, and the counter current value */
 353:Generated_Source\PSoC6\pdl\drivers\peripheral\profile/cy_profile.c ****         ctrAddr->ctlReg = ctrAddr->cntAddr->CTL;
 592              		.loc 1 353 0 is_stmt 1
 593 0012 A368     		ldr	r3, [r4, #8]
 594 0014 1A68     		ldr	r2, [r3]
 354:Generated_Source\PSoC6\pdl\drivers\peripheral\profile/cy_profile.c ****         ctrAddr->cntReg = ctrAddr->cntAddr->CNT;
 595              		.loc 1 354 0
 596 0016 9B68     		ldr	r3, [r3, #8]
 353:Generated_Source\PSoC6\pdl\drivers\peripheral\profile/cy_profile.c ****         ctrAddr->cntReg = ctrAddr->cntAddr->CNT;
 597              		.loc 1 353 0
 598 0018 E260     		str	r2, [r4, #12]
 355:Generated_Source\PSoC6\pdl\drivers\peripheral\profile/cy_profile.c **** 
 356:Generated_Source\PSoC6\pdl\drivers\peripheral\profile/cy_profile.c ****         /* report the count with overflow */
 357:Generated_Source\PSoC6\pdl\drivers\peripheral\profile/cy_profile.c ****         *result = ((uint64_t)(ctrAddr->overflow) << 32) | (uint64_t)(ctrAddr->cntReg);
 599              		.loc 1 357 0
 600 001a 6269     		ldr	r2, [r4, #20]
 354:Generated_Source\PSoC6\pdl\drivers\peripheral\profile/cy_profile.c **** 
 601              		.loc 1 354 0
 602 001c 2361     		str	r3, [r4, #16]
 603              		.loc 1 357 0
 604 001e 6A60     		str	r2, [r5, #4]
 605 0020 2B60     		str	r3, [r5]
 606              	.LVL34:
 607              	.L53:
 608              	.LBE9:
 609              	.LBE8:
 358:Generated_Source\PSoC6\pdl\drivers\peripheral\profile/cy_profile.c ****     }
 359:Generated_Source\PSoC6\pdl\drivers\peripheral\profile/cy_profile.c ****     
 360:Generated_Source\PSoC6\pdl\drivers\peripheral\profile/cy_profile.c ****     return (retStatus);
 361:Generated_Source\PSoC6\pdl\drivers\peripheral\profile/cy_profile.c **** }
 610              		.loc 1 361 0
 611              		@ sp needed
 612              	.LVL35:
 613              	.LVL36:
 614 0022 70BD     		pop	{r4, r5, r6, pc}
ARM GAS  C:\Users\cmila\AppData\Local\Temp\cciWlBAf.s 			page 27


 615              		.cfi_endproc
 616              	.LFE58:
 617              		.size	Cy_Profile_GetRawCount, .-Cy_Profile_GetRawCount
 618              		.global	__aeabi_lmul
 619              		.section	.text.Cy_Profile_GetWeightedCount,"ax",%progbits
 620              		.align	1
 621              		.global	Cy_Profile_GetWeightedCount
 622              		.code	16
 623              		.thumb_func
 624              		.type	Cy_Profile_GetWeightedCount, %function
 625              	Cy_Profile_GetWeightedCount:
 626              	.LFB59:
 362:Generated_Source\PSoC6\pdl\drivers\peripheral\profile/cy_profile.c **** 
 363:Generated_Source\PSoC6\pdl\drivers\peripheral\profile/cy_profile.c **** /*******************************************************************************
 364:Generated_Source\PSoC6\pdl\drivers\peripheral\profile/cy_profile.c **** * Function Name: Cy_Profile_GetWeightedCount
 365:Generated_Source\PSoC6\pdl\drivers\peripheral\profile/cy_profile.c **** ****************************************************************************//**
 366:Generated_Source\PSoC6\pdl\drivers\peripheral\profile/cy_profile.c **** *
 367:Generated_Source\PSoC6\pdl\drivers\peripheral\profile/cy_profile.c **** * Reports the count value for a specified counter, multiplied by the weight
 368:Generated_Source\PSoC6\pdl\drivers\peripheral\profile/cy_profile.c **** * factor for that counter.
 369:Generated_Source\PSoC6\pdl\drivers\peripheral\profile/cy_profile.c **** *
 370:Generated_Source\PSoC6\pdl\drivers\peripheral\profile/cy_profile.c **** * \param ctrAddr The handle to the assigned counter, (returned by calling
 371:Generated_Source\PSoC6\pdl\drivers\peripheral\profile/cy_profile.c **** * \ref Cy_Profile_ConfigureCounter()).
 372:Generated_Source\PSoC6\pdl\drivers\peripheral\profile/cy_profile.c **** *
 373:Generated_Source\PSoC6\pdl\drivers\peripheral\profile/cy_profile.c **** * \param result Output parameter used to write in the result.
 374:Generated_Source\PSoC6\pdl\drivers\peripheral\profile/cy_profile.c **** * 
 375:Generated_Source\PSoC6\pdl\drivers\peripheral\profile/cy_profile.c **** * \return 
 376:Generated_Source\PSoC6\pdl\drivers\peripheral\profile/cy_profile.c **** * Status of the operation.
 377:Generated_Source\PSoC6\pdl\drivers\peripheral\profile/cy_profile.c **** *
 378:Generated_Source\PSoC6\pdl\drivers\peripheral\profile/cy_profile.c **** * \funcusage
 379:Generated_Source\PSoC6\pdl\drivers\peripheral\profile/cy_profile.c **** * \snippet profile/profile_v1_0_sut_01.cydsn/main_cm4.c snippet_Cy_Profile_GetWeightedCount
 380:Generated_Source\PSoC6\pdl\drivers\peripheral\profile/cy_profile.c **** *
 381:Generated_Source\PSoC6\pdl\drivers\peripheral\profile/cy_profile.c **** *******************************************************************************/
 382:Generated_Source\PSoC6\pdl\drivers\peripheral\profile/cy_profile.c **** cy_en_profile_status_t Cy_Profile_GetWeightedCount(cy_stc_profile_ctr_ptr_t ctrAddr, uint64_t *resu
 383:Generated_Source\PSoC6\pdl\drivers\peripheral\profile/cy_profile.c **** {
 627              		.loc 1 383 0
 628              		.cfi_startproc
 629              		@ args = 0, pretend = 0, frame = 8
 630              		@ frame_needed = 0, uses_anonymous_args = 0
 631              	.LVL37:
 632 0000 73B5     		push	{r0, r1, r4, r5, r6, lr}
 633              		.cfi_def_cfa_offset 24
 634              		.cfi_offset 0, -24
 635              		.cfi_offset 1, -20
 636              		.cfi_offset 4, -16
 637              		.cfi_offset 5, -12
 638              		.cfi_offset 6, -8
 639              		.cfi_offset 14, -4
 640              		.loc 1 383 0
 641 0002 0D00     		movs	r5, r1
 384:Generated_Source\PSoC6\pdl\drivers\peripheral\profile/cy_profile.c ****     uint64_t temp;
 385:Generated_Source\PSoC6\pdl\drivers\peripheral\profile/cy_profile.c ****     cy_en_profile_status_t retStatus = Cy_Profile_GetRawCount(ctrAddr, &temp);
 642              		.loc 1 385 0
 643 0004 6946     		mov	r1, sp
 644              	.LVL38:
 383:Generated_Source\PSoC6\pdl\drivers\peripheral\profile/cy_profile.c ****     uint64_t temp;
 645              		.loc 1 383 0
 646 0006 0600     		movs	r6, r0
ARM GAS  C:\Users\cmila\AppData\Local\Temp\cciWlBAf.s 			page 28


 647              		.loc 1 385 0
 648 0008 FFF7FEFF 		bl	Cy_Profile_GetRawCount
 649              	.LVL39:
 650 000c 0400     		movs	r4, r0
 651              	.LVL40:
 386:Generated_Source\PSoC6\pdl\drivers\peripheral\profile/cy_profile.c ****     
 387:Generated_Source\PSoC6\pdl\drivers\peripheral\profile/cy_profile.c ****     if ((result != NULL) && (CY_PROFILE_SUCCESS == retStatus))
 652              		.loc 1 387 0
 653 000e 002D     		cmp	r5, #0
 654 0010 09D0     		beq	.L58
 655              		.loc 1 387 0 is_stmt 0 discriminator 1
 656 0012 0028     		cmp	r0, #0
 657 0014 07D1     		bne	.L58
 388:Generated_Source\PSoC6\pdl\drivers\peripheral\profile/cy_profile.c ****     {
 389:Generated_Source\PSoC6\pdl\drivers\peripheral\profile/cy_profile.c ****         /* calculate weighted count */
 390:Generated_Source\PSoC6\pdl\drivers\peripheral\profile/cy_profile.c ****         *result = temp * (uint64_t)(ctrAddr->weight);
 658              		.loc 1 390 0 is_stmt 1
 659 0016 B269     		ldr	r2, [r6, #24]
 660 0018 0300     		movs	r3, r0
 661 001a 0098     		ldr	r0, [sp]
 662 001c 0199     		ldr	r1, [sp, #4]
 663              	.LVL41:
 664 001e FFF7FEFF 		bl	__aeabi_lmul
 665              	.LVL42:
 666 0022 2860     		str	r0, [r5]
 667 0024 6960     		str	r1, [r5, #4]
 668              	.L58:
 391:Generated_Source\PSoC6\pdl\drivers\peripheral\profile/cy_profile.c ****     }
 392:Generated_Source\PSoC6\pdl\drivers\peripheral\profile/cy_profile.c ****     
 393:Generated_Source\PSoC6\pdl\drivers\peripheral\profile/cy_profile.c ****     return (retStatus);
 394:Generated_Source\PSoC6\pdl\drivers\peripheral\profile/cy_profile.c **** }
 669              		.loc 1 394 0
 670 0026 2000     		movs	r0, r4
 671              		@ sp needed
 672              	.LVL43:
 673              	.LVL44:
 674              	.LVL45:
 675 0028 76BD     		pop	{r1, r2, r4, r5, r6, pc}
 676              		.cfi_endproc
 677              	.LFE59:
 678              		.size	Cy_Profile_GetWeightedCount, .-Cy_Profile_GetWeightedCount
 679              		.section	.text.Cy_Profile_GetSumWeightedCounts,"ax",%progbits
 680              		.align	1
 681              		.global	Cy_Profile_GetSumWeightedCounts
 682              		.code	16
 683              		.thumb_func
 684              		.type	Cy_Profile_GetSumWeightedCounts, %function
 685              	Cy_Profile_GetSumWeightedCounts:
 686              	.LFB60:
 395:Generated_Source\PSoC6\pdl\drivers\peripheral\profile/cy_profile.c **** 
 396:Generated_Source\PSoC6\pdl\drivers\peripheral\profile/cy_profile.c **** /*******************************************************************************
 397:Generated_Source\PSoC6\pdl\drivers\peripheral\profile/cy_profile.c **** * Function Name: Cy_Profile_GetSumWeightedCounts
 398:Generated_Source\PSoC6\pdl\drivers\peripheral\profile/cy_profile.c **** ****************************************************************************//**
 399:Generated_Source\PSoC6\pdl\drivers\peripheral\profile/cy_profile.c **** *
 400:Generated_Source\PSoC6\pdl\drivers\peripheral\profile/cy_profile.c **** * Reports the weighted sum result of the first n number of counter count values
 401:Generated_Source\PSoC6\pdl\drivers\peripheral\profile/cy_profile.c **** * starting from the specified profile counter data structure base address.
 402:Generated_Source\PSoC6\pdl\drivers\peripheral\profile/cy_profile.c **** *
ARM GAS  C:\Users\cmila\AppData\Local\Temp\cciWlBAf.s 			page 29


 403:Generated_Source\PSoC6\pdl\drivers\peripheral\profile/cy_profile.c **** * Each count value is multiplied by its weighing factor before the summing
 404:Generated_Source\PSoC6\pdl\drivers\peripheral\profile/cy_profile.c **** * operation is performed.
 405:Generated_Source\PSoC6\pdl\drivers\peripheral\profile/cy_profile.c **** *
 406:Generated_Source\PSoC6\pdl\drivers\peripheral\profile/cy_profile.c **** * \param ptrsArray Base address of the profile counter data structure
 407:Generated_Source\PSoC6\pdl\drivers\peripheral\profile/cy_profile.c **** *
 408:Generated_Source\PSoC6\pdl\drivers\peripheral\profile/cy_profile.c **** * \param numCounters Number of measured counters in ptrsArray[]
 409:Generated_Source\PSoC6\pdl\drivers\peripheral\profile/cy_profile.c **** *
 410:Generated_Source\PSoC6\pdl\drivers\peripheral\profile/cy_profile.c **** * \return
 411:Generated_Source\PSoC6\pdl\drivers\peripheral\profile/cy_profile.c **** * The weighted sum of the specified counters
 412:Generated_Source\PSoC6\pdl\drivers\peripheral\profile/cy_profile.c **** *
 413:Generated_Source\PSoC6\pdl\drivers\peripheral\profile/cy_profile.c **** * \funcusage
 414:Generated_Source\PSoC6\pdl\drivers\peripheral\profile/cy_profile.c **** * \snippet profile/profile_v1_0_sut_01.cydsn/main_cm4.c snippet_Cy_Profile_GetSumWeightedCounts
 415:Generated_Source\PSoC6\pdl\drivers\peripheral\profile/cy_profile.c **** *
 416:Generated_Source\PSoC6\pdl\drivers\peripheral\profile/cy_profile.c **** *******************************************************************************/
 417:Generated_Source\PSoC6\pdl\drivers\peripheral\profile/cy_profile.c **** uint64_t Cy_Profile_GetSumWeightedCounts(cy_stc_profile_ctr_ptr_t ptrsArray[],
 418:Generated_Source\PSoC6\pdl\drivers\peripheral\profile/cy_profile.c ****                                     uint32_t numCounters)
 419:Generated_Source\PSoC6\pdl\drivers\peripheral\profile/cy_profile.c **** {
 687              		.loc 1 419 0
 688              		.cfi_startproc
 689              		@ args = 0, pretend = 0, frame = 16
 690              		@ frame_needed = 0, uses_anonymous_args = 0
 691              	.LVL46:
 692 0000 F0B5     		push	{r4, r5, r6, r7, lr}
 693              		.cfi_def_cfa_offset 20
 694              		.cfi_offset 4, -20
 695              		.cfi_offset 5, -16
 696              		.cfi_offset 6, -12
 697              		.cfi_offset 7, -8
 698              		.cfi_offset 14, -4
 699 0002 85B0     		sub	sp, sp, #20
 700              		.cfi_def_cfa_offset 40
 701              		.loc 1 419 0
 702 0004 0700     		movs	r7, r0
 703 0006 0191     		str	r1, [sp, #4]
 420:Generated_Source\PSoC6\pdl\drivers\peripheral\profile/cy_profile.c ****     uint64_t daSum = (uint64_t)0UL;
 704              		.loc 1 420 0
 705 0008 0024     		movs	r4, #0
 706 000a 0025     		movs	r5, #0
 707 000c 0026     		movs	r6, #0
 421:Generated_Source\PSoC6\pdl\drivers\peripheral\profile/cy_profile.c ****     
 422:Generated_Source\PSoC6\pdl\drivers\peripheral\profile/cy_profile.c ****     CY_ASSERT_L2(CY_PROFILE_IS_CNT_VALID(numCounters));
 423:Generated_Source\PSoC6\pdl\drivers\peripheral\profile/cy_profile.c ****     
 424:Generated_Source\PSoC6\pdl\drivers\peripheral\profile/cy_profile.c ****     if(ptrsArray != NULL)
 708              		.loc 1 424 0
 709 000e 0028     		cmp	r0, #0
 710 0010 0FD0     		beq	.L63
 711              	.LVL47:
 712              	.L64:
 713              	.LBB10:
 425:Generated_Source\PSoC6\pdl\drivers\peripheral\profile/cy_profile.c ****     {
 426:Generated_Source\PSoC6\pdl\drivers\peripheral\profile/cy_profile.c ****         uint64_t num;
 427:Generated_Source\PSoC6\pdl\drivers\peripheral\profile/cy_profile.c ****         uint32_t i;
 428:Generated_Source\PSoC6\pdl\drivers\peripheral\profile/cy_profile.c **** 
 429:Generated_Source\PSoC6\pdl\drivers\peripheral\profile/cy_profile.c ****         for (i = 0UL; i < numCounters; i++)
 714              		.loc 1 429 0 discriminator 1
 715 0012 019B     		ldr	r3, [sp, #4]
 716 0014 9E42     		cmp	r6, r3
ARM GAS  C:\Users\cmila\AppData\Local\Temp\cciWlBAf.s 			page 30


 717 0016 0CD0     		beq	.L63
 430:Generated_Source\PSoC6\pdl\drivers\peripheral\profile/cy_profile.c ****         {
 431:Generated_Source\PSoC6\pdl\drivers\peripheral\profile/cy_profile.c ****             /* ignore error reported by Ep_GetWeightedCount() */
 432:Generated_Source\PSoC6\pdl\drivers\peripheral\profile/cy_profile.c ****             if (CY_PROFILE_SUCCESS == Cy_Profile_GetWeightedCount(ptrsArray[i], &num))
 718              		.loc 1 432 0
 719 0018 B300     		lsls	r3, r6, #2
 720 001a 02A9     		add	r1, sp, #8
 721 001c F858     		ldr	r0, [r7, r3]
 722 001e FFF7FEFF 		bl	Cy_Profile_GetWeightedCount
 723              	.LVL48:
 724 0022 0028     		cmp	r0, #0
 725 0024 03D1     		bne	.L65
 433:Generated_Source\PSoC6\pdl\drivers\peripheral\profile/cy_profile.c ****             {
 434:Generated_Source\PSoC6\pdl\drivers\peripheral\profile/cy_profile.c ****                 daSum += num;
 726              		.loc 1 434 0
 727 0026 029A     		ldr	r2, [sp, #8]
 728 0028 039B     		ldr	r3, [sp, #12]
 729 002a A418     		adds	r4, r4, r2
 730 002c 5D41     		adcs	r5, r5, r3
 731              	.LVL49:
 732              	.L65:
 429:Generated_Source\PSoC6\pdl\drivers\peripheral\profile/cy_profile.c ****         {
 733              		.loc 1 429 0 discriminator 2
 734 002e 0136     		adds	r6, r6, #1
 735              	.LVL50:
 736 0030 EFE7     		b	.L64
 737              	.LVL51:
 738              	.L63:
 739              	.LBE10:
 435:Generated_Source\PSoC6\pdl\drivers\peripheral\profile/cy_profile.c ****             }
 436:Generated_Source\PSoC6\pdl\drivers\peripheral\profile/cy_profile.c ****         }
 437:Generated_Source\PSoC6\pdl\drivers\peripheral\profile/cy_profile.c ****     }
 438:Generated_Source\PSoC6\pdl\drivers\peripheral\profile/cy_profile.c ****     
 439:Generated_Source\PSoC6\pdl\drivers\peripheral\profile/cy_profile.c ****     return (daSum);
 440:Generated_Source\PSoC6\pdl\drivers\peripheral\profile/cy_profile.c **** }
 740              		.loc 1 440 0
 741 0032 2000     		movs	r0, r4
 742 0034 2900     		movs	r1, r5
 743 0036 05B0     		add	sp, sp, #20
 744              		@ sp needed
 745              	.LVL52:
 746              	.LVL53:
 747 0038 F0BD     		pop	{r4, r5, r6, r7, pc}
 748              		.cfi_endproc
 749              	.LFE60:
 750              		.size	Cy_Profile_GetSumWeightedCounts, .-Cy_Profile_GetSumWeightedCounts
 751              		.bss
 752              		.align	2
 753              		.set	.LANCHOR0,. + 0
 754              		.type	cy_ep_ctrs, %object
 755              		.size	cy_ep_ctrs, 224
 756              	cy_ep_ctrs:
 757 0000 00000000 		.space	224
 757      00000000 
 757      00000000 
 757      00000000 
 757      00000000 
ARM GAS  C:\Users\cmila\AppData\Local\Temp\cciWlBAf.s 			page 31


 758              		.text
 759              	.Letext0:
 760              		.file 3 "c:\\program files (x86)\\cypress\\psoc creator\\4.4\\psoc creator\\import\\gnu\\arm\\5.4.
 761              		.file 4 "c:\\program files (x86)\\cypress\\psoc creator\\4.4\\psoc creator\\import\\gnu\\arm\\5.4.
 762              		.file 5 "Generated_Source\\PSoC6\\pdl\\devices/psoc6/include/ip/cyip_profile.h"
 763              		.file 6 "Generated_Source\\PSoC6\\pdl\\devices/psoc6/include/psoc6_01_config.h"