ARM GAS  C:\Users\cmila\AppData\Local\Temp\cc5u2CXQ.s 			page 1


   1              		.syntax unified
   2              		.cpu cortex-m0plus
   3              		.fpu softvfp
   4              		.eabi_attribute 20, 1
   5              		.eabi_attribute 21, 1
   6              		.eabi_attribute 23, 3
   7              		.eabi_attribute 24, 1
   8              		.eabi_attribute 25, 1
   9              		.eabi_attribute 26, 1
  10              		.eabi_attribute 30, 4
  11              		.eabi_attribute 34, 0
  12              		.eabi_attribute 18, 4
  13              		.thumb
  14              		.syntax unified
  15              		.file	"cy_sysclk.c"
  16              		.text
  17              	.Ltext0:
  18              		.cfi_sections	.debug_frame
  19              		.global	__aeabi_uidiv
  20              		.section	.text.Cy_SysClk_EcoConfigure,"ax",%progbits
  21              		.align	1
  22              		.global	Cy_SysClk_EcoConfigure
  23              		.code	16
  24              		.thumb_func
  25              		.type	Cy_SysClk_EcoConfigure, %function
  26              	Cy_SysClk_EcoConfigure:
  27              	.LFB158:
  28              		.file 1 "Generated_Source\\PSoC6\\pdl\\drivers\\peripheral\\sysclk\\cy_sysclk.c"
   1:Generated_Source\PSoC6\pdl\drivers\peripheral\sysclk/cy_sysclk.c **** /***************************************************************************//**
   2:Generated_Source\PSoC6\pdl\drivers\peripheral\sysclk/cy_sysclk.c **** * \file cy_sysclk.c
   3:Generated_Source\PSoC6\pdl\drivers\peripheral\sysclk/cy_sysclk.c **** * \version 2.0
   4:Generated_Source\PSoC6\pdl\drivers\peripheral\sysclk/cy_sysclk.c **** *
   5:Generated_Source\PSoC6\pdl\drivers\peripheral\sysclk/cy_sysclk.c **** * Provides an API implementation of the sysclk driver.
   6:Generated_Source\PSoC6\pdl\drivers\peripheral\sysclk/cy_sysclk.c **** *
   7:Generated_Source\PSoC6\pdl\drivers\peripheral\sysclk/cy_sysclk.c **** ********************************************************************************
   8:Generated_Source\PSoC6\pdl\drivers\peripheral\sysclk/cy_sysclk.c **** * \copyright
   9:Generated_Source\PSoC6\pdl\drivers\peripheral\sysclk/cy_sysclk.c **** * Copyright 2016-2020, Cypress Semiconductor Corporation. All rights reserved.
  10:Generated_Source\PSoC6\pdl\drivers\peripheral\sysclk/cy_sysclk.c **** * You may use this file only in accordance with the license, terms, conditions,
  11:Generated_Source\PSoC6\pdl\drivers\peripheral\sysclk/cy_sysclk.c **** * disclaimers, and limitations in the end user license agreement accompanying
  12:Generated_Source\PSoC6\pdl\drivers\peripheral\sysclk/cy_sysclk.c **** * the software package with which this file was provided.
  13:Generated_Source\PSoC6\pdl\drivers\peripheral\sysclk/cy_sysclk.c **** *******************************************************************************/
  14:Generated_Source\PSoC6\pdl\drivers\peripheral\sysclk/cy_sysclk.c **** 
  15:Generated_Source\PSoC6\pdl\drivers\peripheral\sysclk/cy_sysclk.c **** 
  16:Generated_Source\PSoC6\pdl\drivers\peripheral\sysclk/cy_sysclk.c **** #include "cy_sysclk.h"
  17:Generated_Source\PSoC6\pdl\drivers\peripheral\sysclk/cy_sysclk.c **** #include "cy_syslib.h"
  18:Generated_Source\PSoC6\pdl\drivers\peripheral\sysclk/cy_sysclk.c **** #include "cy_ipc_drv.h"
  19:Generated_Source\PSoC6\pdl\drivers\peripheral\sysclk/cy_sysclk.c **** #include "cy_ipc_sema.h"
  20:Generated_Source\PSoC6\pdl\drivers\peripheral\sysclk/cy_sysclk.c **** #include "cy_ipc_pipe.h"
  21:Generated_Source\PSoC6\pdl\drivers\peripheral\sysclk/cy_sysclk.c **** #include <math.h>
  22:Generated_Source\PSoC6\pdl\drivers\peripheral\sysclk/cy_sysclk.c **** #include <stdlib.h>
  23:Generated_Source\PSoC6\pdl\drivers\peripheral\sysclk/cy_sysclk.c **** 
  24:Generated_Source\PSoC6\pdl\drivers\peripheral\sysclk/cy_sysclk.c **** 
  25:Generated_Source\PSoC6\pdl\drivers\peripheral\sysclk/cy_sysclk.c **** /* # of elements in an array */
  26:Generated_Source\PSoC6\pdl\drivers\peripheral\sysclk/cy_sysclk.c **** #define  CY_SYSCLK_N_ELMTS(a)  (sizeof(a) / sizeof((a)[0]))
  27:Generated_Source\PSoC6\pdl\drivers\peripheral\sysclk/cy_sysclk.c **** 
  28:Generated_Source\PSoC6\pdl\drivers\peripheral\sysclk/cy_sysclk.c **** /* ========================================================================== */
  29:Generated_Source\PSoC6\pdl\drivers\peripheral\sysclk/cy_sysclk.c **** /* ===========================    ECO SECTION    ============================ */
ARM GAS  C:\Users\cmila\AppData\Local\Temp\cc5u2CXQ.s 			page 2


  30:Generated_Source\PSoC6\pdl\drivers\peripheral\sysclk/cy_sysclk.c **** /* ========================================================================== */
  31:Generated_Source\PSoC6\pdl\drivers\peripheral\sysclk/cy_sysclk.c **** /** \cond INTERNAL */
  32:Generated_Source\PSoC6\pdl\drivers\peripheral\sysclk/cy_sysclk.c **** #define CY_SYSCLK_TRIM_ECO_Pos  (SRSS_CLK_TRIM_ECO_CTL_WDTRIM_Pos)
  33:Generated_Source\PSoC6\pdl\drivers\peripheral\sysclk/cy_sysclk.c **** #define CY_SYSCLK_TRIM_ECO_Msk  (SRSS_CLK_TRIM_ECO_CTL_WDTRIM_Msk | \
  34:Generated_Source\PSoC6\pdl\drivers\peripheral\sysclk/cy_sysclk.c ****                                  SRSS_CLK_TRIM_ECO_CTL_ATRIM_Msk  | \
  35:Generated_Source\PSoC6\pdl\drivers\peripheral\sysclk/cy_sysclk.c ****                                  SRSS_CLK_TRIM_ECO_CTL_FTRIM_Msk  | \
  36:Generated_Source\PSoC6\pdl\drivers\peripheral\sysclk/cy_sysclk.c ****                                  SRSS_CLK_TRIM_ECO_CTL_RTRIM_Msk  | \
  37:Generated_Source\PSoC6\pdl\drivers\peripheral\sysclk/cy_sysclk.c ****                                  SRSS_CLK_TRIM_ECO_CTL_GTRIM_Msk)
  38:Generated_Source\PSoC6\pdl\drivers\peripheral\sysclk/cy_sysclk.c **** 
  39:Generated_Source\PSoC6\pdl\drivers\peripheral\sysclk/cy_sysclk.c **** #define CY_SYSCLK_ECO_FREQ_MIN (16000000UL) /* 16 MHz */
  40:Generated_Source\PSoC6\pdl\drivers\peripheral\sysclk/cy_sysclk.c **** #define CY_SYSCLK_ECO_FREQ_MAX (35000000UL) /* 35 MHz */
  41:Generated_Source\PSoC6\pdl\drivers\peripheral\sysclk/cy_sysclk.c **** #define CY_SYSCLK_ECO_CSM_MAX  (100UL)      /* 100 pF */
  42:Generated_Source\PSoC6\pdl\drivers\peripheral\sysclk/cy_sysclk.c **** #define CY_SYSCLK_ECO_ESR_MAX  (1000UL)     /* 1000 Ohm */
  43:Generated_Source\PSoC6\pdl\drivers\peripheral\sysclk/cy_sysclk.c **** #define CY_SYSCLK_ECO_DRV_MAX  (2000UL)     /* 2 mW */
  44:Generated_Source\PSoC6\pdl\drivers\peripheral\sysclk/cy_sysclk.c **** 
  45:Generated_Source\PSoC6\pdl\drivers\peripheral\sysclk/cy_sysclk.c **** #define CY_SYSCLK_ECO_MIN_AMPL (650UL)     /* mV, the maximum crystal driving amplitude */
  46:Generated_Source\PSoC6\pdl\drivers\peripheral\sysclk/cy_sysclk.c **** #define CY_SYSCLK_ECO_MAX_AMP_SEC (3UL)    /* items, the maximum amplification sections */
  47:Generated_Source\PSoC6\pdl\drivers\peripheral\sysclk/cy_sysclk.c **** 
  48:Generated_Source\PSoC6\pdl\drivers\peripheral\sysclk/cy_sysclk.c **** /* The constant values accordingly to the current ECO calculation algorithm: */
  49:Generated_Source\PSoC6\pdl\drivers\peripheral\sysclk/cy_sysclk.c **** #define CY_SYSCLK_ECO_WDTRIM   (7UL)
  50:Generated_Source\PSoC6\pdl\drivers\peripheral\sysclk/cy_sysclk.c **** #define CY_SYSCLK_ECO_ATRIM    (15UL)
  51:Generated_Source\PSoC6\pdl\drivers\peripheral\sysclk/cy_sysclk.c **** #define CY_SYSCLK_ECO_FTRIM    (3UL)
  52:Generated_Source\PSoC6\pdl\drivers\peripheral\sysclk/cy_sysclk.c **** #define CY_SYSCLK_ECO_RTRIM    (0UL)
  53:Generated_Source\PSoC6\pdl\drivers\peripheral\sysclk/cy_sysclk.c **** 
  54:Generated_Source\PSoC6\pdl\drivers\peripheral\sysclk/cy_sysclk.c **** #define CY_SYSCLK_ECO_IS_FREQ_VALID(freq) ((CY_SYSCLK_ECO_FREQ_MIN <= (freq)) && ((freq) <= CY_SYSC
  55:Generated_Source\PSoC6\pdl\drivers\peripheral\sysclk/cy_sysclk.c **** #define CY_SYSCLK_ECO_IS_CSM_VALID(csm)   ((0UL < (csm)) && ((csm) <= CY_SYSCLK_ECO_CSM_MAX))
  56:Generated_Source\PSoC6\pdl\drivers\peripheral\sysclk/cy_sysclk.c **** #define CY_SYSCLK_ECO_IS_ESR_VALID(esr)   ((0UL < (esr)) && ((esr) <= CY_SYSCLK_ECO_ESR_MAX))
  57:Generated_Source\PSoC6\pdl\drivers\peripheral\sysclk/cy_sysclk.c **** #define CY_SYSCLK_ECO_IS_DRV_VALID(drv)   ((0UL < (drv)) && ((drv) <= CY_SYSCLK_ECO_DRV_MAX))
  58:Generated_Source\PSoC6\pdl\drivers\peripheral\sysclk/cy_sysclk.c **** 
  59:Generated_Source\PSoC6\pdl\drivers\peripheral\sysclk/cy_sysclk.c **** 
  60:Generated_Source\PSoC6\pdl\drivers\peripheral\sysclk/cy_sysclk.c **** /******************************************************************************
  61:Generated_Source\PSoC6\pdl\drivers\peripheral\sysclk/cy_sysclk.c **** * Function Name: cy_sqrt
  62:Generated_Source\PSoC6\pdl\drivers\peripheral\sysclk/cy_sysclk.c **** * Calculates square root.
  63:Generated_Source\PSoC6\pdl\drivers\peripheral\sysclk/cy_sysclk.c **** * The algorithm is based on the 'half division' method.
  64:Generated_Source\PSoC6\pdl\drivers\peripheral\sysclk/cy_sysclk.c **** * The input is 32-bit wide.
  65:Generated_Source\PSoC6\pdl\drivers\peripheral\sysclk/cy_sysclk.c **** * The result is 16-bit wide.
  66:Generated_Source\PSoC6\pdl\drivers\peripheral\sysclk/cy_sysclk.c **** *******************************************************************************/
  67:Generated_Source\PSoC6\pdl\drivers\peripheral\sysclk/cy_sysclk.c **** static uint32_t cy_sqrt(uint32_t x);
  68:Generated_Source\PSoC6\pdl\drivers\peripheral\sysclk/cy_sysclk.c **** static uint32_t cy_sqrt(uint32_t x)
  69:Generated_Source\PSoC6\pdl\drivers\peripheral\sysclk/cy_sysclk.c **** {
  70:Generated_Source\PSoC6\pdl\drivers\peripheral\sysclk/cy_sysclk.c ****     uint32_t i;
  71:Generated_Source\PSoC6\pdl\drivers\peripheral\sysclk/cy_sysclk.c ****     uint32_t res = 0UL;
  72:Generated_Source\PSoC6\pdl\drivers\peripheral\sysclk/cy_sysclk.c ****     uint32_t add = 0x8000UL;
  73:Generated_Source\PSoC6\pdl\drivers\peripheral\sysclk/cy_sysclk.c **** 
  74:Generated_Source\PSoC6\pdl\drivers\peripheral\sysclk/cy_sysclk.c ****     for(i = 0UL; i < 16UL; i++)
  75:Generated_Source\PSoC6\pdl\drivers\peripheral\sysclk/cy_sysclk.c ****     {
  76:Generated_Source\PSoC6\pdl\drivers\peripheral\sysclk/cy_sysclk.c ****         uint32_t tmp = res | add;
  77:Generated_Source\PSoC6\pdl\drivers\peripheral\sysclk/cy_sysclk.c **** 
  78:Generated_Source\PSoC6\pdl\drivers\peripheral\sysclk/cy_sysclk.c ****         if (x >= (tmp * tmp))
  79:Generated_Source\PSoC6\pdl\drivers\peripheral\sysclk/cy_sysclk.c ****         {
  80:Generated_Source\PSoC6\pdl\drivers\peripheral\sysclk/cy_sysclk.c ****             res = tmp;
  81:Generated_Source\PSoC6\pdl\drivers\peripheral\sysclk/cy_sysclk.c ****         }
  82:Generated_Source\PSoC6\pdl\drivers\peripheral\sysclk/cy_sysclk.c **** 
  83:Generated_Source\PSoC6\pdl\drivers\peripheral\sysclk/cy_sysclk.c ****         add >>= 1U;
  84:Generated_Source\PSoC6\pdl\drivers\peripheral\sysclk/cy_sysclk.c ****     }
  85:Generated_Source\PSoC6\pdl\drivers\peripheral\sysclk/cy_sysclk.c **** 
  86:Generated_Source\PSoC6\pdl\drivers\peripheral\sysclk/cy_sysclk.c ****     return (res);
ARM GAS  C:\Users\cmila\AppData\Local\Temp\cc5u2CXQ.s 			page 3


  87:Generated_Source\PSoC6\pdl\drivers\peripheral\sysclk/cy_sysclk.c **** }
  88:Generated_Source\PSoC6\pdl\drivers\peripheral\sysclk/cy_sysclk.c **** /** \endcond */
  89:Generated_Source\PSoC6\pdl\drivers\peripheral\sysclk/cy_sysclk.c **** 
  90:Generated_Source\PSoC6\pdl\drivers\peripheral\sysclk/cy_sysclk.c **** /**
  91:Generated_Source\PSoC6\pdl\drivers\peripheral\sysclk/cy_sysclk.c **** * \addtogroup group_sysclk_eco_funcs
  92:Generated_Source\PSoC6\pdl\drivers\peripheral\sysclk/cy_sysclk.c **** * \{
  93:Generated_Source\PSoC6\pdl\drivers\peripheral\sysclk/cy_sysclk.c **** */
  94:Generated_Source\PSoC6\pdl\drivers\peripheral\sysclk/cy_sysclk.c **** /*******************************************************************************
  95:Generated_Source\PSoC6\pdl\drivers\peripheral\sysclk/cy_sysclk.c **** * Function Name: Cy_SysClk_EcoConfigure
  96:Generated_Source\PSoC6\pdl\drivers\peripheral\sysclk/cy_sysclk.c **** ****************************************************************************//**
  97:Generated_Source\PSoC6\pdl\drivers\peripheral\sysclk/cy_sysclk.c **** *
  98:Generated_Source\PSoC6\pdl\drivers\peripheral\sysclk/cy_sysclk.c **** * Configures the external crystal oscillator (ECO) trim bits based on crystal
  99:Generated_Source\PSoC6\pdl\drivers\peripheral\sysclk/cy_sysclk.c **** * characteristics. This function should be called only when the ECO is disabled.
 100:Generated_Source\PSoC6\pdl\drivers\peripheral\sysclk/cy_sysclk.c **** *
 101:Generated_Source\PSoC6\pdl\drivers\peripheral\sysclk/cy_sysclk.c **** * \param freq Operating frequency of the crystal in Hz.
 102:Generated_Source\PSoC6\pdl\drivers\peripheral\sysclk/cy_sysclk.c **** * Valid range: 16000000...35000000 (16..35 MHz).
 103:Generated_Source\PSoC6\pdl\drivers\peripheral\sysclk/cy_sysclk.c **** *
 104:Generated_Source\PSoC6\pdl\drivers\peripheral\sysclk/cy_sysclk.c **** * \param cSum The summary capacitance of
 105:Generated_Source\PSoC6\pdl\drivers\peripheral\sysclk/cy_sysclk.c **** * C0 (the crystal itself shunt capacitance) and
 106:Generated_Source\PSoC6\pdl\drivers\peripheral\sysclk/cy_sysclk.c **** * Cload (the parallel load capacitance), in pF.
 107:Generated_Source\PSoC6\pdl\drivers\peripheral\sysclk/cy_sysclk.c **** * So cSum = C0 + Cload.
 108:Generated_Source\PSoC6\pdl\drivers\peripheral\sysclk/cy_sysclk.c **** * Valid range: 1...100.
 109:Generated_Source\PSoC6\pdl\drivers\peripheral\sysclk/cy_sysclk.c **** *
 110:Generated_Source\PSoC6\pdl\drivers\peripheral\sysclk/cy_sysclk.c **** * \param esr Effective series resistance of the crystal in Ohms.
 111:Generated_Source\PSoC6\pdl\drivers\peripheral\sysclk/cy_sysclk.c **** * Valid range: 1...1000.
 112:Generated_Source\PSoC6\pdl\drivers\peripheral\sysclk/cy_sysclk.c **** *
 113:Generated_Source\PSoC6\pdl\drivers\peripheral\sysclk/cy_sysclk.c **** * \param driveLevel Crystal drive level in uW.
 114:Generated_Source\PSoC6\pdl\drivers\peripheral\sysclk/cy_sysclk.c **** * Valid range: 1...2000.
 115:Generated_Source\PSoC6\pdl\drivers\peripheral\sysclk/cy_sysclk.c **** *
 116:Generated_Source\PSoC6\pdl\drivers\peripheral\sysclk/cy_sysclk.c **** * \return Error / status code: \n
 117:Generated_Source\PSoC6\pdl\drivers\peripheral\sysclk/cy_sysclk.c **** * CY_SYSCLK_SUCCESS - ECO configuration completed successfully \n
 118:Generated_Source\PSoC6\pdl\drivers\peripheral\sysclk/cy_sysclk.c **** * CY_SYSCLK_BAD_PARAM - One or more invalid parameters \n
 119:Generated_Source\PSoC6\pdl\drivers\peripheral\sysclk/cy_sysclk.c **** * CY_SYSCLK_INVALID_STATE - ECO already enabled
 120:Generated_Source\PSoC6\pdl\drivers\peripheral\sysclk/cy_sysclk.c **** *
 121:Generated_Source\PSoC6\pdl\drivers\peripheral\sysclk/cy_sysclk.c **** * \note
 122:Generated_Source\PSoC6\pdl\drivers\peripheral\sysclk/cy_sysclk.c **** * The following calculations are implemented in the 32-bit integer math:
 123:Generated_Source\PSoC6\pdl\drivers\peripheral\sysclk/cy_sysclk.c **** *
 124:Generated_Source\PSoC6\pdl\drivers\peripheral\sysclk/cy_sysclk.c **** * \verbatim
 125:Generated_Source\PSoC6\pdl\drivers\peripheral\sysclk/cy_sysclk.c **** *   freqKhz = freq / 1000
 126:Generated_Source\PSoC6\pdl\drivers\peripheral\sysclk/cy_sysclk.c **** *   maxAmpl = sqrt(drivelevel / 2 / esr) / 3.14 / freqKhz / cSum
 127:Generated_Source\PSoC6\pdl\drivers\peripheral\sysclk/cy_sysclk.c **** *   ampSect = INT(5 * 4 * 3.14^2 * freqKhz^2 * cSum^2 * 4 * esr / 1000000000 / 1000000 / 9)
 128:Generated_Source\PSoC6\pdl\drivers\peripheral\sysclk/cy_sysclk.c **** *
 129:Generated_Source\PSoC6\pdl\drivers\peripheral\sysclk/cy_sysclk.c **** *   As a result of the above calculations, max amplitude must be >= 0.65V, and the
 130:Generated_Source\PSoC6\pdl\drivers\peripheral\sysclk/cy_sysclk.c **** *   number of amplifier sections must be <= 3, otherwise this function returns with
 131:Generated_Source\PSoC6\pdl\drivers\peripheral\sysclk/cy_sysclk.c **** *   a parameter error.
 132:Generated_Source\PSoC6\pdl\drivers\peripheral\sysclk/cy_sysclk.c **** *
 133:Generated_Source\PSoC6\pdl\drivers\peripheral\sysclk/cy_sysclk.c **** *   atrim = 15
 134:Generated_Source\PSoC6\pdl\drivers\peripheral\sysclk/cy_sysclk.c **** *   agc_en = 1
 135:Generated_Source\PSoC6\pdl\drivers\peripheral\sysclk/cy_sysclk.c **** *   wdtrim = 7
 136:Generated_Source\PSoC6\pdl\drivers\peripheral\sysclk/cy_sysclk.c **** *   gtrim = ampSect > 1 ? ampSect : ampSect == 1 ? 0 : 1
 137:Generated_Source\PSoC6\pdl\drivers\peripheral\sysclk/cy_sysclk.c **** *   rtrim = 0
 138:Generated_Source\PSoC6\pdl\drivers\peripheral\sysclk/cy_sysclk.c **** *   ftrim = 3
 139:Generated_Source\PSoC6\pdl\drivers\peripheral\sysclk/cy_sysclk.c **** * \endverbatim
 140:Generated_Source\PSoC6\pdl\drivers\peripheral\sysclk/cy_sysclk.c **** *
 141:Generated_Source\PSoC6\pdl\drivers\peripheral\sysclk/cy_sysclk.c **** * \funcusage
 142:Generated_Source\PSoC6\pdl\drivers\peripheral\sysclk/cy_sysclk.c **** * \snippet sysclk/2.0/snippet/main.c snippet_Cy_SysClk_EcoConfigure
 143:Generated_Source\PSoC6\pdl\drivers\peripheral\sysclk/cy_sysclk.c **** *
ARM GAS  C:\Users\cmila\AppData\Local\Temp\cc5u2CXQ.s 			page 4


 144:Generated_Source\PSoC6\pdl\drivers\peripheral\sysclk/cy_sysclk.c **** *******************************************************************************/
 145:Generated_Source\PSoC6\pdl\drivers\peripheral\sysclk/cy_sysclk.c **** cy_en_sysclk_status_t Cy_SysClk_EcoConfigure(uint32_t freq, uint32_t cSum, uint32_t esr, uint32_t d
 146:Generated_Source\PSoC6\pdl\drivers\peripheral\sysclk/cy_sysclk.c **** {
  29              		.loc 1 146 0
  30              		.cfi_startproc
  31              		@ args = 0, pretend = 0, frame = 8
  32              		@ frame_needed = 0, uses_anonymous_args = 0
  33              	.LVL0:
  34 0000 F7B5     		push	{r0, r1, r2, r4, r5, r6, r7, lr}
  35              		.cfi_def_cfa_offset 32
  36              		.cfi_offset 0, -32
  37              		.cfi_offset 1, -28
  38              		.cfi_offset 2, -24
  39              		.cfi_offset 4, -20
  40              		.cfi_offset 5, -16
  41              		.cfi_offset 6, -12
  42              		.cfi_offset 7, -8
  43              		.cfi_offset 14, -4
  44              		.loc 1 146 0
  45 0002 1600     		movs	r6, r2
  46 0004 1F00     		movs	r7, r3
 147:Generated_Source\PSoC6\pdl\drivers\peripheral\sysclk/cy_sysclk.c ****     cy_en_sysclk_status_t retVal = CY_SYSCLK_BAD_PARAM;
 148:Generated_Source\PSoC6\pdl\drivers\peripheral\sysclk/cy_sysclk.c **** 
 149:Generated_Source\PSoC6\pdl\drivers\peripheral\sysclk/cy_sysclk.c ****     if (0UL != (SRSS_CLK_ECO_CONFIG_ECO_EN_Msk & SRSS_CLK_ECO_CONFIG))
  47              		.loc 1 149 0
  48 0006 394A     		ldr	r2, .L15
  49              	.LVL1:
  50 0008 394B     		ldr	r3, .L15+4
  51              	.LVL2:
 146:Generated_Source\PSoC6\pdl\drivers\peripheral\sysclk/cy_sysclk.c ****     cy_en_sysclk_status_t retVal = CY_SYSCLK_BAD_PARAM;
  52              		.loc 1 146 0
  53 000a 0C00     		movs	r4, r1
  54              		.loc 1 149 0
  55 000c D158     		ldr	r1, [r2, r3]
  56              	.LVL3:
  57 000e 0092     		str	r2, [sp]
  58 0010 0193     		str	r3, [sp, #4]
  59 0012 0029     		cmp	r1, #0
  60 0014 66DB     		blt	.L6
 150:Generated_Source\PSoC6\pdl\drivers\peripheral\sysclk/cy_sysclk.c ****     {
 151:Generated_Source\PSoC6\pdl\drivers\peripheral\sysclk/cy_sysclk.c ****         retVal = CY_SYSCLK_INVALID_STATE;
 152:Generated_Source\PSoC6\pdl\drivers\peripheral\sysclk/cy_sysclk.c ****     }
 153:Generated_Source\PSoC6\pdl\drivers\peripheral\sysclk/cy_sysclk.c ****     else if ((CY_SYSCLK_ECO_IS_FREQ_VALID(freq)) &&
  61              		.loc 1 153 0
  62 0016 374B     		ldr	r3, .L15+8
  63 0018 374A     		ldr	r2, .L15+12
  64 001a C318     		adds	r3, r0, r3
  65 001c 9342     		cmp	r3, r2
  66 001e 63D8     		bhi	.L12
  67              		.loc 1 153 0 is_stmt 0 discriminator 1
  68 0020 631E     		subs	r3, r4, #1
  69 0022 632B     		cmp	r3, #99
  70 0024 60D8     		bhi	.L12
 154:Generated_Source\PSoC6\pdl\drivers\peripheral\sysclk/cy_sysclk.c ****              (CY_SYSCLK_ECO_IS_CSM_VALID(cSum)) &&
  71              		.loc 1 154 0 is_stmt 1
  72 0026 354A     		ldr	r2, .L15+16
  73 0028 731E     		subs	r3, r6, #1
ARM GAS  C:\Users\cmila\AppData\Local\Temp\cc5u2CXQ.s 			page 5


  74 002a 9342     		cmp	r3, r2
  75 002c 5CD8     		bhi	.L12
 155:Generated_Source\PSoC6\pdl\drivers\peripheral\sysclk/cy_sysclk.c ****              (CY_SYSCLK_ECO_IS_ESR_VALID(esr)) &&
  76              		.loc 1 155 0
  77 002e 344A     		ldr	r2, .L15+20
  78 0030 7B1E     		subs	r3, r7, #1
  79 0032 9342     		cmp	r3, r2
  80 0034 58D8     		bhi	.L12
  81              	.LBB16:
 156:Generated_Source\PSoC6\pdl\drivers\peripheral\sysclk/cy_sysclk.c ****              (CY_SYSCLK_ECO_IS_DRV_VALID(driveLevel)))
 157:Generated_Source\PSoC6\pdl\drivers\peripheral\sysclk/cy_sysclk.c ****     {
 158:Generated_Source\PSoC6\pdl\drivers\peripheral\sysclk/cy_sysclk.c ****         /* Calculate intermediate values */
 159:Generated_Source\PSoC6\pdl\drivers\peripheral\sysclk/cy_sysclk.c ****         uint32_t freqKhz = CY_SYSCLK_DIV_ROUND(freq, 1000UL);
  82              		.loc 1 159 0
  83 0036 FA21     		movs	r1, #250
  84 0038 F530     		adds	r0, r0, #245
  85              	.LVL4:
  86 003a 8900     		lsls	r1, r1, #2
  87 003c FF30     		adds	r0, r0, #255
  88              	.LVL5:
  89 003e FFF7FEFF 		bl	__aeabi_uidiv
  90              	.LVL6:
  91 0042 0500     		movs	r5, r0
  92              	.LVL7:
 160:Generated_Source\PSoC6\pdl\drivers\peripheral\sysclk/cy_sysclk.c **** 
 161:Generated_Source\PSoC6\pdl\drivers\peripheral\sysclk/cy_sysclk.c ****         uint32_t maxAmpl = CY_SYSCLK_DIV_ROUND((159155UL * /* 5 * 100000 / PI */
  93              		.loc 1 161 0
  94 0044 2F48     		ldr	r0, .L15+24
  95              	.LVL8:
  96 0046 7308     		lsrs	r3, r6, #1
  97 0048 7843     		muls	r0, r7
  98 004a 3100     		movs	r1, r6
  99 004c C018     		adds	r0, r0, r3
 100 004e FFF7FEFF 		bl	__aeabi_uidiv
 101              	.LVL9:
 102              	.LBB17:
 103              	.LBB18:
  72:Generated_Source\PSoC6\pdl\drivers\peripheral\sysclk/cy_sysclk.c **** 
 104              		.loc 1 72 0
 105 0052 8022     		movs	r2, #128
 106              	.LBE18:
 107              	.LBE17:
 108              		.loc 1 161 0
 109 0054 8446     		mov	ip, r0
 110              	.LVL10:
 111 0056 1023     		movs	r3, #16
 112              	.LBB21:
 113              	.LBB20:
  71:Generated_Source\PSoC6\pdl\drivers\peripheral\sysclk/cy_sysclk.c ****     uint32_t add = 0x8000UL;
 114              		.loc 1 71 0
 115 0058 0020     		movs	r0, #0
 116              	.LVL11:
  72:Generated_Source\PSoC6\pdl\drivers\peripheral\sysclk/cy_sysclk.c **** 
 117              		.loc 1 72 0
 118 005a 1202     		lsls	r2, r2, #8
 119              	.LVL12:
 120              	.L4:
ARM GAS  C:\Users\cmila\AppData\Local\Temp\cc5u2CXQ.s 			page 6


 121              	.LBB19:
  76:Generated_Source\PSoC6\pdl\drivers\peripheral\sysclk/cy_sysclk.c **** 
 122              		.loc 1 76 0
 123 005c 1100     		movs	r1, r2
 124 005e 0143     		orrs	r1, r0
 125              	.LVL13:
  78:Generated_Source\PSoC6\pdl\drivers\peripheral\sysclk/cy_sysclk.c ****         {
 126              		.loc 1 78 0
 127 0060 0F00     		movs	r7, r1
 128 0062 4F43     		muls	r7, r1
 129 0064 BC45     		cmp	ip, r7
 130 0066 00D3     		bcc	.L3
  80:Generated_Source\PSoC6\pdl\drivers\peripheral\sysclk/cy_sysclk.c ****         }
 131              		.loc 1 80 0
 132 0068 0800     		movs	r0, r1
 133              	.LVL14:
 134              	.L3:
 135 006a 013B     		subs	r3, r3, #1
 136              	.LVL15:
  83:Generated_Source\PSoC6\pdl\drivers\peripheral\sysclk/cy_sysclk.c ****     }
 137              		.loc 1 83 0
 138 006c 5208     		lsrs	r2, r2, #1
 139              	.LVL16:
 140              	.LBE19:
  74:Generated_Source\PSoC6\pdl\drivers\peripheral\sysclk/cy_sysclk.c ****     {
 141              		.loc 1 74 0
 142 006e 002B     		cmp	r3, #0
 143 0070 F4D1     		bne	.L4
 144              	.LVL17:
 145              	.LBE20:
 146              	.LBE21:
 162:Generated_Source\PSoC6\pdl\drivers\peripheral\sysclk/cy_sysclk.c ****                    cy_sqrt(CY_SYSCLK_DIV_ROUND(2000000UL * driveLevel, esr))), /* Scaled by 2 */
 163:Generated_Source\PSoC6\pdl\drivers\peripheral\sysclk/cy_sysclk.c ****                                                (freqKhz * cSum)); /* The result is scaled by 10^3 *
 164:Generated_Source\PSoC6\pdl\drivers\peripheral\sysclk/cy_sysclk.c **** 
 165:Generated_Source\PSoC6\pdl\drivers\peripheral\sysclk/cy_sysclk.c ****         /* 10^9 / (5 * 4 * 4 * PI^2) = 1266514,7955292221430484932901216.. -> 126651, scaled by 10 
 166:Generated_Source\PSoC6\pdl\drivers\peripheral\sysclk/cy_sysclk.c ****         uint32_t ampSect = (CY_SYSCLK_DIV_ROUND(cSum * cSum *
 167:Generated_Source\PSoC6\pdl\drivers\peripheral\sysclk/cy_sysclk.c ****                             CY_SYSCLK_DIV_ROUND(freqKhz * freqKhz, 126651UL), 100UL) * esr) / 90000
 168:Generated_Source\PSoC6\pdl\drivers\peripheral\sysclk/cy_sysclk.c **** 
 169:Generated_Source\PSoC6\pdl\drivers\peripheral\sysclk/cy_sysclk.c ****         if ((maxAmpl >= CY_SYSCLK_ECO_MIN_AMPL) && (ampSect <= CY_SYSCLK_ECO_MAX_AMP_SEC))
 147              		.loc 1 169 0
 148 0072 2900     		movs	r1, r5
 149              	.LVL18:
 150 0074 244B     		ldr	r3, .L15+28
 151 0076 6143     		muls	r1, r4
 152 0078 5843     		muls	r0, r3
 153 007a 4B08     		lsrs	r3, r1, #1
 154 007c C018     		adds	r0, r0, r3
 155 007e FFF7FEFF 		bl	__aeabi_uidiv
 156              	.LVL19:
 157 0082 224B     		ldr	r3, .L15+32
 158 0084 9842     		cmp	r0, r3
 159 0086 2FD9     		bls	.L12
 166:Generated_Source\PSoC6\pdl\drivers\peripheral\sysclk/cy_sysclk.c ****                             CY_SYSCLK_DIV_ROUND(freqKhz * freqKhz, 126651UL), 100UL) * esr) / 90000
 160              		.loc 1 166 0 discriminator 1
 161 0088 6D43     		muls	r5, r5
 162              	.LVL20:
 163 008a 214B     		ldr	r3, .L15+36
ARM GAS  C:\Users\cmila\AppData\Local\Temp\cc5u2CXQ.s 			page 7


 164 008c 2149     		ldr	r1, .L15+40
 165 008e E818     		adds	r0, r5, r3
 166 0090 FFF7FEFF 		bl	__aeabi_uidiv
 167              	.LVL21:
 168 0094 6443     		muls	r4, r4
 169              	.LVL22:
 170 0096 6043     		muls	r0, r4
 171 0098 6421     		movs	r1, #100
 172 009a 3230     		adds	r0, r0, #50
 173 009c FFF7FEFF 		bl	__aeabi_uidiv
 174              	.LVL23:
 175 00a0 1D49     		ldr	r1, .L15+44
 176 00a2 7043     		muls	r0, r6
 177 00a4 FFF7FEFF 		bl	__aeabi_uidiv
 178              	.LVL24:
 179              		.loc 1 169 0 discriminator 1
 180 00a8 0328     		cmp	r0, #3
 181 00aa 1DD8     		bhi	.L12
 182              	.LBB22:
 170:Generated_Source\PSoC6\pdl\drivers\peripheral\sysclk/cy_sysclk.c ****         {
 171:Generated_Source\PSoC6\pdl\drivers\peripheral\sysclk/cy_sysclk.c ****             uint32_t gtrim = (ampSect > 1UL) ? ampSect :
 183              		.loc 1 171 0
 184 00ac 0128     		cmp	r0, #1
 185 00ae 01D8     		bhi	.L5
 186 00b0 0123     		movs	r3, #1
 187 00b2 5840     		eors	r0, r3
 188              	.L5:
 189              	.LVL25:
 172:Generated_Source\PSoC6\pdl\drivers\peripheral\sysclk/cy_sysclk.c ****                             ((ampSect == 1UL) ? 0UL : 1UL);
 173:Generated_Source\PSoC6\pdl\drivers\peripheral\sysclk/cy_sysclk.c **** 
 174:Generated_Source\PSoC6\pdl\drivers\peripheral\sysclk/cy_sysclk.c ****             /* Update all fields of trim control register with one write, without changing the ITRI
 175:Generated_Source\PSoC6\pdl\drivers\peripheral\sysclk/cy_sysclk.c ****             uint32_t reg = _VAL2FLD(SRSS_CLK_TRIM_ECO_CTL_WDTRIM, CY_SYSCLK_ECO_WDTRIM) |
 176:Generated_Source\PSoC6\pdl\drivers\peripheral\sysclk/cy_sysclk.c ****                            _VAL2FLD(SRSS_CLK_TRIM_ECO_CTL_ATRIM,  CY_SYSCLK_ECO_ATRIM)  |
 177:Generated_Source\PSoC6\pdl\drivers\peripheral\sysclk/cy_sysclk.c ****                            _VAL2FLD(SRSS_CLK_TRIM_ECO_CTL_FTRIM,  CY_SYSCLK_ECO_FTRIM)  |
 178:Generated_Source\PSoC6\pdl\drivers\peripheral\sysclk/cy_sysclk.c ****                            _VAL2FLD(SRSS_CLK_TRIM_ECO_CTL_RTRIM,  CY_SYSCLK_ECO_RTRIM)  |
 179:Generated_Source\PSoC6\pdl\drivers\peripheral\sysclk/cy_sysclk.c ****                            _VAL2FLD(SRSS_CLK_TRIM_ECO_CTL_GTRIM,  gtrim);
 180:Generated_Source\PSoC6\pdl\drivers\peripheral\sysclk/cy_sysclk.c **** 
 181:Generated_Source\PSoC6\pdl\drivers\peripheral\sysclk/cy_sysclk.c ****             CY_REG32_CLR_SET(SRSS_CLK_TRIM_ECO_CTL, CY_SYSCLK_TRIM_ECO, reg);
 190              		.loc 1 181 0 discriminator 4
 191 00b4 C021     		movs	r1, #192
 192 00b6 009B     		ldr	r3, [sp]
 193 00b8 184A     		ldr	r2, .L15+48
 194 00ba 8901     		lsls	r1, r1, #6
 195 00bc 9C58     		ldr	r4, [r3, r2]
 196              	.LVL26:
 197 00be 0003     		lsls	r0, r0, #12
 198              	.LVL27:
 199 00c0 174B     		ldr	r3, .L15+52
 200 00c2 0840     		ands	r0, r1
 201 00c4 1749     		ldr	r1, .L15+56
 202 00c6 2340     		ands	r3, r4
 203 00c8 0B43     		orrs	r3, r1
 204 00ca 1843     		orrs	r0, r3
 205 00cc 009B     		ldr	r3, [sp]
 182:Generated_Source\PSoC6\pdl\drivers\peripheral\sysclk/cy_sysclk.c **** 
 183:Generated_Source\PSoC6\pdl\drivers\peripheral\sysclk/cy_sysclk.c ****             /* Enable the Automatic Gain Control */
 184:Generated_Source\PSoC6\pdl\drivers\peripheral\sysclk/cy_sysclk.c ****             SRSS_CLK_ECO_CONFIG |= SRSS_CLK_ECO_CONFIG_AGC_EN_Msk;
ARM GAS  C:\Users\cmila\AppData\Local\Temp\cc5u2CXQ.s 			page 8


 206              		.loc 1 184 0 discriminator 4
 207 00ce 0199     		ldr	r1, [sp, #4]
 181:Generated_Source\PSoC6\pdl\drivers\peripheral\sysclk/cy_sysclk.c **** 
 208              		.loc 1 181 0 discriminator 4
 209 00d0 9850     		str	r0, [r3, r2]
 210              		.loc 1 184 0 discriminator 4
 211 00d2 019A     		ldr	r2, [sp, #4]
 212 00d4 009B     		ldr	r3, [sp]
 185:Generated_Source\PSoC6\pdl\drivers\peripheral\sysclk/cy_sysclk.c **** 
 186:Generated_Source\PSoC6\pdl\drivers\peripheral\sysclk/cy_sysclk.c ****             retVal = CY_SYSCLK_SUCCESS;
 213              		.loc 1 186 0 discriminator 4
 214 00d6 0020     		movs	r0, #0
 184:Generated_Source\PSoC6\pdl\drivers\peripheral\sysclk/cy_sysclk.c **** 
 215              		.loc 1 184 0 discriminator 4
 216 00d8 9B58     		ldr	r3, [r3, r2]
 217 00da 0222     		movs	r2, #2
 218 00dc 1343     		orrs	r3, r2
 219 00de 009A     		ldr	r2, [sp]
 220 00e0 5350     		str	r3, [r2, r1]
 221              	.LVL28:
 222 00e2 02E0     		b	.L2
 223              	.LVL29:
 224              	.L6:
 225              	.LBE22:
 226              	.LBE16:
 151:Generated_Source\PSoC6\pdl\drivers\peripheral\sysclk/cy_sysclk.c ****     }
 227              		.loc 1 151 0
 228 00e4 1048     		ldr	r0, .L15+60
 229              	.LVL30:
 230 00e6 00E0     		b	.L2
 231              	.LVL31:
 232              	.L12:
 147:Generated_Source\PSoC6\pdl\drivers\peripheral\sysclk/cy_sysclk.c **** 
 233              		.loc 1 147 0
 234 00e8 1048     		ldr	r0, .L15+64
 235              	.LVL32:
 236              	.L2:
 187:Generated_Source\PSoC6\pdl\drivers\peripheral\sysclk/cy_sysclk.c ****         }
 188:Generated_Source\PSoC6\pdl\drivers\peripheral\sysclk/cy_sysclk.c ****     }
 189:Generated_Source\PSoC6\pdl\drivers\peripheral\sysclk/cy_sysclk.c ****     else
 190:Generated_Source\PSoC6\pdl\drivers\peripheral\sysclk/cy_sysclk.c ****     {
 191:Generated_Source\PSoC6\pdl\drivers\peripheral\sysclk/cy_sysclk.c ****         /* Return CY_SYSCLK_BAD_PARAM */
 192:Generated_Source\PSoC6\pdl\drivers\peripheral\sysclk/cy_sysclk.c ****     }
 193:Generated_Source\PSoC6\pdl\drivers\peripheral\sysclk/cy_sysclk.c **** 
 194:Generated_Source\PSoC6\pdl\drivers\peripheral\sysclk/cy_sysclk.c ****     return (retVal);
 195:Generated_Source\PSoC6\pdl\drivers\peripheral\sysclk/cy_sysclk.c **** }
 237              		.loc 1 195 0
 238              		@ sp needed
 239              	.LVL33:
 240 00ea FEBD     		pop	{r1, r2, r3, r4, r5, r6, r7, pc}
 241              	.L16:
 242              		.align	2
 243              	.L15:
 244 00ec 00002640 		.word	1076232192
 245 00f0 2C050000 		.word	1324
 246 00f4 00DC0BFF 		.word	-16000000
 247 00f8 C0EA2101 		.word	19000000
ARM GAS  C:\Users\cmila\AppData\Local\Temp\cc5u2CXQ.s 			page 9


 248 00fc E7030000 		.word	999
 249 0100 CF070000 		.word	1999
 250 0104 80841E00 		.word	2000000
 251 0108 B36D0200 		.word	159155
 252 010c 89020000 		.word	649
 253 0110 5DF70000 		.word	63325
 254 0114 BBEE0100 		.word	126651
 255 0118 A0BB0D00 		.word	900000
 256 011c 20FF0000 		.word	65312
 257 0120 08C0FFFF 		.word	-16376
 258 0124 F7030000 		.word	1015
 259 0128 03004A00 		.word	4849667
 260 012c 01004A00 		.word	4849665
 261              		.cfi_endproc
 262              	.LFE158:
 263              		.size	Cy_SysClk_EcoConfigure, .-Cy_SysClk_EcoConfigure
 264              		.section	.text.Cy_SysClk_EcoEnable,"ax",%progbits
 265              		.align	1
 266              		.global	Cy_SysClk_EcoEnable
 267              		.code	16
 268              		.thumb_func
 269              		.type	Cy_SysClk_EcoEnable, %function
 270              	Cy_SysClk_EcoEnable:
 271              	.LFB159:
 196:Generated_Source\PSoC6\pdl\drivers\peripheral\sysclk/cy_sysclk.c **** 
 197:Generated_Source\PSoC6\pdl\drivers\peripheral\sysclk/cy_sysclk.c **** /*******************************************************************************
 198:Generated_Source\PSoC6\pdl\drivers\peripheral\sysclk/cy_sysclk.c **** * Function Name: Cy_SysClk_EcoEnable
 199:Generated_Source\PSoC6\pdl\drivers\peripheral\sysclk/cy_sysclk.c **** ****************************************************************************//**
 200:Generated_Source\PSoC6\pdl\drivers\peripheral\sysclk/cy_sysclk.c **** *
 201:Generated_Source\PSoC6\pdl\drivers\peripheral\sysclk/cy_sysclk.c **** * Enables the external crystal oscillator (ECO). This function should be called
 202:Generated_Source\PSoC6\pdl\drivers\peripheral\sysclk/cy_sysclk.c **** * after \ref Cy_SysClk_EcoConfigure.
 203:Generated_Source\PSoC6\pdl\drivers\peripheral\sysclk/cy_sysclk.c **** *
 204:Generated_Source\PSoC6\pdl\drivers\peripheral\sysclk/cy_sysclk.c **** * \param timeoutus Amount of time in microseconds to wait for the ECO to lock.
 205:Generated_Source\PSoC6\pdl\drivers\peripheral\sysclk/cy_sysclk.c **** * If a lock does not occur, the ECO is stopped. To avoid waiting for a lock, set
 206:Generated_Source\PSoC6\pdl\drivers\peripheral\sysclk/cy_sysclk.c **** * this parameter to 0.
 207:Generated_Source\PSoC6\pdl\drivers\peripheral\sysclk/cy_sysclk.c **** *
 208:Generated_Source\PSoC6\pdl\drivers\peripheral\sysclk/cy_sysclk.c **** * \return Error / status code:<br>
 209:Generated_Source\PSoC6\pdl\drivers\peripheral\sysclk/cy_sysclk.c **** * CY_SYSCLK_SUCCESS - ECO locked<br>
 210:Generated_Source\PSoC6\pdl\drivers\peripheral\sysclk/cy_sysclk.c **** * CY_SYSCLK_TIMEOUT - ECO timed out and did not lock
 211:Generated_Source\PSoC6\pdl\drivers\peripheral\sysclk/cy_sysclk.c **** * CY_SYSCLK_INVALID_STATE - ECO already enabled
 212:Generated_Source\PSoC6\pdl\drivers\peripheral\sysclk/cy_sysclk.c **** *
 213:Generated_Source\PSoC6\pdl\drivers\peripheral\sysclk/cy_sysclk.c **** * \note 
 214:Generated_Source\PSoC6\pdl\drivers\peripheral\sysclk/cy_sysclk.c **** * Call \ref SystemCoreClockUpdate after this function calling 
 215:Generated_Source\PSoC6\pdl\drivers\peripheral\sysclk/cy_sysclk.c **** * if it affects the CLK_HF0 frequency.
 216:Generated_Source\PSoC6\pdl\drivers\peripheral\sysclk/cy_sysclk.c **** *
 217:Generated_Source\PSoC6\pdl\drivers\peripheral\sysclk/cy_sysclk.c **** * \funcusage
 218:Generated_Source\PSoC6\pdl\drivers\peripheral\sysclk/cy_sysclk.c **** * \snippet sysclk/2.0/snippet/main.c snippet_Cy_SysClk_EcoEnable
 219:Generated_Source\PSoC6\pdl\drivers\peripheral\sysclk/cy_sysclk.c **** *
 220:Generated_Source\PSoC6\pdl\drivers\peripheral\sysclk/cy_sysclk.c **** *******************************************************************************/
 221:Generated_Source\PSoC6\pdl\drivers\peripheral\sysclk/cy_sysclk.c **** cy_en_sysclk_status_t Cy_SysClk_EcoEnable(uint32_t timeoutus)
 222:Generated_Source\PSoC6\pdl\drivers\peripheral\sysclk/cy_sysclk.c **** {
 272              		.loc 1 222 0
 273              		.cfi_startproc
 274              		@ args = 0, pretend = 0, frame = 0
 275              		@ frame_needed = 0, uses_anonymous_args = 0
 276              	.LVL34:
 277 0000 F8B5     		push	{r3, r4, r5, r6, r7, lr}
ARM GAS  C:\Users\cmila\AppData\Local\Temp\cc5u2CXQ.s 			page 10


 278              		.cfi_def_cfa_offset 24
 279              		.cfi_offset 3, -24
 280              		.cfi_offset 4, -20
 281              		.cfi_offset 5, -16
 282              		.cfi_offset 6, -12
 283              		.cfi_offset 7, -8
 284              		.cfi_offset 14, -4
 223:Generated_Source\PSoC6\pdl\drivers\peripheral\sysclk/cy_sysclk.c ****     cy_en_sysclk_status_t retVal = CY_SYSCLK_INVALID_STATE;
 224:Generated_Source\PSoC6\pdl\drivers\peripheral\sysclk/cy_sysclk.c **** 
 225:Generated_Source\PSoC6\pdl\drivers\peripheral\sysclk/cy_sysclk.c ****     /* invalid state error if ECO is already enabled */
 226:Generated_Source\PSoC6\pdl\drivers\peripheral\sysclk/cy_sysclk.c ****     if (0UL == (SRSS_CLK_ECO_CONFIG_ECO_EN_Msk & SRSS_CLK_ECO_CONFIG))
 285              		.loc 1 226 0
 286 0002 104C     		ldr	r4, .L24
 287 0004 104B     		ldr	r3, .L24+4
 222:Generated_Source\PSoC6\pdl\drivers\peripheral\sysclk/cy_sysclk.c ****     cy_en_sysclk_status_t retVal = CY_SYSCLK_INVALID_STATE;
 288              		.loc 1 222 0
 289 0006 0500     		movs	r5, r0
 290              		.loc 1 226 0
 291 0008 E258     		ldr	r2, [r4, r3]
 292 000a 002A     		cmp	r2, #0
 293 000c 15DB     		blt	.L22
 227:Generated_Source\PSoC6\pdl\drivers\peripheral\sysclk/cy_sysclk.c ****     {
 228:Generated_Source\PSoC6\pdl\drivers\peripheral\sysclk/cy_sysclk.c ****         /* first set ECO enable */
 229:Generated_Source\PSoC6\pdl\drivers\peripheral\sysclk/cy_sysclk.c ****         SRSS_CLK_ECO_CONFIG |= SRSS_CLK_ECO_CONFIG_ECO_EN_Msk;
 294              		.loc 1 229 0
 295 000e 8021     		movs	r1, #128
 230:Generated_Source\PSoC6\pdl\drivers\peripheral\sysclk/cy_sysclk.c **** 
 231:Generated_Source\PSoC6\pdl\drivers\peripheral\sysclk/cy_sysclk.c ****         /* now do the timeout wait for ECO_STATUS, bit ECO_OK */
 232:Generated_Source\PSoC6\pdl\drivers\peripheral\sysclk/cy_sysclk.c ****         for (; (0UL ==(SRSS_CLK_ECO_STATUS_ECO_READY_Msk & SRSS_CLK_ECO_STATUS)) && (0UL != timeout
 296              		.loc 1 232 0
 297 0010 A626     		movs	r6, #166
 298 0012 0227     		movs	r7, #2
 229:Generated_Source\PSoC6\pdl\drivers\peripheral\sysclk/cy_sysclk.c **** 
 299              		.loc 1 229 0
 300 0014 E258     		ldr	r2, [r4, r3]
 301 0016 0906     		lsls	r1, r1, #24
 302 0018 0A43     		orrs	r2, r1
 303 001a E250     		str	r2, [r4, r3]
 304              		.loc 1 232 0
 305 001c F600     		lsls	r6, r6, #3
 306              	.LVL35:
 307              	.L19:
 308              		.loc 1 232 0 is_stmt 0 discriminator 1
 309 001e A359     		ldr	r3, [r4, r6]
 310 0020 3B42     		tst	r3, r7
 311 0022 06D1     		bne	.L20
 312              		.loc 1 232 0 discriminator 2
 313 0024 002D     		cmp	r5, #0
 314 0026 0AD0     		beq	.L23
 233:Generated_Source\PSoC6\pdl\drivers\peripheral\sysclk/cy_sysclk.c ****         {
 234:Generated_Source\PSoC6\pdl\drivers\peripheral\sysclk/cy_sysclk.c ****             Cy_SysLib_DelayUs(1U);
 315              		.loc 1 234 0 is_stmt 1 discriminator 3
 316 0028 0120     		movs	r0, #1
 317 002a FFF7FEFF 		bl	Cy_SysLib_DelayUs
 318              	.LVL36:
 232:Generated_Source\PSoC6\pdl\drivers\peripheral\sysclk/cy_sysclk.c ****         {
 319              		.loc 1 232 0 discriminator 3
ARM GAS  C:\Users\cmila\AppData\Local\Temp\cc5u2CXQ.s 			page 11


 320 002e 013D     		subs	r5, r5, #1
 321              	.LVL37:
 322 0030 F5E7     		b	.L19
 323              	.L20:
 235:Generated_Source\PSoC6\pdl\drivers\peripheral\sysclk/cy_sysclk.c ****         }
 236:Generated_Source\PSoC6\pdl\drivers\peripheral\sysclk/cy_sysclk.c ****         retVal = ((timeoutus == 0UL) ? CY_SYSCLK_TIMEOUT : CY_SYSCLK_SUCCESS);
 324              		.loc 1 236 0
 325 0032 0020     		movs	r0, #0
 326 0034 002D     		cmp	r5, #0
 327 0036 03D1     		bne	.L18
 328 0038 01E0     		b	.L23
 329              	.LVL38:
 330              	.L22:
 223:Generated_Source\PSoC6\pdl\drivers\peripheral\sysclk/cy_sysclk.c **** 
 331              		.loc 1 223 0
 332 003a 0448     		ldr	r0, .L24+8
 333              	.LVL39:
 334 003c 00E0     		b	.L18
 335              	.L23:
 336              		.loc 1 236 0
 337 003e 0448     		ldr	r0, .L24+12
 338              	.L18:
 339              	.LVL40:
 237:Generated_Source\PSoC6\pdl\drivers\peripheral\sysclk/cy_sysclk.c ****     }
 238:Generated_Source\PSoC6\pdl\drivers\peripheral\sysclk/cy_sysclk.c ****     return (retVal);
 239:Generated_Source\PSoC6\pdl\drivers\peripheral\sysclk/cy_sysclk.c **** }
 340              		.loc 1 239 0
 341              		@ sp needed
 342              	.LVL41:
 343 0040 F8BD     		pop	{r3, r4, r5, r6, r7, pc}
 344              	.L25:
 345 0042 C046     		.align	2
 346              	.L24:
 347 0044 00002640 		.word	1076232192
 348 0048 2C050000 		.word	1324
 349 004c 03004A00 		.word	4849667
 350 0050 02004A00 		.word	4849666
 351              		.cfi_endproc
 352              	.LFE159:
 353              		.size	Cy_SysClk_EcoEnable, .-Cy_SysClk_EcoEnable
 354              		.section	.text.Cy_SysClk_ClkPathSetSource,"ax",%progbits
 355              		.align	1
 356              		.global	Cy_SysClk_ClkPathSetSource
 357              		.code	16
 358              		.thumb_func
 359              		.type	Cy_SysClk_ClkPathSetSource, %function
 360              	Cy_SysClk_ClkPathSetSource:
 361              	.LFB160:
 240:Generated_Source\PSoC6\pdl\drivers\peripheral\sysclk/cy_sysclk.c **** /** \} group_sysclk_eco_funcs */
 241:Generated_Source\PSoC6\pdl\drivers\peripheral\sysclk/cy_sysclk.c **** 
 242:Generated_Source\PSoC6\pdl\drivers\peripheral\sysclk/cy_sysclk.c **** 
 243:Generated_Source\PSoC6\pdl\drivers\peripheral\sysclk/cy_sysclk.c **** /* ========================================================================== */
 244:Generated_Source\PSoC6\pdl\drivers\peripheral\sysclk/cy_sysclk.c **** /* ====================    INPUT MULTIPLEXER SECTION    ===================== */
 245:Generated_Source\PSoC6\pdl\drivers\peripheral\sysclk/cy_sysclk.c **** /* ========================================================================== */
 246:Generated_Source\PSoC6\pdl\drivers\peripheral\sysclk/cy_sysclk.c **** /**
 247:Generated_Source\PSoC6\pdl\drivers\peripheral\sysclk/cy_sysclk.c **** * \addtogroup group_sysclk_path_src_funcs
 248:Generated_Source\PSoC6\pdl\drivers\peripheral\sysclk/cy_sysclk.c **** * \{
ARM GAS  C:\Users\cmila\AppData\Local\Temp\cc5u2CXQ.s 			page 12


 249:Generated_Source\PSoC6\pdl\drivers\peripheral\sysclk/cy_sysclk.c **** */
 250:Generated_Source\PSoC6\pdl\drivers\peripheral\sysclk/cy_sysclk.c **** /*******************************************************************************
 251:Generated_Source\PSoC6\pdl\drivers\peripheral\sysclk/cy_sysclk.c **** * Function Name: Cy_SysClk_ClkPathSetSource
 252:Generated_Source\PSoC6\pdl\drivers\peripheral\sysclk/cy_sysclk.c **** ****************************************************************************//**
 253:Generated_Source\PSoC6\pdl\drivers\peripheral\sysclk/cy_sysclk.c **** *
 254:Generated_Source\PSoC6\pdl\drivers\peripheral\sysclk/cy_sysclk.c **** * Configures the source for the specified clock path.
 255:Generated_Source\PSoC6\pdl\drivers\peripheral\sysclk/cy_sysclk.c **** *
 256:Generated_Source\PSoC6\pdl\drivers\peripheral\sysclk/cy_sysclk.c **** * \param clkPath Selects which clock path to configure; 0 is the first clock
 257:Generated_Source\PSoC6\pdl\drivers\peripheral\sysclk/cy_sysclk.c **** * path, which is the FLL.
 258:Generated_Source\PSoC6\pdl\drivers\peripheral\sysclk/cy_sysclk.c **** *
 259:Generated_Source\PSoC6\pdl\drivers\peripheral\sysclk/cy_sysclk.c **** * \param source \ref cy_en_clkpath_in_sources_t
 260:Generated_Source\PSoC6\pdl\drivers\peripheral\sysclk/cy_sysclk.c **** *
 261:Generated_Source\PSoC6\pdl\drivers\peripheral\sysclk/cy_sysclk.c **** * \return \ref cy_en_sysclk_status_t
 262:Generated_Source\PSoC6\pdl\drivers\peripheral\sysclk/cy_sysclk.c **** *
 263:Generated_Source\PSoC6\pdl\drivers\peripheral\sysclk/cy_sysclk.c **** * \note
 264:Generated_Source\PSoC6\pdl\drivers\peripheral\sysclk/cy_sysclk.c **** * If calling this function changes an FLL or PLL input frequency, disable the FLL
 265:Generated_Source\PSoC6\pdl\drivers\peripheral\sysclk/cy_sysclk.c **** * or PLL before calling this function. After calling this function, call the FLL
 266:Generated_Source\PSoC6\pdl\drivers\peripheral\sysclk/cy_sysclk.c **** * or PLL configure function, for example \ref Cy_SysClk_FllConfigure().
 267:Generated_Source\PSoC6\pdl\drivers\peripheral\sysclk/cy_sysclk.c **** *
 268:Generated_Source\PSoC6\pdl\drivers\peripheral\sysclk/cy_sysclk.c **** * \note
 269:Generated_Source\PSoC6\pdl\drivers\peripheral\sysclk/cy_sysclk.c **** * Call \ref SystemCoreClockUpdate after this function calling 
 270:Generated_Source\PSoC6\pdl\drivers\peripheral\sysclk/cy_sysclk.c **** * if it affects the CLK_HF0 frequency.
 271:Generated_Source\PSoC6\pdl\drivers\peripheral\sysclk/cy_sysclk.c **** *
 272:Generated_Source\PSoC6\pdl\drivers\peripheral\sysclk/cy_sysclk.c **** * \note
 273:Generated_Source\PSoC6\pdl\drivers\peripheral\sysclk/cy_sysclk.c **** * Call \ref Cy_SysLib_SetWaitStates before calling this function if
 274:Generated_Source\PSoC6\pdl\drivers\peripheral\sysclk/cy_sysclk.c **** * it affects the CLK_HF0 frequency and the frequency is increasing.
 275:Generated_Source\PSoC6\pdl\drivers\peripheral\sysclk/cy_sysclk.c **** *
 276:Generated_Source\PSoC6\pdl\drivers\peripheral\sysclk/cy_sysclk.c **** * \note
 277:Generated_Source\PSoC6\pdl\drivers\peripheral\sysclk/cy_sysclk.c **** * Call \ref Cy_SysLib_SetWaitStates after calling this function if
 278:Generated_Source\PSoC6\pdl\drivers\peripheral\sysclk/cy_sysclk.c **** * it affects the CLK_HF0 frequency and the frequency is decreasing.
 279:Generated_Source\PSoC6\pdl\drivers\peripheral\sysclk/cy_sysclk.c **** *
 280:Generated_Source\PSoC6\pdl\drivers\peripheral\sysclk/cy_sysclk.c **** * \funcusage
 281:Generated_Source\PSoC6\pdl\drivers\peripheral\sysclk/cy_sysclk.c **** * \snippet sysclk/2.0/snippet/main.c snippet_Cy_SysClk_ClkPathSetSource
 282:Generated_Source\PSoC6\pdl\drivers\peripheral\sysclk/cy_sysclk.c **** *
 283:Generated_Source\PSoC6\pdl\drivers\peripheral\sysclk/cy_sysclk.c **** *******************************************************************************/
 284:Generated_Source\PSoC6\pdl\drivers\peripheral\sysclk/cy_sysclk.c **** cy_en_sysclk_status_t Cy_SysClk_ClkPathSetSource(uint32_t clkPath, cy_en_clkpath_in_sources_t sourc
 285:Generated_Source\PSoC6\pdl\drivers\peripheral\sysclk/cy_sysclk.c **** {
 362              		.loc 1 285 0
 363              		.cfi_startproc
 364              		@ args = 0, pretend = 0, frame = 0
 365              		@ frame_needed = 0, uses_anonymous_args = 0
 366              		@ link register save eliminated.
 367              	.LVL42:
 286:Generated_Source\PSoC6\pdl\drivers\peripheral\sysclk/cy_sysclk.c ****     cy_en_sysclk_status_t retVal = CY_SYSCLK_BAD_PARAM;
 287:Generated_Source\PSoC6\pdl\drivers\peripheral\sysclk/cy_sysclk.c ****     if ((clkPath < CY_SRSS_NUM_CLKPATH) &&
 368              		.loc 1 287 0
 369 0000 104B     		ldr	r3, .L32
 370 0002 1B68     		ldr	r3, [r3]
 371 0004 3C33     		adds	r3, r3, #60
 372 0006 1B78     		ldrb	r3, [r3]
 373 0008 8342     		cmp	r3, r0
 374 000a 19D9     		bls	.L30
 375              		.loc 1 287 0 is_stmt 0 discriminator 1
 376 000c 0429     		cmp	r1, #4
 377 000e 0FD9     		bls	.L28
 288:Generated_Source\PSoC6\pdl\drivers\peripheral\sysclk/cy_sysclk.c ****         ((source <= CY_SYSCLK_CLKPATH_IN_DSIMUX) ||
 378              		.loc 1 288 0 is_stmt 1
ARM GAS  C:\Users\cmila\AppData\Local\Temp\cc5u2CXQ.s 			page 13


 379 0010 4B1E     		subs	r3, r1, #1
 380 0012 FF3B     		subs	r3, r3, #255
 381 0014 132B     		cmp	r3, #19
 382 0016 13D8     		bhi	.L30
 383              	.LVL43:
 384              	.LBB25:
 385              	.LBB26:
 289:Generated_Source\PSoC6\pdl\drivers\peripheral\sysclk/cy_sysclk.c ****          ((CY_SYSCLK_CLKPATH_IN_DSI <= source) && (source <= CY_SYSCLK_CLKPATH_IN_PILO))))
 290:Generated_Source\PSoC6\pdl\drivers\peripheral\sysclk/cy_sysclk.c ****     {
 291:Generated_Source\PSoC6\pdl\drivers\peripheral\sysclk/cy_sysclk.c ****         if (source >= CY_SYSCLK_CLKPATH_IN_DSI)
 292:Generated_Source\PSoC6\pdl\drivers\peripheral\sysclk/cy_sysclk.c ****         {
 293:Generated_Source\PSoC6\pdl\drivers\peripheral\sysclk/cy_sysclk.c ****             SRSS_CLK_DSI_SELECT[clkPath] = _VAL2FLD(SRSS_CLK_DSI_SELECT_DSI_MUX, (uint32_t)source);
 386              		.loc 1 293 0
 387 0018 1F23     		movs	r3, #31
 388 001a 1940     		ands	r1, r3
 389              	.LVL44:
 390 001c 0A4B     		ldr	r3, .L32+4
 391 001e 8000     		lsls	r0, r0, #2
 392              	.LVL45:
 393 0020 C018     		adds	r0, r0, r3
 394 0022 C023     		movs	r3, #192
 294:Generated_Source\PSoC6\pdl\drivers\peripheral\sysclk/cy_sysclk.c ****             SRSS_CLK_PATH_SELECT[clkPath] = _VAL2FLD(SRSS_CLK_PATH_SELECT_PATH_MUX, (uint32_t)CY_SY
 395              		.loc 1 294 0
 396 0024 0422     		movs	r2, #4
 293:Generated_Source\PSoC6\pdl\drivers\peripheral\sysclk/cy_sysclk.c ****             SRSS_CLK_PATH_SELECT[clkPath] = _VAL2FLD(SRSS_CLK_PATH_SELECT_PATH_MUX, (uint32_t)CY_SY
 397              		.loc 1 293 0
 398 0026 9B00     		lsls	r3, r3, #2
 399 0028 C150     		str	r1, [r0, r3]
 400              		.loc 1 294 0
 401 002a 4033     		adds	r3, r3, #64
 402 002c C250     		str	r2, [r0, r3]
 403 002e 05E0     		b	.L31
 404              	.LVL46:
 405              	.L28:
 295:Generated_Source\PSoC6\pdl\drivers\peripheral\sysclk/cy_sysclk.c ****         }
 296:Generated_Source\PSoC6\pdl\drivers\peripheral\sysclk/cy_sysclk.c ****         else
 297:Generated_Source\PSoC6\pdl\drivers\peripheral\sysclk/cy_sysclk.c ****         {
 298:Generated_Source\PSoC6\pdl\drivers\peripheral\sysclk/cy_sysclk.c ****             SRSS_CLK_PATH_SELECT[clkPath] = _VAL2FLD(SRSS_CLK_PATH_SELECT_PATH_MUX, (uint32_t)sourc
 406              		.loc 1 298 0
 407 0030 0723     		movs	r3, #7
 408 0032 D030     		adds	r0, r0, #208
 409              	.LVL47:
 410 0034 1940     		ands	r1, r3
 411              	.LVL48:
 412 0036 044B     		ldr	r3, .L32+4
 413 0038 8000     		lsls	r0, r0, #2
 414              	.LVL49:
 415 003a C150     		str	r1, [r0, r3]
 416              	.L31:
 417 003c 0020     		movs	r0, #0
 418 003e 00E0     		b	.L27
 419              	.LVL50:
 420              	.L30:
 421              	.LBE26:
 422              	.LBE25:
 286:Generated_Source\PSoC6\pdl\drivers\peripheral\sysclk/cy_sysclk.c ****     if ((clkPath < CY_SRSS_NUM_CLKPATH) &&
 423              		.loc 1 286 0
ARM GAS  C:\Users\cmila\AppData\Local\Temp\cc5u2CXQ.s 			page 14


 424 0040 0248     		ldr	r0, .L32+8
 425              	.LVL51:
 426              	.L27:
 299:Generated_Source\PSoC6\pdl\drivers\peripheral\sysclk/cy_sysclk.c ****         }
 300:Generated_Source\PSoC6\pdl\drivers\peripheral\sysclk/cy_sysclk.c ****         retVal = CY_SYSCLK_SUCCESS;
 301:Generated_Source\PSoC6\pdl\drivers\peripheral\sysclk/cy_sysclk.c ****     }
 302:Generated_Source\PSoC6\pdl\drivers\peripheral\sysclk/cy_sysclk.c ****     return (retVal);
 303:Generated_Source\PSoC6\pdl\drivers\peripheral\sysclk/cy_sysclk.c **** }
 427              		.loc 1 303 0
 428              		@ sp needed
 429 0042 7047     		bx	lr
 430              	.L33:
 431              		.align	2
 432              	.L32:
 433 0044 00000000 		.word	cy_device
 434 0048 00002640 		.word	1076232192
 435 004c 01004A00 		.word	4849665
 436              		.cfi_endproc
 437              	.LFE160:
 438              		.size	Cy_SysClk_ClkPathSetSource, .-Cy_SysClk_ClkPathSetSource
 439              		.section	.text.Cy_SysClk_ClkPathGetSource,"ax",%progbits
 440              		.align	1
 441              		.global	Cy_SysClk_ClkPathGetSource
 442              		.code	16
 443              		.thumb_func
 444              		.type	Cy_SysClk_ClkPathGetSource, %function
 445              	Cy_SysClk_ClkPathGetSource:
 446              	.LFB161:
 304:Generated_Source\PSoC6\pdl\drivers\peripheral\sysclk/cy_sysclk.c **** 
 305:Generated_Source\PSoC6\pdl\drivers\peripheral\sysclk/cy_sysclk.c **** /*******************************************************************************
 306:Generated_Source\PSoC6\pdl\drivers\peripheral\sysclk/cy_sysclk.c **** * Function Name: Cy_SysClk_ClkPathGetSource
 307:Generated_Source\PSoC6\pdl\drivers\peripheral\sysclk/cy_sysclk.c **** ****************************************************************************//**
 308:Generated_Source\PSoC6\pdl\drivers\peripheral\sysclk/cy_sysclk.c **** *
 309:Generated_Source\PSoC6\pdl\drivers\peripheral\sysclk/cy_sysclk.c **** * Reports which source is selected for the path mux.
 310:Generated_Source\PSoC6\pdl\drivers\peripheral\sysclk/cy_sysclk.c **** *
 311:Generated_Source\PSoC6\pdl\drivers\peripheral\sysclk/cy_sysclk.c **** * \param clkPath Selects which clock path to report; 0 is the first clock path,
 312:Generated_Source\PSoC6\pdl\drivers\peripheral\sysclk/cy_sysclk.c **** * which is the FLL.
 313:Generated_Source\PSoC6\pdl\drivers\peripheral\sysclk/cy_sysclk.c **** *
 314:Generated_Source\PSoC6\pdl\drivers\peripheral\sysclk/cy_sysclk.c **** * \return \ref cy_en_clkpath_in_sources_t
 315:Generated_Source\PSoC6\pdl\drivers\peripheral\sysclk/cy_sysclk.c **** *
 316:Generated_Source\PSoC6\pdl\drivers\peripheral\sysclk/cy_sysclk.c **** * \funcusage
 317:Generated_Source\PSoC6\pdl\drivers\peripheral\sysclk/cy_sysclk.c **** * \snippet sysclk/2.0/snippet/main.c snippet_Cy_SysClk_ClkPathGetSource
 318:Generated_Source\PSoC6\pdl\drivers\peripheral\sysclk/cy_sysclk.c **** *
 319:Generated_Source\PSoC6\pdl\drivers\peripheral\sysclk/cy_sysclk.c **** *******************************************************************************/
 320:Generated_Source\PSoC6\pdl\drivers\peripheral\sysclk/cy_sysclk.c **** cy_en_clkpath_in_sources_t Cy_SysClk_ClkPathGetSource(uint32_t clkPath)
 321:Generated_Source\PSoC6\pdl\drivers\peripheral\sysclk/cy_sysclk.c **** {
 447              		.loc 1 321 0
 448              		.cfi_startproc
 449              		@ args = 0, pretend = 0, frame = 0
 450              		@ frame_needed = 0, uses_anonymous_args = 0
 451              		@ link register save eliminated.
 452              	.LVL52:
 453 0000 084B     		ldr	r3, .L36
 454 0002 8200     		lsls	r2, r0, #2
 455 0004 D218     		adds	r2, r2, r3
 322:Generated_Source\PSoC6\pdl\drivers\peripheral\sysclk/cy_sysclk.c ****     CY_ASSERT_L1(clkPath < CY_SRSS_NUM_CLKPATH);
 323:Generated_Source\PSoC6\pdl\drivers\peripheral\sysclk/cy_sysclk.c ****     cy_en_clkpath_in_sources_t retVal =
ARM GAS  C:\Users\cmila\AppData\Local\Temp\cc5u2CXQ.s 			page 15


 324:Generated_Source\PSoC6\pdl\drivers\peripheral\sysclk/cy_sysclk.c ****         (cy_en_clkpath_in_sources_t )_FLD2VAL(SRSS_CLK_PATH_SELECT_PATH_MUX, SRSS_CLK_PATH_SELECT[c
 456              		.loc 1 324 0
 457 0006 D023     		movs	r3, #208
 458 0008 9B00     		lsls	r3, r3, #2
 459 000a D058     		ldr	r0, [r2, r3]
 460              	.LVL53:
 323:Generated_Source\PSoC6\pdl\drivers\peripheral\sysclk/cy_sysclk.c ****         (cy_en_clkpath_in_sources_t )_FLD2VAL(SRSS_CLK_PATH_SELECT_PATH_MUX, SRSS_CLK_PATH_SELECT[c
 461              		.loc 1 323 0
 462 000c 0723     		movs	r3, #7
 463 000e 1840     		ands	r0, r3
 464              	.LVL54:
 325:Generated_Source\PSoC6\pdl\drivers\peripheral\sysclk/cy_sysclk.c ****     if (retVal == CY_SYSCLK_CLKPATH_IN_DSIMUX)
 465              		.loc 1 325 0
 466 0010 0428     		cmp	r0, #4
 467 0012 06D1     		bne	.L35
 326:Generated_Source\PSoC6\pdl\drivers\peripheral\sysclk/cy_sysclk.c ****     {
 327:Generated_Source\PSoC6\pdl\drivers\peripheral\sysclk/cy_sysclk.c ****         retVal = (cy_en_clkpath_in_sources_t)(CY_SYSCLK_CLKPATH_IN_DSI |
 328:Generated_Source\PSoC6\pdl\drivers\peripheral\sysclk/cy_sysclk.c ****                     (_FLD2VAL(SRSS_CLK_DSI_SELECT_DSI_MUX, SRSS_CLK_DSI_SELECT[clkPath])));
 468              		.loc 1 328 0
 469 0014 C023     		movs	r3, #192
 470 0016 9B00     		lsls	r3, r3, #2
 471 0018 D058     		ldr	r0, [r2, r3]
 472              	.LVL55:
 327:Generated_Source\PSoC6\pdl\drivers\peripheral\sysclk/cy_sysclk.c ****                     (_FLD2VAL(SRSS_CLK_DSI_SELECT_DSI_MUX, SRSS_CLK_DSI_SELECT[clkPath])));
 473              		.loc 1 327 0
 474 001a 1F23     		movs	r3, #31
 475 001c 1840     		ands	r0, r3
 476 001e E133     		adds	r3, r3, #225
 477 0020 1843     		orrs	r0, r3
 478              	.LVL56:
 479              	.L35:
 329:Generated_Source\PSoC6\pdl\drivers\peripheral\sysclk/cy_sysclk.c ****     }
 330:Generated_Source\PSoC6\pdl\drivers\peripheral\sysclk/cy_sysclk.c ****     return retVal;
 331:Generated_Source\PSoC6\pdl\drivers\peripheral\sysclk/cy_sysclk.c **** }
 480              		.loc 1 331 0
 481              		@ sp needed
 482 0022 7047     		bx	lr
 483              	.L37:
 484              		.align	2
 485              	.L36:
 486 0024 00002640 		.word	1076232192
 487              		.cfi_endproc
 488              	.LFE161:
 489              		.size	Cy_SysClk_ClkPathGetSource, .-Cy_SysClk_ClkPathGetSource
 490              		.section	.text.Cy_SysClk_FllManualConfigure,"ax",%progbits
 491              		.align	1
 492              		.global	Cy_SysClk_FllManualConfigure
 493              		.code	16
 494              		.thumb_func
 495              		.type	Cy_SysClk_FllManualConfigure, %function
 496              	Cy_SysClk_FllManualConfigure:
 497              	.LFB163:
 332:Generated_Source\PSoC6\pdl\drivers\peripheral\sysclk/cy_sysclk.c **** /** \} group_sysclk_path_src_funcs */
 333:Generated_Source\PSoC6\pdl\drivers\peripheral\sysclk/cy_sysclk.c **** 
 334:Generated_Source\PSoC6\pdl\drivers\peripheral\sysclk/cy_sysclk.c **** 
 335:Generated_Source\PSoC6\pdl\drivers\peripheral\sysclk/cy_sysclk.c **** /* ========================================================================== */
 336:Generated_Source\PSoC6\pdl\drivers\peripheral\sysclk/cy_sysclk.c **** /* ===========================    FLL SECTION    ============================ */
ARM GAS  C:\Users\cmila\AppData\Local\Temp\cc5u2CXQ.s 			page 16


 337:Generated_Source\PSoC6\pdl\drivers\peripheral\sysclk/cy_sysclk.c **** /* ========================================================================== */
 338:Generated_Source\PSoC6\pdl\drivers\peripheral\sysclk/cy_sysclk.c **** /* min and max FLL output frequencies, in Hz */
 339:Generated_Source\PSoC6\pdl\drivers\peripheral\sysclk/cy_sysclk.c **** #define  CY_SYSCLK_FLL_MIN_CCO_OUTPUT_FREQ (48000000UL)
 340:Generated_Source\PSoC6\pdl\drivers\peripheral\sysclk/cy_sysclk.c **** #define  CY_SYSCLK_FLL_MIN_OUTPUT_FREQ     (CY_SYSCLK_FLL_MIN_CCO_OUTPUT_FREQ / 2U)
 341:Generated_Source\PSoC6\pdl\drivers\peripheral\sysclk/cy_sysclk.c **** #define  CY_SYSCLK_FLL_MAX_OUTPUT_FREQ     (100000000UL)
 342:Generated_Source\PSoC6\pdl\drivers\peripheral\sysclk/cy_sysclk.c **** 
 343:Generated_Source\PSoC6\pdl\drivers\peripheral\sysclk/cy_sysclk.c **** #define  CY_SYSCLK_FLL_IS_CCO_RANGE_VALID(range) (((range) == CY_SYSCLK_FLL_CCO_RANGE0) || \
 344:Generated_Source\PSoC6\pdl\drivers\peripheral\sysclk/cy_sysclk.c ****                                                   ((range) == CY_SYSCLK_FLL_CCO_RANGE1) || \
 345:Generated_Source\PSoC6\pdl\drivers\peripheral\sysclk/cy_sysclk.c ****                                                   ((range) == CY_SYSCLK_FLL_CCO_RANGE2) || \
 346:Generated_Source\PSoC6\pdl\drivers\peripheral\sysclk/cy_sysclk.c ****                                                   ((range) == CY_SYSCLK_FLL_CCO_RANGE3) || \
 347:Generated_Source\PSoC6\pdl\drivers\peripheral\sysclk/cy_sysclk.c ****                                                   ((range) == CY_SYSCLK_FLL_CCO_RANGE4))
 348:Generated_Source\PSoC6\pdl\drivers\peripheral\sysclk/cy_sysclk.c **** 
 349:Generated_Source\PSoC6\pdl\drivers\peripheral\sysclk/cy_sysclk.c **** /**
 350:Generated_Source\PSoC6\pdl\drivers\peripheral\sysclk/cy_sysclk.c **** * \addtogroup group_sysclk_fll_funcs
 351:Generated_Source\PSoC6\pdl\drivers\peripheral\sysclk/cy_sysclk.c **** * \{
 352:Generated_Source\PSoC6\pdl\drivers\peripheral\sysclk/cy_sysclk.c **** */
 353:Generated_Source\PSoC6\pdl\drivers\peripheral\sysclk/cy_sysclk.c **** /*******************************************************************************
 354:Generated_Source\PSoC6\pdl\drivers\peripheral\sysclk/cy_sysclk.c **** * Function Name: Cy_SysClk_FllConfigure
 355:Generated_Source\PSoC6\pdl\drivers\peripheral\sysclk/cy_sysclk.c **** ****************************************************************************//**
 356:Generated_Source\PSoC6\pdl\drivers\peripheral\sysclk/cy_sysclk.c **** *
 357:Generated_Source\PSoC6\pdl\drivers\peripheral\sysclk/cy_sysclk.c **** * Configures the FLL, for best accuracy optimization.
 358:Generated_Source\PSoC6\pdl\drivers\peripheral\sysclk/cy_sysclk.c **** *
 359:Generated_Source\PSoC6\pdl\drivers\peripheral\sysclk/cy_sysclk.c **** * \param inputFreq frequency of input source, in Hz
 360:Generated_Source\PSoC6\pdl\drivers\peripheral\sysclk/cy_sysclk.c **** *
 361:Generated_Source\PSoC6\pdl\drivers\peripheral\sysclk/cy_sysclk.c **** * \param outputFreq Desired FLL output frequency, in Hz. Allowable range is
 362:Generated_Source\PSoC6\pdl\drivers\peripheral\sysclk/cy_sysclk.c **** * 24 MHz to 100 MHz. In all cases, FLL_OUTPUT_DIV must be set; the output divide
 363:Generated_Source\PSoC6\pdl\drivers\peripheral\sysclk/cy_sysclk.c **** * by 2 option is required.
 364:Generated_Source\PSoC6\pdl\drivers\peripheral\sysclk/cy_sysclk.c **** *
 365:Generated_Source\PSoC6\pdl\drivers\peripheral\sysclk/cy_sysclk.c **** * \param outputMode \ref cy_en_fll_pll_output_mode_t
 366:Generated_Source\PSoC6\pdl\drivers\peripheral\sysclk/cy_sysclk.c **** * If output mode is bypass, then the output frequency equals the input source
 367:Generated_Source\PSoC6\pdl\drivers\peripheral\sysclk/cy_sysclk.c **** * frequency regardless of the frequency parameter values.
 368:Generated_Source\PSoC6\pdl\drivers\peripheral\sysclk/cy_sysclk.c **** *
 369:Generated_Source\PSoC6\pdl\drivers\peripheral\sysclk/cy_sysclk.c **** * \return  Error / status code:<br>
 370:Generated_Source\PSoC6\pdl\drivers\peripheral\sysclk/cy_sysclk.c **** * CY_SYSCLK_SUCCESS - FLL successfully configured<br>
 371:Generated_Source\PSoC6\pdl\drivers\peripheral\sysclk/cy_sysclk.c **** * CY_SYSCLK_INVALID_STATE - FLL not configured because it is enabled<br>
 372:Generated_Source\PSoC6\pdl\drivers\peripheral\sysclk/cy_sysclk.c **** * CY_SYSCLK_BAD_PARAM - desired output frequency is out of valid range
 373:Generated_Source\PSoC6\pdl\drivers\peripheral\sysclk/cy_sysclk.c **** *
 374:Generated_Source\PSoC6\pdl\drivers\peripheral\sysclk/cy_sysclk.c **** * \note
 375:Generated_Source\PSoC6\pdl\drivers\peripheral\sysclk/cy_sysclk.c **** * Call this function after changing the FLL input frequency, for example if
 376:Generated_Source\PSoC6\pdl\drivers\peripheral\sysclk/cy_sysclk.c **** * \ref Cy_SysClk_ClkPathSetSource() is called.
 377:Generated_Source\PSoC6\pdl\drivers\peripheral\sysclk/cy_sysclk.c **** *
 378:Generated_Source\PSoC6\pdl\drivers\peripheral\sysclk/cy_sysclk.c **** * \note
 379:Generated_Source\PSoC6\pdl\drivers\peripheral\sysclk/cy_sysclk.c **** * Do not call this function when the FLL is enabled. If it is called, then this function
 380:Generated_Source\PSoC6\pdl\drivers\peripheral\sysclk/cy_sysclk.c **** * returns immediately with an error return value and no register updates.
 381:Generated_Source\PSoC6\pdl\drivers\peripheral\sysclk/cy_sysclk.c **** *
 382:Generated_Source\PSoC6\pdl\drivers\peripheral\sysclk/cy_sysclk.c **** * \note 
 383:Generated_Source\PSoC6\pdl\drivers\peripheral\sysclk/cy_sysclk.c **** * Call \ref SystemCoreClockUpdate after this function calling 
 384:Generated_Source\PSoC6\pdl\drivers\peripheral\sysclk/cy_sysclk.c **** * if it affects the CLK_HF0 frequency.
 385:Generated_Source\PSoC6\pdl\drivers\peripheral\sysclk/cy_sysclk.c **** *
 386:Generated_Source\PSoC6\pdl\drivers\peripheral\sysclk/cy_sysclk.c **** * \note 
 387:Generated_Source\PSoC6\pdl\drivers\peripheral\sysclk/cy_sysclk.c **** * Call \ref Cy_SysLib_SetWaitStates before calling this function if
 388:Generated_Source\PSoC6\pdl\drivers\peripheral\sysclk/cy_sysclk.c **** * the FLL is the source of CLK_HF0 and the FLL frequency is increasing.
 389:Generated_Source\PSoC6\pdl\drivers\peripheral\sysclk/cy_sysclk.c **** *
 390:Generated_Source\PSoC6\pdl\drivers\peripheral\sysclk/cy_sysclk.c **** * \note
 391:Generated_Source\PSoC6\pdl\drivers\peripheral\sysclk/cy_sysclk.c **** * Call \ref Cy_SysLib_SetWaitStates after calling this function if
 392:Generated_Source\PSoC6\pdl\drivers\peripheral\sysclk/cy_sysclk.c **** * the FLL is the source of CLK_HF0 and the FLL frequency is decreasing.
 393:Generated_Source\PSoC6\pdl\drivers\peripheral\sysclk/cy_sysclk.c **** *
ARM GAS  C:\Users\cmila\AppData\Local\Temp\cc5u2CXQ.s 			page 17


 394:Generated_Source\PSoC6\pdl\drivers\peripheral\sysclk/cy_sysclk.c **** * \funcusage
 395:Generated_Source\PSoC6\pdl\drivers\peripheral\sysclk/cy_sysclk.c **** * \snippet sysclk/2.0/snippet/main.c snippet_Cy_SysClk_FllConfigure
 396:Generated_Source\PSoC6\pdl\drivers\peripheral\sysclk/cy_sysclk.c **** *
 397:Generated_Source\PSoC6\pdl\drivers\peripheral\sysclk/cy_sysclk.c **** *******************************************************************************/
 398:Generated_Source\PSoC6\pdl\drivers\peripheral\sysclk/cy_sysclk.c **** cy_en_sysclk_status_t Cy_SysClk_FllConfigure(uint32_t inputFreq, uint32_t outputFreq, cy_en_fll_pll
 399:Generated_Source\PSoC6\pdl\drivers\peripheral\sysclk/cy_sysclk.c **** {
 400:Generated_Source\PSoC6\pdl\drivers\peripheral\sysclk/cy_sysclk.c ****     cy_en_sysclk_status_t retVal = CY_SYSCLK_SUCCESS;
 401:Generated_Source\PSoC6\pdl\drivers\peripheral\sysclk/cy_sysclk.c **** 
 402:Generated_Source\PSoC6\pdl\drivers\peripheral\sysclk/cy_sysclk.c ****     /* check for errors */
 403:Generated_Source\PSoC6\pdl\drivers\peripheral\sysclk/cy_sysclk.c ****     if ((outputFreq < CY_SYSCLK_FLL_MIN_OUTPUT_FREQ) || (CY_SYSCLK_FLL_MAX_OUTPUT_FREQ < outputFreq
 404:Generated_Source\PSoC6\pdl\drivers\peripheral\sysclk/cy_sysclk.c ****        (((float32_t)outputFreq / (float32_t)inputFreq) < 2.2f)) /* check output/input frequency rat
 405:Generated_Source\PSoC6\pdl\drivers\peripheral\sysclk/cy_sysclk.c ****     {
 406:Generated_Source\PSoC6\pdl\drivers\peripheral\sysclk/cy_sysclk.c ****         retVal = CY_SYSCLK_BAD_PARAM;
 407:Generated_Source\PSoC6\pdl\drivers\peripheral\sysclk/cy_sysclk.c ****     }
 408:Generated_Source\PSoC6\pdl\drivers\peripheral\sysclk/cy_sysclk.c ****     else /* no errors */
 409:Generated_Source\PSoC6\pdl\drivers\peripheral\sysclk/cy_sysclk.c ****     {
 410:Generated_Source\PSoC6\pdl\drivers\peripheral\sysclk/cy_sysclk.c ****         /* If output mode is bypass (input routed directly to output), then done.
 411:Generated_Source\PSoC6\pdl\drivers\peripheral\sysclk/cy_sysclk.c ****            The output frequency equals the input frequency regardless of the
 412:Generated_Source\PSoC6\pdl\drivers\peripheral\sysclk/cy_sysclk.c ****            frequency parameters. */
 413:Generated_Source\PSoC6\pdl\drivers\peripheral\sysclk/cy_sysclk.c ****         if (outputMode != CY_SYSCLK_FLLPLL_OUTPUT_INPUT)
 414:Generated_Source\PSoC6\pdl\drivers\peripheral\sysclk/cy_sysclk.c ****         {
 415:Generated_Source\PSoC6\pdl\drivers\peripheral\sysclk/cy_sysclk.c ****             cy_stc_fll_manual_config_t config;
 416:Generated_Source\PSoC6\pdl\drivers\peripheral\sysclk/cy_sysclk.c ****             uint32_t ccoFreq;
 417:Generated_Source\PSoC6\pdl\drivers\peripheral\sysclk/cy_sysclk.c ****             bool wcoSource = ((Cy_SysClk_ClkPathGetSource(0UL/*FLL*/) == CY_SYSCLK_CLKPATH_IN_WCO) 
 418:Generated_Source\PSoC6\pdl\drivers\peripheral\sysclk/cy_sysclk.c **** 
 419:Generated_Source\PSoC6\pdl\drivers\peripheral\sysclk/cy_sysclk.c ****             config.outputMode = outputMode;
 420:Generated_Source\PSoC6\pdl\drivers\peripheral\sysclk/cy_sysclk.c ****             /* 1. Output division by 2 is always required. */
 421:Generated_Source\PSoC6\pdl\drivers\peripheral\sysclk/cy_sysclk.c ****             config.enableOutputDiv = (bool)(1UL);
 422:Generated_Source\PSoC6\pdl\drivers\peripheral\sysclk/cy_sysclk.c ****             /* 2. Compute the target CCO frequency from the target output frequency and output divi
 423:Generated_Source\PSoC6\pdl\drivers\peripheral\sysclk/cy_sysclk.c ****             ccoFreq = outputFreq * ((uint32_t)(config.enableOutputDiv) + 1UL);
 424:Generated_Source\PSoC6\pdl\drivers\peripheral\sysclk/cy_sysclk.c ****             /* 3. Compute the CCO range value from the CCO frequency */
 425:Generated_Source\PSoC6\pdl\drivers\peripheral\sysclk/cy_sysclk.c ****             config.ccoRange = ((ccoFreq >= 150339200UL) ? CY_SYSCLK_FLL_CCO_RANGE4 :
 426:Generated_Source\PSoC6\pdl\drivers\peripheral\sysclk/cy_sysclk.c ****                                ((ccoFreq >= 113009380UL) ? CY_SYSCLK_FLL_CCO_RANGE3 :
 427:Generated_Source\PSoC6\pdl\drivers\peripheral\sysclk/cy_sysclk.c ****                                 ((ccoFreq >=  84948700UL) ? CY_SYSCLK_FLL_CCO_RANGE2 :
 428:Generated_Source\PSoC6\pdl\drivers\peripheral\sysclk/cy_sysclk.c ****                                  ((ccoFreq >=  63855600UL) ? CY_SYSCLK_FLL_CCO_RANGE1 : CY_SYSCLK_F
 429:Generated_Source\PSoC6\pdl\drivers\peripheral\sysclk/cy_sysclk.c ****             {
 430:Generated_Source\PSoC6\pdl\drivers\peripheral\sysclk/cy_sysclk.c ****                 /* constants indexed by ccoRange */
 431:Generated_Source\PSoC6\pdl\drivers\peripheral\sysclk/cy_sysclk.c ****                 const float32_t trimSteps[] = {0.0011034f, 0.001102f, 0.0011f, 0.0011f, 0.00117062f
 432:Generated_Source\PSoC6\pdl\drivers\peripheral\sysclk/cy_sysclk.c ****                 const float32_t fMargin[] = {43600000.0f, 58100000.0f, 77200000.0f, 103000000.0f, 1
 433:Generated_Source\PSoC6\pdl\drivers\peripheral\sysclk/cy_sysclk.c **** 
 434:Generated_Source\PSoC6\pdl\drivers\peripheral\sysclk/cy_sysclk.c ****             /* 4. Compute the FLL reference divider value.
 435:Generated_Source\PSoC6\pdl\drivers\peripheral\sysclk/cy_sysclk.c ****                   refDiv is a constant if the WCO is the FLL source; otherwise the formula is
 436:Generated_Source\PSoC6\pdl\drivers\peripheral\sysclk/cy_sysclk.c ****                   refDiv = ROUNDUP((inputFreq / outputFreq) * 250) */
 437:Generated_Source\PSoC6\pdl\drivers\peripheral\sysclk/cy_sysclk.c ****                 config.refDiv = wcoSource ? 19U : ((uint16_t)ceilf(((float32_t)inputFreq / (float32
 438:Generated_Source\PSoC6\pdl\drivers\peripheral\sysclk/cy_sysclk.c ****             /* 5. Compute the FLL multiplier value.
 439:Generated_Source\PSoC6\pdl\drivers\peripheral\sysclk/cy_sysclk.c ****                   Formula is fllMult = ccoFreq / (inputFreq / refDiv) */
 440:Generated_Source\PSoC6\pdl\drivers\peripheral\sysclk/cy_sysclk.c ****                 config.fllMult = CY_SYSCLK_DIV_ROUNDUP(ccoFreq, CY_SYSCLK_DIV_ROUND(inputFreq, (uin
 441:Generated_Source\PSoC6\pdl\drivers\peripheral\sysclk/cy_sysclk.c ****             /* 6. Compute the lock tolerance.
 442:Generated_Source\PSoC6\pdl\drivers\peripheral\sysclk/cy_sysclk.c ****                   Formula is lock tolerance = 1.5 * fllMult * (((1 + CCO accuracy) / (1 - source cl
 443:Generated_Source\PSoC6\pdl\drivers\peripheral\sysclk/cy_sysclk.c ****                   We assume CCO accuracy is 0.25%.
 444:Generated_Source\PSoC6\pdl\drivers\peripheral\sysclk/cy_sysclk.c ****                   We assume the source clock accuracy = 1%. This is the accuracy of the IMO.
 445:Generated_Source\PSoC6\pdl\drivers\peripheral\sysclk/cy_sysclk.c ****                   Therefore the formula is lock tolerance = 1.5 * fllMult * 0.012626 = 0.018939 * f
 446:Generated_Source\PSoC6\pdl\drivers\peripheral\sysclk/cy_sysclk.c ****                 config.lockTolerance = (uint16_t)ceilf((float32_t)(config.fllMult) * 0.018939f);
 447:Generated_Source\PSoC6\pdl\drivers\peripheral\sysclk/cy_sysclk.c ****             /* 7. Compute the CCO igain and pgain. */
 448:Generated_Source\PSoC6\pdl\drivers\peripheral\sysclk/cy_sysclk.c ****                 {
 449:Generated_Source\PSoC6\pdl\drivers\peripheral\sysclk/cy_sysclk.c ****                     /* intermediate parameters */
 450:Generated_Source\PSoC6\pdl\drivers\peripheral\sysclk/cy_sysclk.c ****                     float32_t kcco = (trimSteps[config.ccoRange] * fMargin[config.ccoRange]) / 1000
ARM GAS  C:\Users\cmila\AppData\Local\Temp\cc5u2CXQ.s 			page 18


 451:Generated_Source\PSoC6\pdl\drivers\peripheral\sysclk/cy_sysclk.c ****                     float32_t ki_p = (0.85f / (kcco * ((float32_t)(config.refDiv) / (float32_t)inpu
 452:Generated_Source\PSoC6\pdl\drivers\peripheral\sysclk/cy_sysclk.c **** 
 453:Generated_Source\PSoC6\pdl\drivers\peripheral\sysclk/cy_sysclk.c ****                     /* igain and pgain bitfield values correspond to: 1/256, 1/128, ..., 4, 8 */
 454:Generated_Source\PSoC6\pdl\drivers\peripheral\sysclk/cy_sysclk.c ****                     const float32_t gains[] = {0.00390625f, 0.0078125f, 0.015625f, 0.03125f, 0.0625
 455:Generated_Source\PSoC6\pdl\drivers\peripheral\sysclk/cy_sysclk.c ****                                                0.5f, 1.0f, 2.0f, 4.0f, 8.0f};
 456:Generated_Source\PSoC6\pdl\drivers\peripheral\sysclk/cy_sysclk.c **** 
 457:Generated_Source\PSoC6\pdl\drivers\peripheral\sysclk/cy_sysclk.c ****                     /* find the largest IGAIN value that is less than or equal to ki_p */
 458:Generated_Source\PSoC6\pdl\drivers\peripheral\sysclk/cy_sysclk.c ****                     for(config.igain = (uint8_t)(CY_SYSCLK_N_ELMTS(gains) - 1UL);
 459:Generated_Source\PSoC6\pdl\drivers\peripheral\sysclk/cy_sysclk.c ****                         (gains[config.igain] > ki_p) && (config.igain != 0UL); config.igain--){}
 460:Generated_Source\PSoC6\pdl\drivers\peripheral\sysclk/cy_sysclk.c ****                     /* decrement igain if the WCO is the FLL source */
 461:Generated_Source\PSoC6\pdl\drivers\peripheral\sysclk/cy_sysclk.c ****                     if (wcoSource && (config.igain > 0U))
 462:Generated_Source\PSoC6\pdl\drivers\peripheral\sysclk/cy_sysclk.c ****                     {
 463:Generated_Source\PSoC6\pdl\drivers\peripheral\sysclk/cy_sysclk.c ****                         config.igain--;
 464:Generated_Source\PSoC6\pdl\drivers\peripheral\sysclk/cy_sysclk.c ****                     }
 465:Generated_Source\PSoC6\pdl\drivers\peripheral\sysclk/cy_sysclk.c ****                     /* then find the largest PGAIN value that is less than or equal to ki_p - gains
 466:Generated_Source\PSoC6\pdl\drivers\peripheral\sysclk/cy_sysclk.c ****                     for(config.pgain = (uint8_t)(CY_SYSCLK_N_ELMTS(gains) - 1UL);
 467:Generated_Source\PSoC6\pdl\drivers\peripheral\sysclk/cy_sysclk.c ****                         (gains[config.pgain] > (ki_p - gains[config.igain])) && (config.pgain != 0U
 468:Generated_Source\PSoC6\pdl\drivers\peripheral\sysclk/cy_sysclk.c ****                         config.pgain--){}
 469:Generated_Source\PSoC6\pdl\drivers\peripheral\sysclk/cy_sysclk.c ****                     /* decrement pgain if the WCO is the FLL source */
 470:Generated_Source\PSoC6\pdl\drivers\peripheral\sysclk/cy_sysclk.c ****                     if (wcoSource && (config.pgain > 0U))
 471:Generated_Source\PSoC6\pdl\drivers\peripheral\sysclk/cy_sysclk.c ****                     {
 472:Generated_Source\PSoC6\pdl\drivers\peripheral\sysclk/cy_sysclk.c ****                         config.pgain--;
 473:Generated_Source\PSoC6\pdl\drivers\peripheral\sysclk/cy_sysclk.c ****                     }
 474:Generated_Source\PSoC6\pdl\drivers\peripheral\sysclk/cy_sysclk.c ****                 }
 475:Generated_Source\PSoC6\pdl\drivers\peripheral\sysclk/cy_sysclk.c ****             /* 8. Compute the CCO_FREQ bits in CLK_FLL_CONFIG4 register. */
 476:Generated_Source\PSoC6\pdl\drivers\peripheral\sysclk/cy_sysclk.c ****                 config.cco_Freq = (uint16_t)floor(log((float64_t)((float32_t)ccoFreq / fMargin[conf
 477:Generated_Source\PSoC6\pdl\drivers\peripheral\sysclk/cy_sysclk.c ****                                                    log((float64_t)(1.0f + trimSteps[config.ccoRange
 478:Generated_Source\PSoC6\pdl\drivers\peripheral\sysclk/cy_sysclk.c ****             }
 479:Generated_Source\PSoC6\pdl\drivers\peripheral\sysclk/cy_sysclk.c ****             /* 9. Compute the settling count, using a 1 usec settling time.
 480:Generated_Source\PSoC6\pdl\drivers\peripheral\sysclk/cy_sysclk.c ****                   Use a constant if the WCO is the FLL source. */
 481:Generated_Source\PSoC6\pdl\drivers\peripheral\sysclk/cy_sysclk.c ****             {
 482:Generated_Source\PSoC6\pdl\drivers\peripheral\sysclk/cy_sysclk.c ****                 float32_t ttref   = (float32_t)config.refDiv / ((float32_t)inputFreq / 1000.0f);
 483:Generated_Source\PSoC6\pdl\drivers\peripheral\sysclk/cy_sysclk.c ****                 float32_t testval = 6000.0f / (float32_t)outputFreq;
 484:Generated_Source\PSoC6\pdl\drivers\peripheral\sysclk/cy_sysclk.c ****                 float32_t divval  = (float32_t)ceil((float64_t)((float32_t)inputFreq * 0.000001f));
 485:Generated_Source\PSoC6\pdl\drivers\peripheral\sysclk/cy_sysclk.c ****                 float32_t altval  = (float32_t)ceil((float64_t)((divval / ttref) + 1.0f));
 486:Generated_Source\PSoC6\pdl\drivers\peripheral\sysclk/cy_sysclk.c ****                 config.settlingCount = wcoSource ? 200U : (uint16)
 487:Generated_Source\PSoC6\pdl\drivers\peripheral\sysclk/cy_sysclk.c ****                               ((ttref > testval) ? divval :
 488:Generated_Source\PSoC6\pdl\drivers\peripheral\sysclk/cy_sysclk.c ****                               ((divval > altval) ? divval : altval));
 489:Generated_Source\PSoC6\pdl\drivers\peripheral\sysclk/cy_sysclk.c ****             }
 490:Generated_Source\PSoC6\pdl\drivers\peripheral\sysclk/cy_sysclk.c ****             /* configure FLL based on calculated values */
 491:Generated_Source\PSoC6\pdl\drivers\peripheral\sysclk/cy_sysclk.c ****             retVal = Cy_SysClk_FllManualConfigure(&config);
 492:Generated_Source\PSoC6\pdl\drivers\peripheral\sysclk/cy_sysclk.c ****         } /* if not, bypass output mode */
 493:Generated_Source\PSoC6\pdl\drivers\peripheral\sysclk/cy_sysclk.c ****         else
 494:Generated_Source\PSoC6\pdl\drivers\peripheral\sysclk/cy_sysclk.c ****         { /* bypass mode */
 495:Generated_Source\PSoC6\pdl\drivers\peripheral\sysclk/cy_sysclk.c ****             /* update CLK_FLL_CONFIG3 register with divide by 2 parameter */
 496:Generated_Source\PSoC6\pdl\drivers\peripheral\sysclk/cy_sysclk.c ****             CY_REG32_CLR_SET(SRSS_CLK_FLL_CONFIG3, SRSS_CLK_FLL_CONFIG3_BYPASS_SEL, CY_SYSCLK_FLLPL
 497:Generated_Source\PSoC6\pdl\drivers\peripheral\sysclk/cy_sysclk.c ****         }
 498:Generated_Source\PSoC6\pdl\drivers\peripheral\sysclk/cy_sysclk.c ****     }
 499:Generated_Source\PSoC6\pdl\drivers\peripheral\sysclk/cy_sysclk.c **** 
 500:Generated_Source\PSoC6\pdl\drivers\peripheral\sysclk/cy_sysclk.c ****     return (retVal);
 501:Generated_Source\PSoC6\pdl\drivers\peripheral\sysclk/cy_sysclk.c **** }
 502:Generated_Source\PSoC6\pdl\drivers\peripheral\sysclk/cy_sysclk.c **** 
 503:Generated_Source\PSoC6\pdl\drivers\peripheral\sysclk/cy_sysclk.c **** /*******************************************************************************
 504:Generated_Source\PSoC6\pdl\drivers\peripheral\sysclk/cy_sysclk.c **** * Function Name: Cy_SysClk_FllManualConfigure
 505:Generated_Source\PSoC6\pdl\drivers\peripheral\sysclk/cy_sysclk.c **** ****************************************************************************//**
 506:Generated_Source\PSoC6\pdl\drivers\peripheral\sysclk/cy_sysclk.c **** *
 507:Generated_Source\PSoC6\pdl\drivers\peripheral\sysclk/cy_sysclk.c **** * Manually configures the FLL based on user inputs.
ARM GAS  C:\Users\cmila\AppData\Local\Temp\cc5u2CXQ.s 			page 19


 508:Generated_Source\PSoC6\pdl\drivers\peripheral\sysclk/cy_sysclk.c **** *
 509:Generated_Source\PSoC6\pdl\drivers\peripheral\sysclk/cy_sysclk.c **** * \param config \ref cy_stc_fll_manual_config_t
 510:Generated_Source\PSoC6\pdl\drivers\peripheral\sysclk/cy_sysclk.c **** *
 511:Generated_Source\PSoC6\pdl\drivers\peripheral\sysclk/cy_sysclk.c **** * \return  Error / status code:<br>
 512:Generated_Source\PSoC6\pdl\drivers\peripheral\sysclk/cy_sysclk.c **** * CY_SYSCLK_SUCCESS - FLL successfully configured<br>
 513:Generated_Source\PSoC6\pdl\drivers\peripheral\sysclk/cy_sysclk.c **** * CY_SYSCLK_INVALID_STATE - FLL not configured because it is enabled
 514:Generated_Source\PSoC6\pdl\drivers\peripheral\sysclk/cy_sysclk.c **** *
 515:Generated_Source\PSoC6\pdl\drivers\peripheral\sysclk/cy_sysclk.c **** * \note
 516:Generated_Source\PSoC6\pdl\drivers\peripheral\sysclk/cy_sysclk.c **** * Call this function after changing the FLL input frequency, for example if
 517:Generated_Source\PSoC6\pdl\drivers\peripheral\sysclk/cy_sysclk.c **** * \ref Cy_SysClk_ClkPathSetSource() is called.
 518:Generated_Source\PSoC6\pdl\drivers\peripheral\sysclk/cy_sysclk.c **** *
 519:Generated_Source\PSoC6\pdl\drivers\peripheral\sysclk/cy_sysclk.c **** * \note
 520:Generated_Source\PSoC6\pdl\drivers\peripheral\sysclk/cy_sysclk.c **** * Do not call this function when the FLL is enabled. If it is called, then this function
 521:Generated_Source\PSoC6\pdl\drivers\peripheral\sysclk/cy_sysclk.c **** * returns immediately with an error return value and no register updates.
 522:Generated_Source\PSoC6\pdl\drivers\peripheral\sysclk/cy_sysclk.c **** *
 523:Generated_Source\PSoC6\pdl\drivers\peripheral\sysclk/cy_sysclk.c **** * \note 
 524:Generated_Source\PSoC6\pdl\drivers\peripheral\sysclk/cy_sysclk.c **** * Call \ref SystemCoreClockUpdate after this function calling 
 525:Generated_Source\PSoC6\pdl\drivers\peripheral\sysclk/cy_sysclk.c **** * if it affects the CLK_HF0 frequency.
 526:Generated_Source\PSoC6\pdl\drivers\peripheral\sysclk/cy_sysclk.c **** *
 527:Generated_Source\PSoC6\pdl\drivers\peripheral\sysclk/cy_sysclk.c **** * \note 
 528:Generated_Source\PSoC6\pdl\drivers\peripheral\sysclk/cy_sysclk.c **** * Call \ref Cy_SysLib_SetWaitStates before calling this function if
 529:Generated_Source\PSoC6\pdl\drivers\peripheral\sysclk/cy_sysclk.c **** * the FLL is the source of CLK_HF0 and the FLL frequency is increasing.
 530:Generated_Source\PSoC6\pdl\drivers\peripheral\sysclk/cy_sysclk.c **** *
 531:Generated_Source\PSoC6\pdl\drivers\peripheral\sysclk/cy_sysclk.c **** * \note
 532:Generated_Source\PSoC6\pdl\drivers\peripheral\sysclk/cy_sysclk.c **** * Call \ref Cy_SysLib_SetWaitStates after calling this function if
 533:Generated_Source\PSoC6\pdl\drivers\peripheral\sysclk/cy_sysclk.c **** * the FLL is the source of CLK_HF0 and the FLL frequency is decreasing.
 534:Generated_Source\PSoC6\pdl\drivers\peripheral\sysclk/cy_sysclk.c **** *
 535:Generated_Source\PSoC6\pdl\drivers\peripheral\sysclk/cy_sysclk.c **** * \funcusage
 536:Generated_Source\PSoC6\pdl\drivers\peripheral\sysclk/cy_sysclk.c **** * \snippet sysclk/2.0/snippet/main.c snippet_Cy_SysClk_FllManualConfigure
 537:Generated_Source\PSoC6\pdl\drivers\peripheral\sysclk/cy_sysclk.c **** *
 538:Generated_Source\PSoC6\pdl\drivers\peripheral\sysclk/cy_sysclk.c **** *******************************************************************************/
 539:Generated_Source\PSoC6\pdl\drivers\peripheral\sysclk/cy_sysclk.c **** cy_en_sysclk_status_t Cy_SysClk_FllManualConfigure(const cy_stc_fll_manual_config_t *config)
 540:Generated_Source\PSoC6\pdl\drivers\peripheral\sysclk/cy_sysclk.c **** {
 498              		.loc 1 540 0
 499              		.cfi_startproc
 500              		@ args = 0, pretend = 0, frame = 0
 501              		@ frame_needed = 0, uses_anonymous_args = 0
 502              	.LVL57:
 503 0000 F0B5     		push	{r4, r5, r6, r7, lr}
 504              		.cfi_def_cfa_offset 20
 505              		.cfi_offset 4, -20
 506              		.cfi_offset 5, -16
 507              		.cfi_offset 6, -12
 508              		.cfi_offset 7, -8
 509              		.cfi_offset 14, -4
 541:Generated_Source\PSoC6\pdl\drivers\peripheral\sysclk/cy_sysclk.c ****     cy_en_sysclk_status_t retVal = CY_SYSCLK_SUCCESS;
 542:Generated_Source\PSoC6\pdl\drivers\peripheral\sysclk/cy_sysclk.c **** 
 543:Generated_Source\PSoC6\pdl\drivers\peripheral\sysclk/cy_sysclk.c ****     CY_ASSERT_L1(config != NULL);
 544:Generated_Source\PSoC6\pdl\drivers\peripheral\sysclk/cy_sysclk.c ****     /* check for errors */
 545:Generated_Source\PSoC6\pdl\drivers\peripheral\sysclk/cy_sysclk.c ****     if (_FLD2BOOL(SRSS_CLK_FLL_CONFIG_FLL_ENABLE, SRSS_CLK_FLL_CONFIG)) /* if enabled */
 510              		.loc 1 545 0
 511 0002 B024     		movs	r4, #176
 512 0004 244B     		ldr	r3, .L43
 513 0006 E400     		lsls	r4, r4, #3
 514 0008 1A59     		ldr	r2, [r3, r4]
 515 000a 002A     		cmp	r2, #0
 516 000c 42DB     		blt	.L41
ARM GAS  C:\Users\cmila\AppData\Local\Temp\cc5u2CXQ.s 			page 20


 517              	.LVL58:
 518              	.LBB29:
 519              	.LBB30:
 546:Generated_Source\PSoC6\pdl\drivers\peripheral\sysclk/cy_sysclk.c ****     {
 547:Generated_Source\PSoC6\pdl\drivers\peripheral\sysclk/cy_sysclk.c ****         retVal = CY_SYSCLK_INVALID_STATE;
 548:Generated_Source\PSoC6\pdl\drivers\peripheral\sysclk/cy_sysclk.c ****     }
 549:Generated_Source\PSoC6\pdl\drivers\peripheral\sysclk/cy_sysclk.c ****     else /* no errors */
 550:Generated_Source\PSoC6\pdl\drivers\peripheral\sysclk/cy_sysclk.c ****     {
 551:Generated_Source\PSoC6\pdl\drivers\peripheral\sysclk/cy_sysclk.c ****         /* update CLK_FLL_CONFIG register with 2 parameters; FLL_ENABLE is already 0 */
 552:Generated_Source\PSoC6\pdl\drivers\peripheral\sysclk/cy_sysclk.c ****         /* asserts just check for bitfield overflow */
 553:Generated_Source\PSoC6\pdl\drivers\peripheral\sysclk/cy_sysclk.c ****         CY_ASSERT_L1(config->fllMult <= (SRSS_CLK_FLL_CONFIG_FLL_MULT_Msk >> SRSS_CLK_FLL_CONFIG_FL
 554:Generated_Source\PSoC6\pdl\drivers\peripheral\sysclk/cy_sysclk.c **** 
 555:Generated_Source\PSoC6\pdl\drivers\peripheral\sysclk/cy_sysclk.c ****         SRSS_CLK_FLL_CONFIG = _VAL2FLD(SRSS_CLK_FLL_CONFIG_FLL_MULT, config->fllMult) |
 520              		.loc 1 555 0
 521 000e 0268     		ldr	r2, [r0]
 522 0010 9203     		lsls	r2, r2, #14
 523 0012 910B     		lsrs	r1, r2, #14
 556:Generated_Source\PSoC6\pdl\drivers\peripheral\sysclk/cy_sysclk.c ****                              _BOOL2FLD(SRSS_CLK_FLL_CONFIG_FLL_OUTPUT_DIV, config->enableOutputDiv)
 524              		.loc 1 556 0
 525 0014 C279     		ldrb	r2, [r0, #7]
 526 0016 551E     		subs	r5, r2, #1
 527 0018 AA41     		sbcs	r2, r2, r5
 528 001a 1206     		lsls	r2, r2, #24
 555:Generated_Source\PSoC6\pdl\drivers\peripheral\sysclk/cy_sysclk.c ****                              _BOOL2FLD(SRSS_CLK_FLL_CONFIG_FLL_OUTPUT_DIV, config->enableOutputDiv)
 529              		.loc 1 555 0
 530 001c 0A43     		orrs	r2, r1
 531 001e 1A51     		str	r2, [r3, r4]
 557:Generated_Source\PSoC6\pdl\drivers\peripheral\sysclk/cy_sysclk.c **** 
 558:Generated_Source\PSoC6\pdl\drivers\peripheral\sysclk/cy_sysclk.c ****         /* update CLK_FLL_CONFIG2 register with 2 parameters */
 559:Generated_Source\PSoC6\pdl\drivers\peripheral\sysclk/cy_sysclk.c ****         /* asserts just check for bitfield overflow */
 560:Generated_Source\PSoC6\pdl\drivers\peripheral\sysclk/cy_sysclk.c ****         CY_ASSERT_L1(config->refDiv <= (SRSS_CLK_FLL_CONFIG2_FLL_REF_DIV_Msk >> SRSS_CLK_FLL_CONFIG
 561:Generated_Source\PSoC6\pdl\drivers\peripheral\sysclk/cy_sysclk.c ****         CY_ASSERT_L1(config->lockTolerance <= (SRSS_CLK_FLL_CONFIG2_LOCK_TOL_Msk >> SRSS_CLK_FLL_CO
 562:Generated_Source\PSoC6\pdl\drivers\peripheral\sysclk/cy_sysclk.c **** 
 563:Generated_Source\PSoC6\pdl\drivers\peripheral\sysclk/cy_sysclk.c ****         SRSS_CLK_FLL_CONFIG2 = _VAL2FLD(SRSS_CLK_FLL_CONFIG2_FLL_REF_DIV, config->refDiv) |
 532              		.loc 1 563 0
 533 0020 0289     		ldrh	r2, [r0, #8]
 534 0022 1E4D     		ldr	r5, .L43+4
 535 0024 1204     		lsls	r2, r2, #16
 536 0026 2A40     		ands	r2, r5
 537 0028 1100     		movs	r1, r2
 538 002a 8288     		ldrh	r2, [r0, #4]
 564:Generated_Source\PSoC6\pdl\drivers\peripheral\sysclk/cy_sysclk.c ****                                _VAL2FLD(SRSS_CLK_FLL_CONFIG2_LOCK_TOL, config->lockTolerance);
 565:Generated_Source\PSoC6\pdl\drivers\peripheral\sysclk/cy_sysclk.c **** 
 566:Generated_Source\PSoC6\pdl\drivers\peripheral\sysclk/cy_sysclk.c ****         /* update CLK_FLL_CONFIG3 register with 4 parameters */
 567:Generated_Source\PSoC6\pdl\drivers\peripheral\sysclk/cy_sysclk.c ****         /* asserts just check for bitfield overflow */
 568:Generated_Source\PSoC6\pdl\drivers\peripheral\sysclk/cy_sysclk.c ****         CY_ASSERT_L1(config->igain <= (SRSS_CLK_FLL_CONFIG3_FLL_LF_IGAIN_Msk >> SRSS_CLK_FLL_CONFIG
 569:Generated_Source\PSoC6\pdl\drivers\peripheral\sysclk/cy_sysclk.c ****         CY_ASSERT_L1(config->pgain <= (SRSS_CLK_FLL_CONFIG3_FLL_LF_PGAIN_Msk >> SRSS_CLK_FLL_CONFIG
 570:Generated_Source\PSoC6\pdl\drivers\peripheral\sysclk/cy_sysclk.c ****         CY_ASSERT_L1(config->settlingCount <= (SRSS_CLK_FLL_CONFIG3_SETTLING_COUNT_Msk >> SRSS_CLK_
 571:Generated_Source\PSoC6\pdl\drivers\peripheral\sysclk/cy_sysclk.c **** 
 572:Generated_Source\PSoC6\pdl\drivers\peripheral\sysclk/cy_sysclk.c ****         SRSS_CLK_FLL_CONFIG3 = _VAL2FLD(SRSS_CLK_FLL_CONFIG3_FLL_LF_IGAIN, config->igain) |
 573:Generated_Source\PSoC6\pdl\drivers\peripheral\sysclk/cy_sysclk.c ****                                _VAL2FLD(SRSS_CLK_FLL_CONFIG3_FLL_LF_PGAIN, config->pgain) |
 574:Generated_Source\PSoC6\pdl\drivers\peripheral\sysclk/cy_sysclk.c ****                                _VAL2FLD(SRSS_CLK_FLL_CONFIG3_SETTLING_COUNT, config->settlingCount)
 539              		.loc 1 574 0
 540 002c C024     		movs	r4, #192
 563:Generated_Source\PSoC6\pdl\drivers\peripheral\sysclk/cy_sysclk.c ****                                _VAL2FLD(SRSS_CLK_FLL_CONFIG2_LOCK_TOL, config->lockTolerance);
 541              		.loc 1 563 0
 542 002e D204     		lsls	r2, r2, #19
ARM GAS  C:\Users\cmila\AppData\Local\Temp\cc5u2CXQ.s 			page 21


 543 0030 D20C     		lsrs	r2, r2, #19
 544 0032 0A43     		orrs	r2, r1
 545 0034 1A49     		ldr	r1, .L43+8
 546              		.loc 1 574 0
 547 0036 A405     		lsls	r4, r4, #22
 563:Generated_Source\PSoC6\pdl\drivers\peripheral\sysclk/cy_sysclk.c ****                                _VAL2FLD(SRSS_CLK_FLL_CONFIG2_LOCK_TOL, config->lockTolerance);
 548              		.loc 1 563 0
 549 0038 5A50     		str	r2, [r3, r1]
 550              		.loc 1 574 0
 551 003a FF21     		movs	r1, #255
 552 003c C67A     		ldrb	r6, [r0, #11]
 553 003e 8289     		ldrh	r2, [r0, #12]
 554 0040 3601     		lsls	r6, r6, #4
 555 0042 0E40     		ands	r6, r1
 556 0044 1749     		ldr	r1, .L43+12
 557 0046 1202     		lsls	r2, r2, #8
 558 0048 0A40     		ands	r2, r1
 559 004a 0F21     		movs	r1, #15
 560 004c 3243     		orrs	r2, r6
 561 004e 867A     		ldrb	r6, [r0, #10]
 562 0050 3140     		ands	r1, r6
 563 0052 0A43     		orrs	r2, r1
 564 0054 1600     		movs	r6, r2
 565 0056 827B     		ldrb	r2, [r0, #14]
 566 0058 1207     		lsls	r2, r2, #28
 567 005a 2240     		ands	r2, r4
 568 005c 1100     		movs	r1, r2
 569 005e 3200     		movs	r2, r6
 570 0060 0A43     		orrs	r2, r1
 572:Generated_Source\PSoC6\pdl\drivers\peripheral\sysclk/cy_sysclk.c ****                                _VAL2FLD(SRSS_CLK_FLL_CONFIG3_FLL_LF_PGAIN, config->pgain) |
 571              		.loc 1 572 0
 572 0062 B121     		movs	r1, #177
 573 0064 C900     		lsls	r1, r1, #3
 574 0066 5A50     		str	r2, [r3, r1]
 575:Generated_Source\PSoC6\pdl\drivers\peripheral\sysclk/cy_sysclk.c ****                                _VAL2FLD(SRSS_CLK_FLL_CONFIG3_BYPASS_SEL, config->outputMode);
 576:Generated_Source\PSoC6\pdl\drivers\peripheral\sysclk/cy_sysclk.c **** 
 577:Generated_Source\PSoC6\pdl\drivers\peripheral\sysclk/cy_sysclk.c ****         /* update CLK_FLL_CONFIG4 register with 1 parameter; preserve other bits */
 578:Generated_Source\PSoC6\pdl\drivers\peripheral\sysclk/cy_sysclk.c ****         /* asserts just check for bitfield overflow */
 579:Generated_Source\PSoC6\pdl\drivers\peripheral\sysclk/cy_sysclk.c ****         CY_ASSERT_L1(CY_SYSCLK_FLL_IS_CCO_RANGE_VALID(config->ccoRange));
 580:Generated_Source\PSoC6\pdl\drivers\peripheral\sysclk/cy_sysclk.c ****         CY_ASSERT_L1(config->cco_Freq <= (SRSS_CLK_FLL_CONFIG4_CCO_FREQ_Msk >> SRSS_CLK_FLL_CONFIG4
 581:Generated_Source\PSoC6\pdl\drivers\peripheral\sysclk/cy_sysclk.c **** 
 582:Generated_Source\PSoC6\pdl\drivers\peripheral\sysclk/cy_sysclk.c ****         CY_REG32_CLR_SET(SRSS_CLK_FLL_CONFIG4, SRSS_CLK_FLL_CONFIG4_CCO_RANGE, (uint32_t)(config->c
 575              		.loc 1 582 0
 576 0068 E022     		movs	r2, #224
 577 006a 8779     		ldrb	r7, [r0, #6]
 578 006c D200     		lsls	r2, r2, #3
 579 006e 3F02     		lsls	r7, r7, #8
 580 0070 1740     		ands	r7, r2
 581 0072 3900     		movs	r1, r7
 582 0074 0C4E     		ldr	r6, .L43+16
 583 0076 0D4A     		ldr	r2, .L43+20
 584 0078 9C59     		ldr	r4, [r3, r6]
 585 007a 1440     		ands	r4, r2
 586 007c 2143     		orrs	r1, r4
 587 007e 9951     		str	r1, [r3, r6]
 583:Generated_Source\PSoC6\pdl\drivers\peripheral\sysclk/cy_sysclk.c ****         CY_REG32_CLR_SET(SRSS_CLK_FLL_CONFIG4, SRSS_CLK_FLL_CONFIG4_CCO_FREQ, (uint32_t)(config->cc
 588              		.loc 1 583 0
ARM GAS  C:\Users\cmila\AppData\Local\Temp\cc5u2CXQ.s 			page 22


 589 0080 018A     		ldrh	r1, [r0, #16]
 590 0082 9A59     		ldr	r2, [r3, r6]
 591 0084 0904     		lsls	r1, r1, #16
 592 0086 0D40     		ands	r5, r1
 593 0088 0949     		ldr	r1, .L43+24
 594 008a 0020     		movs	r0, #0
 595              	.LVL59:
 596 008c 0A40     		ands	r2, r1
 597 008e 2A43     		orrs	r2, r5
 598 0090 9A51     		str	r2, [r3, r6]
 599              	.LVL60:
 600 0092 00E0     		b	.L39
 601              	.LVL61:
 602              	.L41:
 603              	.LBE30:
 604              	.LBE29:
 547:Generated_Source\PSoC6\pdl\drivers\peripheral\sysclk/cy_sysclk.c ****     }
 605              		.loc 1 547 0
 606 0094 0748     		ldr	r0, .L43+28
 607              	.LVL62:
 608              	.L39:
 584:Generated_Source\PSoC6\pdl\drivers\peripheral\sysclk/cy_sysclk.c ****     }
 585:Generated_Source\PSoC6\pdl\drivers\peripheral\sysclk/cy_sysclk.c **** 
 586:Generated_Source\PSoC6\pdl\drivers\peripheral\sysclk/cy_sysclk.c ****     return (retVal);
 587:Generated_Source\PSoC6\pdl\drivers\peripheral\sysclk/cy_sysclk.c **** }
 609              		.loc 1 587 0
 610              		@ sp needed
 611 0096 F0BD     		pop	{r4, r5, r6, r7, pc}
 612              	.L44:
 613              		.align	2
 614              	.L43:
 615 0098 00002640 		.word	1076232192
 616 009c 0000FF01 		.word	33488896
 617 00a0 84050000 		.word	1412
 618 00a4 00FF1F00 		.word	2096896
 619 00a8 8C050000 		.word	1420
 620 00ac FFF8FFFF 		.word	-1793
 621 00b0 FFFF00FE 		.word	-33488897
 622 00b4 03004A00 		.word	4849667
 623              		.cfi_endproc
 624              	.LFE163:
 625              		.size	Cy_SysClk_FllManualConfigure, .-Cy_SysClk_FllManualConfigure
 626              		.global	__aeabi_ui2f
 627              		.global	__aeabi_fdiv
 628              		.global	__aeabi_fcmplt
 629              		.global	__aeabi_fmul
 630              		.global	__aeabi_f2uiz
 631              		.global	__aeabi_fsub
 632              		.global	__aeabi_fcmpgt
 633              		.global	__aeabi_f2d
 634              		.global	__aeabi_fadd
 635              		.global	__aeabi_ddiv
 636              		.global	__aeabi_d2uiz
 637              		.section	.text.Cy_SysClk_FllConfigure,"ax",%progbits
 638              		.align	1
 639              		.global	Cy_SysClk_FllConfigure
 640              		.code	16
ARM GAS  C:\Users\cmila\AppData\Local\Temp\cc5u2CXQ.s 			page 23


 641              		.thumb_func
 642              		.type	Cy_SysClk_FllConfigure, %function
 643              	Cy_SysClk_FllConfigure:
 644              	.LFB162:
 399:Generated_Source\PSoC6\pdl\drivers\peripheral\sysclk/cy_sysclk.c ****     cy_en_sysclk_status_t retVal = CY_SYSCLK_SUCCESS;
 645              		.loc 1 399 0
 646              		.cfi_startproc
 647              		@ args = 0, pretend = 0, frame = 128
 648              		@ frame_needed = 0, uses_anonymous_args = 0
 649              	.LVL63:
 650 0000 F0B5     		push	{r4, r5, r6, r7, lr}
 651              		.cfi_def_cfa_offset 20
 652              		.cfi_offset 4, -20
 653              		.cfi_offset 5, -16
 654              		.cfi_offset 6, -12
 655              		.cfi_offset 7, -8
 656              		.cfi_offset 14, -4
 403:Generated_Source\PSoC6\pdl\drivers\peripheral\sysclk/cy_sysclk.c ****        (((float32_t)outputFreq / (float32_t)inputFreq) < 2.2f)) /* check output/input frequency rat
 657              		.loc 1 403 0
 658 0002 B14B     		ldr	r3, .L110
 399:Generated_Source\PSoC6\pdl\drivers\peripheral\sysclk/cy_sysclk.c ****     cy_en_sysclk_status_t retVal = CY_SYSCLK_SUCCESS;
 659              		.loc 1 399 0
 660 0004 1500     		movs	r5, r2
 403:Generated_Source\PSoC6\pdl\drivers\peripheral\sysclk/cy_sysclk.c ****        (((float32_t)outputFreq / (float32_t)inputFreq) < 2.2f)) /* check output/input frequency rat
 661              		.loc 1 403 0
 662 0006 CA18     		adds	r2, r1, r3
 663              	.LVL64:
 664 0008 B04B     		ldr	r3, .L110+4
 399:Generated_Source\PSoC6\pdl\drivers\peripheral\sysclk/cy_sysclk.c ****     cy_en_sysclk_status_t retVal = CY_SYSCLK_SUCCESS;
 665              		.loc 1 399 0
 666 000a A1B0     		sub	sp, sp, #132
 667              		.cfi_def_cfa_offset 152
 399:Generated_Source\PSoC6\pdl\drivers\peripheral\sysclk/cy_sysclk.c ****     cy_en_sysclk_status_t retVal = CY_SYSCLK_SUCCESS;
 668              		.loc 1 399 0
 669 000c 0600     		movs	r6, r0
 670 000e 0C00     		movs	r4, r1
 403:Generated_Source\PSoC6\pdl\drivers\peripheral\sysclk/cy_sysclk.c ****        (((float32_t)outputFreq / (float32_t)inputFreq) < 2.2f)) /* check output/input frequency rat
 671              		.loc 1 403 0
 672 0010 9A42     		cmp	r2, r3
 673 0012 00D9     		bls	.LCB645
 674 0014 54E1     		b	.L72	@long jump
 675              	.LCB645:
 404:Generated_Source\PSoC6\pdl\drivers\peripheral\sysclk/cy_sysclk.c ****     {
 676              		.loc 1 404 0 discriminator 1
 677 0016 0800     		movs	r0, r1
 678              	.LVL65:
 679 0018 FFF7FEFF 		bl	__aeabi_ui2f
 680              	.LVL66:
 681 001c 0290     		str	r0, [sp, #8]
 682 001e 3000     		movs	r0, r6
 683 0020 FFF7FEFF 		bl	__aeabi_ui2f
 684              	.LVL67:
 403:Generated_Source\PSoC6\pdl\drivers\peripheral\sysclk/cy_sysclk.c ****        (((float32_t)outputFreq / (float32_t)inputFreq) < 2.2f)) /* check output/input frequency rat
 685              		.loc 1 403 0 discriminator 1
 686 0024 011C     		adds	r1, r0, #0
 404:Generated_Source\PSoC6\pdl\drivers\peripheral\sysclk/cy_sysclk.c ****     {
 687              		.loc 1 404 0 discriminator 1
ARM GAS  C:\Users\cmila\AppData\Local\Temp\cc5u2CXQ.s 			page 24


 688 0026 0090     		str	r0, [sp]
 403:Generated_Source\PSoC6\pdl\drivers\peripheral\sysclk/cy_sysclk.c ****        (((float32_t)outputFreq / (float32_t)inputFreq) < 2.2f)) /* check output/input frequency rat
 689              		.loc 1 403 0 discriminator 1
 690 0028 0298     		ldr	r0, [sp, #8]
 691 002a FFF7FEFF 		bl	__aeabi_fdiv
 692              	.LVL68:
 693 002e A849     		ldr	r1, .L110+8
 694 0030 FFF7FEFF 		bl	__aeabi_fcmplt
 695              	.LVL69:
 696 0034 0028     		cmp	r0, #0
 697 0036 00D0     		beq	.LCB664
 698 0038 42E1     		b	.L72	@long jump
 699              	.LCB664:
 413:Generated_Source\PSoC6\pdl\drivers\peripheral\sysclk/cy_sysclk.c ****         {
 700              		.loc 1 413 0
 701 003a 022D     		cmp	r5, #2
 702 003c 00D1     		bne	.LCB666
 703 003e 34E1     		b	.L47	@long jump
 704              	.LCB666:
 705              	.LBB31:
 417:Generated_Source\PSoC6\pdl\drivers\peripheral\sysclk/cy_sysclk.c **** 
 706              		.loc 1 417 0
 707 0040 FFF7FEFF 		bl	Cy_SysClk_ClkPathGetSource
 708              	.LVL70:
 421:Generated_Source\PSoC6\pdl\drivers\peripheral\sysclk/cy_sysclk.c ****             /* 2. Compute the target CCO frequency from the target output frequency and output divi
 709              		.loc 1 421 0
 710 0044 0122     		movs	r2, #1
 419:Generated_Source\PSoC6\pdl\drivers\peripheral\sysclk/cy_sysclk.c ****             /* 1. Output division by 2 is always required. */
 711              		.loc 1 419 0
 712 0046 05AB     		add	r3, sp, #20
 421:Generated_Source\PSoC6\pdl\drivers\peripheral\sysclk/cy_sysclk.c ****             /* 2. Compute the target CCO frequency from the target output frequency and output divi
 713              		.loc 1 421 0
 714 0048 DA71     		strb	r2, [r3, #7]
 425:Generated_Source\PSoC6\pdl\drivers\peripheral\sysclk/cy_sysclk.c ****                                ((ccoFreq >= 113009380UL) ? CY_SYSCLK_FLL_CCO_RANGE3 :
 715              		.loc 1 425 0
 716 004a A24A     		ldr	r2, .L110+12
 423:Generated_Source\PSoC6\pdl\drivers\peripheral\sysclk/cy_sysclk.c ****             /* 3. Compute the CCO range value from the CCO frequency */
 717              		.loc 1 423 0
 718 004c 6700     		lsls	r7, r4, #1
 417:Generated_Source\PSoC6\pdl\drivers\peripheral\sysclk/cy_sysclk.c **** 
 719              		.loc 1 417 0
 720 004e 0190     		str	r0, [sp, #4]
 721              	.LVL71:
 419:Generated_Source\PSoC6\pdl\drivers\peripheral\sysclk/cy_sysclk.c ****             /* 1. Output division by 2 is always required. */
 722              		.loc 1 419 0
 723 0050 9D73     		strb	r5, [r3, #14]
 425:Generated_Source\PSoC6\pdl\drivers\peripheral\sysclk/cy_sysclk.c ****                                ((ccoFreq >= 113009380UL) ? CY_SYSCLK_FLL_CCO_RANGE3 :
 724              		.loc 1 425 0
 725 0052 0424     		movs	r4, #4
 726              	.LVL72:
 727 0054 9742     		cmp	r7, r2
 728 0056 0BD8     		bhi	.L48
 425:Generated_Source\PSoC6\pdl\drivers\peripheral\sysclk/cy_sysclk.c ****                                ((ccoFreq >= 113009380UL) ? CY_SYSCLK_FLL_CCO_RANGE3 :
 729              		.loc 1 425 0 is_stmt 0 discriminator 1
 730 0058 9F4A     		ldr	r2, .L110+16
 731 005a 013C     		subs	r4, r4, #1
 732 005c 9742     		cmp	r7, r2
ARM GAS  C:\Users\cmila\AppData\Local\Temp\cc5u2CXQ.s 			page 25


 733 005e 07D8     		bhi	.L48
 425:Generated_Source\PSoC6\pdl\drivers\peripheral\sysclk/cy_sysclk.c ****                                ((ccoFreq >= 113009380UL) ? CY_SYSCLK_FLL_CCO_RANGE3 :
 734              		.loc 1 425 0 discriminator 3
 735 0060 9E4A     		ldr	r2, .L110+20
 736 0062 013C     		subs	r4, r4, #1
 737 0064 9742     		cmp	r7, r2
 738 0066 03D8     		bhi	.L48
 425:Generated_Source\PSoC6\pdl\drivers\peripheral\sysclk/cy_sysclk.c ****                                ((ccoFreq >= 113009380UL) ? CY_SYSCLK_FLL_CCO_RANGE3 :
 739              		.loc 1 425 0 discriminator 5
 740 0068 9D4C     		ldr	r4, .L110+24
 741 006a BC42     		cmp	r4, r7
 742 006c A441     		sbcs	r4, r4, r4
 743 006e 6442     		rsbs	r4, r4, #0
 744              	.L48:
 425:Generated_Source\PSoC6\pdl\drivers\peripheral\sysclk/cy_sysclk.c ****                                ((ccoFreq >= 113009380UL) ? CY_SYSCLK_FLL_CCO_RANGE3 :
 745              		.loc 1 425 0 discriminator 12
 746 0070 9C71     		strb	r4, [r3, #6]
 747              	.LBB32:
 431:Generated_Source\PSoC6\pdl\drivers\peripheral\sysclk/cy_sysclk.c ****                 const float32_t fMargin[] = {43600000.0f, 58100000.0f, 77200000.0f, 103000000.0f, 1
 748              		.loc 1 431 0 is_stmt 1 discriminator 12
 749 0072 9C4B     		ldr	r3, .L110+28
 750 0074 0AA8     		add	r0, sp, #40
 751              	.LVL73:
 752 0076 0200     		movs	r2, r0
 753 0078 1900     		movs	r1, r3
 754 007a 9C46     		mov	ip, r3
 755 007c 29C9     		ldmia	r1!, {r0, r3, r5}
 756 007e 29C2     		stmia	r2!, {r0, r3, r5}
 757 0080 09C9     		ldmia	r1!, {r0, r3}
 758 0082 09C2     		stmia	r2!, {r0, r3}
 432:Generated_Source\PSoC6\pdl\drivers\peripheral\sysclk/cy_sysclk.c **** 
 759              		.loc 1 432 0 discriminator 12
 760 0084 0FA9     		add	r1, sp, #60
 761 0086 6346     		mov	r3, ip
 762 0088 0A00     		movs	r2, r1
 763 008a 1433     		adds	r3, r3, #20
 764 008c 23CB     		ldmia	r3!, {r0, r1, r5}
 765 008e 23C2     		stmia	r2!, {r0, r1, r5}
 766 0090 03CB     		ldmia	r3!, {r0, r1}
 767 0092 03C2     		stmia	r2!, {r0, r1}
 437:Generated_Source\PSoC6\pdl\drivers\peripheral\sysclk/cy_sysclk.c ****             /* 5. Compute the FLL multiplier value.
 768              		.loc 1 437 0 discriminator 12
 769 0094 019B     		ldr	r3, [sp, #4]
 770 0096 1325     		movs	r5, #19
 771 0098 1A00     		movs	r2, r3
 772 009a 1223     		movs	r3, #18
 773 009c FF33     		adds	r3, r3, #255
 774 009e 9A42     		cmp	r2, r3
 775 00a0 0BD0     		beq	.L49
 437:Generated_Source\PSoC6\pdl\drivers\peripheral\sysclk/cy_sysclk.c ****             /* 5. Compute the FLL multiplier value.
 776              		.loc 1 437 0 is_stmt 0 discriminator 2
 777 00a2 0299     		ldr	r1, [sp, #8]
 778 00a4 0098     		ldr	r0, [sp]
 779 00a6 FFF7FEFF 		bl	__aeabi_fdiv
 780              	.LVL74:
 781 00aa 8F49     		ldr	r1, .L110+32
 782 00ac FFF7FEFF 		bl	__aeabi_fmul
ARM GAS  C:\Users\cmila\AppData\Local\Temp\cc5u2CXQ.s 			page 26


 783              	.LVL75:
 784 00b0 FFF7FEFF 		bl	ceilf
 785              	.LVL76:
 786 00b4 FFF7FEFF 		bl	__aeabi_f2uiz
 787              	.LVL77:
 788 00b8 85B2     		uxth	r5, r0
 789              	.L49:
 437:Generated_Source\PSoC6\pdl\drivers\peripheral\sysclk/cy_sysclk.c ****             /* 5. Compute the FLL multiplier value.
 790              		.loc 1 437 0 discriminator 4
 791 00ba 04AB     		add	r3, sp, #16
 440:Generated_Source\PSoC6\pdl\drivers\peripheral\sysclk/cy_sysclk.c ****             /* 6. Compute the lock tolerance.
 792              		.loc 1 440 0 is_stmt 1 discriminator 4
 793 00bc 6808     		lsrs	r0, r5, #1
 437:Generated_Source\PSoC6\pdl\drivers\peripheral\sysclk/cy_sysclk.c ****             /* 5. Compute the FLL multiplier value.
 794              		.loc 1 437 0 discriminator 4
 795 00be 1D81     		strh	r5, [r3, #8]
 440:Generated_Source\PSoC6\pdl\drivers\peripheral\sysclk/cy_sysclk.c ****             /* 6. Compute the lock tolerance.
 796              		.loc 1 440 0 discriminator 4
 797 00c0 2900     		movs	r1, r5
 798 00c2 8019     		adds	r0, r0, r6
 799 00c4 FFF7FEFF 		bl	__aeabi_uidiv
 800              	.LVL78:
 801 00c8 0100     		movs	r1, r0
 802 00ca 781E     		subs	r0, r7, #1
 803 00cc FFF7FEFF 		bl	__aeabi_uidiv
 804              	.LVL79:
 805 00d0 0130     		adds	r0, r0, #1
 806 00d2 0590     		str	r0, [sp, #20]
 446:Generated_Source\PSoC6\pdl\drivers\peripheral\sysclk/cy_sysclk.c ****             /* 7. Compute the CCO igain and pgain. */
 807              		.loc 1 446 0 discriminator 4
 808 00d4 FFF7FEFF 		bl	__aeabi_ui2f
 809              	.LVL80:
 810 00d8 8449     		ldr	r1, .L110+36
 811 00da FFF7FEFF 		bl	__aeabi_fmul
 812              	.LVL81:
 813 00de FFF7FEFF 		bl	ceilf
 814              	.LVL82:
 815 00e2 FFF7FEFF 		bl	__aeabi_f2uiz
 816              	.LVL83:
 817 00e6 04AB     		add	r3, sp, #16
 818 00e8 9881     		strh	r0, [r3, #12]
 819              	.LBB33:
 450:Generated_Source\PSoC6\pdl\drivers\peripheral\sysclk/cy_sysclk.c ****                     float32_t ki_p = (0.85f / (kcco * ((float32_t)(config.refDiv) / (float32_t)inpu
 820              		.loc 1 450 0 discriminator 4
 821 00ea A400     		lsls	r4, r4, #2
 822 00ec 0FAB     		add	r3, sp, #60
 823 00ee E358     		ldr	r3, [r4, r3]
 458:Generated_Source\PSoC6\pdl\drivers\peripheral\sysclk/cy_sysclk.c ****                         (gains[config.igain] > ki_p) && (config.igain != 0UL); config.igain--){}
 824              		.loc 1 458 0 discriminator 4
 825 00f0 0026     		movs	r6, #0
 826              	.LVL84:
 450:Generated_Source\PSoC6\pdl\drivers\peripheral\sysclk/cy_sysclk.c ****                     float32_t ki_p = (0.85f / (kcco * ((float32_t)(config.refDiv) / (float32_t)inpu
 827              		.loc 1 450 0 discriminator 4
 828 00f2 0393     		str	r3, [sp, #12]
 829              	.LVL85:
 830 00f4 0AAB     		add	r3, sp, #40
 451:Generated_Source\PSoC6\pdl\drivers\peripheral\sysclk/cy_sysclk.c **** 
ARM GAS  C:\Users\cmila\AppData\Local\Temp\cc5u2CXQ.s 			page 27


 831              		.loc 1 451 0 discriminator 4
 832 00f6 E158     		ldr	r1, [r4, r3]
 833 00f8 0398     		ldr	r0, [sp, #12]
 834 00fa FFF7FEFF 		bl	__aeabi_fmul
 835              	.LVL86:
 836 00fe 7C49     		ldr	r1, .L110+40
 837 0100 FFF7FEFF 		bl	__aeabi_fdiv
 838              	.LVL87:
 839 0104 041C     		adds	r4, r0, #0
 840 0106 2800     		movs	r0, r5
 841 0108 FFF7FEFF 		bl	__aeabi_ui2f
 842              	.LVL88:
 843 010c 0099     		ldr	r1, [sp]
 844 010e FFF7FEFF 		bl	__aeabi_fdiv
 845              	.LVL89:
 846 0112 011C     		adds	r1, r0, #0
 847 0114 201C     		adds	r0, r4, #0
 848 0116 FFF7FEFF 		bl	__aeabi_fmul
 849              	.LVL90:
 850 011a 011C     		adds	r1, r0, #0
 851 011c 7548     		ldr	r0, .L110+44
 852 011e FFF7FEFF 		bl	__aeabi_fdiv
 853              	.LVL91:
 854 0122 7349     		ldr	r1, .L110+40
 855 0124 FFF7FEFF 		bl	__aeabi_fdiv
 856              	.LVL92:
 454:Generated_Source\PSoC6\pdl\drivers\peripheral\sysclk/cy_sysclk.c ****                                                0.5f, 1.0f, 2.0f, 4.0f, 8.0f};
 857              		.loc 1 454 0 discriminator 4
 858 0128 14A9     		add	r1, sp, #80
 859 012a 0A00     		movs	r2, r1
 860 012c 6D4B     		ldr	r3, .L110+28
 451:Generated_Source\PSoC6\pdl\drivers\peripheral\sysclk/cy_sysclk.c **** 
 861              		.loc 1 451 0 discriminator 4
 862 012e 051C     		adds	r5, r0, #0
 863              	.LVL93:
 454:Generated_Source\PSoC6\pdl\drivers\peripheral\sysclk/cy_sysclk.c ****                                                0.5f, 1.0f, 2.0f, 4.0f, 8.0f};
 864              		.loc 1 454 0 discriminator 4
 865 0130 2833     		adds	r3, r3, #40
 866 0132 13CB     		ldmia	r3!, {r0, r1, r4}
 867 0134 13C2     		stmia	r2!, {r0, r1, r4}
 868              	.LVL94:
 869 0136 13CB     		ldmia	r3!, {r0, r1, r4}
 870 0138 13C2     		stmia	r2!, {r0, r1, r4}
 871 013a 13CB     		ldmia	r3!, {r0, r1, r4}
 872 013c 13C2     		stmia	r2!, {r0, r1, r4}
 873 013e 13CB     		ldmia	r3!, {r0, r1, r4}
 874 0140 13C2     		stmia	r2!, {r0, r1, r4}
 458:Generated_Source\PSoC6\pdl\drivers\peripheral\sysclk/cy_sysclk.c ****                         (gains[config.igain] > ki_p) && (config.igain != 0UL); config.igain--){}
 875              		.loc 1 458 0 discriminator 4
 876 0142 0B24     		movs	r4, #11
 877 0144 04AB     		add	r3, sp, #16
 878 0146 9C73     		strb	r4, [r3, #14]
 879              	.L50:
 459:Generated_Source\PSoC6\pdl\drivers\peripheral\sysclk/cy_sysclk.c ****                     /* decrement igain if the WCO is the FLL source */
 880              		.loc 1 459 0 discriminator 1
 881 0148 A300     		lsls	r3, r4, #2
 458:Generated_Source\PSoC6\pdl\drivers\peripheral\sysclk/cy_sysclk.c ****                         (gains[config.igain] > ki_p) && (config.igain != 0UL); config.igain--){}
ARM GAS  C:\Users\cmila\AppData\Local\Temp\cc5u2CXQ.s 			page 28


 882              		.loc 1 458 0 discriminator 1
 883 014a 14AA     		add	r2, sp, #80
 884 014c 9958     		ldr	r1, [r3, r2]
 885 014e 281C     		adds	r0, r5, #0
 886 0150 FFF7FEFF 		bl	__aeabi_fcmplt
 887              	.LVL95:
 888 0154 0028     		cmp	r0, #0
 889 0156 08D0     		beq	.L100
 459:Generated_Source\PSoC6\pdl\drivers\peripheral\sysclk/cy_sysclk.c ****                     /* decrement igain if the WCO is the FLL source */
 890              		.loc 1 459 0 discriminator 2
 891 0158 002C     		cmp	r4, #0
 892 015a 03D0     		beq	.L108
 459:Generated_Source\PSoC6\pdl\drivers\peripheral\sysclk/cy_sysclk.c ****                     /* decrement igain if the WCO is the FLL source */
 893              		.loc 1 459 0 is_stmt 0 discriminator 1
 894 015c 013C     		subs	r4, r4, #1
 895 015e E4B2     		uxtb	r4, r4
 896 0160 0126     		movs	r6, #1
 897 0162 F1E7     		b	.L50
 898              	.L108:
 899 0164 002E     		cmp	r6, #0
 900 0166 0FD0     		beq	.L55
 901 0168 0CE0     		b	.L104
 902              	.L100:
 903 016a 002E     		cmp	r6, #0
 904 016c 01D0     		beq	.L56
 905 016e 05AB     		add	r3, sp, #20
 906 0170 9C72     		strb	r4, [r3, #10]
 907              	.L56:
 461:Generated_Source\PSoC6\pdl\drivers\peripheral\sysclk/cy_sysclk.c ****                     {
 908              		.loc 1 461 0 is_stmt 1
 909 0172 019B     		ldr	r3, [sp, #4]
 910 0174 1A00     		movs	r2, r3
 911 0176 1223     		movs	r3, #18
 912 0178 FF33     		adds	r3, r3, #255
 913 017a 9A42     		cmp	r2, r3
 914 017c 04D1     		bne	.L55
 461:Generated_Source\PSoC6\pdl\drivers\peripheral\sysclk/cy_sysclk.c ****                     {
 915              		.loc 1 461 0 is_stmt 0 discriminator 1
 916 017e 002C     		cmp	r4, #0
 917 0180 02D0     		beq	.L55
 463:Generated_Source\PSoC6\pdl\drivers\peripheral\sysclk/cy_sysclk.c ****                     }
 918              		.loc 1 463 0 is_stmt 1
 919 0182 013C     		subs	r4, r4, #1
 920              	.L104:
 921 0184 05AB     		add	r3, sp, #20
 922 0186 9C72     		strb	r4, [r3, #10]
 923              	.L55:
 466:Generated_Source\PSoC6\pdl\drivers\peripheral\sysclk/cy_sysclk.c ****                         (gains[config.pgain] > (ki_p - gains[config.igain])) && (config.pgain != 0U
 924              		.loc 1 466 0
 925 0188 0B24     		movs	r4, #11
 926 018a 04AB     		add	r3, sp, #16
 927 018c DC73     		strb	r4, [r3, #15]
 467:Generated_Source\PSoC6\pdl\drivers\peripheral\sysclk/cy_sysclk.c ****                         config.pgain--){}
 928              		.loc 1 467 0
 929 018e 9B7B     		ldrb	r3, [r3, #14]
 930 0190 14AA     		add	r2, sp, #80
 931 0192 9B00     		lsls	r3, r3, #2
ARM GAS  C:\Users\cmila\AppData\Local\Temp\cc5u2CXQ.s 			page 29


 932 0194 281C     		adds	r0, r5, #0
 933 0196 9958     		ldr	r1, [r3, r2]
 934 0198 FFF7FEFF 		bl	__aeabi_fsub
 935              	.LVL96:
 466:Generated_Source\PSoC6\pdl\drivers\peripheral\sysclk/cy_sysclk.c ****                         (gains[config.pgain] > (ki_p - gains[config.igain])) && (config.pgain != 0U
 936              		.loc 1 466 0
 937 019c 0025     		movs	r5, #0
 938              	.LVL97:
 467:Generated_Source\PSoC6\pdl\drivers\peripheral\sysclk/cy_sysclk.c ****                         config.pgain--){}
 939              		.loc 1 467 0
 940 019e 061C     		adds	r6, r0, #0
 941              	.L58:
 467:Generated_Source\PSoC6\pdl\drivers\peripheral\sysclk/cy_sysclk.c ****                         config.pgain--){}
 942              		.loc 1 467 0 is_stmt 0 discriminator 1
 943 01a0 A300     		lsls	r3, r4, #2
 466:Generated_Source\PSoC6\pdl\drivers\peripheral\sysclk/cy_sysclk.c ****                         (gains[config.pgain] > (ki_p - gains[config.igain])) && (config.pgain != 0U
 944              		.loc 1 466 0 is_stmt 1 discriminator 1
 945 01a2 14AA     		add	r2, sp, #80
 946 01a4 311C     		adds	r1, r6, #0
 947 01a6 9858     		ldr	r0, [r3, r2]
 948 01a8 FFF7FEFF 		bl	__aeabi_fcmpgt
 949              	.LVL98:
 950 01ac 0028     		cmp	r0, #0
 951 01ae 09D0     		beq	.L101
 467:Generated_Source\PSoC6\pdl\drivers\peripheral\sysclk/cy_sysclk.c ****                         config.pgain--){}
 952              		.loc 1 467 0
 953 01b0 002C     		cmp	r4, #0
 954 01b2 03D0     		beq	.L109
 468:Generated_Source\PSoC6\pdl\drivers\peripheral\sysclk/cy_sysclk.c ****                     /* decrement pgain if the WCO is the FLL source */
 955              		.loc 1 468 0
 956 01b4 013C     		subs	r4, r4, #1
 957 01b6 E4B2     		uxtb	r4, r4
 958 01b8 0125     		movs	r5, #1
 959 01ba F1E7     		b	.L58
 960              	.L109:
 961 01bc 05AB     		add	r3, sp, #20
 962 01be 002D     		cmp	r5, #0
 963 01c0 0ED0     		beq	.L63
 964 01c2 0CE0     		b	.L105
 965              	.L101:
 966 01c4 05AB     		add	r3, sp, #20
 967 01c6 002D     		cmp	r5, #0
 968 01c8 00D0     		beq	.L64
 969 01ca DC72     		strb	r4, [r3, #11]
 970              	.L64:
 470:Generated_Source\PSoC6\pdl\drivers\peripheral\sysclk/cy_sysclk.c ****                     {
 971              		.loc 1 470 0
 972 01cc 019A     		ldr	r2, [sp, #4]
 973 01ce 1100     		movs	r1, r2
 974 01d0 1222     		movs	r2, #18
 975 01d2 FF32     		adds	r2, r2, #255
 976 01d4 9142     		cmp	r1, r2
 977 01d6 03D1     		bne	.L63
 470:Generated_Source\PSoC6\pdl\drivers\peripheral\sysclk/cy_sysclk.c ****                     {
 978              		.loc 1 470 0 is_stmt 0 discriminator 1
 979 01d8 002C     		cmp	r4, #0
 980 01da 01D0     		beq	.L63
ARM GAS  C:\Users\cmila\AppData\Local\Temp\cc5u2CXQ.s 			page 30


 472:Generated_Source\PSoC6\pdl\drivers\peripheral\sysclk/cy_sysclk.c ****                     }
 981              		.loc 1 472 0 is_stmt 1
 982 01dc 013C     		subs	r4, r4, #1
 983              	.L105:
 984 01de DC72     		strb	r4, [r3, #11]
 985              	.L63:
 986              	.LBE33:
 476:Generated_Source\PSoC6\pdl\drivers\peripheral\sysclk/cy_sysclk.c ****                                                    log((float64_t)(1.0f + trimSteps[config.ccoRange
 987              		.loc 1 476 0
 988 01e0 3800     		movs	r0, r7
 989 01e2 FFF7FEFF 		bl	__aeabi_ui2f
 990              	.LVL99:
 991 01e6 0399     		ldr	r1, [sp, #12]
 992 01e8 FFF7FEFF 		bl	__aeabi_fdiv
 993              	.LVL100:
 994 01ec FFF7FEFF 		bl	__aeabi_f2d
 995              	.LVL101:
 996 01f0 FFF7FEFF 		bl	log
 997              	.LVL102:
 998 01f4 0D00     		movs	r5, r1
 477:Generated_Source\PSoC6\pdl\drivers\peripheral\sysclk/cy_sysclk.c ****             }
 999              		.loc 1 477 0
 1000 01f6 FE21     		movs	r1, #254
 1001 01f8 05AF     		add	r7, sp, #20
 1002              	.LVL103:
 1003 01fa BB79     		ldrb	r3, [r7, #6]
 1004 01fc 0AAA     		add	r2, sp, #40
 1005 01fe 9B00     		lsls	r3, r3, #2
 476:Generated_Source\PSoC6\pdl\drivers\peripheral\sysclk/cy_sysclk.c ****                                                    log((float64_t)(1.0f + trimSteps[config.ccoRange
 1006              		.loc 1 476 0
 1007 0200 0400     		movs	r4, r0
 477:Generated_Source\PSoC6\pdl\drivers\peripheral\sysclk/cy_sysclk.c ****             }
 1008              		.loc 1 477 0
 1009 0202 8905     		lsls	r1, r1, #22
 1010 0204 9858     		ldr	r0, [r3, r2]
 1011 0206 FFF7FEFF 		bl	__aeabi_fadd
 1012              	.LVL104:
 1013 020a FFF7FEFF 		bl	__aeabi_f2d
 1014              	.LVL105:
 1015 020e FFF7FEFF 		bl	log
 1016              	.LVL106:
 1017 0212 0200     		movs	r2, r0
 1018 0214 0B00     		movs	r3, r1
 476:Generated_Source\PSoC6\pdl\drivers\peripheral\sysclk/cy_sysclk.c ****                                                    log((float64_t)(1.0f + trimSteps[config.ccoRange
 1019              		.loc 1 476 0
 1020 0216 2000     		movs	r0, r4
 1021 0218 2900     		movs	r1, r5
 1022 021a FFF7FEFF 		bl	__aeabi_ddiv
 1023              	.LVL107:
 1024 021e FFF7FEFF 		bl	floor
 1025              	.LVL108:
 1026 0222 FFF7FEFF 		bl	__aeabi_d2uiz
 1027              	.LVL109:
 1028 0226 3882     		strh	r0, [r7, #16]
 1029              	.LBE32:
 1030              	.LBB34:
 482:Generated_Source\PSoC6\pdl\drivers\peripheral\sysclk/cy_sysclk.c ****                 float32_t testval = 6000.0f / (float32_t)outputFreq;
ARM GAS  C:\Users\cmila\AppData\Local\Temp\cc5u2CXQ.s 			page 31


 1031              		.loc 1 482 0
 1032 0228 B888     		ldrh	r0, [r7, #4]
 1033 022a FFF7FEFF 		bl	__aeabi_ui2f
 1034              	.LVL110:
 1035 022e 3049     		ldr	r1, .L110+40
 1036 0230 041C     		adds	r4, r0, #0
 1037 0232 0098     		ldr	r0, [sp]
 1038 0234 FFF7FEFF 		bl	__aeabi_fdiv
 1039              	.LVL111:
 1040 0238 011C     		adds	r1, r0, #0
 1041 023a 201C     		adds	r0, r4, #0
 1042 023c FFF7FEFF 		bl	__aeabi_fdiv
 1043              	.LVL112:
 483:Generated_Source\PSoC6\pdl\drivers\peripheral\sysclk/cy_sysclk.c ****                 float32_t divval  = (float32_t)ceil((float64_t)((float32_t)inputFreq * 0.000001f));
 1044              		.loc 1 483 0
 1045 0240 0299     		ldr	r1, [sp, #8]
 482:Generated_Source\PSoC6\pdl\drivers\peripheral\sysclk/cy_sysclk.c ****                 float32_t testval = 6000.0f / (float32_t)outputFreq;
 1046              		.loc 1 482 0
 1047 0242 061C     		adds	r6, r0, #0
 1048              	.LVL113:
 483:Generated_Source\PSoC6\pdl\drivers\peripheral\sysclk/cy_sysclk.c ****                 float32_t divval  = (float32_t)ceil((float64_t)((float32_t)inputFreq * 0.000001f));
 1049              		.loc 1 483 0
 1050 0244 2C48     		ldr	r0, .L110+48
 1051              	.LVL114:
 1052 0246 FFF7FEFF 		bl	__aeabi_fdiv
 1053              	.LVL115:
 484:Generated_Source\PSoC6\pdl\drivers\peripheral\sysclk/cy_sysclk.c ****                 float32_t altval  = (float32_t)ceil((float64_t)((divval / ttref) + 1.0f));
 1054              		.loc 1 484 0
 1055 024a 2C49     		ldr	r1, .L110+52
 483:Generated_Source\PSoC6\pdl\drivers\peripheral\sysclk/cy_sysclk.c ****                 float32_t divval  = (float32_t)ceil((float64_t)((float32_t)inputFreq * 0.000001f));
 1056              		.loc 1 483 0
 1057 024c 0290     		str	r0, [sp, #8]
 1058              	.LVL116:
 484:Generated_Source\PSoC6\pdl\drivers\peripheral\sysclk/cy_sysclk.c ****                 float32_t altval  = (float32_t)ceil((float64_t)((divval / ttref) + 1.0f));
 1059              		.loc 1 484 0
 1060 024e 0098     		ldr	r0, [sp]
 1061              	.LVL117:
 1062 0250 FFF7FEFF 		bl	__aeabi_fmul
 1063              	.LVL118:
 1064 0254 FFF7FEFF 		bl	ceilf
 1065              	.LVL119:
 485:Generated_Source\PSoC6\pdl\drivers\peripheral\sysclk/cy_sysclk.c ****                 config.settlingCount = wcoSource ? 200U : (uint16)
 1066              		.loc 1 485 0
 1067 0258 311C     		adds	r1, r6, #0
 484:Generated_Source\PSoC6\pdl\drivers\peripheral\sysclk/cy_sysclk.c ****                 float32_t altval  = (float32_t)ceil((float64_t)((divval / ttref) + 1.0f));
 1068              		.loc 1 484 0
 1069 025a 041C     		adds	r4, r0, #0
 1070              	.LVL120:
 485:Generated_Source\PSoC6\pdl\drivers\peripheral\sysclk/cy_sysclk.c ****                 config.settlingCount = wcoSource ? 200U : (uint16)
 1071              		.loc 1 485 0
 1072 025c FFF7FEFF 		bl	__aeabi_fdiv
 1073              	.LVL121:
 1074 0260 FE21     		movs	r1, #254
 1075 0262 8905     		lsls	r1, r1, #22
 1076 0264 FFF7FEFF 		bl	__aeabi_fadd
 1077              	.LVL122:
 1078 0268 FFF7FEFF 		bl	ceilf
ARM GAS  C:\Users\cmila\AppData\Local\Temp\cc5u2CXQ.s 			page 32


 1079              	.LVL123:
 486:Generated_Source\PSoC6\pdl\drivers\peripheral\sysclk/cy_sysclk.c ****                               ((ttref > testval) ? divval :
 1080              		.loc 1 486 0
 1081 026c 019B     		ldr	r3, [sp, #4]
 485:Generated_Source\PSoC6\pdl\drivers\peripheral\sysclk/cy_sysclk.c ****                 config.settlingCount = wcoSource ? 200U : (uint16)
 1082              		.loc 1 485 0
 1083 026e 051C     		adds	r5, r0, #0
 1084              	.LVL124:
 486:Generated_Source\PSoC6\pdl\drivers\peripheral\sysclk/cy_sysclk.c ****                               ((ttref > testval) ? divval :
 1085              		.loc 1 486 0
 1086 0270 1A00     		movs	r2, r3
 1087 0272 1223     		movs	r3, #18
 1088 0274 FF33     		adds	r3, r3, #255
 1089 0276 C820     		movs	r0, #200
 1090              	.LVL125:
 1091 0278 9A42     		cmp	r2, r3
 1092 027a 11D0     		beq	.L66
 486:Generated_Source\PSoC6\pdl\drivers\peripheral\sysclk/cy_sysclk.c ****                               ((ttref > testval) ? divval :
 1093              		.loc 1 486 0 is_stmt 0 discriminator 2
 1094 027c 0299     		ldr	r1, [sp, #8]
 1095 027e 301C     		adds	r0, r6, #0
 1096 0280 FFF7FEFF 		bl	__aeabi_fcmpgt
 1097              	.LVL126:
 1098 0284 0028     		cmp	r0, #0
 1099 0286 05D1     		bne	.L107
 486:Generated_Source\PSoC6\pdl\drivers\peripheral\sysclk/cy_sysclk.c ****                               ((ttref > testval) ? divval :
 1100              		.loc 1 486 0 discriminator 5
 1101 0288 291C     		adds	r1, r5, #0
 1102 028a 201C     		adds	r0, r4, #0
 1103 028c FFF7FEFF 		bl	__aeabi_fcmpgt
 1104              	.LVL127:
 1105 0290 0028     		cmp	r0, #0
 1106 0292 01D0     		beq	.L103
 1107              	.L107:
 486:Generated_Source\PSoC6\pdl\drivers\peripheral\sysclk/cy_sysclk.c ****                               ((ttref > testval) ? divval :
 1108              		.loc 1 486 0 discriminator 7
 1109 0294 201C     		adds	r0, r4, #0
 1110 0296 00E0     		b	.L106
 1111              	.L103:
 486:Generated_Source\PSoC6\pdl\drivers\peripheral\sysclk/cy_sysclk.c ****                               ((ttref > testval) ? divval :
 1112              		.loc 1 486 0 discriminator 8
 1113 0298 281C     		adds	r0, r5, #0
 1114              	.L106:
 1115 029a FFF7FEFF 		bl	__aeabi_f2uiz
 1116              	.LVL128:
 1117 029e 80B2     		uxth	r0, r0
 1118              	.L66:
 486:Generated_Source\PSoC6\pdl\drivers\peripheral\sysclk/cy_sysclk.c ****                               ((ttref > testval) ? divval :
 1119              		.loc 1 486 0 discriminator 12
 1120 02a0 B881     		strh	r0, [r7, #12]
 1121              	.LBE34:
 491:Generated_Source\PSoC6\pdl\drivers\peripheral\sysclk/cy_sysclk.c ****         } /* if not, bypass output mode */
 1122              		.loc 1 491 0 is_stmt 1 discriminator 12
 1123 02a2 3800     		movs	r0, r7
 1124 02a4 FFF7FEFF 		bl	Cy_SysClk_FllManualConfigure
 1125              	.LVL129:
 1126              	.LBE31:
ARM GAS  C:\Users\cmila\AppData\Local\Temp\cc5u2CXQ.s 			page 33


 1127 02a8 0BE0     		b	.L46
 1128              	.LVL130:
 1129              	.L47:
 496:Generated_Source\PSoC6\pdl\drivers\peripheral\sysclk/cy_sysclk.c ****         }
 1130              		.loc 1 496 0
 1131 02aa B122     		movs	r2, #177
 1132 02ac 1449     		ldr	r1, .L110+56
 1133 02ae D200     		lsls	r2, r2, #3
 1134 02b0 8C58     		ldr	r4, [r1, r2]
 1135              	.LVL131:
 1136 02b2 144B     		ldr	r3, .L110+60
 1137 02b4 2340     		ands	r3, r4
 1138 02b6 8024     		movs	r4, #128
 1139 02b8 A405     		lsls	r4, r4, #22
 1140 02ba 2343     		orrs	r3, r4
 1141 02bc 8B50     		str	r3, [r1, r2]
 1142 02be 00E0     		b	.L46
 1143              	.LVL132:
 1144              	.L72:
 406:Generated_Source\PSoC6\pdl\drivers\peripheral\sysclk/cy_sysclk.c ****     }
 1145              		.loc 1 406 0
 1146 02c0 1148     		ldr	r0, .L110+64
 1147              	.LVL133:
 1148              	.L46:
 501:Generated_Source\PSoC6\pdl\drivers\peripheral\sysclk/cy_sysclk.c **** 
 1149              		.loc 1 501 0
 1150 02c2 21B0     		add	sp, sp, #132
 1151              		@ sp needed
 1152 02c4 F0BD     		pop	{r4, r5, r6, r7, pc}
 1153              	.L111:
 1154 02c6 C046     		.align	2
 1155              	.L110:
 1156 02c8 00CA91FE 		.word	-24000000
 1157 02cc 00AB8704 		.word	76000000
 1158 02d0 CDCC0C40 		.word	1074580685
 1159 02d4 7FFEF508 		.word	150339199
 1160 02d8 E362BC06 		.word	113009379
 1161 02dc DB361005 		.word	84948699
 1162 02e0 EF5BCE03 		.word	63855599
 1163 02e4 00000000 		.word	.LANCHOR0
 1164 02e8 00007A43 		.word	1132068864
 1165 02ec F6259B3C 		.word	1016800758
 1166 02f0 00007A44 		.word	1148846080
 1167 02f4 9A99593F 		.word	1062836634
 1168 02f8 0080BB45 		.word	1169915904
 1169 02fc BD378635 		.word	897988541
 1170 0300 00002640 		.word	1076232192
 1171 0304 FFFFFFCF 		.word	-805306369
 1172 0308 01004A00 		.word	4849665
 1173              		.cfi_endproc
 1174              	.LFE162:
 1175              		.size	Cy_SysClk_FllConfigure, .-Cy_SysClk_FllConfigure
 1176              		.section	.text.Cy_SysClk_FllGetConfiguration,"ax",%progbits
 1177              		.align	1
 1178              		.global	Cy_SysClk_FllGetConfiguration
 1179              		.code	16
 1180              		.thumb_func
ARM GAS  C:\Users\cmila\AppData\Local\Temp\cc5u2CXQ.s 			page 34


 1181              		.type	Cy_SysClk_FllGetConfiguration, %function
 1182              	Cy_SysClk_FllGetConfiguration:
 1183              	.LFB164:
 588:Generated_Source\PSoC6\pdl\drivers\peripheral\sysclk/cy_sysclk.c **** 
 589:Generated_Source\PSoC6\pdl\drivers\peripheral\sysclk/cy_sysclk.c **** /*******************************************************************************
 590:Generated_Source\PSoC6\pdl\drivers\peripheral\sysclk/cy_sysclk.c **** * Function Name: Cy_SysClk_FllGetConfiguration
 591:Generated_Source\PSoC6\pdl\drivers\peripheral\sysclk/cy_sysclk.c **** ****************************************************************************//**
 592:Generated_Source\PSoC6\pdl\drivers\peripheral\sysclk/cy_sysclk.c **** *
 593:Generated_Source\PSoC6\pdl\drivers\peripheral\sysclk/cy_sysclk.c **** * Reports the FLL configuration settings.
 594:Generated_Source\PSoC6\pdl\drivers\peripheral\sysclk/cy_sysclk.c **** *
 595:Generated_Source\PSoC6\pdl\drivers\peripheral\sysclk/cy_sysclk.c **** * \param config \ref cy_stc_fll_manual_config_t
 596:Generated_Source\PSoC6\pdl\drivers\peripheral\sysclk/cy_sysclk.c **** *
 597:Generated_Source\PSoC6\pdl\drivers\peripheral\sysclk/cy_sysclk.c **** * \funcusage
 598:Generated_Source\PSoC6\pdl\drivers\peripheral\sysclk/cy_sysclk.c **** * \snippet sysclk/2.0/snippet/main.c snippet_Cy_SysClk_FllGetConfiguration
 599:Generated_Source\PSoC6\pdl\drivers\peripheral\sysclk/cy_sysclk.c **** *
 600:Generated_Source\PSoC6\pdl\drivers\peripheral\sysclk/cy_sysclk.c **** *******************************************************************************/
 601:Generated_Source\PSoC6\pdl\drivers\peripheral\sysclk/cy_sysclk.c **** void Cy_SysClk_FllGetConfiguration(cy_stc_fll_manual_config_t *config)
 602:Generated_Source\PSoC6\pdl\drivers\peripheral\sysclk/cy_sysclk.c **** {
 1184              		.loc 1 602 0
 1185              		.cfi_startproc
 1186              		@ args = 0, pretend = 0, frame = 0
 1187              		@ frame_needed = 0, uses_anonymous_args = 0
 1188              	.LVL134:
 603:Generated_Source\PSoC6\pdl\drivers\peripheral\sysclk/cy_sysclk.c ****     CY_ASSERT_L1(config != NULL);
 604:Generated_Source\PSoC6\pdl\drivers\peripheral\sysclk/cy_sysclk.c ****     /* read 2 parameters from CLK_FLL_CONFIG register */
 605:Generated_Source\PSoC6\pdl\drivers\peripheral\sysclk/cy_sysclk.c ****     uint32_t tempReg = SRSS_CLK_FLL_CONFIG;
 1189              		.loc 1 605 0
 1190 0000 B023     		movs	r3, #176
 1191 0002 144A     		ldr	r2, .L113
 1192 0004 DB00     		lsls	r3, r3, #3
 1193 0006 D358     		ldr	r3, [r2, r3]
 1194              	.LVL135:
 602:Generated_Source\PSoC6\pdl\drivers\peripheral\sysclk/cy_sysclk.c ****     CY_ASSERT_L1(config != NULL);
 1195              		.loc 1 602 0
 1196 0008 10B5     		push	{r4, lr}
 1197              		.cfi_def_cfa_offset 8
 1198              		.cfi_offset 4, -8
 1199              		.cfi_offset 14, -4
 606:Generated_Source\PSoC6\pdl\drivers\peripheral\sysclk/cy_sysclk.c ****     config->fllMult         = _FLD2VAL(SRSS_CLK_FLL_CONFIG_FLL_MULT, tempReg);
 1200              		.loc 1 606 0
 1201 000a 9903     		lsls	r1, r3, #14
 607:Generated_Source\PSoC6\pdl\drivers\peripheral\sysclk/cy_sysclk.c ****     config->enableOutputDiv = _FLD2BOOL(SRSS_CLK_FLL_CONFIG_FLL_OUTPUT_DIV, tempReg);
 1202              		.loc 1 607 0
 1203 000c DB01     		lsls	r3, r3, #7
 1204              	.LVL136:
 1205 000e DB0F     		lsrs	r3, r3, #31
 606:Generated_Source\PSoC6\pdl\drivers\peripheral\sysclk/cy_sysclk.c ****     config->fllMult         = _FLD2VAL(SRSS_CLK_FLL_CONFIG_FLL_MULT, tempReg);
 1206              		.loc 1 606 0
 1207 0010 890B     		lsrs	r1, r1, #14
 1208              		.loc 1 607 0
 1209 0012 C371     		strb	r3, [r0, #7]
 608:Generated_Source\PSoC6\pdl\drivers\peripheral\sysclk/cy_sysclk.c ****     /* read 2 parameters from CLK_FLL_CONFIG2 register */
 609:Generated_Source\PSoC6\pdl\drivers\peripheral\sysclk/cy_sysclk.c ****     tempReg = SRSS_CLK_FLL_CONFIG2;
 1210              		.loc 1 609 0
 1211 0014 104B     		ldr	r3, .L113+4
 606:Generated_Source\PSoC6\pdl\drivers\peripheral\sysclk/cy_sysclk.c ****     config->enableOutputDiv = _FLD2BOOL(SRSS_CLK_FLL_CONFIG_FLL_OUTPUT_DIV, tempReg);
 1212              		.loc 1 606 0
ARM GAS  C:\Users\cmila\AppData\Local\Temp\cc5u2CXQ.s 			page 35


 1213 0016 0160     		str	r1, [r0]
 1214              		.loc 1 609 0
 1215 0018 D358     		ldr	r3, [r2, r3]
 1216              	.LVL137:
 610:Generated_Source\PSoC6\pdl\drivers\peripheral\sysclk/cy_sysclk.c ****     config->refDiv          = (uint16_t)_FLD2VAL(SRSS_CLK_FLL_CONFIG2_FLL_REF_DIV, tempReg);
 611:Generated_Source\PSoC6\pdl\drivers\peripheral\sysclk/cy_sysclk.c ****     config->lockTolerance   = (uint16_t)_FLD2VAL(SRSS_CLK_FLL_CONFIG2_LOCK_TOL, tempReg);
 612:Generated_Source\PSoC6\pdl\drivers\peripheral\sysclk/cy_sysclk.c ****     /* read 4 parameters from CLK_FLL_CONFIG3 register */
 613:Generated_Source\PSoC6\pdl\drivers\peripheral\sysclk/cy_sysclk.c ****     tempReg = SRSS_CLK_FLL_CONFIG3;
 614:Generated_Source\PSoC6\pdl\drivers\peripheral\sysclk/cy_sysclk.c ****     config->igain           = (uint8_t)_FLD2VAL(SRSS_CLK_FLL_CONFIG3_FLL_LF_IGAIN, tempReg);
 615:Generated_Source\PSoC6\pdl\drivers\peripheral\sysclk/cy_sysclk.c ****     config->pgain           = (uint8_t)_FLD2VAL(SRSS_CLK_FLL_CONFIG3_FLL_LF_PGAIN, tempReg);
 616:Generated_Source\PSoC6\pdl\drivers\peripheral\sysclk/cy_sysclk.c ****     config->settlingCount   = (uint16_t)_FLD2VAL(SRSS_CLK_FLL_CONFIG3_SETTLING_COUNT, tempReg);
 617:Generated_Source\PSoC6\pdl\drivers\peripheral\sysclk/cy_sysclk.c ****     config->outputMode      = (cy_en_fll_pll_output_mode_t)_FLD2VAL(SRSS_CLK_FLL_CONFIG3_BYPASS_SEL
 618:Generated_Source\PSoC6\pdl\drivers\peripheral\sysclk/cy_sysclk.c ****     /* read 1 parameter from CLK_FLL_CONFIG4 register */
 619:Generated_Source\PSoC6\pdl\drivers\peripheral\sysclk/cy_sysclk.c ****     config->ccoRange        = (cy_en_fll_cco_ranges_t)_FLD2VAL(SRSS_CLK_FLL_CONFIG4_CCO_RANGE, SRSS
 620:Generated_Source\PSoC6\pdl\drivers\peripheral\sysclk/cy_sysclk.c **** }
 1217              		.loc 1 620 0
 1218              		@ sp needed
 610:Generated_Source\PSoC6\pdl\drivers\peripheral\sysclk/cy_sysclk.c ****     config->refDiv          = (uint16_t)_FLD2VAL(SRSS_CLK_FLL_CONFIG2_FLL_REF_DIV, tempReg);
 1219              		.loc 1 610 0
 1220 001a D904     		lsls	r1, r3, #19
 611:Generated_Source\PSoC6\pdl\drivers\peripheral\sysclk/cy_sysclk.c ****     /* read 4 parameters from CLK_FLL_CONFIG3 register */
 1221              		.loc 1 611 0
 1222 001c DB01     		lsls	r3, r3, #7
 1223              	.LVL138:
 1224 001e DB0D     		lsrs	r3, r3, #23
 1225 0020 0381     		strh	r3, [r0, #8]
 613:Generated_Source\PSoC6\pdl\drivers\peripheral\sysclk/cy_sysclk.c ****     config->igain           = (uint8_t)_FLD2VAL(SRSS_CLK_FLL_CONFIG3_FLL_LF_IGAIN, tempReg);
 1226              		.loc 1 613 0
 1227 0022 B123     		movs	r3, #177
 1228 0024 DB00     		lsls	r3, r3, #3
 1229 0026 D358     		ldr	r3, [r2, r3]
 1230              	.LVL139:
 610:Generated_Source\PSoC6\pdl\drivers\peripheral\sysclk/cy_sysclk.c ****     config->refDiv          = (uint16_t)_FLD2VAL(SRSS_CLK_FLL_CONFIG2_FLL_REF_DIV, tempReg);
 1231              		.loc 1 610 0
 1232 0028 C90C     		lsrs	r1, r1, #19
 1233 002a 8180     		strh	r1, [r0, #4]
 614:Generated_Source\PSoC6\pdl\drivers\peripheral\sysclk/cy_sysclk.c ****     config->pgain           = (uint8_t)_FLD2VAL(SRSS_CLK_FLL_CONFIG3_FLL_LF_PGAIN, tempReg);
 1234              		.loc 1 614 0
 1235 002c 1C00     		movs	r4, r3
 1236 002e 0F21     		movs	r1, #15
 1237 0030 0C40     		ands	r4, r1
 1238 0032 8472     		strb	r4, [r0, #10]
 615:Generated_Source\PSoC6\pdl\drivers\peripheral\sysclk/cy_sysclk.c ****     config->settlingCount   = (uint16_t)_FLD2VAL(SRSS_CLK_FLL_CONFIG3_SETTLING_COUNT, tempReg);
 1239              		.loc 1 615 0
 1240 0034 1C09     		lsrs	r4, r3, #4
 1241 0036 2140     		ands	r1, r4
 1242 0038 C172     		strb	r1, [r0, #11]
 616:Generated_Source\PSoC6\pdl\drivers\peripheral\sysclk/cy_sysclk.c ****     config->outputMode      = (cy_en_fll_pll_output_mode_t)_FLD2VAL(SRSS_CLK_FLL_CONFIG3_BYPASS_SEL
 1243              		.loc 1 616 0
 1244 003a D902     		lsls	r1, r3, #11
 617:Generated_Source\PSoC6\pdl\drivers\peripheral\sysclk/cy_sysclk.c ****     /* read 1 parameter from CLK_FLL_CONFIG4 register */
 1245              		.loc 1 617 0
 1246 003c 9B00     		lsls	r3, r3, #2
 1247              	.LVL140:
 1248 003e 9B0F     		lsrs	r3, r3, #30
 1249 0040 8373     		strb	r3, [r0, #14]
 619:Generated_Source\PSoC6\pdl\drivers\peripheral\sysclk/cy_sysclk.c **** }
ARM GAS  C:\Users\cmila\AppData\Local\Temp\cc5u2CXQ.s 			page 36


 1250              		.loc 1 619 0
 1251 0042 064B     		ldr	r3, .L113+8
 616:Generated_Source\PSoC6\pdl\drivers\peripheral\sysclk/cy_sysclk.c ****     config->outputMode      = (cy_en_fll_pll_output_mode_t)_FLD2VAL(SRSS_CLK_FLL_CONFIG3_BYPASS_SEL
 1252              		.loc 1 616 0
 1253 0044 C90C     		lsrs	r1, r1, #19
 619:Generated_Source\PSoC6\pdl\drivers\peripheral\sysclk/cy_sysclk.c **** }
 1254              		.loc 1 619 0
 1255 0046 D358     		ldr	r3, [r2, r3]
 616:Generated_Source\PSoC6\pdl\drivers\peripheral\sysclk/cy_sysclk.c ****     config->outputMode      = (cy_en_fll_pll_output_mode_t)_FLD2VAL(SRSS_CLK_FLL_CONFIG3_BYPASS_SEL
 1256              		.loc 1 616 0
 1257 0048 8181     		strh	r1, [r0, #12]
 619:Generated_Source\PSoC6\pdl\drivers\peripheral\sysclk/cy_sysclk.c **** }
 1258              		.loc 1 619 0
 1259 004a 5B05     		lsls	r3, r3, #21
 1260 004c 5B0F     		lsrs	r3, r3, #29
 1261 004e 8371     		strb	r3, [r0, #6]
 1262              		.loc 1 620 0
 1263 0050 10BD     		pop	{r4, pc}
 1264              	.L114:
 1265 0052 C046     		.align	2
 1266              	.L113:
 1267 0054 00002640 		.word	1076232192
 1268 0058 84050000 		.word	1412
 1269 005c 8C050000 		.word	1420
 1270              		.cfi_endproc
 1271              	.LFE164:
 1272              		.size	Cy_SysClk_FllGetConfiguration, .-Cy_SysClk_FllGetConfiguration
 1273              		.section	.text.Cy_SysClk_FllEnable,"ax",%progbits
 1274              		.align	1
 1275              		.global	Cy_SysClk_FllEnable
 1276              		.code	16
 1277              		.thumb_func
 1278              		.type	Cy_SysClk_FllEnable, %function
 1279              	Cy_SysClk_FllEnable:
 1280              	.LFB165:
 621:Generated_Source\PSoC6\pdl\drivers\peripheral\sysclk/cy_sysclk.c **** 
 622:Generated_Source\PSoC6\pdl\drivers\peripheral\sysclk/cy_sysclk.c **** /*******************************************************************************
 623:Generated_Source\PSoC6\pdl\drivers\peripheral\sysclk/cy_sysclk.c **** * Function Name: Cy_SysClk_FllEnable
 624:Generated_Source\PSoC6\pdl\drivers\peripheral\sysclk/cy_sysclk.c **** ****************************************************************************//**
 625:Generated_Source\PSoC6\pdl\drivers\peripheral\sysclk/cy_sysclk.c **** *
 626:Generated_Source\PSoC6\pdl\drivers\peripheral\sysclk/cy_sysclk.c **** * Enables the FLL. The FLL should be configured before calling this function.
 627:Generated_Source\PSoC6\pdl\drivers\peripheral\sysclk/cy_sysclk.c **** *
 628:Generated_Source\PSoC6\pdl\drivers\peripheral\sysclk/cy_sysclk.c **** * \param timeoutus Amount of time in micro seconds to wait for FLL to lock.
 629:Generated_Source\PSoC6\pdl\drivers\peripheral\sysclk/cy_sysclk.c **** * If lock doesn't occur, the FLL is stopped. To avoid waiting for lock, set this to 0
 630:Generated_Source\PSoC6\pdl\drivers\peripheral\sysclk/cy_sysclk.c **** * and manually check for lock using \ref Cy_SysClk_FllLocked.
 631:Generated_Source\PSoC6\pdl\drivers\peripheral\sysclk/cy_sysclk.c **** *
 632:Generated_Source\PSoC6\pdl\drivers\peripheral\sysclk/cy_sysclk.c **** * \return Error / status code:<br>
 633:Generated_Source\PSoC6\pdl\drivers\peripheral\sysclk/cy_sysclk.c **** * CY_SYSCLK_SUCCESS - FLL successfully enabled<br>
 634:Generated_Source\PSoC6\pdl\drivers\peripheral\sysclk/cy_sysclk.c **** * CY_SYSCLK_TIMEOUT - Timeout waiting for FLL lock
 635:Generated_Source\PSoC6\pdl\drivers\peripheral\sysclk/cy_sysclk.c **** *
 636:Generated_Source\PSoC6\pdl\drivers\peripheral\sysclk/cy_sysclk.c **** * \note
 637:Generated_Source\PSoC6\pdl\drivers\peripheral\sysclk/cy_sysclk.c **** * While waiting for the FLL to lock, the FLL bypass mode is set to \ref CY_SYSCLK_FLLPLL_OUTPUT_INP
 638:Generated_Source\PSoC6\pdl\drivers\peripheral\sysclk/cy_sysclk.c **** * After the FLL is locked, the FLL bypass mdoe is then set to \ref CY_SYSCLK_FLLPLL_OUTPUT_OUTPUT.
 639:Generated_Source\PSoC6\pdl\drivers\peripheral\sysclk/cy_sysclk.c **** *
 640:Generated_Source\PSoC6\pdl\drivers\peripheral\sysclk/cy_sysclk.c **** * \note 
 641:Generated_Source\PSoC6\pdl\drivers\peripheral\sysclk/cy_sysclk.c **** * Call \ref SystemCoreClockUpdate after calling this function  
 642:Generated_Source\PSoC6\pdl\drivers\peripheral\sysclk/cy_sysclk.c **** * if it affects the CLK_HF0 frequency.
ARM GAS  C:\Users\cmila\AppData\Local\Temp\cc5u2CXQ.s 			page 37


 643:Generated_Source\PSoC6\pdl\drivers\peripheral\sysclk/cy_sysclk.c **** *
 644:Generated_Source\PSoC6\pdl\drivers\peripheral\sysclk/cy_sysclk.c **** * \note 
 645:Generated_Source\PSoC6\pdl\drivers\peripheral\sysclk/cy_sysclk.c **** * Call \ref Cy_SysLib_SetWaitStates before calling this function if
 646:Generated_Source\PSoC6\pdl\drivers\peripheral\sysclk/cy_sysclk.c **** * the FLL is the source of CLK_HF0 and the CLK_HF0 frequency is increasing.
 647:Generated_Source\PSoC6\pdl\drivers\peripheral\sysclk/cy_sysclk.c **** *
 648:Generated_Source\PSoC6\pdl\drivers\peripheral\sysclk/cy_sysclk.c **** * \funcusage
 649:Generated_Source\PSoC6\pdl\drivers\peripheral\sysclk/cy_sysclk.c **** * \snippet sysclk/2.0/snippet/main.c snippet_Cy_SysClk_FllEnable
 650:Generated_Source\PSoC6\pdl\drivers\peripheral\sysclk/cy_sysclk.c **** *
 651:Generated_Source\PSoC6\pdl\drivers\peripheral\sysclk/cy_sysclk.c **** *******************************************************************************/
 652:Generated_Source\PSoC6\pdl\drivers\peripheral\sysclk/cy_sysclk.c **** cy_en_sysclk_status_t Cy_SysClk_FllEnable(uint32_t timeoutus)
 653:Generated_Source\PSoC6\pdl\drivers\peripheral\sysclk/cy_sysclk.c **** {
 1281              		.loc 1 653 0
 1282              		.cfi_startproc
 1283              		@ args = 0, pretend = 0, frame = 8
 1284              		@ frame_needed = 0, uses_anonymous_args = 0
 1285              	.LVL141:
 1286 0000 F7B5     		push	{r0, r1, r2, r4, r5, r6, r7, lr}
 1287              		.cfi_def_cfa_offset 32
 1288              		.cfi_offset 0, -32
 1289              		.cfi_offset 1, -28
 1290              		.cfi_offset 2, -24
 1291              		.cfi_offset 4, -20
 1292              		.cfi_offset 5, -16
 1293              		.cfi_offset 6, -12
 1294              		.cfi_offset 7, -8
 1295              		.cfi_offset 14, -4
 654:Generated_Source\PSoC6\pdl\drivers\peripheral\sysclk/cy_sysclk.c ****     bool zeroTimeout = (0UL == timeoutus);
 655:Generated_Source\PSoC6\pdl\drivers\peripheral\sysclk/cy_sysclk.c **** 
 656:Generated_Source\PSoC6\pdl\drivers\peripheral\sysclk/cy_sysclk.c ****     /* first set the CCO enable bit */
 657:Generated_Source\PSoC6\pdl\drivers\peripheral\sysclk/cy_sysclk.c ****     SRSS_CLK_FLL_CONFIG4 |= SRSS_CLK_FLL_CONFIG4_CCO_ENABLE_Msk;
 1296              		.loc 1 657 0
 1297 0002 8021     		movs	r1, #128
 653:Generated_Source\PSoC6\pdl\drivers\peripheral\sysclk/cy_sysclk.c ****     bool zeroTimeout = (0UL == timeoutus);
 1298              		.loc 1 653 0
 1299 0004 0600     		movs	r6, r0
 658:Generated_Source\PSoC6\pdl\drivers\peripheral\sysclk/cy_sysclk.c **** 
 659:Generated_Source\PSoC6\pdl\drivers\peripheral\sysclk/cy_sysclk.c ****     /* Wait until CCO is ready */
 660:Generated_Source\PSoC6\pdl\drivers\peripheral\sysclk/cy_sysclk.c ****     for (; (!_FLD2BOOL(SRSS_CLK_FLL_STATUS_CCO_READY, SRSS_CLK_FLL_STATUS)) && /* if cco_ready == 0
 1300              		.loc 1 660 0
 1301 0006 0500     		movs	r5, r0
 1302 0008 0427     		movs	r7, #4
 657:Generated_Source\PSoC6\pdl\drivers\peripheral\sysclk/cy_sysclk.c **** 
 1303              		.loc 1 657 0
 1304 000a 2F4B     		ldr	r3, .L151
 1305 000c 2F4C     		ldr	r4, .L151+4
 1306 000e 0906     		lsls	r1, r1, #24
 1307 0010 E258     		ldr	r2, [r4, r3]
 1308 0012 0A43     		orrs	r2, r1
 1309 0014 E250     		str	r2, [r4, r3]
 1310 0016 0093     		str	r3, [sp]
 1311              	.LVL142:
 1312              	.L116:
 1313              		.loc 1 660 0
 1314 0018 B223     		movs	r3, #178
 1315 001a DB00     		lsls	r3, r3, #3
 1316 001c E358     		ldr	r3, [r4, r3]
 1317 001e 3B42     		tst	r3, r7
ARM GAS  C:\Users\cmila\AppData\Local\Temp\cc5u2CXQ.s 			page 38


 1318 0020 06D1     		bne	.L117
 1319              		.loc 1 660 0 is_stmt 0 discriminator 1
 1320 0022 002D     		cmp	r5, #0
 1321 0024 04D0     		beq	.L117
 661:Generated_Source\PSoC6\pdl\drivers\peripheral\sysclk/cy_sysclk.c ****            (0UL != timeoutus);
 662:Generated_Source\PSoC6\pdl\drivers\peripheral\sysclk/cy_sysclk.c ****          timeoutus--)
 663:Generated_Source\PSoC6\pdl\drivers\peripheral\sysclk/cy_sysclk.c ****     {
 664:Generated_Source\PSoC6\pdl\drivers\peripheral\sysclk/cy_sysclk.c ****         Cy_SysLib_DelayUs(1U);
 1322              		.loc 1 664 0 is_stmt 1
 1323 0026 0120     		movs	r0, #1
 1324 0028 FFF7FEFF 		bl	Cy_SysLib_DelayUs
 1325              	.LVL143:
 662:Generated_Source\PSoC6\pdl\drivers\peripheral\sysclk/cy_sysclk.c ****     {
 1326              		.loc 1 662 0
 1327 002c 013D     		subs	r5, r5, #1
 1328              	.LVL144:
 1329 002e F3E7     		b	.L116
 1330              	.L117:
 665:Generated_Source\PSoC6\pdl\drivers\peripheral\sysclk/cy_sysclk.c ****     }
 666:Generated_Source\PSoC6\pdl\drivers\peripheral\sysclk/cy_sysclk.c **** 
 667:Generated_Source\PSoC6\pdl\drivers\peripheral\sysclk/cy_sysclk.c ****     /* Set the FLL bypass mode to FLL_REF */
 668:Generated_Source\PSoC6\pdl\drivers\peripheral\sysclk/cy_sysclk.c ****     CY_REG32_CLR_SET(SRSS_CLK_FLL_CONFIG3, SRSS_CLK_FLL_CONFIG3_BYPASS_SEL, CY_SYSCLK_FLLPLL_OUTPUT
 1331              		.loc 1 668 0
 1332 0030 B121     		movs	r1, #177
 1333 0032 8020     		movs	r0, #128
 1334 0034 C900     		lsls	r1, r1, #3
 1335 0036 6358     		ldr	r3, [r4, r1]
 1336 0038 254A     		ldr	r2, .L151+8
 1337 003a 8005     		lsls	r0, r0, #22
 1338 003c 1340     		ands	r3, r2
 1339 003e 0343     		orrs	r3, r0
 1340 0040 6350     		str	r3, [r4, r1]
 1341 0042 0192     		str	r2, [sp, #4]
 669:Generated_Source\PSoC6\pdl\drivers\peripheral\sysclk/cy_sysclk.c **** 
 670:Generated_Source\PSoC6\pdl\drivers\peripheral\sysclk/cy_sysclk.c ****     /* Set the FLL enable bit, if CCO is ready */
 671:Generated_Source\PSoC6\pdl\drivers\peripheral\sysclk/cy_sysclk.c ****     if (zeroTimeout || (0UL != timeoutus))
 1342              		.loc 1 671 0
 1343 0044 002E     		cmp	r6, #0
 1344 0046 01D0     		beq	.L119
 1345              		.loc 1 671 0 is_stmt 0 discriminator 1
 1346 0048 002D     		cmp	r5, #0
 1347 004a 06D0     		beq	.L120
 1348              	.L119:
 672:Generated_Source\PSoC6\pdl\drivers\peripheral\sysclk/cy_sysclk.c ****     {
 673:Generated_Source\PSoC6\pdl\drivers\peripheral\sysclk/cy_sysclk.c ****         SRSS_CLK_FLL_CONFIG |= SRSS_CLK_FLL_CONFIG_FLL_ENABLE_Msk;
 1349              		.loc 1 673 0 is_stmt 1
 1350 004c B022     		movs	r2, #176
 1351 004e 8021     		movs	r1, #128
 1352 0050 D200     		lsls	r2, r2, #3
 1353 0052 A358     		ldr	r3, [r4, r2]
 1354 0054 0906     		lsls	r1, r1, #24
 1355 0056 0B43     		orrs	r3, r1
 1356 0058 A350     		str	r3, [r4, r2]
 1357              	.L120:
 674:Generated_Source\PSoC6\pdl\drivers\peripheral\sysclk/cy_sysclk.c ****     }
 675:Generated_Source\PSoC6\pdl\drivers\peripheral\sysclk/cy_sysclk.c **** 
 676:Generated_Source\PSoC6\pdl\drivers\peripheral\sysclk/cy_sysclk.c ****     /* now do the timeout wait for FLL_STATUS, bit LOCKED */
ARM GAS  C:\Users\cmila\AppData\Local\Temp\cc5u2CXQ.s 			page 39


 677:Generated_Source\PSoC6\pdl\drivers\peripheral\sysclk/cy_sysclk.c ****     for (; (!Cy_SysClk_FllLocked()) && /* if locked == 0 */
 1358              		.loc 1 677 0
 1359 005a 0127     		movs	r7, #1
 1360              	.L121:
 1361              	.LBB39:
 1362              	.LBB40:
 1363              		.file 2 "Generated_Source\\PSoC6\\pdl\\drivers\\peripheral\\sysclk\\cy_sysclk.h"
   1:Generated_Source\PSoC6\pdl\drivers\peripheral\sysclk/cy_sysclk.h **** /***************************************************************************//**
   2:Generated_Source\PSoC6\pdl\drivers\peripheral\sysclk/cy_sysclk.h **** * \file cy_sysclk.h
   3:Generated_Source\PSoC6\pdl\drivers\peripheral\sysclk/cy_sysclk.h **** * \version 2.0
   4:Generated_Source\PSoC6\pdl\drivers\peripheral\sysclk/cy_sysclk.h **** *
   5:Generated_Source\PSoC6\pdl\drivers\peripheral\sysclk/cy_sysclk.h **** * Provides an API declaration of the sysclk driver.
   6:Generated_Source\PSoC6\pdl\drivers\peripheral\sysclk/cy_sysclk.h **** *
   7:Generated_Source\PSoC6\pdl\drivers\peripheral\sysclk/cy_sysclk.h **** ********************************************************************************
   8:Generated_Source\PSoC6\pdl\drivers\peripheral\sysclk/cy_sysclk.h **** * \copyright
   9:Generated_Source\PSoC6\pdl\drivers\peripheral\sysclk/cy_sysclk.h **** * Copyright 2016-2020, Cypress Semiconductor Corporation. All rights reserved.
  10:Generated_Source\PSoC6\pdl\drivers\peripheral\sysclk/cy_sysclk.h **** * You may use this file only in accordance with the license, terms, conditions,
  11:Generated_Source\PSoC6\pdl\drivers\peripheral\sysclk/cy_sysclk.h **** * disclaimers, and limitations in the end user license agreement accompanying
  12:Generated_Source\PSoC6\pdl\drivers\peripheral\sysclk/cy_sysclk.h **** * the software package with which this file was provided.
  13:Generated_Source\PSoC6\pdl\drivers\peripheral\sysclk/cy_sysclk.h **** *******************************************************************************/
  14:Generated_Source\PSoC6\pdl\drivers\peripheral\sysclk/cy_sysclk.h **** 
  15:Generated_Source\PSoC6\pdl\drivers\peripheral\sysclk/cy_sysclk.h **** /**
  16:Generated_Source\PSoC6\pdl\drivers\peripheral\sysclk/cy_sysclk.h **** * \addtogroup group_sysclk
  17:Generated_Source\PSoC6\pdl\drivers\peripheral\sysclk/cy_sysclk.h **** * \{
  18:Generated_Source\PSoC6\pdl\drivers\peripheral\sysclk/cy_sysclk.h **** * The System Clock (SysClk) driver contains the API for configuring system and
  19:Generated_Source\PSoC6\pdl\drivers\peripheral\sysclk/cy_sysclk.h **** * peripheral clocks. 
  20:Generated_Source\PSoC6\pdl\drivers\peripheral\sysclk/cy_sysclk.h **** *
  21:Generated_Source\PSoC6\pdl\drivers\peripheral\sysclk/cy_sysclk.h **** * The functions and other declarations used in this driver are in cy_sysclk.h. 
  22:Generated_Source\PSoC6\pdl\drivers\peripheral\sysclk/cy_sysclk.h **** * You can include cy_pdl.h (ModusToolbox only) to get access to all functions 
  23:Generated_Source\PSoC6\pdl\drivers\peripheral\sysclk/cy_sysclk.h **** * and declarations in the PDL. 
  24:Generated_Source\PSoC6\pdl\drivers\peripheral\sysclk/cy_sysclk.h **** *
  25:Generated_Source\PSoC6\pdl\drivers\peripheral\sysclk/cy_sysclk.h **** * Firmware uses the API to configure , enable, or disable a clock.
  26:Generated_Source\PSoC6\pdl\drivers\peripheral\sysclk/cy_sysclk.h **** * 
  27:Generated_Source\PSoC6\pdl\drivers\peripheral\sysclk/cy_sysclk.h **** * The clock system includes a variety of resources that can vary per device, including:
  28:Generated_Source\PSoC6\pdl\drivers\peripheral\sysclk/cy_sysclk.h **** * - Internal clock sources such as internal oscillators
  29:Generated_Source\PSoC6\pdl\drivers\peripheral\sysclk/cy_sysclk.h **** * - External clock sources such as crystal oscillators or a signal on an I/O pin
  30:Generated_Source\PSoC6\pdl\drivers\peripheral\sysclk/cy_sysclk.h **** * - Generated clocks such as an FLL, a PLL, and peripheral clocks
  31:Generated_Source\PSoC6\pdl\drivers\peripheral\sysclk/cy_sysclk.h **** *
  32:Generated_Source\PSoC6\pdl\drivers\peripheral\sysclk/cy_sysclk.h **** * Consult the Technical Reference Manual for your device for details of the 
  33:Generated_Source\PSoC6\pdl\drivers\peripheral\sysclk/cy_sysclk.h **** * clock system.
  34:Generated_Source\PSoC6\pdl\drivers\peripheral\sysclk/cy_sysclk.h **** *
  35:Generated_Source\PSoC6\pdl\drivers\peripheral\sysclk/cy_sysclk.h **** * The PDL defines clock system capabilities in:\n
  36:Generated_Source\PSoC6\pdl\drivers\peripheral\sysclk/cy_sysclk.h **** * devices\<family\>/<series\>/include\<series\>_config.h. (E.g.
  37:Generated_Source\PSoC6\pdl\drivers\peripheral\sysclk/cy_sysclk.h **** * devices/psoc6/include/psoc6_01_config.h).
  38:Generated_Source\PSoC6\pdl\drivers\peripheral\sysclk/cy_sysclk.h **** * User-configurable clock speeds are defined in the file system_<series>.h.
  39:Generated_Source\PSoC6\pdl\drivers\peripheral\sysclk/cy_sysclk.h **** *
  40:Generated_Source\PSoC6\pdl\drivers\peripheral\sysclk/cy_sysclk.h **** * As an illustration of the clocking system, the following diagram shows the
  41:Generated_Source\PSoC6\pdl\drivers\peripheral\sysclk/cy_sysclk.h **** * PSoC 63 series clock tree. The actual tree may vary depending on the device series.
  42:Generated_Source\PSoC6\pdl\drivers\peripheral\sysclk/cy_sysclk.h **** * Consult the Technical Reference Manual for your device for details.
  43:Generated_Source\PSoC6\pdl\drivers\peripheral\sysclk/cy_sysclk.h **** * ![](sysclk_tree.png)
  44:Generated_Source\PSoC6\pdl\drivers\peripheral\sysclk/cy_sysclk.h **** *
  45:Generated_Source\PSoC6\pdl\drivers\peripheral\sysclk/cy_sysclk.h **** * The sysclk driver supports multiple peripheral clocks, as well as the fast 
  46:Generated_Source\PSoC6\pdl\drivers\peripheral\sysclk/cy_sysclk.h **** * clock, slow clock, backup domain clock, timer clock, and pump clock. The API
  47:Generated_Source\PSoC6\pdl\drivers\peripheral\sysclk/cy_sysclk.h **** * for any given clock contains the functions to manage that clock. Functions
  48:Generated_Source\PSoC6\pdl\drivers\peripheral\sysclk/cy_sysclk.h **** * for clock measurement and trimming are also provided.
  49:Generated_Source\PSoC6\pdl\drivers\peripheral\sysclk/cy_sysclk.h **** *
  50:Generated_Source\PSoC6\pdl\drivers\peripheral\sysclk/cy_sysclk.h **** * \section group_sysclk_configuration Configuration Considerations
ARM GAS  C:\Users\cmila\AppData\Local\Temp\cc5u2CXQ.s 			page 40


  51:Generated_Source\PSoC6\pdl\drivers\peripheral\sysclk/cy_sysclk.h **** * The availability of clock functions depend on the availability of the chip
  52:Generated_Source\PSoC6\pdl\drivers\peripheral\sysclk/cy_sysclk.h **** * resources that support those functions. Consult the device TRM before
  53:Generated_Source\PSoC6\pdl\drivers\peripheral\sysclk/cy_sysclk.h **** * attempting to use these functions.
  54:Generated_Source\PSoC6\pdl\drivers\peripheral\sysclk/cy_sysclk.h **** *
  55:Generated_Source\PSoC6\pdl\drivers\peripheral\sysclk/cy_sysclk.h **** * LPActive and LPSleep power modes limit the maximum clock frequency allowed
  56:Generated_Source\PSoC6\pdl\drivers\peripheral\sysclk/cy_sysclk.h **** * on the device. Refer to the SysPm driver and the TRM for details.
  57:Generated_Source\PSoC6\pdl\drivers\peripheral\sysclk/cy_sysclk.h **** *
  58:Generated_Source\PSoC6\pdl\drivers\peripheral\sysclk/cy_sysclk.h **** * \section group_sysclk_more_information More Information
  59:Generated_Source\PSoC6\pdl\drivers\peripheral\sysclk/cy_sysclk.h **** * Refer to the technical reference manual (TRM) and the device datasheet.
  60:Generated_Source\PSoC6\pdl\drivers\peripheral\sysclk/cy_sysclk.h **** *
  61:Generated_Source\PSoC6\pdl\drivers\peripheral\sysclk/cy_sysclk.h **** * \section group_sysclk_MISRA MISRA-C Compliance
  62:Generated_Source\PSoC6\pdl\drivers\peripheral\sysclk/cy_sysclk.h **** * <table class="doxtable">
  63:Generated_Source\PSoC6\pdl\drivers\peripheral\sysclk/cy_sysclk.h **** *   <tr>
  64:Generated_Source\PSoC6\pdl\drivers\peripheral\sysclk/cy_sysclk.h **** *     <th>MISRA Rule</th>
  65:Generated_Source\PSoC6\pdl\drivers\peripheral\sysclk/cy_sysclk.h **** *     <th>Rule Class (Required/Advisory)</th>
  66:Generated_Source\PSoC6\pdl\drivers\peripheral\sysclk/cy_sysclk.h **** *     <th>Rule Description</th>
  67:Generated_Source\PSoC6\pdl\drivers\peripheral\sysclk/cy_sysclk.h **** *     <th>Description of Deviation(s)</th>
  68:Generated_Source\PSoC6\pdl\drivers\peripheral\sysclk/cy_sysclk.h **** *   </tr>
  69:Generated_Source\PSoC6\pdl\drivers\peripheral\sysclk/cy_sysclk.h **** *   <tr>
  70:Generated_Source\PSoC6\pdl\drivers\peripheral\sysclk/cy_sysclk.h **** *     <td>10.3</td>
  71:Generated_Source\PSoC6\pdl\drivers\peripheral\sysclk/cy_sysclk.h **** *     <td>R</td>
  72:Generated_Source\PSoC6\pdl\drivers\peripheral\sysclk/cy_sysclk.h **** *     <td>A composite expression of the "essentially unsigned" type is being
  73:Generated_Source\PSoC6\pdl\drivers\peripheral\sysclk/cy_sysclk.h **** *         cast to a different type category.</td>
  74:Generated_Source\PSoC6\pdl\drivers\peripheral\sysclk/cy_sysclk.h **** *     <td>The value got from the bitfield physically cannot exceed the enumeration
  75:Generated_Source\PSoC6\pdl\drivers\peripheral\sysclk/cy_sysclk.h **** *         that describes this bitfield. So, the code is safe by design.</td>
  76:Generated_Source\PSoC6\pdl\drivers\peripheral\sysclk/cy_sysclk.h **** *   </tr>
  77:Generated_Source\PSoC6\pdl\drivers\peripheral\sysclk/cy_sysclk.h **** *   <tr>
  78:Generated_Source\PSoC6\pdl\drivers\peripheral\sysclk/cy_sysclk.h **** *     <td>10.4</td>
  79:Generated_Source\PSoC6\pdl\drivers\peripheral\sysclk/cy_sysclk.h **** *     <td>R</td>
  80:Generated_Source\PSoC6\pdl\drivers\peripheral\sysclk/cy_sysclk.h **** *     <td>A composite floating point expression is being cast to double, or unsigned.</td>
  81:Generated_Source\PSoC6\pdl\drivers\peripheral\sysclk/cy_sysclk.h **** *     <td>Casting a floating-point calculation result to an integer.</td>
  82:Generated_Source\PSoC6\pdl\drivers\peripheral\sysclk/cy_sysclk.h **** *   </tr>
  83:Generated_Source\PSoC6\pdl\drivers\peripheral\sysclk/cy_sysclk.h **** *   <tr>
  84:Generated_Source\PSoC6\pdl\drivers\peripheral\sysclk/cy_sysclk.h **** *     <td>13.4</td>
  85:Generated_Source\PSoC6\pdl\drivers\peripheral\sysclk/cy_sysclk.h **** *     <td>R</td>
  86:Generated_Source\PSoC6\pdl\drivers\peripheral\sysclk/cy_sysclk.h **** *     <td>The controlling expression of a for statement shall not contain any objects of floating t
  87:Generated_Source\PSoC6\pdl\drivers\peripheral\sysclk/cy_sysclk.h **** *     <td>Scanning through a list of floating point values: only greater_than/less_then checks are 
  88:Generated_Source\PSoC6\pdl\drivers\peripheral\sysclk/cy_sysclk.h **** *         with floating point numbers, the loop counter is integer. </td>
  89:Generated_Source\PSoC6\pdl\drivers\peripheral\sysclk/cy_sysclk.h **** *   </tr>
  90:Generated_Source\PSoC6\pdl\drivers\peripheral\sysclk/cy_sysclk.h **** *   <tr>
  91:Generated_Source\PSoC6\pdl\drivers\peripheral\sysclk/cy_sysclk.h **** *     <td>16.7</td>
  92:Generated_Source\PSoC6\pdl\drivers\peripheral\sysclk/cy_sysclk.h **** *     <td>R</td>
  93:Generated_Source\PSoC6\pdl\drivers\peripheral\sysclk/cy_sysclk.h **** *     <td>The object addressed by the pointer parameter is not modified and so the pointer could be
  94:Generated_Source\PSoC6\pdl\drivers\peripheral\sysclk/cy_sysclk.h **** *         type 'pointer to const'.</td>
  95:Generated_Source\PSoC6\pdl\drivers\peripheral\sysclk/cy_sysclk.h **** *     <td>The callback function for system power management (SysPm) must be of generic callback typ
  96:Generated_Source\PSoC6\pdl\drivers\peripheral\sysclk/cy_sysclk.h **** *         contains non-const pointer parameter.</td>
  97:Generated_Source\PSoC6\pdl\drivers\peripheral\sysclk/cy_sysclk.h **** *   </tr>
  98:Generated_Source\PSoC6\pdl\drivers\peripheral\sysclk/cy_sysclk.h **** * </table>
  99:Generated_Source\PSoC6\pdl\drivers\peripheral\sysclk/cy_sysclk.h **** *
 100:Generated_Source\PSoC6\pdl\drivers\peripheral\sysclk/cy_sysclk.h **** * \section group_sysclk_changelog Changelog
 101:Generated_Source\PSoC6\pdl\drivers\peripheral\sysclk/cy_sysclk.h **** * <table class="doxtable">
 102:Generated_Source\PSoC6\pdl\drivers\peripheral\sysclk/cy_sysclk.h **** *   <tr><th>Version</th><th>Changes</th><th>Reason for Change</th></tr>
 103:Generated_Source\PSoC6\pdl\drivers\peripheral\sysclk/cy_sysclk.h **** *   <tr>
 104:Generated_Source\PSoC6\pdl\drivers\peripheral\sysclk/cy_sysclk.h **** *     <td>2.0</td>
 105:Generated_Source\PSoC6\pdl\drivers\peripheral\sysclk/cy_sysclk.h **** *     <td>Updated the ECO trimming values calculation algorithm in the \ref Cy_SysClk_EcoConfigure 
 106:Generated_Source\PSoC6\pdl\drivers\peripheral\sysclk/cy_sysclk.h **** *         This change may invalidate the already used crystals, in cases: \n
 107:Generated_Source\PSoC6\pdl\drivers\peripheral\sysclk/cy_sysclk.h **** *         * The crystal frequency is less than 16 MHz (the supported crystal frequency range was ch
ARM GAS  C:\Users\cmila\AppData\Local\Temp\cc5u2CXQ.s 			page 41


 108:Generated_Source\PSoC6\pdl\drivers\peripheral\sysclk/cy_sysclk.h **** *         * The maximum amplitude (internal calculation value) is less than 0.65 V. \n
 109:Generated_Source\PSoC6\pdl\drivers\peripheral\sysclk/cy_sysclk.h **** *
 110:Generated_Source\PSoC6\pdl\drivers\peripheral\sysclk/cy_sysclk.h **** *         Also the second parameter cSum takes into account both C0 (the crystal itself shunt capac
 111:Generated_Source\PSoC6\pdl\drivers\peripheral\sysclk/cy_sysclk.h **** *         For detail, refer the \ref Cy_SysClk_EcoConfigure documentation and the ECO Trimming sect
 112:Generated_Source\PSoC6\pdl\drivers\peripheral\sysclk/cy_sysclk.h **** *     <td>Enhanced the ECO performance for high-noise conditions that result from simultaneous swit
 113:Generated_Source\PSoC6\pdl\drivers\peripheral\sysclk/cy_sysclk.h **** *   </tr>
 114:Generated_Source\PSoC6\pdl\drivers\peripheral\sysclk/cy_sysclk.h **** *   <tr>
 115:Generated_Source\PSoC6\pdl\drivers\peripheral\sysclk/cy_sysclk.h **** *     <td rowspan="4">1.20</td>
 116:Generated_Source\PSoC6\pdl\drivers\peripheral\sysclk/cy_sysclk.h **** *     <td>Flattened the organization of the driver source code into the single 
 117:Generated_Source\PSoC6\pdl\drivers\peripheral\sysclk/cy_sysclk.h **** *         source directory and the single include directory.
 118:Generated_Source\PSoC6\pdl\drivers\peripheral\sysclk/cy_sysclk.h **** *     </td>
 119:Generated_Source\PSoC6\pdl\drivers\peripheral\sysclk/cy_sysclk.h **** *     <td>Driver library directory-structure simplification.</td>
 120:Generated_Source\PSoC6\pdl\drivers\peripheral\sysclk/cy_sysclk.h **** *   </tr>
 121:Generated_Source\PSoC6\pdl\drivers\peripheral\sysclk/cy_sysclk.h **** *   <tr>
 122:Generated_Source\PSoC6\pdl\drivers\peripheral\sysclk/cy_sysclk.h **** *     <td>Updated \ref Cy_SysClk_FllLocked function description</td>
 123:Generated_Source\PSoC6\pdl\drivers\peripheral\sysclk/cy_sysclk.h **** *     <td>The SRSS_ver1 HW details clarification</td>
 124:Generated_Source\PSoC6\pdl\drivers\peripheral\sysclk/cy_sysclk.h **** *   </tr>
 125:Generated_Source\PSoC6\pdl\drivers\peripheral\sysclk/cy_sysclk.h **** *   <tr>
 126:Generated_Source\PSoC6\pdl\drivers\peripheral\sysclk/cy_sysclk.h **** *     <td>Removed the following functions:
 127:Generated_Source\PSoC6\pdl\drivers\peripheral\sysclk/cy_sysclk.h **** *         - Cy_SysClk_FllLostLock
 128:Generated_Source\PSoC6\pdl\drivers\peripheral\sysclk/cy_sysclk.h **** *         - Cy_SysClk_WcoConfigureCsv
 129:Generated_Source\PSoC6\pdl\drivers\peripheral\sysclk/cy_sysclk.h **** *         - Cy_SysClk_ClkHfConfigureCsv
 130:Generated_Source\PSoC6\pdl\drivers\peripheral\sysclk/cy_sysclk.h **** *     </td>
 131:Generated_Source\PSoC6\pdl\drivers\peripheral\sysclk/cy_sysclk.h **** *     <td>No hardware support for the removed functions.</td>
 132:Generated_Source\PSoC6\pdl\drivers\peripheral\sysclk/cy_sysclk.h **** *   </tr>
 133:Generated_Source\PSoC6\pdl\drivers\peripheral\sysclk/cy_sysclk.h **** *   <tr>
 134:Generated_Source\PSoC6\pdl\drivers\peripheral\sysclk/cy_sysclk.h **** *     <td>Added register access layer. Use register access macros instead
 135:Generated_Source\PSoC6\pdl\drivers\peripheral\sysclk/cy_sysclk.h **** *         of direct register access using dereferenced pointers.</td>
 136:Generated_Source\PSoC6\pdl\drivers\peripheral\sysclk/cy_sysclk.h **** *     <td>Makes register access device-independent, so that the PDL does 
 137:Generated_Source\PSoC6\pdl\drivers\peripheral\sysclk/cy_sysclk.h **** *         not need to be recompiled for each supported part number.</td>
 138:Generated_Source\PSoC6\pdl\drivers\peripheral\sysclk/cy_sysclk.h **** *   </tr>
 139:Generated_Source\PSoC6\pdl\drivers\peripheral\sysclk/cy_sysclk.h **** *   <tr>
 140:Generated_Source\PSoC6\pdl\drivers\peripheral\sysclk/cy_sysclk.h **** *     <td>1.11</td>
 141:Generated_Source\PSoC6\pdl\drivers\peripheral\sysclk/cy_sysclk.h **** *     <td>Updated the following functions. Now they use a semaphore when 
 142:Generated_Source\PSoC6\pdl\drivers\peripheral\sysclk/cy_sysclk.h **** *         try to read the status or configure the SysClk measurement counters:
 143:Generated_Source\PSoC6\pdl\drivers\peripheral\sysclk/cy_sysclk.h **** *         * Cy_SysClk_StartClkMeasurementCounters()
 144:Generated_Source\PSoC6\pdl\drivers\peripheral\sysclk/cy_sysclk.h **** *         * Cy_SysClk_ClkMeasurementCountersGetFreq()
 145:Generated_Source\PSoC6\pdl\drivers\peripheral\sysclk/cy_sysclk.h **** *
 146:Generated_Source\PSoC6\pdl\drivers\peripheral\sysclk/cy_sysclk.h **** *         Now Cy_SysClk_ClkMeasurementCountersGetFreq() returns zero value,
 147:Generated_Source\PSoC6\pdl\drivers\peripheral\sysclk/cy_sysclk.h **** *         if during measurement device was in the Deep Sleep or partially
 148:Generated_Source\PSoC6\pdl\drivers\peripheral\sysclk/cy_sysclk.h **** *         blocking flash operation occurred </td>
 149:Generated_Source\PSoC6\pdl\drivers\peripheral\sysclk/cy_sysclk.h **** *     <td>Added arbiter mechanism for correct usage of the SysClk measurement 
 150:Generated_Source\PSoC6\pdl\drivers\peripheral\sysclk/cy_sysclk.h **** *         counters</td>
 151:Generated_Source\PSoC6\pdl\drivers\peripheral\sysclk/cy_sysclk.h **** *   </tr>
 152:Generated_Source\PSoC6\pdl\drivers\peripheral\sysclk/cy_sysclk.h **** *   <tr>
 153:Generated_Source\PSoC6\pdl\drivers\peripheral\sysclk/cy_sysclk.h **** *     <td>1.10.1</td>
 154:Generated_Source\PSoC6\pdl\drivers\peripheral\sysclk/cy_sysclk.h **** *     <td>Renamed Power Management section to Low Power Callback section</td>
 155:Generated_Source\PSoC6\pdl\drivers\peripheral\sysclk/cy_sysclk.h **** *     <td>Documentation update and clarification</td>
 156:Generated_Source\PSoC6\pdl\drivers\peripheral\sysclk/cy_sysclk.h **** *   </tr>
 157:Generated_Source\PSoC6\pdl\drivers\peripheral\sysclk/cy_sysclk.h **** *   <tr>
 158:Generated_Source\PSoC6\pdl\drivers\peripheral\sysclk/cy_sysclk.h **** *     <td rowspan="5">1.10</td>
 159:Generated_Source\PSoC6\pdl\drivers\peripheral\sysclk/cy_sysclk.h **** *     <td>Updated FLL parameter calculation</td>
 160:Generated_Source\PSoC6\pdl\drivers\peripheral\sysclk/cy_sysclk.h **** *     <td>Support low frequency sources</td>
 161:Generated_Source\PSoC6\pdl\drivers\peripheral\sysclk/cy_sysclk.h **** *   </tr>
 162:Generated_Source\PSoC6\pdl\drivers\peripheral\sysclk/cy_sysclk.h **** *   <tr>
 163:Generated_Source\PSoC6\pdl\drivers\peripheral\sysclk/cy_sysclk.h **** *     <td>Added Cy_SysClk_PiloSetTrim() and Cy_SysclkPiloGetTrim() functions</td>
 164:Generated_Source\PSoC6\pdl\drivers\peripheral\sysclk/cy_sysclk.h **** *     <td>Support PILO manual trims</td>
ARM GAS  C:\Users\cmila\AppData\Local\Temp\cc5u2CXQ.s 			page 42


 165:Generated_Source\PSoC6\pdl\drivers\peripheral\sysclk/cy_sysclk.h **** *   </tr>
 166:Generated_Source\PSoC6\pdl\drivers\peripheral\sysclk/cy_sysclk.h **** *   <tr>
 167:Generated_Source\PSoC6\pdl\drivers\peripheral\sysclk/cy_sysclk.h **** *     <td>Made Cy_SysClk_FllLostLock() function dependent on SRSS v1</td>
 168:Generated_Source\PSoC6\pdl\drivers\peripheral\sysclk/cy_sysclk.h **** *     <td>Feature is not supported in SRSS v1</td>
 169:Generated_Source\PSoC6\pdl\drivers\peripheral\sysclk/cy_sysclk.h **** *   </tr>
 170:Generated_Source\PSoC6\pdl\drivers\peripheral\sysclk/cy_sysclk.h **** *   <tr>
 171:Generated_Source\PSoC6\pdl\drivers\peripheral\sysclk/cy_sysclk.h **** *     <td>Updated Cy_SysClk_DeepSleepCallback() to save/restore both FLL and PLL settings</td>
 172:Generated_Source\PSoC6\pdl\drivers\peripheral\sysclk/cy_sysclk.h **** *     <td>The function should return when the lock is established or a timeout has occurred</td>
 173:Generated_Source\PSoC6\pdl\drivers\peripheral\sysclk/cy_sysclk.h **** *   </tr>
 174:Generated_Source\PSoC6\pdl\drivers\peripheral\sysclk/cy_sysclk.h **** *   <tr>
 175:Generated_Source\PSoC6\pdl\drivers\peripheral\sysclk/cy_sysclk.h **** *     <td>General documentation updates</td>
 176:Generated_Source\PSoC6\pdl\drivers\peripheral\sysclk/cy_sysclk.h **** *     <td></td>
 177:Generated_Source\PSoC6\pdl\drivers\peripheral\sysclk/cy_sysclk.h **** *   </tr>
 178:Generated_Source\PSoC6\pdl\drivers\peripheral\sysclk/cy_sysclk.h **** *   <tr>
 179:Generated_Source\PSoC6\pdl\drivers\peripheral\sysclk/cy_sysclk.h **** *     <td>1.0</td>
 180:Generated_Source\PSoC6\pdl\drivers\peripheral\sysclk/cy_sysclk.h **** *     <td>Initial version</td>
 181:Generated_Source\PSoC6\pdl\drivers\peripheral\sysclk/cy_sysclk.h **** *     <td></td>
 182:Generated_Source\PSoC6\pdl\drivers\peripheral\sysclk/cy_sysclk.h **** *   </tr>
 183:Generated_Source\PSoC6\pdl\drivers\peripheral\sysclk/cy_sysclk.h **** * </table>
 184:Generated_Source\PSoC6\pdl\drivers\peripheral\sysclk/cy_sysclk.h **** *
 185:Generated_Source\PSoC6\pdl\drivers\peripheral\sysclk/cy_sysclk.h **** * \defgroup group_sysclk_macros           Macros
 186:Generated_Source\PSoC6\pdl\drivers\peripheral\sysclk/cy_sysclk.h **** * \{
 187:Generated_Source\PSoC6\pdl\drivers\peripheral\sysclk/cy_sysclk.h **** * \}
 188:Generated_Source\PSoC6\pdl\drivers\peripheral\sysclk/cy_sysclk.h **** * \defgroup group_sysclk_enums           General Enumerated Types
 189:Generated_Source\PSoC6\pdl\drivers\peripheral\sysclk/cy_sysclk.h **** * \{
 190:Generated_Source\PSoC6\pdl\drivers\peripheral\sysclk/cy_sysclk.h **** *   \defgroup group_sysclk_returns         Function return values
 191:Generated_Source\PSoC6\pdl\drivers\peripheral\sysclk/cy_sysclk.h **** * \}
 192:Generated_Source\PSoC6\pdl\drivers\peripheral\sysclk/cy_sysclk.h **** * \defgroup group_sysclk_eco             External Crystal Oscillator (ECO)
 193:Generated_Source\PSoC6\pdl\drivers\peripheral\sysclk/cy_sysclk.h **** * \{
 194:Generated_Source\PSoC6\pdl\drivers\peripheral\sysclk/cy_sysclk.h **** *   The External Crystal Oscillator (ECO) is a clock source that consists
 195:Generated_Source\PSoC6\pdl\drivers\peripheral\sysclk/cy_sysclk.h **** *   of an oscillator circuit that drives an external crystal through its
 196:Generated_Source\PSoC6\pdl\drivers\peripheral\sysclk/cy_sysclk.h **** *   dedicated ECO pins. The ECO is a source clock that can be used to
 197:Generated_Source\PSoC6\pdl\drivers\peripheral\sysclk/cy_sysclk.h **** *   source one or more clock paths (Refer to \ref group_sysclk_path_src).
 198:Generated_Source\PSoC6\pdl\drivers\peripheral\sysclk/cy_sysclk.h **** *   These clock paths can then source the processors and peripherals in
 199:Generated_Source\PSoC6\pdl\drivers\peripheral\sysclk/cy_sysclk.h **** *   the device.
 200:Generated_Source\PSoC6\pdl\drivers\peripheral\sysclk/cy_sysclk.h **** *
 201:Generated_Source\PSoC6\pdl\drivers\peripheral\sysclk/cy_sysclk.h **** *   The ECO relies on the presence of an external crystal. The pins
 202:Generated_Source\PSoC6\pdl\drivers\peripheral\sysclk/cy_sysclk.h **** *   connected to this crystal must be configured to operate in analog
 203:Generated_Source\PSoC6\pdl\drivers\peripheral\sysclk/cy_sysclk.h **** *   drive mode with HSIOM connection set to GPIO control (HSIOM_SEL_GPIO).
 204:Generated_Source\PSoC6\pdl\drivers\peripheral\sysclk/cy_sysclk.h **** *
 205:Generated_Source\PSoC6\pdl\drivers\peripheral\sysclk/cy_sysclk.h **** *   \defgroup group_sysclk_eco_funcs       Functions
 206:Generated_Source\PSoC6\pdl\drivers\peripheral\sysclk/cy_sysclk.h **** * \}
 207:Generated_Source\PSoC6\pdl\drivers\peripheral\sysclk/cy_sysclk.h **** * \defgroup group_sysclk_path_src           Clock Path Source
 208:Generated_Source\PSoC6\pdl\drivers\peripheral\sysclk/cy_sysclk.h **** * \{
 209:Generated_Source\PSoC6\pdl\drivers\peripheral\sysclk/cy_sysclk.h **** *   Clock paths are a series of multiplexers that allow a source clock
 210:Generated_Source\PSoC6\pdl\drivers\peripheral\sysclk/cy_sysclk.h **** *   to drive multiple clocking resources down the chain. These paths are
 211:Generated_Source\PSoC6\pdl\drivers\peripheral\sysclk/cy_sysclk.h **** *   used for active domain clocks that are not operational during chip 
 212:Generated_Source\PSoC6\pdl\drivers\peripheral\sysclk/cy_sysclk.h **** *   deep-sleep, hibernate and off modes. Illustrated below is a diagram
 213:Generated_Source\PSoC6\pdl\drivers\peripheral\sysclk/cy_sysclk.h **** *   of the clock paths for the PSoC 63 series, showing the first three
 214:Generated_Source\PSoC6\pdl\drivers\peripheral\sysclk/cy_sysclk.h **** *   clock paths. The source clocks for these paths are highlighted in
 215:Generated_Source\PSoC6\pdl\drivers\peripheral\sysclk/cy_sysclk.h **** *   the red box.
 216:Generated_Source\PSoC6\pdl\drivers\peripheral\sysclk/cy_sysclk.h **** *
 217:Generated_Source\PSoC6\pdl\drivers\peripheral\sysclk/cy_sysclk.h **** *   - IMO: 8 MHz Internal Main Oscillator (Default)
 218:Generated_Source\PSoC6\pdl\drivers\peripheral\sysclk/cy_sysclk.h **** *   - EXTCLK: External clock (signal brought in through dedicated pins)
 219:Generated_Source\PSoC6\pdl\drivers\peripheral\sysclk/cy_sysclk.h **** *   - ECO: External Crystal Oscillator (requires external crystal on dedicated pins)
 220:Generated_Source\PSoC6\pdl\drivers\peripheral\sysclk/cy_sysclk.h **** *   - ALTHF: Select on-chip signals (e.g. BLE ECO)
 221:Generated_Source\PSoC6\pdl\drivers\peripheral\sysclk/cy_sysclk.h **** *   - Digital Signal (DSI): Digital signal from a UDB source
ARM GAS  C:\Users\cmila\AppData\Local\Temp\cc5u2CXQ.s 			page 43


 222:Generated_Source\PSoC6\pdl\drivers\peripheral\sysclk/cy_sysclk.h **** *
 223:Generated_Source\PSoC6\pdl\drivers\peripheral\sysclk/cy_sysclk.h **** *   Some clock paths such as path 0 and path 1 have additional resources
 224:Generated_Source\PSoC6\pdl\drivers\peripheral\sysclk/cy_sysclk.h **** *   that can be utilized to provide a higher frequency clock. For example, 
 225:Generated_Source\PSoC6\pdl\drivers\peripheral\sysclk/cy_sysclk.h **** *   path 0 source clock can be used as the reference clock for the FLL and 
 226:Generated_Source\PSoC6\pdl\drivers\peripheral\sysclk/cy_sysclk.h **** *   path 1 source clock can be used as the reference clock for the PLL.
 227:Generated_Source\PSoC6\pdl\drivers\peripheral\sysclk/cy_sysclk.h **** *
 228:Generated_Source\PSoC6\pdl\drivers\peripheral\sysclk/cy_sysclk.h **** *   ![](sysclk_path_source.png)
 229:Generated_Source\PSoC6\pdl\drivers\peripheral\sysclk/cy_sysclk.h **** *
 230:Generated_Source\PSoC6\pdl\drivers\peripheral\sysclk/cy_sysclk.h **** *   \note The PDL driver cannot configure a clock path to use Digital Signal
 231:Generated_Source\PSoC6\pdl\drivers\peripheral\sysclk/cy_sysclk.h **** *   Interconnect (DSI) outputs as sources. This must be done through DSI
 232:Generated_Source\PSoC6\pdl\drivers\peripheral\sysclk/cy_sysclk.h **** *   configuration tool such as PSoC Creator.
 233:Generated_Source\PSoC6\pdl\drivers\peripheral\sysclk/cy_sysclk.h **** *
 234:Generated_Source\PSoC6\pdl\drivers\peripheral\sysclk/cy_sysclk.h **** *   \defgroup group_sysclk_path_src_funcs     Functions
 235:Generated_Source\PSoC6\pdl\drivers\peripheral\sysclk/cy_sysclk.h **** *   \defgroup group_sysclk_path_src_enums     Enumerated Types
 236:Generated_Source\PSoC6\pdl\drivers\peripheral\sysclk/cy_sysclk.h **** * \}
 237:Generated_Source\PSoC6\pdl\drivers\peripheral\sysclk/cy_sysclk.h **** * \defgroup group_sysclk_fll             Frequency Locked Loop (FLL)
 238:Generated_Source\PSoC6\pdl\drivers\peripheral\sysclk/cy_sysclk.h **** * \{
 239:Generated_Source\PSoC6\pdl\drivers\peripheral\sysclk/cy_sysclk.h **** *   The FLL is a clock generation circuit that can be used to produce a
 240:Generated_Source\PSoC6\pdl\drivers\peripheral\sysclk/cy_sysclk.h **** *   higher frequency clock from a reference clock. The output clock exhibits
 241:Generated_Source\PSoC6\pdl\drivers\peripheral\sysclk/cy_sysclk.h **** *   some characteristics of the reference clock such as the accuracy of the
 242:Generated_Source\PSoC6\pdl\drivers\peripheral\sysclk/cy_sysclk.h **** *   source. However other attributes such as the clock phase are not preserved.
 243:Generated_Source\PSoC6\pdl\drivers\peripheral\sysclk/cy_sysclk.h **** *   The FLL is similar in purpose to a (Phase locked loop) PLL but they are
 244:Generated_Source\PSoC6\pdl\drivers\peripheral\sysclk/cy_sysclk.h **** *   not equivalent.
 245:Generated_Source\PSoC6\pdl\drivers\peripheral\sysclk/cy_sysclk.h **** *
 246:Generated_Source\PSoC6\pdl\drivers\peripheral\sysclk/cy_sysclk.h **** *   - They may have different frequency ranges.
 247:Generated_Source\PSoC6\pdl\drivers\peripheral\sysclk/cy_sysclk.h **** *   - The FLL starts up (locks) faster and consumes less current than the PLL.
 248:Generated_Source\PSoC6\pdl\drivers\peripheral\sysclk/cy_sysclk.h **** *   - The FLL accepts a source clock with lower frequency than PLL, such as the WCO (32 KHz). 
 249:Generated_Source\PSoC6\pdl\drivers\peripheral\sysclk/cy_sysclk.h **** *   - The FLL does not lock phase. The hardware consist of a counter with a
 250:Generated_Source\PSoC6\pdl\drivers\peripheral\sysclk/cy_sysclk.h **** *     current-controlled oscillator (CCO). The counter counts the number of output
 251:Generated_Source\PSoC6\pdl\drivers\peripheral\sysclk/cy_sysclk.h **** *     clock edges in a reference clock period and adjusts the CCO until the
 252:Generated_Source\PSoC6\pdl\drivers\peripheral\sysclk/cy_sysclk.h **** *     expected ratio is achieved (locked). After initial lock, the CCO is
 253:Generated_Source\PSoC6\pdl\drivers\peripheral\sysclk/cy_sysclk.h **** *     adjusted dynamically to keep the ratio within tolerance. The lock tolerance
 254:Generated_Source\PSoC6\pdl\drivers\peripheral\sysclk/cy_sysclk.h **** *     is user-adjustable.
 255:Generated_Source\PSoC6\pdl\drivers\peripheral\sysclk/cy_sysclk.h **** *   ![](sysclk_fll.png)
 256:Generated_Source\PSoC6\pdl\drivers\peripheral\sysclk/cy_sysclk.h **** *
 257:Generated_Source\PSoC6\pdl\drivers\peripheral\sysclk/cy_sysclk.h **** *   The SysClk driver supports two models for configuring the FLL. The first
 258:Generated_Source\PSoC6\pdl\drivers\peripheral\sysclk/cy_sysclk.h **** *   model is to call the Cy_SysClk_FllConfigure() function, which calculates the 
 259:Generated_Source\PSoC6\pdl\drivers\peripheral\sysclk/cy_sysclk.h **** *   necessary parameters for the FLL at run-time. This may be necessary for dynamic
 260:Generated_Source\PSoC6\pdl\drivers\peripheral\sysclk/cy_sysclk.h **** *   run-time changes to the FLL. However this method is slow as it needs to perform 
 261:Generated_Source\PSoC6\pdl\drivers\peripheral\sysclk/cy_sysclk.h **** *   the calculation before configuring the FLL. The other model is to call 
 262:Generated_Source\PSoC6\pdl\drivers\peripheral\sysclk/cy_sysclk.h **** *   Cy_SysClk_FllManualConfigure() function with pre-calculated parameter values. 
 263:Generated_Source\PSoC6\pdl\drivers\peripheral\sysclk/cy_sysclk.h **** *   This method is faster but requires prior knowledge of the necessary parameters.
 264:Generated_Source\PSoC6\pdl\drivers\peripheral\sysclk/cy_sysclk.h **** *   Consult the device TRM for the FLL calculation equations.
 265:Generated_Source\PSoC6\pdl\drivers\peripheral\sysclk/cy_sysclk.h **** *
 266:Generated_Source\PSoC6\pdl\drivers\peripheral\sysclk/cy_sysclk.h **** *   \defgroup group_sysclk_fll_funcs       Functions
 267:Generated_Source\PSoC6\pdl\drivers\peripheral\sysclk/cy_sysclk.h **** *   \defgroup group_sysclk_fll_structs     Data Structures
 268:Generated_Source\PSoC6\pdl\drivers\peripheral\sysclk/cy_sysclk.h **** *   \defgroup group_sysclk_fll_enums       Enumerated Types
 269:Generated_Source\PSoC6\pdl\drivers\peripheral\sysclk/cy_sysclk.h **** * \}
 270:Generated_Source\PSoC6\pdl\drivers\peripheral\sysclk/cy_sysclk.h **** * \defgroup group_sysclk_pll             Phase Locked Loop (PLL)
 271:Generated_Source\PSoC6\pdl\drivers\peripheral\sysclk/cy_sysclk.h **** * \{
 272:Generated_Source\PSoC6\pdl\drivers\peripheral\sysclk/cy_sysclk.h **** *   The PLL is a clock generation circuit that can be used to produce a
 273:Generated_Source\PSoC6\pdl\drivers\peripheral\sysclk/cy_sysclk.h **** *   higher frequency clock from a reference clock. The output clock exhibits
 274:Generated_Source\PSoC6\pdl\drivers\peripheral\sysclk/cy_sysclk.h **** *   characteristics of the reference clock such as the accuracy of the source
 275:Generated_Source\PSoC6\pdl\drivers\peripheral\sysclk/cy_sysclk.h **** *   and its phase. The PLL is similar in purpose to a (Frequency locked loop) FLL
 276:Generated_Source\PSoC6\pdl\drivers\peripheral\sysclk/cy_sysclk.h **** *   but they are not equivalent.
 277:Generated_Source\PSoC6\pdl\drivers\peripheral\sysclk/cy_sysclk.h **** *
 278:Generated_Source\PSoC6\pdl\drivers\peripheral\sysclk/cy_sysclk.h **** *   - They may have different frequency ranges.
ARM GAS  C:\Users\cmila\AppData\Local\Temp\cc5u2CXQ.s 			page 44


 279:Generated_Source\PSoC6\pdl\drivers\peripheral\sysclk/cy_sysclk.h **** *   - The PLL starts up more slowly and consumes more current than the FLL.
 280:Generated_Source\PSoC6\pdl\drivers\peripheral\sysclk/cy_sysclk.h **** *   - The PLL requires a higher frequency source clock than PLL. 
 281:Generated_Source\PSoC6\pdl\drivers\peripheral\sysclk/cy_sysclk.h **** *   ![](sysclk_pll.png)
 282:Generated_Source\PSoC6\pdl\drivers\peripheral\sysclk/cy_sysclk.h **** *
 283:Generated_Source\PSoC6\pdl\drivers\peripheral\sysclk/cy_sysclk.h **** *   The SysClk driver supports two models for configuring the PLL. The first
 284:Generated_Source\PSoC6\pdl\drivers\peripheral\sysclk/cy_sysclk.h **** *   model is to call the Cy_SysClk_PllConfigure() function, which calculates the 
 285:Generated_Source\PSoC6\pdl\drivers\peripheral\sysclk/cy_sysclk.h **** *   necessary parameters for the PLL at run-time. This may be necessary for dynamic
 286:Generated_Source\PSoC6\pdl\drivers\peripheral\sysclk/cy_sysclk.h **** *   run-time changes to the PLL. However this method is slow as it needs to perform 
 287:Generated_Source\PSoC6\pdl\drivers\peripheral\sysclk/cy_sysclk.h **** *   the calculation before configuring the PLL. The other model is to call 
 288:Generated_Source\PSoC6\pdl\drivers\peripheral\sysclk/cy_sysclk.h **** *   Cy_SysClk_PllManualConfigure() function with pre-calculated parameter values. 
 289:Generated_Source\PSoC6\pdl\drivers\peripheral\sysclk/cy_sysclk.h **** *   This method is faster but requires prior knowledge of the necessary parameters.
 290:Generated_Source\PSoC6\pdl\drivers\peripheral\sysclk/cy_sysclk.h **** *   Consult the device TRM for the PLL calculation equations.
 291:Generated_Source\PSoC6\pdl\drivers\peripheral\sysclk/cy_sysclk.h **** *
 292:Generated_Source\PSoC6\pdl\drivers\peripheral\sysclk/cy_sysclk.h **** *   \defgroup group_sysclk_pll_funcs       Functions
 293:Generated_Source\PSoC6\pdl\drivers\peripheral\sysclk/cy_sysclk.h **** *   \defgroup group_sysclk_pll_structs     Data Structures
 294:Generated_Source\PSoC6\pdl\drivers\peripheral\sysclk/cy_sysclk.h **** * \}
 295:Generated_Source\PSoC6\pdl\drivers\peripheral\sysclk/cy_sysclk.h **** * \defgroup group_sysclk_ilo             Internal Low-Speed Oscillator (ILO)
 296:Generated_Source\PSoC6\pdl\drivers\peripheral\sysclk/cy_sysclk.h **** * \{
 297:Generated_Source\PSoC6\pdl\drivers\peripheral\sysclk/cy_sysclk.h **** *   The ILO operates with no external components and outputs a stable clock at
 298:Generated_Source\PSoC6\pdl\drivers\peripheral\sysclk/cy_sysclk.h **** *   32.768 kHz nominal. The ILO is relatively low power and low accuracy. It is 
 299:Generated_Source\PSoC6\pdl\drivers\peripheral\sysclk/cy_sysclk.h **** *   available in all power modes and can be used as a source for the Backup domain clock.
 300:Generated_Source\PSoC6\pdl\drivers\peripheral\sysclk/cy_sysclk.h **** *   ![](sysclk_backup.png)
 301:Generated_Source\PSoC6\pdl\drivers\peripheral\sysclk/cy_sysclk.h **** *
 302:Generated_Source\PSoC6\pdl\drivers\peripheral\sysclk/cy_sysclk.h **** *   To ensure the ILO remains active in Hibernate mode, and across power-on-reset
 303:Generated_Source\PSoC6\pdl\drivers\peripheral\sysclk/cy_sysclk.h **** *   (POR) or brown out detect (BOD), firmware must call Cy_SysClk_IloHibernateOn(). 
 304:Generated_Source\PSoC6\pdl\drivers\peripheral\sysclk/cy_sysclk.h **** *
 305:Generated_Source\PSoC6\pdl\drivers\peripheral\sysclk/cy_sysclk.h **** *   Additionally, the ILO clock can be trimmed to +/- 1.5% of nominal frequency using
 306:Generated_Source\PSoC6\pdl\drivers\peripheral\sysclk/cy_sysclk.h **** *   a higher precision clock source. Use the \ref group_sysclk_calclk API to measure 
 307:Generated_Source\PSoC6\pdl\drivers\peripheral\sysclk/cy_sysclk.h **** *   the current ILO frequency before trimming.
 308:Generated_Source\PSoC6\pdl\drivers\peripheral\sysclk/cy_sysclk.h **** *
 309:Generated_Source\PSoC6\pdl\drivers\peripheral\sysclk/cy_sysclk.h **** *   \note The ILO is always the source clock for the \ref group_wdt. Therefore:
 310:Generated_Source\PSoC6\pdl\drivers\peripheral\sysclk/cy_sysclk.h **** *   - The WDT must be unlocked when making an ILO function call in the PDL
 311:Generated_Source\PSoC6\pdl\drivers\peripheral\sysclk/cy_sysclk.h **** *   - It is recommended to always have the ILO enabled
 312:Generated_Source\PSoC6\pdl\drivers\peripheral\sysclk/cy_sysclk.h **** *
 313:Generated_Source\PSoC6\pdl\drivers\peripheral\sysclk/cy_sysclk.h **** *   \defgroup group_sysclk_ilo_funcs       Functions
 314:Generated_Source\PSoC6\pdl\drivers\peripheral\sysclk/cy_sysclk.h **** * \}
 315:Generated_Source\PSoC6\pdl\drivers\peripheral\sysclk/cy_sysclk.h **** * \defgroup group_sysclk_pilo            Precision Internal Low-Speed Oscillator (PILO)
 316:Generated_Source\PSoC6\pdl\drivers\peripheral\sysclk/cy_sysclk.h **** * \{
 317:Generated_Source\PSoC6\pdl\drivers\peripheral\sysclk/cy_sysclk.h **** *   PILO provides a higher accuracy 32.768 kHz clock than the \ref group_sysclk_ilo "ILO".
 318:Generated_Source\PSoC6\pdl\drivers\peripheral\sysclk/cy_sysclk.h **** *   When periodically calibrated using a high-accuracy clock such as the
 319:Generated_Source\PSoC6\pdl\drivers\peripheral\sysclk/cy_sysclk.h **** *   \ref group_sysclk_eco "ECO", the PILO can achieve 250 ppm accuracy of nominal frequency.
 320:Generated_Source\PSoC6\pdl\drivers\peripheral\sysclk/cy_sysclk.h **** *   The PILO is capable of operating in device Active, Sleep and Deep-Sleep power modes. 
 321:Generated_Source\PSoC6\pdl\drivers\peripheral\sysclk/cy_sysclk.h **** *   It is not available in Hibernate mode.
 322:Generated_Source\PSoC6\pdl\drivers\peripheral\sysclk/cy_sysclk.h **** *
 323:Generated_Source\PSoC6\pdl\drivers\peripheral\sysclk/cy_sysclk.h **** *   The PILO can be used as a source for the \ref group_sysclk_clk_lf. However,
 324:Generated_Source\PSoC6\pdl\drivers\peripheral\sysclk/cy_sysclk.h **** *   because PILO is disabled in Hibernate mode, RTC timers cannot operate in this mode
 325:Generated_Source\PSoC6\pdl\drivers\peripheral\sysclk/cy_sysclk.h **** *   when clocked using the PILO. Instead, either the \ref group_sysclk_ilo "ILO" or
 326:Generated_Source\PSoC6\pdl\drivers\peripheral\sysclk/cy_sysclk.h **** *   \ref group_sysclk_wco "WCO" should be used when hibernate operation is required. 
 327:Generated_Source\PSoC6\pdl\drivers\peripheral\sysclk/cy_sysclk.h **** *
 328:Generated_Source\PSoC6\pdl\drivers\peripheral\sysclk/cy_sysclk.h **** *   ![](sysclk_backup.png)
 329:Generated_Source\PSoC6\pdl\drivers\peripheral\sysclk/cy_sysclk.h **** *
 330:Generated_Source\PSoC6\pdl\drivers\peripheral\sysclk/cy_sysclk.h **** *   Periodic calibration to a high-accuracy clock (such as ECO) is required to
 331:Generated_Source\PSoC6\pdl\drivers\peripheral\sysclk/cy_sysclk.h **** *   maintain accuracy. The application should use the functions described in the 
 332:Generated_Source\PSoC6\pdl\drivers\peripheral\sysclk/cy_sysclk.h **** *   \ref group_sysclk_calclk API to measure the current PILO frequency before trimming.
 333:Generated_Source\PSoC6\pdl\drivers\peripheral\sysclk/cy_sysclk.h **** *
 334:Generated_Source\PSoC6\pdl\drivers\peripheral\sysclk/cy_sysclk.h **** *   \defgroup group_sysclk_pilo_funcs      Functions
 335:Generated_Source\PSoC6\pdl\drivers\peripheral\sysclk/cy_sysclk.h **** * \}
ARM GAS  C:\Users\cmila\AppData\Local\Temp\cc5u2CXQ.s 			page 45


 336:Generated_Source\PSoC6\pdl\drivers\peripheral\sysclk/cy_sysclk.h **** * \defgroup group_sysclk_calclk          Clock Measurement
 337:Generated_Source\PSoC6\pdl\drivers\peripheral\sysclk/cy_sysclk.h **** * \{
 338:Generated_Source\PSoC6\pdl\drivers\peripheral\sysclk/cy_sysclk.h **** *   These functions measure the frequency of a specified clock relative to a
 339:Generated_Source\PSoC6\pdl\drivers\peripheral\sysclk/cy_sysclk.h **** *   reference clock. They are typically called in the following order:
 340:Generated_Source\PSoC6\pdl\drivers\peripheral\sysclk/cy_sysclk.h **** *
 341:Generated_Source\PSoC6\pdl\drivers\peripheral\sysclk/cy_sysclk.h **** *   1. Specify the measured clock, the count, and the reference clock
 342:Generated_Source\PSoC6\pdl\drivers\peripheral\sysclk/cy_sysclk.h **** *   2. Start the counters
 343:Generated_Source\PSoC6\pdl\drivers\peripheral\sysclk/cy_sysclk.h **** *   3. Wait for the measurement counter to finish counting
 344:Generated_Source\PSoC6\pdl\drivers\peripheral\sysclk/cy_sysclk.h **** *   4. Retrieve the measured frequency
 345:Generated_Source\PSoC6\pdl\drivers\peripheral\sysclk/cy_sysclk.h **** *
 346:Generated_Source\PSoC6\pdl\drivers\peripheral\sysclk/cy_sysclk.h **** *   \note These functions may also be used as part of a clock trimming
 347:Generated_Source\PSoC6\pdl\drivers\peripheral\sysclk/cy_sysclk.h **** *   process. Refer to the \ref group_sysclk_trim "Clock Trim" API.
 348:Generated_Source\PSoC6\pdl\drivers\peripheral\sysclk/cy_sysclk.h **** *
 349:Generated_Source\PSoC6\pdl\drivers\peripheral\sysclk/cy_sysclk.h **** *   \defgroup group_sysclk_calclk_funcs    Functions
 350:Generated_Source\PSoC6\pdl\drivers\peripheral\sysclk/cy_sysclk.h **** *   \defgroup group_sysclk_calclk_enums    Enumerated Types
 351:Generated_Source\PSoC6\pdl\drivers\peripheral\sysclk/cy_sysclk.h **** * \}
 352:Generated_Source\PSoC6\pdl\drivers\peripheral\sysclk/cy_sysclk.h **** * \defgroup group_sysclk_trim            Clock Trim (ILO, PILO)
 353:Generated_Source\PSoC6\pdl\drivers\peripheral\sysclk/cy_sysclk.h **** * \{
 354:Generated_Source\PSoC6\pdl\drivers\peripheral\sysclk/cy_sysclk.h **** *   These functions perform a single trim operation on the ILO or PILO. Each
 355:Generated_Source\PSoC6\pdl\drivers\peripheral\sysclk/cy_sysclk.h **** *   function's parameter is the actual frequency of the clock. To measure the
 356:Generated_Source\PSoC6\pdl\drivers\peripheral\sysclk/cy_sysclk.h **** *   frequency, use the functions described in the \ref group_sysclk_calclk API.
 357:Generated_Source\PSoC6\pdl\drivers\peripheral\sysclk/cy_sysclk.h **** *
 358:Generated_Source\PSoC6\pdl\drivers\peripheral\sysclk/cy_sysclk.h **** *   To trim the clock as close as possible to the target frequency, multiple
 359:Generated_Source\PSoC6\pdl\drivers\peripheral\sysclk/cy_sysclk.h **** *   calls to the trim function may be needed. A typical usage example is to:
 360:Generated_Source\PSoC6\pdl\drivers\peripheral\sysclk/cy_sysclk.h **** *   1. Call the clock measurement functions to get the actual frequency of the clock
 361:Generated_Source\PSoC6\pdl\drivers\peripheral\sysclk/cy_sysclk.h **** *   2. Call the trim function, passing in the measured frequency
 362:Generated_Source\PSoC6\pdl\drivers\peripheral\sysclk/cy_sysclk.h **** *   3. Repeat the above until the trim function reports that the clock is trimmed to within limits.
 363:Generated_Source\PSoC6\pdl\drivers\peripheral\sysclk/cy_sysclk.h **** *
 364:Generated_Source\PSoC6\pdl\drivers\peripheral\sysclk/cy_sysclk.h **** *   \defgroup group_sysclk_trim_funcs      Functions
 365:Generated_Source\PSoC6\pdl\drivers\peripheral\sysclk/cy_sysclk.h **** * \}
 366:Generated_Source\PSoC6\pdl\drivers\peripheral\sysclk/cy_sysclk.h **** * \defgroup group_sysclk_pm              Low Power Callback
 367:Generated_Source\PSoC6\pdl\drivers\peripheral\sysclk/cy_sysclk.h **** * \{
 368:Generated_Source\PSoC6\pdl\drivers\peripheral\sysclk/cy_sysclk.h **** *   Entering and exiting low power modes require compatible clock configurations
 369:Generated_Source\PSoC6\pdl\drivers\peripheral\sysclk/cy_sysclk.h **** *   to be set before entering low power and restored upon wake-up and exit. The
 370:Generated_Source\PSoC6\pdl\drivers\peripheral\sysclk/cy_sysclk.h **** *   SysClk driver provides a Cy_SysClk_DeepSleepCallback() function to support
 371:Generated_Source\PSoC6\pdl\drivers\peripheral\sysclk/cy_sysclk.h **** *   deep-sleep mode entry. 
 372:Generated_Source\PSoC6\pdl\drivers\peripheral\sysclk/cy_sysclk.h **** *
 373:Generated_Source\PSoC6\pdl\drivers\peripheral\sysclk/cy_sysclk.h **** *   This function can be called either by itself before initiating low-power mode
 374:Generated_Source\PSoC6\pdl\drivers\peripheral\sysclk/cy_sysclk.h **** *   entry or it can be used in conjunction with the SysPm driver as a registered 
 375:Generated_Source\PSoC6\pdl\drivers\peripheral\sysclk/cy_sysclk.h **** *   callback. To do so, register this function as a callback before calling 
 376:Generated_Source\PSoC6\pdl\drivers\peripheral\sysclk/cy_sysclk.h **** *   Cy_SysPm_DeepSleep(). Specify \ref CY_SYSPM_DEEPSLEEP as the callback type, 
 377:Generated_Source\PSoC6\pdl\drivers\peripheral\sysclk/cy_sysclk.h **** *   and call Cy_SysPm_RegisterCallback().
 378:Generated_Source\PSoC6\pdl\drivers\peripheral\sysclk/cy_sysclk.h **** *   
 379:Generated_Source\PSoC6\pdl\drivers\peripheral\sysclk/cy_sysclk.h **** *   \note If the FLL or PLL source is the ECO, this function must be called.
 380:Generated_Source\PSoC6\pdl\drivers\peripheral\sysclk/cy_sysclk.h **** *
 381:Generated_Source\PSoC6\pdl\drivers\peripheral\sysclk/cy_sysclk.h **** *   \defgroup group_sysclk_pm_funcs        Functions
 382:Generated_Source\PSoC6\pdl\drivers\peripheral\sysclk/cy_sysclk.h **** * \}
 383:Generated_Source\PSoC6\pdl\drivers\peripheral\sysclk/cy_sysclk.h **** * \defgroup group_sysclk_wco             Watch Crystal Oscillator (WCO)
 384:Generated_Source\PSoC6\pdl\drivers\peripheral\sysclk/cy_sysclk.h **** * \{
 385:Generated_Source\PSoC6\pdl\drivers\peripheral\sysclk/cy_sysclk.h **** *   The WCO is a highly accurate 32.768 kHz clock source capable of operating
 386:Generated_Source\PSoC6\pdl\drivers\peripheral\sysclk/cy_sysclk.h **** *   in all power modes (excluding the Off mode). It is the primary clock source for
 387:Generated_Source\PSoC6\pdl\drivers\peripheral\sysclk/cy_sysclk.h **** *   the backup domain clock, which is used by the real-time clock (RTC). The 
 388:Generated_Source\PSoC6\pdl\drivers\peripheral\sysclk/cy_sysclk.h **** *   WCO can also be used as a source for the low-frequency clock to support other
 389:Generated_Source\PSoC6\pdl\drivers\peripheral\sysclk/cy_sysclk.h **** *   low power mode peripherals.
 390:Generated_Source\PSoC6\pdl\drivers\peripheral\sysclk/cy_sysclk.h **** *
 391:Generated_Source\PSoC6\pdl\drivers\peripheral\sysclk/cy_sysclk.h **** *   ![](sysclk_backup.png)
 392:Generated_Source\PSoC6\pdl\drivers\peripheral\sysclk/cy_sysclk.h **** *
ARM GAS  C:\Users\cmila\AppData\Local\Temp\cc5u2CXQ.s 			page 46


 393:Generated_Source\PSoC6\pdl\drivers\peripheral\sysclk/cy_sysclk.h **** *   The WCO requires the configuration of the dedicated WCO pins (SRSS_WCO_IN_PIN,
 394:Generated_Source\PSoC6\pdl\drivers\peripheral\sysclk/cy_sysclk.h **** *   SRSS_WCO_OUT_PIN). These must be configured as Analog Hi-Z drive modes and the
 395:Generated_Source\PSoC6\pdl\drivers\peripheral\sysclk/cy_sysclk.h **** *   HSIOM selection set to GPIO. The WCO can also be used in bypass mode, where
 396:Generated_Source\PSoC6\pdl\drivers\peripheral\sysclk/cy_sysclk.h **** *   an external 32.768 kHz square wave is brought in directly through the 
 397:Generated_Source\PSoC6\pdl\drivers\peripheral\sysclk/cy_sysclk.h **** *   SRSS_WCO_OUT_PIN pin.
 398:Generated_Source\PSoC6\pdl\drivers\peripheral\sysclk/cy_sysclk.h **** *
 399:Generated_Source\PSoC6\pdl\drivers\peripheral\sysclk/cy_sysclk.h **** *   Some devices support a built-in clock supervisor (CSV) in the WCO. The clock
 400:Generated_Source\PSoC6\pdl\drivers\peripheral\sysclk/cy_sysclk.h **** *   supervisor detects if the WCO has been lost; that is, the WCO is no longer 
 401:Generated_Source\PSoC6\pdl\drivers\peripheral\sysclk/cy_sysclk.h **** *   producing clock pulses. The CSV does this by checking to ensure there is at 
 402:Generated_Source\PSoC6\pdl\drivers\peripheral\sysclk/cy_sysclk.h **** *   least one WCO clock pulse within a certain time window. The ILO or PILO can be
 403:Generated_Source\PSoC6\pdl\drivers\peripheral\sysclk/cy_sysclk.h **** *   the supervising clock. Firmware can configure the CSV to trigger a fault,
 404:Generated_Source\PSoC6\pdl\drivers\peripheral\sysclk/cy_sysclk.h **** *   a reset, or both after specified cycles of the supervising clock.
 405:Generated_Source\PSoC6\pdl\drivers\peripheral\sysclk/cy_sysclk.h **** *
 406:Generated_Source\PSoC6\pdl\drivers\peripheral\sysclk/cy_sysclk.h **** *   \defgroup group_sysclk_wco_funcs       Functions
 407:Generated_Source\PSoC6\pdl\drivers\peripheral\sysclk/cy_sysclk.h **** *   \defgroup group_sysclk_wco_structs     Data Structures
 408:Generated_Source\PSoC6\pdl\drivers\peripheral\sysclk/cy_sysclk.h **** *   \defgroup group_sysclk_wco_enums       Enumerated Types
 409:Generated_Source\PSoC6\pdl\drivers\peripheral\sysclk/cy_sysclk.h **** * \}
 410:Generated_Source\PSoC6\pdl\drivers\peripheral\sysclk/cy_sysclk.h **** * \defgroup group_sysclk_clk_hf          High-Frequency Clocks
 411:Generated_Source\PSoC6\pdl\drivers\peripheral\sysclk/cy_sysclk.h **** * \{
 412:Generated_Source\PSoC6\pdl\drivers\peripheral\sysclk/cy_sysclk.h **** *   Multiple high frequency clocks (CLK_HF) are available in the device. For example,
 413:Generated_Source\PSoC6\pdl\drivers\peripheral\sysclk/cy_sysclk.h **** *   PSoC 63 series has five high-frequency root clocks. Each CLK_HF has a particular
 414:Generated_Source\PSoC6\pdl\drivers\peripheral\sysclk/cy_sysclk.h **** *   connection and chip-specific destination on the device.
 415:Generated_Source\PSoC6\pdl\drivers\peripheral\sysclk/cy_sysclk.h **** *
 416:Generated_Source\PSoC6\pdl\drivers\peripheral\sysclk/cy_sysclk.h **** *   |Name     |Description                                             |
 417:Generated_Source\PSoC6\pdl\drivers\peripheral\sysclk/cy_sysclk.h **** *   |:--------|:-------------------------------------------------------|
 418:Generated_Source\PSoC6\pdl\drivers\peripheral\sysclk/cy_sysclk.h **** *   |CLK_HF[0]| Root clock for CPUs, PERI, and AHB infrastructure      |
 419:Generated_Source\PSoC6\pdl\drivers\peripheral\sysclk/cy_sysclk.h **** *   |CLK_HF[1]| Root clock for the PDM/PCM and I2S audio subsystem     |
 420:Generated_Source\PSoC6\pdl\drivers\peripheral\sysclk/cy_sysclk.h **** *   |CLK_HF[2]| Root clock for the Serial Memory Interface subsystem   |
 421:Generated_Source\PSoC6\pdl\drivers\peripheral\sysclk/cy_sysclk.h **** *   |CLK_HF[3]| Root clock for USB communications                      |
 422:Generated_Source\PSoC6\pdl\drivers\peripheral\sysclk/cy_sysclk.h **** *   |CLK_HF[4]| Clock output on clk_ext pin (when used as an output)   |
 423:Generated_Source\PSoC6\pdl\drivers\peripheral\sysclk/cy_sysclk.h **** *
 424:Generated_Source\PSoC6\pdl\drivers\peripheral\sysclk/cy_sysclk.h **** *   ![](sysclk_hf.png)
 425:Generated_Source\PSoC6\pdl\drivers\peripheral\sysclk/cy_sysclk.h **** *
 426:Generated_Source\PSoC6\pdl\drivers\peripheral\sysclk/cy_sysclk.h **** *   Note this is a particular example. The actual tree may vary depending on the device series.
 427:Generated_Source\PSoC6\pdl\drivers\peripheral\sysclk/cy_sysclk.h **** *   Consult the Technical Reference Manual for your device for details.
 428:Generated_Source\PSoC6\pdl\drivers\peripheral\sysclk/cy_sysclk.h **** *   
 429:Generated_Source\PSoC6\pdl\drivers\peripheral\sysclk/cy_sysclk.h **** *   High frequency clocks are sourced by path clocks, which should be configured
 430:Generated_Source\PSoC6\pdl\drivers\peripheral\sysclk/cy_sysclk.h **** *   first. An exception to this rule is CLK_HF[0], which cannot be disabled. 
 431:Generated_Source\PSoC6\pdl\drivers\peripheral\sysclk/cy_sysclk.h **** *   This divided clock drives the core processors and the peripherals in the system.
 432:Generated_Source\PSoC6\pdl\drivers\peripheral\sysclk/cy_sysclk.h **** *   In order to update its clock source, CLK_HF[0] source must be selected without
 433:Generated_Source\PSoC6\pdl\drivers\peripheral\sysclk/cy_sysclk.h **** *   disabling the clock.
 434:Generated_Source\PSoC6\pdl\drivers\peripheral\sysclk/cy_sysclk.h **** *
 435:Generated_Source\PSoC6\pdl\drivers\peripheral\sysclk/cy_sysclk.h **** *   ![](sysclk_hf_dist.png)
 436:Generated_Source\PSoC6\pdl\drivers\peripheral\sysclk/cy_sysclk.h **** *
 437:Generated_Source\PSoC6\pdl\drivers\peripheral\sysclk/cy_sysclk.h **** *   Some devices support a clock supervisor (CSV) for each root clock. These
 438:Generated_Source\PSoC6\pdl\drivers\peripheral\sysclk/cy_sysclk.h **** *   can detect frequency loss, or monitor that the clock frequency stays within
 439:Generated_Source\PSoC6\pdl\drivers\peripheral\sysclk/cy_sysclk.h **** *   a specified range. The possible supervising clocks are IMO, ECO, or ALTHF. 
 440:Generated_Source\PSoC6\pdl\drivers\peripheral\sysclk/cy_sysclk.h **** *   Loss detection and frequency monitoring can be enabled or disabled independently.
 441:Generated_Source\PSoC6\pdl\drivers\peripheral\sysclk/cy_sysclk.h **** *   Each has its own programmable action that occurs on detection of an error.
 442:Generated_Source\PSoC6\pdl\drivers\peripheral\sysclk/cy_sysclk.h **** *
 443:Generated_Source\PSoC6\pdl\drivers\peripheral\sysclk/cy_sysclk.h **** *   \defgroup group_sysclk_clk_hf_funcs    Functions
 444:Generated_Source\PSoC6\pdl\drivers\peripheral\sysclk/cy_sysclk.h **** *   \defgroup group_sysclk_clk_hf_structs  Data Structures
 445:Generated_Source\PSoC6\pdl\drivers\peripheral\sysclk/cy_sysclk.h **** *   \defgroup group_sysclk_clk_hf_enums    Enumerated Types
 446:Generated_Source\PSoC6\pdl\drivers\peripheral\sysclk/cy_sysclk.h **** * \}
 447:Generated_Source\PSoC6\pdl\drivers\peripheral\sysclk/cy_sysclk.h **** * \defgroup group_sysclk_clk_fast        Fast Clock
 448:Generated_Source\PSoC6\pdl\drivers\peripheral\sysclk/cy_sysclk.h **** * \{
 449:Generated_Source\PSoC6\pdl\drivers\peripheral\sysclk/cy_sysclk.h **** *   The fast clock drives the "fast" processor (e.g. Cortex-M4 processor in PSoC 6).
ARM GAS  C:\Users\cmila\AppData\Local\Temp\cc5u2CXQ.s 			page 47


 450:Generated_Source\PSoC6\pdl\drivers\peripheral\sysclk/cy_sysclk.h **** *   This clock is sourced by CLK_HF[0] (\ref group_sysclk_clk_hf "HF Clocks").
 451:Generated_Source\PSoC6\pdl\drivers\peripheral\sysclk/cy_sysclk.h **** *   A divider value of 1~256 can be used to further divide the CLK_HF[0] to a
 452:Generated_Source\PSoC6\pdl\drivers\peripheral\sysclk/cy_sysclk.h **** *   desired clock speed for the processor.
 453:Generated_Source\PSoC6\pdl\drivers\peripheral\sysclk/cy_sysclk.h **** *
 454:Generated_Source\PSoC6\pdl\drivers\peripheral\sysclk/cy_sysclk.h **** *   ![](sysclk_fast.png)
 455:Generated_Source\PSoC6\pdl\drivers\peripheral\sysclk/cy_sysclk.h **** *
 456:Generated_Source\PSoC6\pdl\drivers\peripheral\sysclk/cy_sysclk.h **** *   \defgroup group_sysclk_clk_fast_funcs  Functions
 457:Generated_Source\PSoC6\pdl\drivers\peripheral\sysclk/cy_sysclk.h **** * \}
 458:Generated_Source\PSoC6\pdl\drivers\peripheral\sysclk/cy_sysclk.h **** * \defgroup group_sysclk_clk_peri        Peripheral Clock
 459:Generated_Source\PSoC6\pdl\drivers\peripheral\sysclk/cy_sysclk.h **** * \{
 460:Generated_Source\PSoC6\pdl\drivers\peripheral\sysclk/cy_sysclk.h **** *   The peripheral clock is a divided clock of CLK_HF0 (\ref group_sysclk_clk_hf "HF Clocks").
 461:Generated_Source\PSoC6\pdl\drivers\peripheral\sysclk/cy_sysclk.h **** *   It is the source clock for the \ref group_sysclk_clk_slow, and most active domain
 462:Generated_Source\PSoC6\pdl\drivers\peripheral\sysclk/cy_sysclk.h **** *   peripheral clocks (\ref group_sysclk_clk_peripheral). A divider value of 1~256 
 463:Generated_Source\PSoC6\pdl\drivers\peripheral\sysclk/cy_sysclk.h **** *   can be used to further divide the CLK_HF[0] to a desired clock speed for the peripherals.
 464:Generated_Source\PSoC6\pdl\drivers\peripheral\sysclk/cy_sysclk.h **** *
 465:Generated_Source\PSoC6\pdl\drivers\peripheral\sysclk/cy_sysclk.h **** *   ![](sysclk_peri.png)
 466:Generated_Source\PSoC6\pdl\drivers\peripheral\sysclk/cy_sysclk.h **** *
 467:Generated_Source\PSoC6\pdl\drivers\peripheral\sysclk/cy_sysclk.h **** *   \defgroup group_sysclk_clk_peri_funcs  Functions
 468:Generated_Source\PSoC6\pdl\drivers\peripheral\sysclk/cy_sysclk.h **** * \}
 469:Generated_Source\PSoC6\pdl\drivers\peripheral\sysclk/cy_sysclk.h **** * \defgroup group_sysclk_clk_peripheral  Peripherals Clock Dividers
 470:Generated_Source\PSoC6\pdl\drivers\peripheral\sysclk/cy_sysclk.h **** * \{
 471:Generated_Source\PSoC6\pdl\drivers\peripheral\sysclk/cy_sysclk.h **** *   There are multiple peripheral clock dividers that, in effect, create 
 472:Generated_Source\PSoC6\pdl\drivers\peripheral\sysclk/cy_sysclk.h **** *   multiple separate peripheral clocks. The available dividers vary per device 
 473:Generated_Source\PSoC6\pdl\drivers\peripheral\sysclk/cy_sysclk.h **** *   series. As an example, for the PSoC 63 series there are 29 dividers:
 474:Generated_Source\PSoC6\pdl\drivers\peripheral\sysclk/cy_sysclk.h **** *
 475:Generated_Source\PSoC6\pdl\drivers\peripheral\sysclk/cy_sysclk.h **** *   - eight 8-bit dividers
 476:Generated_Source\PSoC6\pdl\drivers\peripheral\sysclk/cy_sysclk.h **** *   - sixteen 16-bit dividers
 477:Generated_Source\PSoC6\pdl\drivers\peripheral\sysclk/cy_sysclk.h **** *   - four fractional 16.5-bit dividers (16 integer bits, 5 fractional bits)
 478:Generated_Source\PSoC6\pdl\drivers\peripheral\sysclk/cy_sysclk.h **** *   - one fractional 24.5-bit divider (24 integer bits, 5 fractional bits)
 479:Generated_Source\PSoC6\pdl\drivers\peripheral\sysclk/cy_sysclk.h **** *
 480:Generated_Source\PSoC6\pdl\drivers\peripheral\sysclk/cy_sysclk.h **** *
 481:Generated_Source\PSoC6\pdl\drivers\peripheral\sysclk/cy_sysclk.h **** *   The 8-bit and 16-bit dividers are integer dividers. A divider value of 1 
 482:Generated_Source\PSoC6\pdl\drivers\peripheral\sysclk/cy_sysclk.h **** *   means the output frequency matches the input frequency (that is, there is
 483:Generated_Source\PSoC6\pdl\drivers\peripheral\sysclk/cy_sysclk.h **** *   no change). Otherwise the frequency is divided by the value of the divider.
 484:Generated_Source\PSoC6\pdl\drivers\peripheral\sysclk/cy_sysclk.h **** *   For example, if the input frequency is 50 MHz, and the divider is value 10,
 485:Generated_Source\PSoC6\pdl\drivers\peripheral\sysclk/cy_sysclk.h **** *   the output frequency is 5 MHz.
 486:Generated_Source\PSoC6\pdl\drivers\peripheral\sysclk/cy_sysclk.h **** *
 487:Generated_Source\PSoC6\pdl\drivers\peripheral\sysclk/cy_sysclk.h **** *   The five fractional bits supports further precision in 1/32nd increments. For
 488:Generated_Source\PSoC6\pdl\drivers\peripheral\sysclk/cy_sysclk.h **** *   example, a divider with an integer value of 3 and a fractional value of
 489:Generated_Source\PSoC6\pdl\drivers\peripheral\sysclk/cy_sysclk.h **** *   4 (4/32) results in a divider of 3.125. Fractional dividers are useful when
 490:Generated_Source\PSoC6\pdl\drivers\peripheral\sysclk/cy_sysclk.h **** *   a high-precision clock is required, for example, for a UART/SPI serial
 491:Generated_Source\PSoC6\pdl\drivers\peripheral\sysclk/cy_sysclk.h **** *   interface.
 492:Generated_Source\PSoC6\pdl\drivers\peripheral\sysclk/cy_sysclk.h **** *
 493:Generated_Source\PSoC6\pdl\drivers\peripheral\sysclk/cy_sysclk.h **** *   ![](sysclk_peri_divs.png)
 494:Generated_Source\PSoC6\pdl\drivers\peripheral\sysclk/cy_sysclk.h **** *
 495:Generated_Source\PSoC6\pdl\drivers\peripheral\sysclk/cy_sysclk.h **** *   Each peripheral can connect to any one of the programmable dividers. A
 496:Generated_Source\PSoC6\pdl\drivers\peripheral\sysclk/cy_sysclk.h **** *   particular peripheral clock divider can drive multiple peripherals.
 497:Generated_Source\PSoC6\pdl\drivers\peripheral\sysclk/cy_sysclk.h **** *   
 498:Generated_Source\PSoC6\pdl\drivers\peripheral\sysclk/cy_sysclk.h **** *   The SysClk driver also supports phase aligning two peripheral clock dividers using
 499:Generated_Source\PSoC6\pdl\drivers\peripheral\sysclk/cy_sysclk.h **** *   Cy_SysClk_PeriphEnablePhaseAlignDivider(). Alignment works for both integer
 500:Generated_Source\PSoC6\pdl\drivers\peripheral\sysclk/cy_sysclk.h **** *   and fractional dividers. The divider to which a second divider is aligned
 501:Generated_Source\PSoC6\pdl\drivers\peripheral\sysclk/cy_sysclk.h **** *   must already be enabled.
 502:Generated_Source\PSoC6\pdl\drivers\peripheral\sysclk/cy_sysclk.h **** *
 503:Generated_Source\PSoC6\pdl\drivers\peripheral\sysclk/cy_sysclk.h **** *   \defgroup group_sysclk_clk_peripheral_funcs Functions
 504:Generated_Source\PSoC6\pdl\drivers\peripheral\sysclk/cy_sysclk.h **** *   \defgroup group_sysclk_clk_peripheral_enums Enumerated Types
 505:Generated_Source\PSoC6\pdl\drivers\peripheral\sysclk/cy_sysclk.h **** * \}
 506:Generated_Source\PSoC6\pdl\drivers\peripheral\sysclk/cy_sysclk.h **** * \defgroup group_sysclk_clk_slow        Slow Clock
ARM GAS  C:\Users\cmila\AppData\Local\Temp\cc5u2CXQ.s 			page 48


 507:Generated_Source\PSoC6\pdl\drivers\peripheral\sysclk/cy_sysclk.h **** * \{
 508:Generated_Source\PSoC6\pdl\drivers\peripheral\sysclk/cy_sysclk.h **** *   The slow clock is the source clock for the "slow" processor (e.g. Cortex-M0+ in PSoC 6).
 509:Generated_Source\PSoC6\pdl\drivers\peripheral\sysclk/cy_sysclk.h **** *   This clock is a divided version of the \ref group_sysclk_clk_peri, which in turn is 
 510:Generated_Source\PSoC6\pdl\drivers\peripheral\sysclk/cy_sysclk.h **** *   a divided version of CLK_HF[0] (\ref group_sysclk_clk_hf "HF Clocks"). A divider 
 511:Generated_Source\PSoC6\pdl\drivers\peripheral\sysclk/cy_sysclk.h **** *   value of 1~256 can be used to further divide the Peri clock to a desired clock speed
 512:Generated_Source\PSoC6\pdl\drivers\peripheral\sysclk/cy_sysclk.h **** *   for the processor.
 513:Generated_Source\PSoC6\pdl\drivers\peripheral\sysclk/cy_sysclk.h **** *
 514:Generated_Source\PSoC6\pdl\drivers\peripheral\sysclk/cy_sysclk.h **** *   ![](sysclk_slow.png)
 515:Generated_Source\PSoC6\pdl\drivers\peripheral\sysclk/cy_sysclk.h **** *
 516:Generated_Source\PSoC6\pdl\drivers\peripheral\sysclk/cy_sysclk.h **** *   \defgroup group_sysclk_clk_slow_funcs  Functions
 517:Generated_Source\PSoC6\pdl\drivers\peripheral\sysclk/cy_sysclk.h **** * \}
 518:Generated_Source\PSoC6\pdl\drivers\peripheral\sysclk/cy_sysclk.h **** * \defgroup group_sysclk_clk_lf          Low-Frequency Clock
 519:Generated_Source\PSoC6\pdl\drivers\peripheral\sysclk/cy_sysclk.h **** * \{
 520:Generated_Source\PSoC6\pdl\drivers\peripheral\sysclk/cy_sysclk.h **** *   The low-frequency clock is the source clock for the \ref group_mcwdt
 521:Generated_Source\PSoC6\pdl\drivers\peripheral\sysclk/cy_sysclk.h **** *   and can be the source clock for \ref group_sysclk_clk_bak, which drives the
 522:Generated_Source\PSoC6\pdl\drivers\peripheral\sysclk/cy_sysclk.h **** *   \ref group_rtc.
 523:Generated_Source\PSoC6\pdl\drivers\peripheral\sysclk/cy_sysclk.h **** *   
 524:Generated_Source\PSoC6\pdl\drivers\peripheral\sysclk/cy_sysclk.h **** *   The low-frequency clock has three possible source clocks:
 525:Generated_Source\PSoC6\pdl\drivers\peripheral\sysclk/cy_sysclk.h **** *   \ref group_sysclk_ilo "ILO", \ref group_sysclk_pilo "PILO", and
 526:Generated_Source\PSoC6\pdl\drivers\peripheral\sysclk/cy_sysclk.h **** *   \ref group_sysclk_wco "WCO".
 527:Generated_Source\PSoC6\pdl\drivers\peripheral\sysclk/cy_sysclk.h **** *
 528:Generated_Source\PSoC6\pdl\drivers\peripheral\sysclk/cy_sysclk.h **** *   ![](sysclk_lf.png)
 529:Generated_Source\PSoC6\pdl\drivers\peripheral\sysclk/cy_sysclk.h **** *
 530:Generated_Source\PSoC6\pdl\drivers\peripheral\sysclk/cy_sysclk.h **** *   \defgroup group_sysclk_clk_lf_funcs    Functions
 531:Generated_Source\PSoC6\pdl\drivers\peripheral\sysclk/cy_sysclk.h **** *   \defgroup group_sysclk_clk_lf_enums    Enumerated Types
 532:Generated_Source\PSoC6\pdl\drivers\peripheral\sysclk/cy_sysclk.h **** * \}
 533:Generated_Source\PSoC6\pdl\drivers\peripheral\sysclk/cy_sysclk.h **** * \defgroup group_sysclk_clk_timer       Timer Clock
 534:Generated_Source\PSoC6\pdl\drivers\peripheral\sysclk/cy_sysclk.h **** * \{
 535:Generated_Source\PSoC6\pdl\drivers\peripheral\sysclk/cy_sysclk.h **** *   The timer clock can be a source for the alternative clock driving 
 536:Generated_Source\PSoC6\pdl\drivers\peripheral\sysclk/cy_sysclk.h **** *   the \ref group_arm_system_timer. It can also be used as a reference clock 
 537:Generated_Source\PSoC6\pdl\drivers\peripheral\sysclk/cy_sysclk.h **** *   for a counter in the \ref group_energy_profiler "Energy Profiler".
 538:Generated_Source\PSoC6\pdl\drivers\peripheral\sysclk/cy_sysclk.h **** *   
 539:Generated_Source\PSoC6\pdl\drivers\peripheral\sysclk/cy_sysclk.h **** *   The timer clock is a divided clock of either the IMO or CLK_HF[0]
 540:Generated_Source\PSoC6\pdl\drivers\peripheral\sysclk/cy_sysclk.h **** *   (\ref group_sysclk_clk_hf "HF Clocks").
 541:Generated_Source\PSoC6\pdl\drivers\peripheral\sysclk/cy_sysclk.h **** *
 542:Generated_Source\PSoC6\pdl\drivers\peripheral\sysclk/cy_sysclk.h **** *   \defgroup group_sysclk_clk_timer_funcs Functions
 543:Generated_Source\PSoC6\pdl\drivers\peripheral\sysclk/cy_sysclk.h **** *   \defgroup group_sysclk_clk_timer_enums Enumerated Types
 544:Generated_Source\PSoC6\pdl\drivers\peripheral\sysclk/cy_sysclk.h **** * \}
 545:Generated_Source\PSoC6\pdl\drivers\peripheral\sysclk/cy_sysclk.h **** * \defgroup group_sysclk_clk_pump        Pump Clock
 546:Generated_Source\PSoC6\pdl\drivers\peripheral\sysclk/cy_sysclk.h **** * \{
 547:Generated_Source\PSoC6\pdl\drivers\peripheral\sysclk/cy_sysclk.h **** *   The pump clock is a clock source used to provide analog precision in low voltage
 548:Generated_Source\PSoC6\pdl\drivers\peripheral\sysclk/cy_sysclk.h **** *   applications. Depending on the usage scenario, it may be required to drive the
 549:Generated_Source\PSoC6\pdl\drivers\peripheral\sysclk/cy_sysclk.h **** *   internal voltage pump for the Continuous Time Block mini (CTBm) in the analog 
 550:Generated_Source\PSoC6\pdl\drivers\peripheral\sysclk/cy_sysclk.h **** *   subsystem. The pump clock is a divided clock of one of the clock paths 
 551:Generated_Source\PSoC6\pdl\drivers\peripheral\sysclk/cy_sysclk.h **** *   (\ref group_sysclk_path_src).
 552:Generated_Source\PSoC6\pdl\drivers\peripheral\sysclk/cy_sysclk.h **** *
 553:Generated_Source\PSoC6\pdl\drivers\peripheral\sysclk/cy_sysclk.h **** *   \defgroup group_sysclk_clk_pump_funcs  Functions
 554:Generated_Source\PSoC6\pdl\drivers\peripheral\sysclk/cy_sysclk.h **** *   \defgroup group_sysclk_clk_pump_enums  Enumerated Types
 555:Generated_Source\PSoC6\pdl\drivers\peripheral\sysclk/cy_sysclk.h **** * \}
 556:Generated_Source\PSoC6\pdl\drivers\peripheral\sysclk/cy_sysclk.h **** * \defgroup group_sysclk_clk_bak         Backup Domain Clock
 557:Generated_Source\PSoC6\pdl\drivers\peripheral\sysclk/cy_sysclk.h **** * \{
 558:Generated_Source\PSoC6\pdl\drivers\peripheral\sysclk/cy_sysclk.h **** *   The backup domain clock drives the \ref group_rtc.
 559:Generated_Source\PSoC6\pdl\drivers\peripheral\sysclk/cy_sysclk.h **** *   This clock has two possible source clocks: \ref group_sysclk_wco "WCO"
 560:Generated_Source\PSoC6\pdl\drivers\peripheral\sysclk/cy_sysclk.h **** *   or the \ref group_sysclk_clk_lf. In turn the low frequency clock is sourced by
 561:Generated_Source\PSoC6\pdl\drivers\peripheral\sysclk/cy_sysclk.h **** *   \ref group_sysclk_ilo "ILO", \ref group_sysclk_pilo "PILO", or
 562:Generated_Source\PSoC6\pdl\drivers\peripheral\sysclk/cy_sysclk.h **** *   \ref group_sysclk_wco "WCO". Typically the ILO is not suitable as an RTC source,
 563:Generated_Source\PSoC6\pdl\drivers\peripheral\sysclk/cy_sysclk.h **** *   because of its low accuracy. However the ILO does operate in hibernate mode and
ARM GAS  C:\Users\cmila\AppData\Local\Temp\cc5u2CXQ.s 			page 49


 564:Generated_Source\PSoC6\pdl\drivers\peripheral\sysclk/cy_sysclk.h **** *   may be used as an alternative to the WCO with a tradeoff in precision.
 565:Generated_Source\PSoC6\pdl\drivers\peripheral\sysclk/cy_sysclk.h **** *
 566:Generated_Source\PSoC6\pdl\drivers\peripheral\sysclk/cy_sysclk.h **** *   \defgroup group_sysclk_clk_bak_funcs   Functions
 567:Generated_Source\PSoC6\pdl\drivers\peripheral\sysclk/cy_sysclk.h **** *   \defgroup group_sysclk_clk_bak_enums   Enumerated Types
 568:Generated_Source\PSoC6\pdl\drivers\peripheral\sysclk/cy_sysclk.h **** * \}
 569:Generated_Source\PSoC6\pdl\drivers\peripheral\sysclk/cy_sysclk.h **** */
 570:Generated_Source\PSoC6\pdl\drivers\peripheral\sysclk/cy_sysclk.h **** 
 571:Generated_Source\PSoC6\pdl\drivers\peripheral\sysclk/cy_sysclk.h **** #if !defined(CY_SYSCLK_H)
 572:Generated_Source\PSoC6\pdl\drivers\peripheral\sysclk/cy_sysclk.h **** #define CY_SYSCLK_H
 573:Generated_Source\PSoC6\pdl\drivers\peripheral\sysclk/cy_sysclk.h **** 
 574:Generated_Source\PSoC6\pdl\drivers\peripheral\sysclk/cy_sysclk.h **** #include <stdbool.h>
 575:Generated_Source\PSoC6\pdl\drivers\peripheral\sysclk/cy_sysclk.h **** #include "cy_device.h"
 576:Generated_Source\PSoC6\pdl\drivers\peripheral\sysclk/cy_sysclk.h **** #include "cy_device_headers.h"
 577:Generated_Source\PSoC6\pdl\drivers\peripheral\sysclk/cy_sysclk.h **** #include "cy_syslib.h"
 578:Generated_Source\PSoC6\pdl\drivers\peripheral\sysclk/cy_sysclk.h **** #include "cy_syspm.h"
 579:Generated_Source\PSoC6\pdl\drivers\peripheral\sysclk/cy_sysclk.h **** 
 580:Generated_Source\PSoC6\pdl\drivers\peripheral\sysclk/cy_sysclk.h **** 
 581:Generated_Source\PSoC6\pdl\drivers\peripheral\sysclk/cy_sysclk.h **** #if defined(__cplusplus)
 582:Generated_Source\PSoC6\pdl\drivers\peripheral\sysclk/cy_sysclk.h **** extern "C" {
 583:Generated_Source\PSoC6\pdl\drivers\peripheral\sysclk/cy_sysclk.h **** #endif /* __cplusplus */
 584:Generated_Source\PSoC6\pdl\drivers\peripheral\sysclk/cy_sysclk.h **** 
 585:Generated_Source\PSoC6\pdl\drivers\peripheral\sysclk/cy_sysclk.h **** /**
 586:Generated_Source\PSoC6\pdl\drivers\peripheral\sysclk/cy_sysclk.h **** * \addtogroup group_sysclk_macros
 587:Generated_Source\PSoC6\pdl\drivers\peripheral\sysclk/cy_sysclk.h **** * \{
 588:Generated_Source\PSoC6\pdl\drivers\peripheral\sysclk/cy_sysclk.h **** */
 589:Generated_Source\PSoC6\pdl\drivers\peripheral\sysclk/cy_sysclk.h **** /** Driver major version */
 590:Generated_Source\PSoC6\pdl\drivers\peripheral\sysclk/cy_sysclk.h **** #define  CY_SYSCLK_DRV_VERSION_MAJOR   2
 591:Generated_Source\PSoC6\pdl\drivers\peripheral\sysclk/cy_sysclk.h **** /** Driver minor version */
 592:Generated_Source\PSoC6\pdl\drivers\peripheral\sysclk/cy_sysclk.h **** #define  CY_SYSCLK_DRV_VERSION_MINOR   0
 593:Generated_Source\PSoC6\pdl\drivers\peripheral\sysclk/cy_sysclk.h **** /** Sysclk driver identifier */
 594:Generated_Source\PSoC6\pdl\drivers\peripheral\sysclk/cy_sysclk.h **** #define CY_SYSCLK_ID   CY_PDL_DRV_ID(0x12U)
 595:Generated_Source\PSoC6\pdl\drivers\peripheral\sysclk/cy_sysclk.h **** 
 596:Generated_Source\PSoC6\pdl\drivers\peripheral\sysclk/cy_sysclk.h **** /** \} group_sysclk_macros */
 597:Generated_Source\PSoC6\pdl\drivers\peripheral\sysclk/cy_sysclk.h **** 
 598:Generated_Source\PSoC6\pdl\drivers\peripheral\sysclk/cy_sysclk.h **** /**
 599:Generated_Source\PSoC6\pdl\drivers\peripheral\sysclk/cy_sysclk.h **** * \addtogroup group_sysclk_returns
 600:Generated_Source\PSoC6\pdl\drivers\peripheral\sysclk/cy_sysclk.h **** * \{
 601:Generated_Source\PSoC6\pdl\drivers\peripheral\sysclk/cy_sysclk.h **** */
 602:Generated_Source\PSoC6\pdl\drivers\peripheral\sysclk/cy_sysclk.h **** /** Defines general-purpose function return values. */
 603:Generated_Source\PSoC6\pdl\drivers\peripheral\sysclk/cy_sysclk.h **** typedef enum
 604:Generated_Source\PSoC6\pdl\drivers\peripheral\sysclk/cy_sysclk.h **** {
 605:Generated_Source\PSoC6\pdl\drivers\peripheral\sysclk/cy_sysclk.h ****     CY_SYSCLK_SUCCESS       = 0u, /**< Command completed with no errors */
 606:Generated_Source\PSoC6\pdl\drivers\peripheral\sysclk/cy_sysclk.h ****     CY_SYSCLK_BAD_PARAM     = (CY_SYSCLK_ID | CY_PDL_STATUS_ERROR | 1U), /**< Invalid function inpu
 607:Generated_Source\PSoC6\pdl\drivers\peripheral\sysclk/cy_sysclk.h ****     CY_SYSCLK_TIMEOUT       = (CY_SYSCLK_ID | CY_PDL_STATUS_ERROR | 2U), /**< Timeout occurred */
 608:Generated_Source\PSoC6\pdl\drivers\peripheral\sysclk/cy_sysclk.h ****     CY_SYSCLK_INVALID_STATE = (CY_SYSCLK_ID | CY_PDL_STATUS_ERROR | 3U)  /**< Clock is in an invali
 609:Generated_Source\PSoC6\pdl\drivers\peripheral\sysclk/cy_sysclk.h **** } cy_en_sysclk_status_t;
 610:Generated_Source\PSoC6\pdl\drivers\peripheral\sysclk/cy_sysclk.h **** /** \} group_sysclk_returns */
 611:Generated_Source\PSoC6\pdl\drivers\peripheral\sysclk/cy_sysclk.h **** 
 612:Generated_Source\PSoC6\pdl\drivers\peripheral\sysclk/cy_sysclk.h **** /** \cond INTERNAL */
 613:Generated_Source\PSoC6\pdl\drivers\peripheral\sysclk/cy_sysclk.h **** /* Calculate a / b with rounding to the nearest integer. a and b must have the same sign. */
 614:Generated_Source\PSoC6\pdl\drivers\peripheral\sysclk/cy_sysclk.h **** #define CY_SYSCLK_DIV_ROUND(a, b) (((a) + ((b) / 2u)) / (b))
 615:Generated_Source\PSoC6\pdl\drivers\peripheral\sysclk/cy_sysclk.h **** /* Calculate a / b with rounding up if remainder != 0. a and b must both be positive. */
 616:Generated_Source\PSoC6\pdl\drivers\peripheral\sysclk/cy_sysclk.h **** #define CY_SYSCLK_DIV_ROUNDUP(a, b) ((((a) - 1U) / (b)) + 1U)
 617:Generated_Source\PSoC6\pdl\drivers\peripheral\sysclk/cy_sysclk.h **** /** \endcond */
 618:Generated_Source\PSoC6\pdl\drivers\peripheral\sysclk/cy_sysclk.h **** 
 619:Generated_Source\PSoC6\pdl\drivers\peripheral\sysclk/cy_sysclk.h **** 
 620:Generated_Source\PSoC6\pdl\drivers\peripheral\sysclk/cy_sysclk.h **** /* ========================================================================== */
ARM GAS  C:\Users\cmila\AppData\Local\Temp\cc5u2CXQ.s 			page 50


 621:Generated_Source\PSoC6\pdl\drivers\peripheral\sysclk/cy_sysclk.h **** /* ===========================    ECO SECTION    ============================ */
 622:Generated_Source\PSoC6\pdl\drivers\peripheral\sysclk/cy_sysclk.h **** /* ========================================================================== */
 623:Generated_Source\PSoC6\pdl\drivers\peripheral\sysclk/cy_sysclk.h **** 
 624:Generated_Source\PSoC6\pdl\drivers\peripheral\sysclk/cy_sysclk.h **** /**
 625:Generated_Source\PSoC6\pdl\drivers\peripheral\sysclk/cy_sysclk.h **** * \addtogroup group_sysclk_macros
 626:Generated_Source\PSoC6\pdl\drivers\peripheral\sysclk/cy_sysclk.h **** * \{
 627:Generated_Source\PSoC6\pdl\drivers\peripheral\sysclk/cy_sysclk.h **** */
 628:Generated_Source\PSoC6\pdl\drivers\peripheral\sysclk/cy_sysclk.h **** 
 629:Generated_Source\PSoC6\pdl\drivers\peripheral\sysclk/cy_sysclk.h **** /**
 630:Generated_Source\PSoC6\pdl\drivers\peripheral\sysclk/cy_sysclk.h **** * \defgroup group_sysclk_ecostatus ECO status
 631:Generated_Source\PSoC6\pdl\drivers\peripheral\sysclk/cy_sysclk.h **** * \{
 632:Generated_Source\PSoC6\pdl\drivers\peripheral\sysclk/cy_sysclk.h **** * Constants used for expressing ECO status.
 633:Generated_Source\PSoC6\pdl\drivers\peripheral\sysclk/cy_sysclk.h **** */
 634:Generated_Source\PSoC6\pdl\drivers\peripheral\sysclk/cy_sysclk.h **** #define CY_SYSCLK_ECOSTAT_AMPLITUDE  0UL /**< \brief ECO does not have sufficient amplitude */
 635:Generated_Source\PSoC6\pdl\drivers\peripheral\sysclk/cy_sysclk.h **** #define CY_SYSCLK_ECOSTAT_INACCURATE 1UL /**< \brief ECO may not be meeting accuracy and duty cycle
 636:Generated_Source\PSoC6\pdl\drivers\peripheral\sysclk/cy_sysclk.h **** #define CY_SYSCLK_ECOSTAT_STABLE     2UL /**< \brief ECO has fully stabilized */
 637:Generated_Source\PSoC6\pdl\drivers\peripheral\sysclk/cy_sysclk.h **** /** \} */
 638:Generated_Source\PSoC6\pdl\drivers\peripheral\sysclk/cy_sysclk.h **** 
 639:Generated_Source\PSoC6\pdl\drivers\peripheral\sysclk/cy_sysclk.h **** /** \} group_sysclk_macros */
 640:Generated_Source\PSoC6\pdl\drivers\peripheral\sysclk/cy_sysclk.h **** 
 641:Generated_Source\PSoC6\pdl\drivers\peripheral\sysclk/cy_sysclk.h **** 
 642:Generated_Source\PSoC6\pdl\drivers\peripheral\sysclk/cy_sysclk.h **** /**
 643:Generated_Source\PSoC6\pdl\drivers\peripheral\sysclk/cy_sysclk.h **** * \addtogroup group_sysclk_eco_funcs
 644:Generated_Source\PSoC6\pdl\drivers\peripheral\sysclk/cy_sysclk.h **** * \{
 645:Generated_Source\PSoC6\pdl\drivers\peripheral\sysclk/cy_sysclk.h **** */
 646:Generated_Source\PSoC6\pdl\drivers\peripheral\sysclk/cy_sysclk.h **** cy_en_sysclk_status_t Cy_SysClk_EcoConfigure(uint32_t freq, uint32_t cLoad, uint32_t esr, uint32_t 
 647:Generated_Source\PSoC6\pdl\drivers\peripheral\sysclk/cy_sysclk.h **** cy_en_sysclk_status_t Cy_SysClk_EcoEnable(uint32_t timeoutus);
 648:Generated_Source\PSoC6\pdl\drivers\peripheral\sysclk/cy_sysclk.h **** __STATIC_INLINE void Cy_SysClk_EcoDisable(void);
 649:Generated_Source\PSoC6\pdl\drivers\peripheral\sysclk/cy_sysclk.h **** __STATIC_INLINE uint32_t Cy_SysClk_EcoGetStatus(void);
 650:Generated_Source\PSoC6\pdl\drivers\peripheral\sysclk/cy_sysclk.h **** 
 651:Generated_Source\PSoC6\pdl\drivers\peripheral\sysclk/cy_sysclk.h **** /*******************************************************************************
 652:Generated_Source\PSoC6\pdl\drivers\peripheral\sysclk/cy_sysclk.h **** * Function Name: Cy_SysClk_EcoDisable
 653:Generated_Source\PSoC6\pdl\drivers\peripheral\sysclk/cy_sysclk.h **** ****************************************************************************//**
 654:Generated_Source\PSoC6\pdl\drivers\peripheral\sysclk/cy_sysclk.h **** *
 655:Generated_Source\PSoC6\pdl\drivers\peripheral\sysclk/cy_sysclk.h **** * Disables the external crystal oscillator (ECO). This function should not be
 656:Generated_Source\PSoC6\pdl\drivers\peripheral\sysclk/cy_sysclk.h **** * called if the ECO is sourcing clkHf[0].
 657:Generated_Source\PSoC6\pdl\drivers\peripheral\sysclk/cy_sysclk.h **** *
 658:Generated_Source\PSoC6\pdl\drivers\peripheral\sysclk/cy_sysclk.h **** * \funcusage
 659:Generated_Source\PSoC6\pdl\drivers\peripheral\sysclk/cy_sysclk.h **** * \snippet sysclk/2.0/snippet/main.c snippet_Cy_SysClk_EcoDisable
 660:Generated_Source\PSoC6\pdl\drivers\peripheral\sysclk/cy_sysclk.h **** *
 661:Generated_Source\PSoC6\pdl\drivers\peripheral\sysclk/cy_sysclk.h **** *******************************************************************************/
 662:Generated_Source\PSoC6\pdl\drivers\peripheral\sysclk/cy_sysclk.h **** __STATIC_INLINE void Cy_SysClk_EcoDisable(void)
 663:Generated_Source\PSoC6\pdl\drivers\peripheral\sysclk/cy_sysclk.h **** {
 664:Generated_Source\PSoC6\pdl\drivers\peripheral\sysclk/cy_sysclk.h ****     SRSS_CLK_ECO_CONFIG &= (uint32_t)~_VAL2FLD(SRSS_CLK_ECO_CONFIG_ECO_EN, 1U); /* 0 = disable */
 665:Generated_Source\PSoC6\pdl\drivers\peripheral\sysclk/cy_sysclk.h **** }
 666:Generated_Source\PSoC6\pdl\drivers\peripheral\sysclk/cy_sysclk.h **** 
 667:Generated_Source\PSoC6\pdl\drivers\peripheral\sysclk/cy_sysclk.h **** /*******************************************************************************
 668:Generated_Source\PSoC6\pdl\drivers\peripheral\sysclk/cy_sysclk.h **** * Function Name: Cy_SysClk_EcoGetStatus
 669:Generated_Source\PSoC6\pdl\drivers\peripheral\sysclk/cy_sysclk.h **** ****************************************************************************//**
 670:Generated_Source\PSoC6\pdl\drivers\peripheral\sysclk/cy_sysclk.h **** *
 671:Generated_Source\PSoC6\pdl\drivers\peripheral\sysclk/cy_sysclk.h **** * Reports the current status of the external crystal oscillator (ECO).
 672:Generated_Source\PSoC6\pdl\drivers\peripheral\sysclk/cy_sysclk.h **** *
 673:Generated_Source\PSoC6\pdl\drivers\peripheral\sysclk/cy_sysclk.h **** * \return
 674:Generated_Source\PSoC6\pdl\drivers\peripheral\sysclk/cy_sysclk.h **** * CY_SYSCLK_ECOSTAT_AMPLITUDE = ECO does not have sufficient amplitude<br>
 675:Generated_Source\PSoC6\pdl\drivers\peripheral\sysclk/cy_sysclk.h **** * CY_SYSCLK_ECOSTAT_INACCURATE = ECO has sufficient amplitude but may not be meeting accuracy and d
 676:Generated_Source\PSoC6\pdl\drivers\peripheral\sysclk/cy_sysclk.h **** * CY_SYSCLK_ECOSTAT_STABLE = ECO has fully stabilized
 677:Generated_Source\PSoC6\pdl\drivers\peripheral\sysclk/cy_sysclk.h **** *
ARM GAS  C:\Users\cmila\AppData\Local\Temp\cc5u2CXQ.s 			page 51


 678:Generated_Source\PSoC6\pdl\drivers\peripheral\sysclk/cy_sysclk.h **** * \funcusage
 679:Generated_Source\PSoC6\pdl\drivers\peripheral\sysclk/cy_sysclk.h **** * \snippet sysclk/2.0/snippet/main.c snippet_Cy_SysClk_EcoGetStatus
 680:Generated_Source\PSoC6\pdl\drivers\peripheral\sysclk/cy_sysclk.h **** *
 681:Generated_Source\PSoC6\pdl\drivers\peripheral\sysclk/cy_sysclk.h **** *******************************************************************************/
 682:Generated_Source\PSoC6\pdl\drivers\peripheral\sysclk/cy_sysclk.h **** __STATIC_INLINE uint32_t Cy_SysClk_EcoGetStatus(void)
 683:Generated_Source\PSoC6\pdl\drivers\peripheral\sysclk/cy_sysclk.h **** {
 684:Generated_Source\PSoC6\pdl\drivers\peripheral\sysclk/cy_sysclk.h ****     uint32_t retVal = (SRSS_CLK_ECO_STATUS & (SRSS_CLK_ECO_STATUS_ECO_OK_Msk | SRSS_CLK_ECO_STATUS_
 685:Generated_Source\PSoC6\pdl\drivers\peripheral\sysclk/cy_sysclk.h ****     /* if ECO is not ready, just report the ECO_OK bit. Otherwise report 2 = ECO ready */
 686:Generated_Source\PSoC6\pdl\drivers\peripheral\sysclk/cy_sysclk.h ****     return ((0UL == (retVal & SRSS_CLK_ECO_STATUS_ECO_READY_Msk)) ? retVal : CY_SYSCLK_ECOSTAT_STAB
 687:Generated_Source\PSoC6\pdl\drivers\peripheral\sysclk/cy_sysclk.h **** }
 688:Generated_Source\PSoC6\pdl\drivers\peripheral\sysclk/cy_sysclk.h **** /** \} group_sysclk_eco_funcs */
 689:Generated_Source\PSoC6\pdl\drivers\peripheral\sysclk/cy_sysclk.h **** 
 690:Generated_Source\PSoC6\pdl\drivers\peripheral\sysclk/cy_sysclk.h **** 
 691:Generated_Source\PSoC6\pdl\drivers\peripheral\sysclk/cy_sysclk.h **** /* ========================================================================== */
 692:Generated_Source\PSoC6\pdl\drivers\peripheral\sysclk/cy_sysclk.h **** /* ====================    INPUT MULTIPLEXER SECTION    ===================== */
 693:Generated_Source\PSoC6\pdl\drivers\peripheral\sysclk/cy_sysclk.h **** /* ========================================================================== */
 694:Generated_Source\PSoC6\pdl\drivers\peripheral\sysclk/cy_sysclk.h **** /**
 695:Generated_Source\PSoC6\pdl\drivers\peripheral\sysclk/cy_sysclk.h **** * \addtogroup group_sysclk_path_src_enums
 696:Generated_Source\PSoC6\pdl\drivers\peripheral\sysclk/cy_sysclk.h **** * \{
 697:Generated_Source\PSoC6\pdl\drivers\peripheral\sysclk/cy_sysclk.h **** */
 698:Generated_Source\PSoC6\pdl\drivers\peripheral\sysclk/cy_sysclk.h **** /**
 699:Generated_Source\PSoC6\pdl\drivers\peripheral\sysclk/cy_sysclk.h **** *   Input multiplexer clock sources
 700:Generated_Source\PSoC6\pdl\drivers\peripheral\sysclk/cy_sysclk.h **** */
 701:Generated_Source\PSoC6\pdl\drivers\peripheral\sysclk/cy_sysclk.h **** typedef enum
 702:Generated_Source\PSoC6\pdl\drivers\peripheral\sysclk/cy_sysclk.h **** {
 703:Generated_Source\PSoC6\pdl\drivers\peripheral\sysclk/cy_sysclk.h ****     CY_SYSCLK_CLKPATH_IN_IMO    =     0U, /**< Select the IMO as the output of the path mux */
 704:Generated_Source\PSoC6\pdl\drivers\peripheral\sysclk/cy_sysclk.h ****     CY_SYSCLK_CLKPATH_IN_EXT    =     1U, /**< Select the EXT as the output of the path mux */
 705:Generated_Source\PSoC6\pdl\drivers\peripheral\sysclk/cy_sysclk.h ****     CY_SYSCLK_CLKPATH_IN_ECO    =     2U, /**< Select the ECO as the output of the path mux */
 706:Generated_Source\PSoC6\pdl\drivers\peripheral\sysclk/cy_sysclk.h ****     CY_SYSCLK_CLKPATH_IN_ALTHF  =     3U, /**< Select the ALTHF as the output of the path mux.
 707:Generated_Source\PSoC6\pdl\drivers\peripheral\sysclk/cy_sysclk.h ****                                            *   Make sure the ALTHF clock source is available on use
 708:Generated_Source\PSoC6\pdl\drivers\peripheral\sysclk/cy_sysclk.h ****                                            */
 709:Generated_Source\PSoC6\pdl\drivers\peripheral\sysclk/cy_sysclk.h ****     CY_SYSCLK_CLKPATH_IN_DSIMUX =     4U, /**< Select the DSI MUX output as the output of the path 
 710:Generated_Source\PSoC6\pdl\drivers\peripheral\sysclk/cy_sysclk.h ****     CY_SYSCLK_CLKPATH_IN_DSI    = 0x100U, /**< Select a DSI signal (0 - 15) as the output of the DS
 711:Generated_Source\PSoC6\pdl\drivers\peripheral\sysclk/cy_sysclk.h ****                                            *   Make sure the DSI clock sources are available on use
 712:Generated_Source\PSoC6\pdl\drivers\peripheral\sysclk/cy_sysclk.h ****                                            */
 713:Generated_Source\PSoC6\pdl\drivers\peripheral\sysclk/cy_sysclk.h ****     CY_SYSCLK_CLKPATH_IN_ILO    = 0x110U, /**< Select the ILO (16) as the output of the DSI mux and
 714:Generated_Source\PSoC6\pdl\drivers\peripheral\sysclk/cy_sysclk.h ****     CY_SYSCLK_CLKPATH_IN_WCO    = 0x111U, /**< Select the WCO (17) as the output of the DSI mux and
 715:Generated_Source\PSoC6\pdl\drivers\peripheral\sysclk/cy_sysclk.h ****     CY_SYSCLK_CLKPATH_IN_ALTLF  = 0x112U, /**< Select the ALTLF (18) as the output of the DSI mux a
 716:Generated_Source\PSoC6\pdl\drivers\peripheral\sysclk/cy_sysclk.h ****                                            *   Make sure the ALTLF clock sources in available on us
 717:Generated_Source\PSoC6\pdl\drivers\peripheral\sysclk/cy_sysclk.h ****                                            */
 718:Generated_Source\PSoC6\pdl\drivers\peripheral\sysclk/cy_sysclk.h ****     CY_SYSCLK_CLKPATH_IN_PILO   = 0x113U  /**< Select the PILO (19) as the output of the DSI mux an
 719:Generated_Source\PSoC6\pdl\drivers\peripheral\sysclk/cy_sysclk.h ****                                            *   Make sure the PILO clock sources in available on use
 720:Generated_Source\PSoC6\pdl\drivers\peripheral\sysclk/cy_sysclk.h ****                                            */
 721:Generated_Source\PSoC6\pdl\drivers\peripheral\sysclk/cy_sysclk.h **** } cy_en_clkpath_in_sources_t;
 722:Generated_Source\PSoC6\pdl\drivers\peripheral\sysclk/cy_sysclk.h **** /** \} group_sysclk_path_src_enums */
 723:Generated_Source\PSoC6\pdl\drivers\peripheral\sysclk/cy_sysclk.h **** 
 724:Generated_Source\PSoC6\pdl\drivers\peripheral\sysclk/cy_sysclk.h **** /**
 725:Generated_Source\PSoC6\pdl\drivers\peripheral\sysclk/cy_sysclk.h **** * \addtogroup group_sysclk_path_src_funcs
 726:Generated_Source\PSoC6\pdl\drivers\peripheral\sysclk/cy_sysclk.h **** * \{
 727:Generated_Source\PSoC6\pdl\drivers\peripheral\sysclk/cy_sysclk.h **** */
 728:Generated_Source\PSoC6\pdl\drivers\peripheral\sysclk/cy_sysclk.h **** cy_en_sysclk_status_t Cy_SysClk_ClkPathSetSource(uint32_t clkPath, cy_en_clkpath_in_sources_t sourc
 729:Generated_Source\PSoC6\pdl\drivers\peripheral\sysclk/cy_sysclk.h **** cy_en_clkpath_in_sources_t Cy_SysClk_ClkPathGetSource(uint32_t clkPath);
 730:Generated_Source\PSoC6\pdl\drivers\peripheral\sysclk/cy_sysclk.h **** /** \} group_sysclk_path_src_funcs */
 731:Generated_Source\PSoC6\pdl\drivers\peripheral\sysclk/cy_sysclk.h **** 
 732:Generated_Source\PSoC6\pdl\drivers\peripheral\sysclk/cy_sysclk.h **** 
 733:Generated_Source\PSoC6\pdl\drivers\peripheral\sysclk/cy_sysclk.h **** /* ========================================================================== */
 734:Generated_Source\PSoC6\pdl\drivers\peripheral\sysclk/cy_sysclk.h **** /* ===========================    FLL SECTION    ============================ */
ARM GAS  C:\Users\cmila\AppData\Local\Temp\cc5u2CXQ.s 			page 52


 735:Generated_Source\PSoC6\pdl\drivers\peripheral\sysclk/cy_sysclk.h **** /* ========================================================================== */
 736:Generated_Source\PSoC6\pdl\drivers\peripheral\sysclk/cy_sysclk.h **** /**
 737:Generated_Source\PSoC6\pdl\drivers\peripheral\sysclk/cy_sysclk.h **** * \addtogroup group_sysclk_fll_enums
 738:Generated_Source\PSoC6\pdl\drivers\peripheral\sysclk/cy_sysclk.h **** * \{
 739:Generated_Source\PSoC6\pdl\drivers\peripheral\sysclk/cy_sysclk.h **** */
 740:Generated_Source\PSoC6\pdl\drivers\peripheral\sysclk/cy_sysclk.h **** /** FLL and PLL output mode.
 741:Generated_Source\PSoC6\pdl\drivers\peripheral\sysclk/cy_sysclk.h **** * See registers CLK_FLL_CONFIG3 and CLK_PLL_CONFIG0, bits BYPASS_SEL.
 742:Generated_Source\PSoC6\pdl\drivers\peripheral\sysclk/cy_sysclk.h **** */
 743:Generated_Source\PSoC6\pdl\drivers\peripheral\sysclk/cy_sysclk.h **** typedef enum
 744:Generated_Source\PSoC6\pdl\drivers\peripheral\sysclk/cy_sysclk.h **** {
 745:Generated_Source\PSoC6\pdl\drivers\peripheral\sysclk/cy_sysclk.h ****     CY_SYSCLK_FLLPLL_OUTPUT_AUTO   = 0U, /**< Output FLL/PLL input source when not locked, and FLL/
 746:Generated_Source\PSoC6\pdl\drivers\peripheral\sysclk/cy_sysclk.h ****     CY_SYSCLK_FLLPLL_OUTPUT_AUTO1  = 1U, /**< Same as AUTO */
 747:Generated_Source\PSoC6\pdl\drivers\peripheral\sysclk/cy_sysclk.h ****     CY_SYSCLK_FLLPLL_OUTPUT_INPUT  = 2U, /**< Output FLL/PLL input source regardless of lock status
 748:Generated_Source\PSoC6\pdl\drivers\peripheral\sysclk/cy_sysclk.h ****     CY_SYSCLK_FLLPLL_OUTPUT_OUTPUT = 3U  /**< Output FLL/PLL output regardless of lock status. This
 749:Generated_Source\PSoC6\pdl\drivers\peripheral\sysclk/cy_sysclk.h **** } cy_en_fll_pll_output_mode_t;
 750:Generated_Source\PSoC6\pdl\drivers\peripheral\sysclk/cy_sysclk.h **** 
 751:Generated_Source\PSoC6\pdl\drivers\peripheral\sysclk/cy_sysclk.h **** /** FLL current-controlled oscillator (CCO) frequency ranges.
 752:Generated_Source\PSoC6\pdl\drivers\peripheral\sysclk/cy_sysclk.h **** * See register CLK_FLL_CONFIG4, bits CCO_RANGE.
 753:Generated_Source\PSoC6\pdl\drivers\peripheral\sysclk/cy_sysclk.h **** */
 754:Generated_Source\PSoC6\pdl\drivers\peripheral\sysclk/cy_sysclk.h **** typedef enum
 755:Generated_Source\PSoC6\pdl\drivers\peripheral\sysclk/cy_sysclk.h **** {
 756:Generated_Source\PSoC6\pdl\drivers\peripheral\sysclk/cy_sysclk.h ****     CY_SYSCLK_FLL_CCO_RANGE0, /**< Target frequency is in range  48 -  64 MHz. */
 757:Generated_Source\PSoC6\pdl\drivers\peripheral\sysclk/cy_sysclk.h ****     CY_SYSCLK_FLL_CCO_RANGE1, /**< Target frequency is in range  64 -  85 MHz. */
 758:Generated_Source\PSoC6\pdl\drivers\peripheral\sysclk/cy_sysclk.h ****     CY_SYSCLK_FLL_CCO_RANGE2, /**< Target frequency is in range  85 - 113 MHz. */
 759:Generated_Source\PSoC6\pdl\drivers\peripheral\sysclk/cy_sysclk.h ****     CY_SYSCLK_FLL_CCO_RANGE3, /**< Target frequency is in range 113 - 150 MHz. */
 760:Generated_Source\PSoC6\pdl\drivers\peripheral\sysclk/cy_sysclk.h ****     CY_SYSCLK_FLL_CCO_RANGE4  /**< Target frequency is in range 150 - 200 MHz. */
 761:Generated_Source\PSoC6\pdl\drivers\peripheral\sysclk/cy_sysclk.h **** } cy_en_fll_cco_ranges_t;
 762:Generated_Source\PSoC6\pdl\drivers\peripheral\sysclk/cy_sysclk.h **** /** \} group_sysclk_fll_enums */
 763:Generated_Source\PSoC6\pdl\drivers\peripheral\sysclk/cy_sysclk.h **** 
 764:Generated_Source\PSoC6\pdl\drivers\peripheral\sysclk/cy_sysclk.h **** /**
 765:Generated_Source\PSoC6\pdl\drivers\peripheral\sysclk/cy_sysclk.h **** * \addtogroup group_sysclk_fll_structs
 766:Generated_Source\PSoC6\pdl\drivers\peripheral\sysclk/cy_sysclk.h **** * \{
 767:Generated_Source\PSoC6\pdl\drivers\peripheral\sysclk/cy_sysclk.h **** */
 768:Generated_Source\PSoC6\pdl\drivers\peripheral\sysclk/cy_sysclk.h **** /** Structure containing information for manual configuration of FLL.
 769:Generated_Source\PSoC6\pdl\drivers\peripheral\sysclk/cy_sysclk.h **** */
 770:Generated_Source\PSoC6\pdl\drivers\peripheral\sysclk/cy_sysclk.h **** typedef struct
 771:Generated_Source\PSoC6\pdl\drivers\peripheral\sysclk/cy_sysclk.h **** {
 772:Generated_Source\PSoC6\pdl\drivers\peripheral\sysclk/cy_sysclk.h ****     uint32_t                    fllMult;         /**< CLK_FLL_CONFIG  register, FLL_MULT bits */
 773:Generated_Source\PSoC6\pdl\drivers\peripheral\sysclk/cy_sysclk.h ****     uint16_t                    refDiv;          /**< CLK_FLL_CONFIG2 register, FLL_REF_DIV bits */
 774:Generated_Source\PSoC6\pdl\drivers\peripheral\sysclk/cy_sysclk.h ****     cy_en_fll_cco_ranges_t      ccoRange;        /**< CLK_FLL_CONFIG4 register, CCO_RANGE bits */
 775:Generated_Source\PSoC6\pdl\drivers\peripheral\sysclk/cy_sysclk.h ****     bool                        enableOutputDiv; /**< CLK_FLL_CONFIG  register, FLL_OUTPUT_DIV bit 
 776:Generated_Source\PSoC6\pdl\drivers\peripheral\sysclk/cy_sysclk.h ****     uint16_t                    lockTolerance;   /**< CLK_FLL_CONFIG2 register, LOCK_TOL bits */
 777:Generated_Source\PSoC6\pdl\drivers\peripheral\sysclk/cy_sysclk.h ****     uint8_t                     igain;           /**< CLK_FLL_CONFIG3 register, FLL_LF_IGAIN bits *
 778:Generated_Source\PSoC6\pdl\drivers\peripheral\sysclk/cy_sysclk.h ****     uint8_t                     pgain;           /**< CLK_FLL_CONFIG3 register, FLL_LF_PGAIN bits *
 779:Generated_Source\PSoC6\pdl\drivers\peripheral\sysclk/cy_sysclk.h ****     uint16_t                    settlingCount;   /**< CLK_FLL_CONFIG3 register, SETTLING_COUNT bits
 780:Generated_Source\PSoC6\pdl\drivers\peripheral\sysclk/cy_sysclk.h ****     cy_en_fll_pll_output_mode_t outputMode;      /**< CLK_FLL_CONFIG3 register, BYPASS_SEL bits */
 781:Generated_Source\PSoC6\pdl\drivers\peripheral\sysclk/cy_sysclk.h ****     uint16_t                    cco_Freq;        /**< CLK_FLL_CONFIG4 register, CCO_FREQ bits */
 782:Generated_Source\PSoC6\pdl\drivers\peripheral\sysclk/cy_sysclk.h **** } cy_stc_fll_manual_config_t;
 783:Generated_Source\PSoC6\pdl\drivers\peripheral\sysclk/cy_sysclk.h **** /** \} group_sysclk_fll_structs */
 784:Generated_Source\PSoC6\pdl\drivers\peripheral\sysclk/cy_sysclk.h **** 
 785:Generated_Source\PSoC6\pdl\drivers\peripheral\sysclk/cy_sysclk.h **** /**
 786:Generated_Source\PSoC6\pdl\drivers\peripheral\sysclk/cy_sysclk.h **** * \addtogroup group_sysclk_fll_funcs
 787:Generated_Source\PSoC6\pdl\drivers\peripheral\sysclk/cy_sysclk.h **** * \{
 788:Generated_Source\PSoC6\pdl\drivers\peripheral\sysclk/cy_sysclk.h **** */
 789:Generated_Source\PSoC6\pdl\drivers\peripheral\sysclk/cy_sysclk.h **** cy_en_sysclk_status_t Cy_SysClk_FllConfigure(uint32_t inputFreq, uint32_t outputFreq, cy_en_fll_pll
 790:Generated_Source\PSoC6\pdl\drivers\peripheral\sysclk/cy_sysclk.h **** cy_en_sysclk_status_t Cy_SysClk_FllManualConfigure(const cy_stc_fll_manual_config_t *config);
 791:Generated_Source\PSoC6\pdl\drivers\peripheral\sysclk/cy_sysclk.h **** void Cy_SysClk_FllGetConfiguration(cy_stc_fll_manual_config_t *config);
ARM GAS  C:\Users\cmila\AppData\Local\Temp\cc5u2CXQ.s 			page 53


 792:Generated_Source\PSoC6\pdl\drivers\peripheral\sysclk/cy_sysclk.h **** cy_en_sysclk_status_t Cy_SysClk_FllEnable(uint32_t timeoutus);
 793:Generated_Source\PSoC6\pdl\drivers\peripheral\sysclk/cy_sysclk.h **** __STATIC_INLINE bool Cy_SysClk_FllLocked(void);
 794:Generated_Source\PSoC6\pdl\drivers\peripheral\sysclk/cy_sysclk.h **** __STATIC_INLINE cy_en_sysclk_status_t Cy_SysClk_FllDisable(void);
 795:Generated_Source\PSoC6\pdl\drivers\peripheral\sysclk/cy_sysclk.h **** 
 796:Generated_Source\PSoC6\pdl\drivers\peripheral\sysclk/cy_sysclk.h **** /*******************************************************************************
 797:Generated_Source\PSoC6\pdl\drivers\peripheral\sysclk/cy_sysclk.h **** * Function Name: Cy_SysClk_FllLocked
 798:Generated_Source\PSoC6\pdl\drivers\peripheral\sysclk/cy_sysclk.h **** ****************************************************************************//**
 799:Generated_Source\PSoC6\pdl\drivers\peripheral\sysclk/cy_sysclk.h **** *
 800:Generated_Source\PSoC6\pdl\drivers\peripheral\sysclk/cy_sysclk.h **** * Reports whether the FLL is locked first time during FLL starting.
 801:Generated_Source\PSoC6\pdl\drivers\peripheral\sysclk/cy_sysclk.h **** * Intended to be used with \ref Cy_SysClk_FllEnable with zero timeout.
 802:Generated_Source\PSoC6\pdl\drivers\peripheral\sysclk/cy_sysclk.h **** *
 803:Generated_Source\PSoC6\pdl\drivers\peripheral\sysclk/cy_sysclk.h **** * \return 
 804:Generated_Source\PSoC6\pdl\drivers\peripheral\sysclk/cy_sysclk.h **** * false = not locked<br>
 805:Generated_Source\PSoC6\pdl\drivers\peripheral\sysclk/cy_sysclk.h **** * true = locked
 806:Generated_Source\PSoC6\pdl\drivers\peripheral\sysclk/cy_sysclk.h **** *
 807:Generated_Source\PSoC6\pdl\drivers\peripheral\sysclk/cy_sysclk.h **** * \note
 808:Generated_Source\PSoC6\pdl\drivers\peripheral\sysclk/cy_sysclk.h **** * The unlock occurrence may appear during FLL normal operation, so this function 
 809:Generated_Source\PSoC6\pdl\drivers\peripheral\sysclk/cy_sysclk.h **** * is not recommended to check the FLL normal operation stability.
 810:Generated_Source\PSoC6\pdl\drivers\peripheral\sysclk/cy_sysclk.h **** *
 811:Generated_Source\PSoC6\pdl\drivers\peripheral\sysclk/cy_sysclk.h **** * \funcusage
 812:Generated_Source\PSoC6\pdl\drivers\peripheral\sysclk/cy_sysclk.h **** * \snippet sysclk/2.0/snippet/main.c snippet_Cy_SysClk_FllLocked
 813:Generated_Source\PSoC6\pdl\drivers\peripheral\sysclk/cy_sysclk.h **** *
 814:Generated_Source\PSoC6\pdl\drivers\peripheral\sysclk/cy_sysclk.h **** *******************************************************************************/
 815:Generated_Source\PSoC6\pdl\drivers\peripheral\sysclk/cy_sysclk.h **** __STATIC_INLINE bool Cy_SysClk_FllLocked(void)
 816:Generated_Source\PSoC6\pdl\drivers\peripheral\sysclk/cy_sysclk.h **** {
 817:Generated_Source\PSoC6\pdl\drivers\peripheral\sysclk/cy_sysclk.h ****     return (_FLD2BOOL(SRSS_CLK_FLL_STATUS_LOCKED, SRSS_CLK_FLL_STATUS));
 1364              		.loc 2 817 0
 1365 005c B223     		movs	r3, #178
 1366 005e DB00     		lsls	r3, r3, #3
 1367 0060 E358     		ldr	r3, [r4, r3]
 1368              	.LBE40:
 1369              	.LBE39:
 1370              		.loc 1 677 0
 1371 0062 3B42     		tst	r3, r7
 1372 0064 06D1     		bne	.L122
 1373              		.loc 1 677 0 is_stmt 0 discriminator 1
 1374 0066 002D     		cmp	r5, #0
 1375 0068 13D0     		beq	.L150
 678:Generated_Source\PSoC6\pdl\drivers\peripheral\sysclk/cy_sysclk.c ****            (0UL != timeoutus);
 679:Generated_Source\PSoC6\pdl\drivers\peripheral\sysclk/cy_sysclk.c ****          timeoutus--)
 680:Generated_Source\PSoC6\pdl\drivers\peripheral\sysclk/cy_sysclk.c ****     {
 681:Generated_Source\PSoC6\pdl\drivers\peripheral\sysclk/cy_sysclk.c ****         Cy_SysLib_DelayUs(1U);
 1376              		.loc 1 681 0 is_stmt 1
 1377 006a 0120     		movs	r0, #1
 1378 006c FFF7FEFF 		bl	Cy_SysLib_DelayUs
 1379              	.LVL145:
 679:Generated_Source\PSoC6\pdl\drivers\peripheral\sysclk/cy_sysclk.c ****     {
 1380              		.loc 1 679 0
 1381 0070 013D     		subs	r5, r5, #1
 1382              	.LVL146:
 1383 0072 F3E7     		b	.L121
 1384              	.L122:
