ARM GAS  C:\Users\cmila\AppData\Local\Temp\cc97sZC5.s 			page 1


   1              		.syntax unified
   2              		.cpu cortex-m0plus
   3              		.fpu softvfp
   4              		.eabi_attribute 20, 1
   5              		.eabi_attribute 21, 1
   6              		.eabi_attribute 23, 3
   7              		.eabi_attribute 24, 1
   8              		.eabi_attribute 25, 1
   9              		.eabi_attribute 26, 1
  10              		.eabi_attribute 30, 4
  11              		.eabi_attribute 34, 0
  12              		.eabi_attribute 18, 4
  13              		.thumb
  14              		.syntax unified
  15              		.file	"cy_systick.c"
  16              		.text
  17              	.Ltext0:
  18              		.cfi_sections	.debug_frame
  19              		.section	.text.Cy_SysTick_ServiceCallbacks,"ax",%progbits
  20              		.align	1
  21              		.code	16
  22              		.thumb_func
  23              		.type	Cy_SysTick_ServiceCallbacks, %function
  24              	Cy_SysTick_ServiceCallbacks:
  25              	.LFB59:
  26              		.file 1 "Generated_Source\\PSoC6\\pdl\\drivers\\peripheral\\systick\\cy_systick.c"
   1:Generated_Source\PSoC6\pdl\drivers\peripheral\systick/cy_systick.c **** /***************************************************************************//**
   2:Generated_Source\PSoC6\pdl\drivers\peripheral\systick/cy_systick.c **** * \file cy_systick.c
   3:Generated_Source\PSoC6\pdl\drivers\peripheral\systick/cy_systick.c **** * \version 1.10
   4:Generated_Source\PSoC6\pdl\drivers\peripheral\systick/cy_systick.c **** *
   5:Generated_Source\PSoC6\pdl\drivers\peripheral\systick/cy_systick.c **** * Provides the API definitions of the SisTick driver.
   6:Generated_Source\PSoC6\pdl\drivers\peripheral\systick/cy_systick.c **** *
   7:Generated_Source\PSoC6\pdl\drivers\peripheral\systick/cy_systick.c **** ********************************************************************************
   8:Generated_Source\PSoC6\pdl\drivers\peripheral\systick/cy_systick.c **** * \copyright
   9:Generated_Source\PSoC6\pdl\drivers\peripheral\systick/cy_systick.c **** * Copyright 2016-2018, Cypress Semiconductor Corporation.  All rights reserved.
  10:Generated_Source\PSoC6\pdl\drivers\peripheral\systick/cy_systick.c **** * You may use this file only in accordance with the license, terms, conditions,
  11:Generated_Source\PSoC6\pdl\drivers\peripheral\systick/cy_systick.c **** * disclaimers, and limitations in the end user license agreement accompanying
  12:Generated_Source\PSoC6\pdl\drivers\peripheral\systick/cy_systick.c **** * the software package with which this file was provided.
  13:Generated_Source\PSoC6\pdl\drivers\peripheral\systick/cy_systick.c **** *******************************************************************************/
  14:Generated_Source\PSoC6\pdl\drivers\peripheral\systick/cy_systick.c **** 
  15:Generated_Source\PSoC6\pdl\drivers\peripheral\systick/cy_systick.c **** #include "cy_systick.h"
  16:Generated_Source\PSoC6\pdl\drivers\peripheral\systick/cy_systick.c **** #include <stddef.h>     /* for NULL */
  17:Generated_Source\PSoC6\pdl\drivers\peripheral\systick/cy_systick.c **** 
  18:Generated_Source\PSoC6\pdl\drivers\peripheral\systick/cy_systick.c **** 
  19:Generated_Source\PSoC6\pdl\drivers\peripheral\systick/cy_systick.c **** static Cy_SysTick_Callback Cy_SysTick_Callbacks[CY_SYS_SYST_NUM_OF_CALLBACKS];
  20:Generated_Source\PSoC6\pdl\drivers\peripheral\systick/cy_systick.c **** static void Cy_SysTick_ServiceCallbacks(void);
  21:Generated_Source\PSoC6\pdl\drivers\peripheral\systick/cy_systick.c **** 
  22:Generated_Source\PSoC6\pdl\drivers\peripheral\systick/cy_systick.c **** 
  23:Generated_Source\PSoC6\pdl\drivers\peripheral\systick/cy_systick.c **** /*******************************************************************************
  24:Generated_Source\PSoC6\pdl\drivers\peripheral\systick/cy_systick.c **** * Function Name: Cy_SysTick_Init
  25:Generated_Source\PSoC6\pdl\drivers\peripheral\systick/cy_systick.c **** ****************************************************************************//**
  26:Generated_Source\PSoC6\pdl\drivers\peripheral\systick/cy_systick.c **** *
  27:Generated_Source\PSoC6\pdl\drivers\peripheral\systick/cy_systick.c **** * Initializes the SysTick driver:
  28:Generated_Source\PSoC6\pdl\drivers\peripheral\systick/cy_systick.c **** * - Initializes the callback addresses with pointers to NULL
  29:Generated_Source\PSoC6\pdl\drivers\peripheral\systick/cy_systick.c **** * - Associates the SysTick system vector with the callback functions
  30:Generated_Source\PSoC6\pdl\drivers\peripheral\systick/cy_systick.c **** * - Sets the SysTick clock by calling \ref Cy_SysTick_SetClockSource()
  31:Generated_Source\PSoC6\pdl\drivers\peripheral\systick/cy_systick.c **** * - Sets the SysTick reload interval by calling \ref Cy_SysTick_SetReload()
ARM GAS  C:\Users\cmila\AppData\Local\Temp\cc97sZC5.s 			page 2


  32:Generated_Source\PSoC6\pdl\drivers\peripheral\systick/cy_systick.c **** * - Clears the SysTick counter value by calling \ref Cy_SysTick_Clear()
  33:Generated_Source\PSoC6\pdl\drivers\peripheral\systick/cy_systick.c **** * - Enables the SysTick by calling \ref Cy_SysTick_Enable(). Note the \ref
  34:Generated_Source\PSoC6\pdl\drivers\peripheral\systick/cy_systick.c **** *   Cy_SysTick_Enable() function also enables the SysTick interrupt by calling
  35:Generated_Source\PSoC6\pdl\drivers\peripheral\systick/cy_systick.c **** *   \ref Cy_SysTick_EnableInterrupt().
  36:Generated_Source\PSoC6\pdl\drivers\peripheral\systick/cy_systick.c **** *
  37:Generated_Source\PSoC6\pdl\drivers\peripheral\systick/cy_systick.c **** * \param clockSource The SysTick clock source \ref cy_en_systick_clock_source_t
  38:Generated_Source\PSoC6\pdl\drivers\peripheral\systick/cy_systick.c **** * \param interval The SysTick reload value.
  39:Generated_Source\PSoC6\pdl\drivers\peripheral\systick/cy_systick.c **** *
  40:Generated_Source\PSoC6\pdl\drivers\peripheral\systick/cy_systick.c **** * \sideeffect Clears the SysTick count flag if it was set.
  41:Generated_Source\PSoC6\pdl\drivers\peripheral\systick/cy_systick.c **** *
  42:Generated_Source\PSoC6\pdl\drivers\peripheral\systick/cy_systick.c **** *******************************************************************************/
  43:Generated_Source\PSoC6\pdl\drivers\peripheral\systick/cy_systick.c **** void Cy_SysTick_Init(cy_en_systick_clock_source_t clockSource, uint32_t interval)
  44:Generated_Source\PSoC6\pdl\drivers\peripheral\systick/cy_systick.c **** {
  45:Generated_Source\PSoC6\pdl\drivers\peripheral\systick/cy_systick.c ****     uint32_t i;
  46:Generated_Source\PSoC6\pdl\drivers\peripheral\systick/cy_systick.c **** 
  47:Generated_Source\PSoC6\pdl\drivers\peripheral\systick/cy_systick.c ****     for (i = 0u; i<CY_SYS_SYST_NUM_OF_CALLBACKS; i++)
  48:Generated_Source\PSoC6\pdl\drivers\peripheral\systick/cy_systick.c ****     {
  49:Generated_Source\PSoC6\pdl\drivers\peripheral\systick/cy_systick.c ****         Cy_SysTick_Callbacks[i] = NULL;
  50:Generated_Source\PSoC6\pdl\drivers\peripheral\systick/cy_systick.c ****     }
  51:Generated_Source\PSoC6\pdl\drivers\peripheral\systick/cy_systick.c **** 
  52:Generated_Source\PSoC6\pdl\drivers\peripheral\systick/cy_systick.c ****     __ramVectors[CY_SYSTICK_IRQ_NUM] = &Cy_SysTick_ServiceCallbacks;
  53:Generated_Source\PSoC6\pdl\drivers\peripheral\systick/cy_systick.c ****     Cy_SysTick_SetClockSource(clockSource);
  54:Generated_Source\PSoC6\pdl\drivers\peripheral\systick/cy_systick.c **** 
  55:Generated_Source\PSoC6\pdl\drivers\peripheral\systick/cy_systick.c ****     Cy_SysTick_SetReload(interval);
  56:Generated_Source\PSoC6\pdl\drivers\peripheral\systick/cy_systick.c ****     Cy_SysTick_Clear();
  57:Generated_Source\PSoC6\pdl\drivers\peripheral\systick/cy_systick.c ****     Cy_SysTick_Enable();
  58:Generated_Source\PSoC6\pdl\drivers\peripheral\systick/cy_systick.c **** }
  59:Generated_Source\PSoC6\pdl\drivers\peripheral\systick/cy_systick.c **** 
  60:Generated_Source\PSoC6\pdl\drivers\peripheral\systick/cy_systick.c **** 
  61:Generated_Source\PSoC6\pdl\drivers\peripheral\systick/cy_systick.c **** /*******************************************************************************
  62:Generated_Source\PSoC6\pdl\drivers\peripheral\systick/cy_systick.c **** * Function Name: Cy_SysTick_Enable
  63:Generated_Source\PSoC6\pdl\drivers\peripheral\systick/cy_systick.c **** ****************************************************************************//**
  64:Generated_Source\PSoC6\pdl\drivers\peripheral\systick/cy_systick.c **** *
  65:Generated_Source\PSoC6\pdl\drivers\peripheral\systick/cy_systick.c **** * Enables the SysTick timer and its interrupt.
  66:Generated_Source\PSoC6\pdl\drivers\peripheral\systick/cy_systick.c **** *
  67:Generated_Source\PSoC6\pdl\drivers\peripheral\systick/cy_systick.c **** * \sideeffect Clears the SysTick count flag if it was set
  68:Generated_Source\PSoC6\pdl\drivers\peripheral\systick/cy_systick.c **** *
  69:Generated_Source\PSoC6\pdl\drivers\peripheral\systick/cy_systick.c **** *******************************************************************************/
  70:Generated_Source\PSoC6\pdl\drivers\peripheral\systick/cy_systick.c **** void Cy_SysTick_Enable(void)
  71:Generated_Source\PSoC6\pdl\drivers\peripheral\systick/cy_systick.c **** {
  72:Generated_Source\PSoC6\pdl\drivers\peripheral\systick/cy_systick.c ****     Cy_SysTick_EnableInterrupt();
  73:Generated_Source\PSoC6\pdl\drivers\peripheral\systick/cy_systick.c ****     SYSTICK_CTRL |= SysTick_CTRL_ENABLE_Msk;
  74:Generated_Source\PSoC6\pdl\drivers\peripheral\systick/cy_systick.c **** }
  75:Generated_Source\PSoC6\pdl\drivers\peripheral\systick/cy_systick.c **** 
  76:Generated_Source\PSoC6\pdl\drivers\peripheral\systick/cy_systick.c **** 
  77:Generated_Source\PSoC6\pdl\drivers\peripheral\systick/cy_systick.c **** /*******************************************************************************
  78:Generated_Source\PSoC6\pdl\drivers\peripheral\systick/cy_systick.c **** * Function Name: Cy_SysTick_Disable
  79:Generated_Source\PSoC6\pdl\drivers\peripheral\systick/cy_systick.c **** ****************************************************************************//**
  80:Generated_Source\PSoC6\pdl\drivers\peripheral\systick/cy_systick.c **** *
  81:Generated_Source\PSoC6\pdl\drivers\peripheral\systick/cy_systick.c **** * Disables the SysTick timer and its interrupt.
  82:Generated_Source\PSoC6\pdl\drivers\peripheral\systick/cy_systick.c **** *
  83:Generated_Source\PSoC6\pdl\drivers\peripheral\systick/cy_systick.c **** * \sideeffect Clears the SysTick count flag if it was set
  84:Generated_Source\PSoC6\pdl\drivers\peripheral\systick/cy_systick.c **** *
  85:Generated_Source\PSoC6\pdl\drivers\peripheral\systick/cy_systick.c **** *******************************************************************************/
  86:Generated_Source\PSoC6\pdl\drivers\peripheral\systick/cy_systick.c **** void Cy_SysTick_Disable(void)
  87:Generated_Source\PSoC6\pdl\drivers\peripheral\systick/cy_systick.c **** {
  88:Generated_Source\PSoC6\pdl\drivers\peripheral\systick/cy_systick.c ****     Cy_SysTick_DisableInterrupt();
ARM GAS  C:\Users\cmila\AppData\Local\Temp\cc97sZC5.s 			page 3


  89:Generated_Source\PSoC6\pdl\drivers\peripheral\systick/cy_systick.c ****     SYSTICK_CTRL &= ~SysTick_CTRL_ENABLE_Msk;
  90:Generated_Source\PSoC6\pdl\drivers\peripheral\systick/cy_systick.c **** }
  91:Generated_Source\PSoC6\pdl\drivers\peripheral\systick/cy_systick.c **** 
  92:Generated_Source\PSoC6\pdl\drivers\peripheral\systick/cy_systick.c **** 
  93:Generated_Source\PSoC6\pdl\drivers\peripheral\systick/cy_systick.c **** /*******************************************************************************
  94:Generated_Source\PSoC6\pdl\drivers\peripheral\systick/cy_systick.c **** * Function Name: Cy_SysTick_SetClockSource
  95:Generated_Source\PSoC6\pdl\drivers\peripheral\systick/cy_systick.c **** ****************************************************************************//**
  96:Generated_Source\PSoC6\pdl\drivers\peripheral\systick/cy_systick.c **** *
  97:Generated_Source\PSoC6\pdl\drivers\peripheral\systick/cy_systick.c **** * Sets the clock source for the SysTick counter.
  98:Generated_Source\PSoC6\pdl\drivers\peripheral\systick/cy_systick.c **** *
  99:Generated_Source\PSoC6\pdl\drivers\peripheral\systick/cy_systick.c **** * Clears the SysTick count flag if it was set. If the clock source is not ready
 100:Generated_Source\PSoC6\pdl\drivers\peripheral\systick/cy_systick.c **** * this function call will have no effect. After changing the clock source to the
 101:Generated_Source\PSoC6\pdl\drivers\peripheral\systick/cy_systick.c **** * low frequency clock, the counter and reload register values will remain
 102:Generated_Source\PSoC6\pdl\drivers\peripheral\systick/cy_systick.c **** * unchanged so the time to the interrupt will be significantly longer and vice
 103:Generated_Source\PSoC6\pdl\drivers\peripheral\systick/cy_systick.c **** * versa.
 104:Generated_Source\PSoC6\pdl\drivers\peripheral\systick/cy_systick.c **** *
 105:Generated_Source\PSoC6\pdl\drivers\peripheral\systick/cy_systick.c **** * Changing the SysTick clock source and/or its frequency will change
 106:Generated_Source\PSoC6\pdl\drivers\peripheral\systick/cy_systick.c **** * the interrupt interval and Cy_SysTick_SetReload() should be
 107:Generated_Source\PSoC6\pdl\drivers\peripheral\systick/cy_systick.c **** * called to compensate this change.
 108:Generated_Source\PSoC6\pdl\drivers\peripheral\systick/cy_systick.c **** *
 109:Generated_Source\PSoC6\pdl\drivers\peripheral\systick/cy_systick.c **** * \param clockSource \ref cy_en_systick_clock_source_t Clock source.
 110:Generated_Source\PSoC6\pdl\drivers\peripheral\systick/cy_systick.c **** *
 111:Generated_Source\PSoC6\pdl\drivers\peripheral\systick/cy_systick.c **** *******************************************************************************/
 112:Generated_Source\PSoC6\pdl\drivers\peripheral\systick/cy_systick.c **** void Cy_SysTick_SetClockSource(cy_en_systick_clock_source_t clockSource)
 113:Generated_Source\PSoC6\pdl\drivers\peripheral\systick/cy_systick.c **** {
 114:Generated_Source\PSoC6\pdl\drivers\peripheral\systick/cy_systick.c ****     if (clockSource == CY_SYSTICK_CLOCK_SOURCE_CLK_CPU)
 115:Generated_Source\PSoC6\pdl\drivers\peripheral\systick/cy_systick.c ****     {
 116:Generated_Source\PSoC6\pdl\drivers\peripheral\systick/cy_systick.c ****         SYSTICK_CTRL |= SysTick_CTRL_CLKSOURCE_Msk;
 117:Generated_Source\PSoC6\pdl\drivers\peripheral\systick/cy_systick.c ****     }
 118:Generated_Source\PSoC6\pdl\drivers\peripheral\systick/cy_systick.c ****     else
 119:Generated_Source\PSoC6\pdl\drivers\peripheral\systick/cy_systick.c ****     {
 120:Generated_Source\PSoC6\pdl\drivers\peripheral\systick/cy_systick.c ****         CPUSS_SYSTICK_CTL = _VAL2FLD(CPUSS_SYSTICK_CTL_CLOCK_SOURCE, (uint32_t) clockSource);
 121:Generated_Source\PSoC6\pdl\drivers\peripheral\systick/cy_systick.c ****         SYSTICK_CTRL &= ~SysTick_CTRL_CLKSOURCE_Msk;
 122:Generated_Source\PSoC6\pdl\drivers\peripheral\systick/cy_systick.c ****     }
 123:Generated_Source\PSoC6\pdl\drivers\peripheral\systick/cy_systick.c **** }
 124:Generated_Source\PSoC6\pdl\drivers\peripheral\systick/cy_systick.c **** 
 125:Generated_Source\PSoC6\pdl\drivers\peripheral\systick/cy_systick.c **** 
 126:Generated_Source\PSoC6\pdl\drivers\peripheral\systick/cy_systick.c **** /*******************************************************************************
 127:Generated_Source\PSoC6\pdl\drivers\peripheral\systick/cy_systick.c **** * Function Name: Cy_SysTick_GetClockSource
 128:Generated_Source\PSoC6\pdl\drivers\peripheral\systick/cy_systick.c **** ****************************************************************************//**
 129:Generated_Source\PSoC6\pdl\drivers\peripheral\systick/cy_systick.c **** *
 130:Generated_Source\PSoC6\pdl\drivers\peripheral\systick/cy_systick.c **** * Gets the clock source for the SysTick counter.
 131:Generated_Source\PSoC6\pdl\drivers\peripheral\systick/cy_systick.c **** *
 132:Generated_Source\PSoC6\pdl\drivers\peripheral\systick/cy_systick.c **** * \returns \ref cy_en_systick_clock_source_t Clock source
 133:Generated_Source\PSoC6\pdl\drivers\peripheral\systick/cy_systick.c **** *
 134:Generated_Source\PSoC6\pdl\drivers\peripheral\systick/cy_systick.c **** *******************************************************************************/
 135:Generated_Source\PSoC6\pdl\drivers\peripheral\systick/cy_systick.c **** cy_en_systick_clock_source_t Cy_SysTick_GetClockSource(void)
 136:Generated_Source\PSoC6\pdl\drivers\peripheral\systick/cy_systick.c **** {
 137:Generated_Source\PSoC6\pdl\drivers\peripheral\systick/cy_systick.c ****     cy_en_systick_clock_source_t returnValue;
 138:Generated_Source\PSoC6\pdl\drivers\peripheral\systick/cy_systick.c **** 
 139:Generated_Source\PSoC6\pdl\drivers\peripheral\systick/cy_systick.c ****     if ((SYSTICK_CTRL & SysTick_CTRL_CLKSOURCE_Msk) != 0u)
 140:Generated_Source\PSoC6\pdl\drivers\peripheral\systick/cy_systick.c ****     {
 141:Generated_Source\PSoC6\pdl\drivers\peripheral\systick/cy_systick.c ****         returnValue = CY_SYSTICK_CLOCK_SOURCE_CLK_CPU;
 142:Generated_Source\PSoC6\pdl\drivers\peripheral\systick/cy_systick.c ****     }
 143:Generated_Source\PSoC6\pdl\drivers\peripheral\systick/cy_systick.c ****     else
 144:Generated_Source\PSoC6\pdl\drivers\peripheral\systick/cy_systick.c ****     {
 145:Generated_Source\PSoC6\pdl\drivers\peripheral\systick/cy_systick.c ****         returnValue =  (cy_en_systick_clock_source_t) ((uint32_t) _FLD2VAL(CPUSS_SYSTICK_CTL_CLOCK_
ARM GAS  C:\Users\cmila\AppData\Local\Temp\cc97sZC5.s 			page 4


 146:Generated_Source\PSoC6\pdl\drivers\peripheral\systick/cy_systick.c ****     }
 147:Generated_Source\PSoC6\pdl\drivers\peripheral\systick/cy_systick.c **** 
 148:Generated_Source\PSoC6\pdl\drivers\peripheral\systick/cy_systick.c ****     return(returnValue);
 149:Generated_Source\PSoC6\pdl\drivers\peripheral\systick/cy_systick.c **** }
 150:Generated_Source\PSoC6\pdl\drivers\peripheral\systick/cy_systick.c **** 
 151:Generated_Source\PSoC6\pdl\drivers\peripheral\systick/cy_systick.c **** 
 152:Generated_Source\PSoC6\pdl\drivers\peripheral\systick/cy_systick.c **** /*******************************************************************************
 153:Generated_Source\PSoC6\pdl\drivers\peripheral\systick/cy_systick.c **** * Function Name: Cy_SysTick_SetCallback
 154:Generated_Source\PSoC6\pdl\drivers\peripheral\systick/cy_systick.c **** ****************************************************************************//**
 155:Generated_Source\PSoC6\pdl\drivers\peripheral\systick/cy_systick.c **** *
 156:Generated_Source\PSoC6\pdl\drivers\peripheral\systick/cy_systick.c **** * Sets the callback function to the specified callback number.
 157:Generated_Source\PSoC6\pdl\drivers\peripheral\systick/cy_systick.c **** *
 158:Generated_Source\PSoC6\pdl\drivers\peripheral\systick/cy_systick.c **** * \param number The number of the callback function addresses to be set.
 159:Generated_Source\PSoC6\pdl\drivers\peripheral\systick/cy_systick.c **** * The valid range is from 0 to \ref CY_SYS_SYST_NUM_OF_CALLBACKS - 1.
 160:Generated_Source\PSoC6\pdl\drivers\peripheral\systick/cy_systick.c **** *
 161:Generated_Source\PSoC6\pdl\drivers\peripheral\systick/cy_systick.c **** * \param function The pointer to the function that will be associated with the
 162:Generated_Source\PSoC6\pdl\drivers\peripheral\systick/cy_systick.c **** * SysTick ISR for the specified number.
 163:Generated_Source\PSoC6\pdl\drivers\peripheral\systick/cy_systick.c **** *
 164:Generated_Source\PSoC6\pdl\drivers\peripheral\systick/cy_systick.c **** * \return Returns the address of the previous callback function.
 165:Generated_Source\PSoC6\pdl\drivers\peripheral\systick/cy_systick.c **** * The NULL is returned if the specified address in not set or incorrect
 166:Generated_Source\PSoC6\pdl\drivers\peripheral\systick/cy_systick.c **** * parameter is specified.
 167:Generated_Source\PSoC6\pdl\drivers\peripheral\systick/cy_systick.c **** 
 168:Generated_Source\PSoC6\pdl\drivers\peripheral\systick/cy_systick.c **** * \sideeffect
 169:Generated_Source\PSoC6\pdl\drivers\peripheral\systick/cy_systick.c **** * The registered callback functions will be executed in the interrupt.
 170:Generated_Source\PSoC6\pdl\drivers\peripheral\systick/cy_systick.c **** *
 171:Generated_Source\PSoC6\pdl\drivers\peripheral\systick/cy_systick.c **** *******************************************************************************/
 172:Generated_Source\PSoC6\pdl\drivers\peripheral\systick/cy_systick.c **** Cy_SysTick_Callback Cy_SysTick_SetCallback(uint32_t number, Cy_SysTick_Callback function)
 173:Generated_Source\PSoC6\pdl\drivers\peripheral\systick/cy_systick.c **** {
 174:Generated_Source\PSoC6\pdl\drivers\peripheral\systick/cy_systick.c ****     Cy_SysTick_Callback retVal;
 175:Generated_Source\PSoC6\pdl\drivers\peripheral\systick/cy_systick.c **** 
 176:Generated_Source\PSoC6\pdl\drivers\peripheral\systick/cy_systick.c ****     if (number < CY_SYS_SYST_NUM_OF_CALLBACKS)
 177:Generated_Source\PSoC6\pdl\drivers\peripheral\systick/cy_systick.c ****     {
 178:Generated_Source\PSoC6\pdl\drivers\peripheral\systick/cy_systick.c ****         retVal = Cy_SysTick_Callbacks[number];
 179:Generated_Source\PSoC6\pdl\drivers\peripheral\systick/cy_systick.c ****         Cy_SysTick_Callbacks[number] = function;
 180:Generated_Source\PSoC6\pdl\drivers\peripheral\systick/cy_systick.c ****     }
 181:Generated_Source\PSoC6\pdl\drivers\peripheral\systick/cy_systick.c ****     else
 182:Generated_Source\PSoC6\pdl\drivers\peripheral\systick/cy_systick.c ****     {
 183:Generated_Source\PSoC6\pdl\drivers\peripheral\systick/cy_systick.c ****         retVal = NULL;
 184:Generated_Source\PSoC6\pdl\drivers\peripheral\systick/cy_systick.c ****     }
 185:Generated_Source\PSoC6\pdl\drivers\peripheral\systick/cy_systick.c **** 
 186:Generated_Source\PSoC6\pdl\drivers\peripheral\systick/cy_systick.c ****     return (retVal);
 187:Generated_Source\PSoC6\pdl\drivers\peripheral\systick/cy_systick.c **** }
 188:Generated_Source\PSoC6\pdl\drivers\peripheral\systick/cy_systick.c **** 
 189:Generated_Source\PSoC6\pdl\drivers\peripheral\systick/cy_systick.c **** 
 190:Generated_Source\PSoC6\pdl\drivers\peripheral\systick/cy_systick.c **** /*******************************************************************************
 191:Generated_Source\PSoC6\pdl\drivers\peripheral\systick/cy_systick.c **** * Function Name: Cy_SysTick_GetCallback
 192:Generated_Source\PSoC6\pdl\drivers\peripheral\systick/cy_systick.c **** ****************************************************************************//**
 193:Generated_Source\PSoC6\pdl\drivers\peripheral\systick/cy_systick.c **** *
 194:Generated_Source\PSoC6\pdl\drivers\peripheral\systick/cy_systick.c **** * Gets the specified callback function address.
 195:Generated_Source\PSoC6\pdl\drivers\peripheral\systick/cy_systick.c **** *
 196:Generated_Source\PSoC6\pdl\drivers\peripheral\systick/cy_systick.c **** * \param number The number of the callback function address to get. The valid
 197:Generated_Source\PSoC6\pdl\drivers\peripheral\systick/cy_systick.c **** * range is from 0 to \ref CY_SYS_SYST_NUM_OF_CALLBACKS - 1.
 198:Generated_Source\PSoC6\pdl\drivers\peripheral\systick/cy_systick.c **** *
 199:Generated_Source\PSoC6\pdl\drivers\peripheral\systick/cy_systick.c **** * \return Returns the address of the specified callback function.
 200:Generated_Source\PSoC6\pdl\drivers\peripheral\systick/cy_systick.c **** * The NULL is returned if the specified address in not initialized or incorrect
 201:Generated_Source\PSoC6\pdl\drivers\peripheral\systick/cy_systick.c **** * parameter is specified.
 202:Generated_Source\PSoC6\pdl\drivers\peripheral\systick/cy_systick.c **** *
ARM GAS  C:\Users\cmila\AppData\Local\Temp\cc97sZC5.s 			page 5


 203:Generated_Source\PSoC6\pdl\drivers\peripheral\systick/cy_systick.c **** *******************************************************************************/
 204:Generated_Source\PSoC6\pdl\drivers\peripheral\systick/cy_systick.c **** Cy_SysTick_Callback Cy_SysTick_GetCallback(uint32_t number)
 205:Generated_Source\PSoC6\pdl\drivers\peripheral\systick/cy_systick.c **** {
 206:Generated_Source\PSoC6\pdl\drivers\peripheral\systick/cy_systick.c ****     Cy_SysTick_Callback retVal;
 207:Generated_Source\PSoC6\pdl\drivers\peripheral\systick/cy_systick.c **** 
 208:Generated_Source\PSoC6\pdl\drivers\peripheral\systick/cy_systick.c ****     if (number < CY_SYS_SYST_NUM_OF_CALLBACKS)
 209:Generated_Source\PSoC6\pdl\drivers\peripheral\systick/cy_systick.c ****     {
 210:Generated_Source\PSoC6\pdl\drivers\peripheral\systick/cy_systick.c ****         retVal = Cy_SysTick_Callbacks[number];
 211:Generated_Source\PSoC6\pdl\drivers\peripheral\systick/cy_systick.c ****     }
 212:Generated_Source\PSoC6\pdl\drivers\peripheral\systick/cy_systick.c ****     else
 213:Generated_Source\PSoC6\pdl\drivers\peripheral\systick/cy_systick.c ****     {
 214:Generated_Source\PSoC6\pdl\drivers\peripheral\systick/cy_systick.c ****         retVal = NULL;
 215:Generated_Source\PSoC6\pdl\drivers\peripheral\systick/cy_systick.c ****     }
 216:Generated_Source\PSoC6\pdl\drivers\peripheral\systick/cy_systick.c **** 
 217:Generated_Source\PSoC6\pdl\drivers\peripheral\systick/cy_systick.c ****     return (retVal);
 218:Generated_Source\PSoC6\pdl\drivers\peripheral\systick/cy_systick.c **** }
 219:Generated_Source\PSoC6\pdl\drivers\peripheral\systick/cy_systick.c **** 
 220:Generated_Source\PSoC6\pdl\drivers\peripheral\systick/cy_systick.c **** 
 221:Generated_Source\PSoC6\pdl\drivers\peripheral\systick/cy_systick.c **** /*******************************************************************************
 222:Generated_Source\PSoC6\pdl\drivers\peripheral\systick/cy_systick.c **** * Function Name: Cy_SysTick_ServiceCallbacks
 223:Generated_Source\PSoC6\pdl\drivers\peripheral\systick/cy_systick.c **** ****************************************************************************//**
 224:Generated_Source\PSoC6\pdl\drivers\peripheral\systick/cy_systick.c **** *
 225:Generated_Source\PSoC6\pdl\drivers\peripheral\systick/cy_systick.c **** * The system Tick timer interrupt routine.
 226:Generated_Source\PSoC6\pdl\drivers\peripheral\systick/cy_systick.c **** *
 227:Generated_Source\PSoC6\pdl\drivers\peripheral\systick/cy_systick.c **** *******************************************************************************/
 228:Generated_Source\PSoC6\pdl\drivers\peripheral\systick/cy_systick.c **** static void Cy_SysTick_ServiceCallbacks(void)
 229:Generated_Source\PSoC6\pdl\drivers\peripheral\systick/cy_systick.c **** {
  27              		.loc 1 229 0
  28              		.cfi_startproc
  29              		@ args = 0, pretend = 0, frame = 0
  30              		@ frame_needed = 0, uses_anonymous_args = 0
  31              	.LBB16:
  32              	.LBB17:
  33              		.file 2 "Generated_Source\\PSoC6\\pdl\\drivers\\peripheral\\systick\\cy_systick.h"
   1:Generated_Source\PSoC6\pdl\drivers\peripheral\systick/cy_systick.h **** /***************************************************************************//**
   2:Generated_Source\PSoC6\pdl\drivers\peripheral\systick/cy_systick.h **** * \file cy_systick.h
   3:Generated_Source\PSoC6\pdl\drivers\peripheral\systick/cy_systick.h **** * \version 1.10
   4:Generated_Source\PSoC6\pdl\drivers\peripheral\systick/cy_systick.h **** *
   5:Generated_Source\PSoC6\pdl\drivers\peripheral\systick/cy_systick.h **** * Provides the API declarations of the SysTick driver.
   6:Generated_Source\PSoC6\pdl\drivers\peripheral\systick/cy_systick.h **** *
   7:Generated_Source\PSoC6\pdl\drivers\peripheral\systick/cy_systick.h **** ********************************************************************************
   8:Generated_Source\PSoC6\pdl\drivers\peripheral\systick/cy_systick.h **** * \copyright
   9:Generated_Source\PSoC6\pdl\drivers\peripheral\systick/cy_systick.h **** * Copyright 2016-2018, Cypress Semiconductor Corporation.  All rights reserved.
  10:Generated_Source\PSoC6\pdl\drivers\peripheral\systick/cy_systick.h **** * You may use this file only in accordance with the license, terms, conditions,
  11:Generated_Source\PSoC6\pdl\drivers\peripheral\systick/cy_systick.h **** * disclaimers, and limitations in the end user license agreement accompanying
  12:Generated_Source\PSoC6\pdl\drivers\peripheral\systick/cy_systick.h **** * the software package with which this file was provided.
  13:Generated_Source\PSoC6\pdl\drivers\peripheral\systick/cy_systick.h **** *******************************************************************************/
  14:Generated_Source\PSoC6\pdl\drivers\peripheral\systick/cy_systick.h **** 
  15:Generated_Source\PSoC6\pdl\drivers\peripheral\systick/cy_systick.h **** #ifndef CY_SYSTICK_H
  16:Generated_Source\PSoC6\pdl\drivers\peripheral\systick/cy_systick.h **** #define CY_SYSTICK_H
  17:Generated_Source\PSoC6\pdl\drivers\peripheral\systick/cy_systick.h **** 
  18:Generated_Source\PSoC6\pdl\drivers\peripheral\systick/cy_systick.h **** /**
  19:Generated_Source\PSoC6\pdl\drivers\peripheral\systick/cy_systick.h **** * \addtogroup group_arm_system_timer
  20:Generated_Source\PSoC6\pdl\drivers\peripheral\systick/cy_systick.h **** * \{
  21:Generated_Source\PSoC6\pdl\drivers\peripheral\systick/cy_systick.h **** * Provides vendor-specific SysTick API.
  22:Generated_Source\PSoC6\pdl\drivers\peripheral\systick/cy_systick.h **** *
  23:Generated_Source\PSoC6\pdl\drivers\peripheral\systick/cy_systick.h **** * The functions and other declarations used in this driver are in cy_systick.h. 
ARM GAS  C:\Users\cmila\AppData\Local\Temp\cc97sZC5.s 			page 6


  24:Generated_Source\PSoC6\pdl\drivers\peripheral\systick/cy_systick.h **** * You can include cy_pdl.h (ModusToolbox only) to get access to all functions and declarations in t
  25:Generated_Source\PSoC6\pdl\drivers\peripheral\systick/cy_systick.h **** *
  26:Generated_Source\PSoC6\pdl\drivers\peripheral\systick/cy_systick.h **** * The SysTick timer is part of the CPU. The timer is a down counter with a 24-bit reload/tick value
  27:Generated_Source\PSoC6\pdl\drivers\peripheral\systick/cy_systick.h **** * the FastClk/SlowClk. The timer has the capability to generate an interrupt when the set number of
  28:Generated_Source\PSoC6\pdl\drivers\peripheral\systick/cy_systick.h **** * the counter is reloaded. This interrupt is available as part of the Nested Vectored Interrupt Con
  29:Generated_Source\PSoC6\pdl\drivers\peripheral\systick/cy_systick.h **** * service by the CPU and can be used for general-purpose timing control in user code.
  30:Generated_Source\PSoC6\pdl\drivers\peripheral\systick/cy_systick.h **** *
  31:Generated_Source\PSoC6\pdl\drivers\peripheral\systick/cy_systick.h **** * The timer is independent of the CPU (except for the clock), which is useful in applications requi
  32:Generated_Source\PSoC6\pdl\drivers\peripheral\systick/cy_systick.h **** * precise timing that do not have a dedicated timer/counter available for the job.
  33:Generated_Source\PSoC6\pdl\drivers\peripheral\systick/cy_systick.h **** *
  34:Generated_Source\PSoC6\pdl\drivers\peripheral\systick/cy_systick.h **** * \section group_systick_configuration Configuration Considerations
  35:Generated_Source\PSoC6\pdl\drivers\peripheral\systick/cy_systick.h **** *
  36:Generated_Source\PSoC6\pdl\drivers\peripheral\systick/cy_systick.h **** * The \ref Cy_SysTick_Init() performs all required driver's initialization and enables the timer. T
  37:Generated_Source\PSoC6\pdl\drivers\peripheral\systick/cy_systick.h **** * two parameters: clock source \ref cy_en_systick_clock_source_t and the timer interval. You must e
  38:Generated_Source\PSoC6\pdl\drivers\peripheral\systick/cy_systick.h **** * the selected clock source for SysTick is enabled.
  39:Generated_Source\PSoC6\pdl\drivers\peripheral\systick/cy_systick.h **** * The callbacks can be registered/unregistered any time after \ref Cy_SysTick_Init() by calling
  40:Generated_Source\PSoC6\pdl\drivers\peripheral\systick/cy_systick.h **** * \ref Cy_SysTick_SetCallback().
  41:Generated_Source\PSoC6\pdl\drivers\peripheral\systick/cy_systick.h **** *
  42:Generated_Source\PSoC6\pdl\drivers\peripheral\systick/cy_systick.h **** * Changing the SysTick clock source and/or its frequency will change the interrupt interval and the
  43:Generated_Source\PSoC6\pdl\drivers\peripheral\systick/cy_systick.h **** * \ref Cy_SysTick_SetReload() should be called to compensate for this change.
  44:Generated_Source\PSoC6\pdl\drivers\peripheral\systick/cy_systick.h **** *
  45:Generated_Source\PSoC6\pdl\drivers\peripheral\systick/cy_systick.h **** * \section group_systick_more_information More Information
  46:Generated_Source\PSoC6\pdl\drivers\peripheral\systick/cy_systick.h **** *
  47:Generated_Source\PSoC6\pdl\drivers\peripheral\systick/cy_systick.h **** * Refer to the SysTick section of the ARM reference guide for complete details on the registers and
  48:Generated_Source\PSoC6\pdl\drivers\peripheral\systick/cy_systick.h **** * See also the "CPU Subsystem (CPUSS)" chapter of the device technical reference manual (TRM).
  49:Generated_Source\PSoC6\pdl\drivers\peripheral\systick/cy_systick.h **** *
  50:Generated_Source\PSoC6\pdl\drivers\peripheral\systick/cy_systick.h **** * \section group_systick_MISRA MISRA-C Compliance
  51:Generated_Source\PSoC6\pdl\drivers\peripheral\systick/cy_systick.h **** *
  52:Generated_Source\PSoC6\pdl\drivers\peripheral\systick/cy_systick.h **** * <table class="doxtable">
  53:Generated_Source\PSoC6\pdl\drivers\peripheral\systick/cy_systick.h **** *   <tr>
  54:Generated_Source\PSoC6\pdl\drivers\peripheral\systick/cy_systick.h **** *       <th>MISRA Rule</th>
  55:Generated_Source\PSoC6\pdl\drivers\peripheral\systick/cy_systick.h **** *       <th>Rule Class (Required/Advisory)</th>
  56:Generated_Source\PSoC6\pdl\drivers\peripheral\systick/cy_systick.h **** *       <th>Rule Description</th>
  57:Generated_Source\PSoC6\pdl\drivers\peripheral\systick/cy_systick.h **** *       <th>Description of Deviation(s)</th>
  58:Generated_Source\PSoC6\pdl\drivers\peripheral\systick/cy_systick.h **** *   </tr>
  59:Generated_Source\PSoC6\pdl\drivers\peripheral\systick/cy_systick.h **** *   <tr>
  60:Generated_Source\PSoC6\pdl\drivers\peripheral\systick/cy_systick.h **** *       <td>8.12</td>
  61:Generated_Source\PSoC6\pdl\drivers\peripheral\systick/cy_systick.h **** *       <td>Required</td>
  62:Generated_Source\PSoC6\pdl\drivers\peripheral\systick/cy_systick.h **** *       <td>When an array is declared with external linkage, its size shall be
  63:Generated_Source\PSoC6\pdl\drivers\peripheral\systick/cy_systick.h **** *           stated explicitly or defined implicitly by initialization.</td>
  64:Generated_Source\PSoC6\pdl\drivers\peripheral\systick/cy_systick.h **** *       <td>The warning is related to the __ramVectors symbol defined in the assembly startup code.
  65:Generated_Source\PSoC6\pdl\drivers\peripheral\systick/cy_systick.h **** *           It's size is device-specific and unknown to the SysTick driver.</td>
  66:Generated_Source\PSoC6\pdl\drivers\peripheral\systick/cy_systick.h **** *   </tr>
  67:Generated_Source\PSoC6\pdl\drivers\peripheral\systick/cy_systick.h **** * </table>
  68:Generated_Source\PSoC6\pdl\drivers\peripheral\systick/cy_systick.h **** *
  69:Generated_Source\PSoC6\pdl\drivers\peripheral\systick/cy_systick.h **** * \section group_systick_changelog Changelog
  70:Generated_Source\PSoC6\pdl\drivers\peripheral\systick/cy_systick.h **** *
  71:Generated_Source\PSoC6\pdl\drivers\peripheral\systick/cy_systick.h **** * <table class="doxtable">
  72:Generated_Source\PSoC6\pdl\drivers\peripheral\systick/cy_systick.h **** * <tr><th>Version</th><th>Changes</th><th>Reason for Change</th></tr>
  73:Generated_Source\PSoC6\pdl\drivers\peripheral\systick/cy_systick.h **** * <tr>
  74:Generated_Source\PSoC6\pdl\drivers\peripheral\systick/cy_systick.h **** *   <td rowspan="2">1.10</td>
  75:Generated_Source\PSoC6\pdl\drivers\peripheral\systick/cy_systick.h **** *     <td>Flattened the organization of the driver source code into the single 
  76:Generated_Source\PSoC6\pdl\drivers\peripheral\systick/cy_systick.h **** *         source directory and the single include directory.
  77:Generated_Source\PSoC6\pdl\drivers\peripheral\systick/cy_systick.h **** *     </td>
  78:Generated_Source\PSoC6\pdl\drivers\peripheral\systick/cy_systick.h **** *     <td>Driver library directory-structure simplification.</td>
  79:Generated_Source\PSoC6\pdl\drivers\peripheral\systick/cy_systick.h **** * </tr>
  80:Generated_Source\PSoC6\pdl\drivers\peripheral\systick/cy_systick.h **** *   <tr>
ARM GAS  C:\Users\cmila\AppData\Local\Temp\cc97sZC5.s 			page 7


  81:Generated_Source\PSoC6\pdl\drivers\peripheral\systick/cy_systick.h **** *     <td>Added register access layer. Use register access macros instead
  82:Generated_Source\PSoC6\pdl\drivers\peripheral\systick/cy_systick.h **** *         of direct register access using dereferenced pointers.</td>
  83:Generated_Source\PSoC6\pdl\drivers\peripheral\systick/cy_systick.h **** *     <td>Makes register access device-independent, so that the PDL does 
  84:Generated_Source\PSoC6\pdl\drivers\peripheral\systick/cy_systick.h **** *         not need to be recompiled for each supported part number.</td>
  85:Generated_Source\PSoC6\pdl\drivers\peripheral\systick/cy_systick.h **** *   </tr>
  86:Generated_Source\PSoC6\pdl\drivers\peripheral\systick/cy_systick.h **** * <tr>
  87:Generated_Source\PSoC6\pdl\drivers\peripheral\systick/cy_systick.h **** * <td>1.0.1</td>
  88:Generated_Source\PSoC6\pdl\drivers\peripheral\systick/cy_systick.h **** * <td>Fixed a warning issued when the compilation of C++ source code was
  89:Generated_Source\PSoC6\pdl\drivers\peripheral\systick/cy_systick.h **** *     enabled.</td> 
  90:Generated_Source\PSoC6\pdl\drivers\peripheral\systick/cy_systick.h **** * <td></td>
  91:Generated_Source\PSoC6\pdl\drivers\peripheral\systick/cy_systick.h **** * </tr>
  92:Generated_Source\PSoC6\pdl\drivers\peripheral\systick/cy_systick.h **** * <tr>
  93:Generated_Source\PSoC6\pdl\drivers\peripheral\systick/cy_systick.h **** * <td>1.0</td>
  94:Generated_Source\PSoC6\pdl\drivers\peripheral\systick/cy_systick.h **** * <td>Initial version</td>
  95:Generated_Source\PSoC6\pdl\drivers\peripheral\systick/cy_systick.h **** * <td></td>
  96:Generated_Source\PSoC6\pdl\drivers\peripheral\systick/cy_systick.h **** * </tr>
  97:Generated_Source\PSoC6\pdl\drivers\peripheral\systick/cy_systick.h **** * </table>
  98:Generated_Source\PSoC6\pdl\drivers\peripheral\systick/cy_systick.h **** *
  99:Generated_Source\PSoC6\pdl\drivers\peripheral\systick/cy_systick.h **** * \defgroup group_systick_macros Macros
 100:Generated_Source\PSoC6\pdl\drivers\peripheral\systick/cy_systick.h **** * \defgroup group_systick_functions Functions
 101:Generated_Source\PSoC6\pdl\drivers\peripheral\systick/cy_systick.h **** * \defgroup group_systick_data_structures Data Structures
 102:Generated_Source\PSoC6\pdl\drivers\peripheral\systick/cy_systick.h **** */
 103:Generated_Source\PSoC6\pdl\drivers\peripheral\systick/cy_systick.h **** 
 104:Generated_Source\PSoC6\pdl\drivers\peripheral\systick/cy_systick.h **** #include <stdint.h>
 105:Generated_Source\PSoC6\pdl\drivers\peripheral\systick/cy_systick.h **** #include "cy_syslib.h"
 106:Generated_Source\PSoC6\pdl\drivers\peripheral\systick/cy_systick.h **** #include "cy_device.h"
 107:Generated_Source\PSoC6\pdl\drivers\peripheral\systick/cy_systick.h **** 
 108:Generated_Source\PSoC6\pdl\drivers\peripheral\systick/cy_systick.h **** #ifdef __cplusplus
 109:Generated_Source\PSoC6\pdl\drivers\peripheral\systick/cy_systick.h **** extern "C" {
 110:Generated_Source\PSoC6\pdl\drivers\peripheral\systick/cy_systick.h **** #endif
 111:Generated_Source\PSoC6\pdl\drivers\peripheral\systick/cy_systick.h **** 
 112:Generated_Source\PSoC6\pdl\drivers\peripheral\systick/cy_systick.h **** /** \cond */
 113:Generated_Source\PSoC6\pdl\drivers\peripheral\systick/cy_systick.h **** extern cy_israddress __ramVectors[];
 114:Generated_Source\PSoC6\pdl\drivers\peripheral\systick/cy_systick.h **** typedef void (*Cy_SysTick_Callback)(void);
 115:Generated_Source\PSoC6\pdl\drivers\peripheral\systick/cy_systick.h **** /** \endcond */
 116:Generated_Source\PSoC6\pdl\drivers\peripheral\systick/cy_systick.h **** 
 117:Generated_Source\PSoC6\pdl\drivers\peripheral\systick/cy_systick.h **** /**
 118:Generated_Source\PSoC6\pdl\drivers\peripheral\systick/cy_systick.h **** * \addtogroup group_systick_data_structures
 119:Generated_Source\PSoC6\pdl\drivers\peripheral\systick/cy_systick.h **** * \{
 120:Generated_Source\PSoC6\pdl\drivers\peripheral\systick/cy_systick.h **** */
 121:Generated_Source\PSoC6\pdl\drivers\peripheral\systick/cy_systick.h **** /** SysTick clocks sources */
 122:Generated_Source\PSoC6\pdl\drivers\peripheral\systick/cy_systick.h **** typedef enum
 123:Generated_Source\PSoC6\pdl\drivers\peripheral\systick/cy_systick.h **** {
 124:Generated_Source\PSoC6\pdl\drivers\peripheral\systick/cy_systick.h ****     CY_SYSTICK_CLOCK_SOURCE_CLK_LF    = 0u,     /**< The low frequency clock clk_lf is selected. */
 125:Generated_Source\PSoC6\pdl\drivers\peripheral\systick/cy_systick.h ****     CY_SYSTICK_CLOCK_SOURCE_CLK_IMO   = 1u,     /**< The internal main oscillator (IMO) clock clk_i
 126:Generated_Source\PSoC6\pdl\drivers\peripheral\systick/cy_systick.h ****     CY_SYSTICK_CLOCK_SOURCE_CLK_ECO   = 2u,     /**< The external crystal oscillator (ECO) clock cl
 127:Generated_Source\PSoC6\pdl\drivers\peripheral\systick/cy_systick.h ****     CY_SYSTICK_CLOCK_SOURCE_CLK_TIMER = 3u,     /**< The SRSS clk_timer is selected. */
 128:Generated_Source\PSoC6\pdl\drivers\peripheral\systick/cy_systick.h ****     CY_SYSTICK_CLOCK_SOURCE_CLK_CPU   = 4u,     /**< The CPU clock is selected. */
 129:Generated_Source\PSoC6\pdl\drivers\peripheral\systick/cy_systick.h **** } cy_en_systick_clock_source_t;
 130:Generated_Source\PSoC6\pdl\drivers\peripheral\systick/cy_systick.h **** 
 131:Generated_Source\PSoC6\pdl\drivers\peripheral\systick/cy_systick.h **** /** \} group_systick_data_structures */
 132:Generated_Source\PSoC6\pdl\drivers\peripheral\systick/cy_systick.h **** 
 133:Generated_Source\PSoC6\pdl\drivers\peripheral\systick/cy_systick.h **** 
 134:Generated_Source\PSoC6\pdl\drivers\peripheral\systick/cy_systick.h **** /**
 135:Generated_Source\PSoC6\pdl\drivers\peripheral\systick/cy_systick.h **** * \addtogroup group_systick_functions
 136:Generated_Source\PSoC6\pdl\drivers\peripheral\systick/cy_systick.h **** * \{
 137:Generated_Source\PSoC6\pdl\drivers\peripheral\systick/cy_systick.h **** */
ARM GAS  C:\Users\cmila\AppData\Local\Temp\cc97sZC5.s 			page 8


 138:Generated_Source\PSoC6\pdl\drivers\peripheral\systick/cy_systick.h **** 
 139:Generated_Source\PSoC6\pdl\drivers\peripheral\systick/cy_systick.h **** void Cy_SysTick_Init(cy_en_systick_clock_source_t clockSource, uint32_t interval);
 140:Generated_Source\PSoC6\pdl\drivers\peripheral\systick/cy_systick.h **** void Cy_SysTick_Enable(void);
 141:Generated_Source\PSoC6\pdl\drivers\peripheral\systick/cy_systick.h **** void Cy_SysTick_Disable(void);
 142:Generated_Source\PSoC6\pdl\drivers\peripheral\systick/cy_systick.h **** Cy_SysTick_Callback Cy_SysTick_SetCallback(uint32_t number, Cy_SysTick_Callback function);
 143:Generated_Source\PSoC6\pdl\drivers\peripheral\systick/cy_systick.h **** Cy_SysTick_Callback Cy_SysTick_GetCallback(uint32_t number);
 144:Generated_Source\PSoC6\pdl\drivers\peripheral\systick/cy_systick.h **** void Cy_SysTick_SetClockSource(cy_en_systick_clock_source_t clockSource);
 145:Generated_Source\PSoC6\pdl\drivers\peripheral\systick/cy_systick.h **** cy_en_systick_clock_source_t Cy_SysTick_GetClockSource(void);
 146:Generated_Source\PSoC6\pdl\drivers\peripheral\systick/cy_systick.h **** __STATIC_INLINE void Cy_SysTick_EnableInterrupt(void);
 147:Generated_Source\PSoC6\pdl\drivers\peripheral\systick/cy_systick.h **** __STATIC_INLINE void Cy_SysTick_DisableInterrupt(void);
 148:Generated_Source\PSoC6\pdl\drivers\peripheral\systick/cy_systick.h **** __STATIC_INLINE void Cy_SysTick_SetReload(uint32_t value);
 149:Generated_Source\PSoC6\pdl\drivers\peripheral\systick/cy_systick.h **** __STATIC_INLINE uint32_t Cy_SysTick_GetReload(void);
 150:Generated_Source\PSoC6\pdl\drivers\peripheral\systick/cy_systick.h **** __STATIC_INLINE uint32_t Cy_SysTick_GetValue(void);
 151:Generated_Source\PSoC6\pdl\drivers\peripheral\systick/cy_systick.h **** __STATIC_INLINE uint32_t Cy_SysTick_GetCountFlag(void);
 152:Generated_Source\PSoC6\pdl\drivers\peripheral\systick/cy_systick.h **** __STATIC_INLINE void Cy_SysTick_Clear(void);
 153:Generated_Source\PSoC6\pdl\drivers\peripheral\systick/cy_systick.h **** 
 154:Generated_Source\PSoC6\pdl\drivers\peripheral\systick/cy_systick.h **** /** \} group_systick_functions */
 155:Generated_Source\PSoC6\pdl\drivers\peripheral\systick/cy_systick.h **** 
 156:Generated_Source\PSoC6\pdl\drivers\peripheral\systick/cy_systick.h **** 
 157:Generated_Source\PSoC6\pdl\drivers\peripheral\systick/cy_systick.h **** /**
 158:Generated_Source\PSoC6\pdl\drivers\peripheral\systick/cy_systick.h **** * \addtogroup group_systick_macros
 159:Generated_Source\PSoC6\pdl\drivers\peripheral\systick/cy_systick.h **** * \{
 160:Generated_Source\PSoC6\pdl\drivers\peripheral\systick/cy_systick.h **** */
 161:Generated_Source\PSoC6\pdl\drivers\peripheral\systick/cy_systick.h **** 
 162:Generated_Source\PSoC6\pdl\drivers\peripheral\systick/cy_systick.h **** /** Driver major version */
 163:Generated_Source\PSoC6\pdl\drivers\peripheral\systick/cy_systick.h **** #define SYSTICK_DRV_VERSION_MAJOR       1
 164:Generated_Source\PSoC6\pdl\drivers\peripheral\systick/cy_systick.h **** 
 165:Generated_Source\PSoC6\pdl\drivers\peripheral\systick/cy_systick.h **** /** Driver minor version */
 166:Generated_Source\PSoC6\pdl\drivers\peripheral\systick/cy_systick.h **** #define SYSTICK_DRV_VERSION_MINOR       10
 167:Generated_Source\PSoC6\pdl\drivers\peripheral\systick/cy_systick.h **** 
 168:Generated_Source\PSoC6\pdl\drivers\peripheral\systick/cy_systick.h **** /** Number of the callbacks assigned to the SysTick interrupt */
 169:Generated_Source\PSoC6\pdl\drivers\peripheral\systick/cy_systick.h **** #define CY_SYS_SYST_NUM_OF_CALLBACKS         (5u)
 170:Generated_Source\PSoC6\pdl\drivers\peripheral\systick/cy_systick.h **** 
 171:Generated_Source\PSoC6\pdl\drivers\peripheral\systick/cy_systick.h **** /** \} group_systick_macros */
 172:Generated_Source\PSoC6\pdl\drivers\peripheral\systick/cy_systick.h **** 
 173:Generated_Source\PSoC6\pdl\drivers\peripheral\systick/cy_systick.h **** 
 174:Generated_Source\PSoC6\pdl\drivers\peripheral\systick/cy_systick.h **** /** \cond */
 175:Generated_Source\PSoC6\pdl\drivers\peripheral\systick/cy_systick.h **** /** Interrupt number in the vector table */
 176:Generated_Source\PSoC6\pdl\drivers\peripheral\systick/cy_systick.h **** #define CY_SYSTICK_IRQ_NUM                   (15u)
 177:Generated_Source\PSoC6\pdl\drivers\peripheral\systick/cy_systick.h **** /** \endcond */
 178:Generated_Source\PSoC6\pdl\drivers\peripheral\systick/cy_systick.h **** 
 179:Generated_Source\PSoC6\pdl\drivers\peripheral\systick/cy_systick.h **** /**
 180:Generated_Source\PSoC6\pdl\drivers\peripheral\systick/cy_systick.h **** * \addtogroup group_systick_functions
 181:Generated_Source\PSoC6\pdl\drivers\peripheral\systick/cy_systick.h **** * \{
 182:Generated_Source\PSoC6\pdl\drivers\peripheral\systick/cy_systick.h **** */
 183:Generated_Source\PSoC6\pdl\drivers\peripheral\systick/cy_systick.h **** 
 184:Generated_Source\PSoC6\pdl\drivers\peripheral\systick/cy_systick.h **** /*******************************************************************************
 185:Generated_Source\PSoC6\pdl\drivers\peripheral\systick/cy_systick.h **** * Function Name: Cy_SysTick_EnableInterrupt
 186:Generated_Source\PSoC6\pdl\drivers\peripheral\systick/cy_systick.h **** ****************************************************************************//**
 187:Generated_Source\PSoC6\pdl\drivers\peripheral\systick/cy_systick.h **** *
 188:Generated_Source\PSoC6\pdl\drivers\peripheral\systick/cy_systick.h **** * Enables the SysTick interrupt.
 189:Generated_Source\PSoC6\pdl\drivers\peripheral\systick/cy_systick.h **** *
 190:Generated_Source\PSoC6\pdl\drivers\peripheral\systick/cy_systick.h **** * \sideeffect Clears the SysTick count flag if it was set
 191:Generated_Source\PSoC6\pdl\drivers\peripheral\systick/cy_systick.h **** *
 192:Generated_Source\PSoC6\pdl\drivers\peripheral\systick/cy_systick.h **** *******************************************************************************/
 193:Generated_Source\PSoC6\pdl\drivers\peripheral\systick/cy_systick.h **** __STATIC_INLINE void Cy_SysTick_EnableInterrupt(void)
 194:Generated_Source\PSoC6\pdl\drivers\peripheral\systick/cy_systick.h **** {
ARM GAS  C:\Users\cmila\AppData\Local\Temp\cc97sZC5.s 			page 9


 195:Generated_Source\PSoC6\pdl\drivers\peripheral\systick/cy_systick.h ****     SYSTICK_CTRL = SYSTICK_CTRL | SysTick_CTRL_TICKINT_Msk;
 196:Generated_Source\PSoC6\pdl\drivers\peripheral\systick/cy_systick.h **** }
 197:Generated_Source\PSoC6\pdl\drivers\peripheral\systick/cy_systick.h **** 
 198:Generated_Source\PSoC6\pdl\drivers\peripheral\systick/cy_systick.h **** 
 199:Generated_Source\PSoC6\pdl\drivers\peripheral\systick/cy_systick.h **** /*******************************************************************************
 200:Generated_Source\PSoC6\pdl\drivers\peripheral\systick/cy_systick.h **** * Function Name: Cy_SysTick_DisableInterrupt
 201:Generated_Source\PSoC6\pdl\drivers\peripheral\systick/cy_systick.h **** ****************************************************************************//**
 202:Generated_Source\PSoC6\pdl\drivers\peripheral\systick/cy_systick.h **** *
 203:Generated_Source\PSoC6\pdl\drivers\peripheral\systick/cy_systick.h **** * Disables the SysTick interrupt.
 204:Generated_Source\PSoC6\pdl\drivers\peripheral\systick/cy_systick.h **** *
 205:Generated_Source\PSoC6\pdl\drivers\peripheral\systick/cy_systick.h **** * \sideeffect Clears the SysTick count flag if it was set
 206:Generated_Source\PSoC6\pdl\drivers\peripheral\systick/cy_systick.h **** *
 207:Generated_Source\PSoC6\pdl\drivers\peripheral\systick/cy_systick.h **** *******************************************************************************/
 208:Generated_Source\PSoC6\pdl\drivers\peripheral\systick/cy_systick.h **** __STATIC_INLINE void Cy_SysTick_DisableInterrupt(void)
 209:Generated_Source\PSoC6\pdl\drivers\peripheral\systick/cy_systick.h **** {
 210:Generated_Source\PSoC6\pdl\drivers\peripheral\systick/cy_systick.h ****     SYSTICK_CTRL = SYSTICK_CTRL & ~SysTick_CTRL_TICKINT_Msk;
 211:Generated_Source\PSoC6\pdl\drivers\peripheral\systick/cy_systick.h **** }
 212:Generated_Source\PSoC6\pdl\drivers\peripheral\systick/cy_systick.h **** 
 213:Generated_Source\PSoC6\pdl\drivers\peripheral\systick/cy_systick.h **** 
 214:Generated_Source\PSoC6\pdl\drivers\peripheral\systick/cy_systick.h **** /*******************************************************************************
 215:Generated_Source\PSoC6\pdl\drivers\peripheral\systick/cy_systick.h **** * Function Name: Cy_SysTick_SetReload
 216:Generated_Source\PSoC6\pdl\drivers\peripheral\systick/cy_systick.h **** ****************************************************************************//**
 217:Generated_Source\PSoC6\pdl\drivers\peripheral\systick/cy_systick.h **** *
 218:Generated_Source\PSoC6\pdl\drivers\peripheral\systick/cy_systick.h **** * Sets the value the counter is set to on a startup and after it reaches zero.
 219:Generated_Source\PSoC6\pdl\drivers\peripheral\systick/cy_systick.h **** * This function does not change or reset the current sysTick counter value, so
 220:Generated_Source\PSoC6\pdl\drivers\peripheral\systick/cy_systick.h **** * it should be cleared using the Cy_SysTick_Clear() API.
 221:Generated_Source\PSoC6\pdl\drivers\peripheral\systick/cy_systick.h **** *
 222:Generated_Source\PSoC6\pdl\drivers\peripheral\systick/cy_systick.h **** * \param value: The valid range is [0x0-0x00FFFFFF]. The counter reset value.
 223:Generated_Source\PSoC6\pdl\drivers\peripheral\systick/cy_systick.h **** *
 224:Generated_Source\PSoC6\pdl\drivers\peripheral\systick/cy_systick.h **** *******************************************************************************/
 225:Generated_Source\PSoC6\pdl\drivers\peripheral\systick/cy_systick.h **** __STATIC_INLINE void Cy_SysTick_SetReload(uint32_t value)
 226:Generated_Source\PSoC6\pdl\drivers\peripheral\systick/cy_systick.h **** {
 227:Generated_Source\PSoC6\pdl\drivers\peripheral\systick/cy_systick.h ****     SYSTICK_LOAD = (value & SysTick_LOAD_RELOAD_Msk);
 228:Generated_Source\PSoC6\pdl\drivers\peripheral\systick/cy_systick.h **** }
 229:Generated_Source\PSoC6\pdl\drivers\peripheral\systick/cy_systick.h **** 
 230:Generated_Source\PSoC6\pdl\drivers\peripheral\systick/cy_systick.h **** 
 231:Generated_Source\PSoC6\pdl\drivers\peripheral\systick/cy_systick.h **** /*******************************************************************************
 232:Generated_Source\PSoC6\pdl\drivers\peripheral\systick/cy_systick.h **** * Function Name: Cy_SysTick_GetReload
 233:Generated_Source\PSoC6\pdl\drivers\peripheral\systick/cy_systick.h **** ****************************************************************************//**
 234:Generated_Source\PSoC6\pdl\drivers\peripheral\systick/cy_systick.h **** *
 235:Generated_Source\PSoC6\pdl\drivers\peripheral\systick/cy_systick.h **** * Gets the value the counter is set to on a startup and after it reaches zero.
 236:Generated_Source\PSoC6\pdl\drivers\peripheral\systick/cy_systick.h **** *
 237:Generated_Source\PSoC6\pdl\drivers\peripheral\systick/cy_systick.h **** * \return The counter reset value.
 238:Generated_Source\PSoC6\pdl\drivers\peripheral\systick/cy_systick.h **** *
 239:Generated_Source\PSoC6\pdl\drivers\peripheral\systick/cy_systick.h **** *******************************************************************************/
 240:Generated_Source\PSoC6\pdl\drivers\peripheral\systick/cy_systick.h **** __STATIC_INLINE uint32_t Cy_SysTick_GetReload(void)
 241:Generated_Source\PSoC6\pdl\drivers\peripheral\systick/cy_systick.h **** {
 242:Generated_Source\PSoC6\pdl\drivers\peripheral\systick/cy_systick.h ****     return (SYSTICK_LOAD);
 243:Generated_Source\PSoC6\pdl\drivers\peripheral\systick/cy_systick.h **** }
 244:Generated_Source\PSoC6\pdl\drivers\peripheral\systick/cy_systick.h **** 
 245:Generated_Source\PSoC6\pdl\drivers\peripheral\systick/cy_systick.h **** 
 246:Generated_Source\PSoC6\pdl\drivers\peripheral\systick/cy_systick.h **** /*******************************************************************************
 247:Generated_Source\PSoC6\pdl\drivers\peripheral\systick/cy_systick.h **** * Function Name: Cy_SysTick_GetValue
 248:Generated_Source\PSoC6\pdl\drivers\peripheral\systick/cy_systick.h **** ****************************************************************************//**
 249:Generated_Source\PSoC6\pdl\drivers\peripheral\systick/cy_systick.h **** *
 250:Generated_Source\PSoC6\pdl\drivers\peripheral\systick/cy_systick.h **** * Gets the current SysTick counter value.
 251:Generated_Source\PSoC6\pdl\drivers\peripheral\systick/cy_systick.h **** *
ARM GAS  C:\Users\cmila\AppData\Local\Temp\cc97sZC5.s 			page 10


 252:Generated_Source\PSoC6\pdl\drivers\peripheral\systick/cy_systick.h **** * \return The current SysTick counter value.
 253:Generated_Source\PSoC6\pdl\drivers\peripheral\systick/cy_systick.h **** *
 254:Generated_Source\PSoC6\pdl\drivers\peripheral\systick/cy_systick.h **** *******************************************************************************/
 255:Generated_Source\PSoC6\pdl\drivers\peripheral\systick/cy_systick.h **** __STATIC_INLINE uint32_t Cy_SysTick_GetValue(void)
 256:Generated_Source\PSoC6\pdl\drivers\peripheral\systick/cy_systick.h **** {
 257:Generated_Source\PSoC6\pdl\drivers\peripheral\systick/cy_systick.h ****     return (SYSTICK_VAL);
 258:Generated_Source\PSoC6\pdl\drivers\peripheral\systick/cy_systick.h **** }
 259:Generated_Source\PSoC6\pdl\drivers\peripheral\systick/cy_systick.h **** 
 260:Generated_Source\PSoC6\pdl\drivers\peripheral\systick/cy_systick.h **** /*******************************************************************************
 261:Generated_Source\PSoC6\pdl\drivers\peripheral\systick/cy_systick.h **** * Function Name: Cy_SysTick_Clear
 262:Generated_Source\PSoC6\pdl\drivers\peripheral\systick/cy_systick.h **** ****************************************************************************//**
 263:Generated_Source\PSoC6\pdl\drivers\peripheral\systick/cy_systick.h **** *
 264:Generated_Source\PSoC6\pdl\drivers\peripheral\systick/cy_systick.h **** * Clears the SysTick counter for a well-defined startup.
 265:Generated_Source\PSoC6\pdl\drivers\peripheral\systick/cy_systick.h **** *
 266:Generated_Source\PSoC6\pdl\drivers\peripheral\systick/cy_systick.h **** *******************************************************************************/
 267:Generated_Source\PSoC6\pdl\drivers\peripheral\systick/cy_systick.h **** __STATIC_INLINE void Cy_SysTick_Clear(void)
 268:Generated_Source\PSoC6\pdl\drivers\peripheral\systick/cy_systick.h **** {
 269:Generated_Source\PSoC6\pdl\drivers\peripheral\systick/cy_systick.h ****     SYSTICK_VAL = 0u;
 270:Generated_Source\PSoC6\pdl\drivers\peripheral\systick/cy_systick.h **** }
 271:Generated_Source\PSoC6\pdl\drivers\peripheral\systick/cy_systick.h **** 
 272:Generated_Source\PSoC6\pdl\drivers\peripheral\systick/cy_systick.h **** 
 273:Generated_Source\PSoC6\pdl\drivers\peripheral\systick/cy_systick.h **** /*******************************************************************************
 274:Generated_Source\PSoC6\pdl\drivers\peripheral\systick/cy_systick.h **** * Function Name: Cy_SysTick_GetCountFlag
 275:Generated_Source\PSoC6\pdl\drivers\peripheral\systick/cy_systick.h **** ****************************************************************************//**
 276:Generated_Source\PSoC6\pdl\drivers\peripheral\systick/cy_systick.h **** *
 277:Generated_Source\PSoC6\pdl\drivers\peripheral\systick/cy_systick.h **** * Gets the values of the count flag. The count flag is set once the SysTick
 278:Generated_Source\PSoC6\pdl\drivers\peripheral\systick/cy_systick.h **** * counter reaches zero. The flag is cleared on read.
 279:Generated_Source\PSoC6\pdl\drivers\peripheral\systick/cy_systick.h **** *
 280:Generated_Source\PSoC6\pdl\drivers\peripheral\systick/cy_systick.h **** * \return Returns a non-zero value if a flag is set; otherwise a zero is
 281:Generated_Source\PSoC6\pdl\drivers\peripheral\systick/cy_systick.h **** * returned.
 282:Generated_Source\PSoC6\pdl\drivers\peripheral\systick/cy_systick.h **** *
 283:Generated_Source\PSoC6\pdl\drivers\peripheral\systick/cy_systick.h **** * \sideeffect Clears the SysTick count flag if it was set.
 284:Generated_Source\PSoC6\pdl\drivers\peripheral\systick/cy_systick.h **** *
 285:Generated_Source\PSoC6\pdl\drivers\peripheral\systick/cy_systick.h **** *******************************************************************************/
 286:Generated_Source\PSoC6\pdl\drivers\peripheral\systick/cy_systick.h **** __STATIC_INLINE uint32_t Cy_SysTick_GetCountFlag(void)
 287:Generated_Source\PSoC6\pdl\drivers\peripheral\systick/cy_systick.h **** {
 288:Generated_Source\PSoC6\pdl\drivers\peripheral\systick/cy_systick.h ****     return (SYSTICK_CTRL & SysTick_CTRL_COUNTFLAG_Msk);
  34              		.loc 2 288 0
  35 0000 074B     		ldr	r3, .L12
  36              	.LBE17:
  37              	.LBE16:
  38              		.loc 1 229 0
  39 0002 10B5     		push	{r4, lr}
  40              		.cfi_def_cfa_offset 8
  41              		.cfi_offset 4, -8
  42              		.cfi_offset 14, -4
  43              	.LBB19:
  44              	.LBB18:
  45              		.loc 2 288 0
  46 0004 1B68     		ldr	r3, [r3]
  47              	.LBE18:
  48              	.LBE19:
  49 0006 0024     		movs	r4, #0
 230:Generated_Source\PSoC6\pdl\drivers\peripheral\systick/cy_systick.c ****     uint32_t i;
 231:Generated_Source\PSoC6\pdl\drivers\peripheral\systick/cy_systick.c **** 
 232:Generated_Source\PSoC6\pdl\drivers\peripheral\systick/cy_systick.c ****     /* Verify that tick timer flag was set */
 233:Generated_Source\PSoC6\pdl\drivers\peripheral\systick/cy_systick.c ****     if (0u != Cy_SysTick_GetCountFlag())
ARM GAS  C:\Users\cmila\AppData\Local\Temp\cc97sZC5.s 			page 11


  50              		.loc 1 233 0
  51 0008 DB03     		lsls	r3, r3, #15
  52 000a 07D5     		bpl	.L1
  53              	.L8:
  54              	.LBB20:
 234:Generated_Source\PSoC6\pdl\drivers\peripheral\systick/cy_systick.c ****     {
 235:Generated_Source\PSoC6\pdl\drivers\peripheral\systick/cy_systick.c ****         for (i=0u; i < CY_SYS_SYST_NUM_OF_CALLBACKS; i++)
 236:Generated_Source\PSoC6\pdl\drivers\peripheral\systick/cy_systick.c ****         {
 237:Generated_Source\PSoC6\pdl\drivers\peripheral\systick/cy_systick.c ****             if (Cy_SysTick_Callbacks[i] != NULL)
  55              		.loc 1 237 0
  56 000c 054B     		ldr	r3, .L12+4
  57 000e E358     		ldr	r3, [r4, r3]
  58 0010 002B     		cmp	r3, #0
  59 0012 00D0     		beq	.L3
 238:Generated_Source\PSoC6\pdl\drivers\peripheral\systick/cy_systick.c ****             {
 239:Generated_Source\PSoC6\pdl\drivers\peripheral\systick/cy_systick.c ****                 (void)(Cy_SysTick_Callbacks[i])();
  60              		.loc 1 239 0
  61 0014 9847     		blx	r3
  62              	.LVL0:
  63              	.L3:
  64 0016 0434     		adds	r4, r4, #4
 235:Generated_Source\PSoC6\pdl\drivers\peripheral\systick/cy_systick.c ****         {
  65              		.loc 1 235 0
  66 0018 142C     		cmp	r4, #20
  67 001a F7D1     		bne	.L8
  68              	.L1:
  69              	.LBE20:
 240:Generated_Source\PSoC6\pdl\drivers\peripheral\systick/cy_systick.c ****             }
 241:Generated_Source\PSoC6\pdl\drivers\peripheral\systick/cy_systick.c ****         }
 242:Generated_Source\PSoC6\pdl\drivers\peripheral\systick/cy_systick.c ****     }
 243:Generated_Source\PSoC6\pdl\drivers\peripheral\systick/cy_systick.c **** }
  70              		.loc 1 243 0
  71              		@ sp needed
  72 001c 10BD     		pop	{r4, pc}
  73              	.L13:
  74 001e C046     		.align	2
  75              	.L12:
  76 0020 10E000E0 		.word	-536813552
  77 0024 00000000 		.word	.LANCHOR0
  78              		.cfi_endproc
  79              	.LFE59:
  80              		.size	Cy_SysTick_ServiceCallbacks, .-Cy_SysTick_ServiceCallbacks
  81              		.section	.text.Cy_SysTick_Enable,"ax",%progbits
  82              		.align	1
  83              		.global	Cy_SysTick_Enable
  84              		.code	16
  85              		.thumb_func
  86              		.type	Cy_SysTick_Enable, %function
  87              	Cy_SysTick_Enable:
  88              	.LFB53:
  71:Generated_Source\PSoC6\pdl\drivers\peripheral\systick/cy_systick.c ****     Cy_SysTick_EnableInterrupt();
  89              		.loc 1 71 0
  90              		.cfi_startproc
  91              		@ args = 0, pretend = 0, frame = 0
  92              		@ frame_needed = 0, uses_anonymous_args = 0
  93              		@ link register save eliminated.
  94              	.LBB23:
ARM GAS  C:\Users\cmila\AppData\Local\Temp\cc97sZC5.s 			page 12


  95              	.LBB24:
 195:Generated_Source\PSoC6\pdl\drivers\peripheral\systick/cy_systick.h **** }
  96              		.loc 2 195 0
  97 0000 0221     		movs	r1, #2
  98 0002 044B     		ldr	r3, .L15
  99              	.LBE24:
 100              	.LBE23:
  74:Generated_Source\PSoC6\pdl\drivers\peripheral\systick/cy_systick.c **** 
 101              		.loc 1 74 0
 102              		@ sp needed
 103              	.LBB26:
 104              	.LBB25:
 195:Generated_Source\PSoC6\pdl\drivers\peripheral\systick/cy_systick.h **** }
 105              		.loc 2 195 0
 106 0004 1A68     		ldr	r2, [r3]
 107 0006 0A43     		orrs	r2, r1
 108 0008 1A60     		str	r2, [r3]
 109              	.LBE25:
 110              	.LBE26:
  73:Generated_Source\PSoC6\pdl\drivers\peripheral\systick/cy_systick.c **** }
 111              		.loc 1 73 0
 112 000a 1A68     		ldr	r2, [r3]
 113 000c 0139     		subs	r1, r1, #1
 114 000e 0A43     		orrs	r2, r1
 115 0010 1A60     		str	r2, [r3]
  74:Generated_Source\PSoC6\pdl\drivers\peripheral\systick/cy_systick.c **** 
 116              		.loc 1 74 0
 117 0012 7047     		bx	lr
 118              	.L16:
 119              		.align	2
 120              	.L15:
 121 0014 10E000E0 		.word	-536813552
 122              		.cfi_endproc
 123              	.LFE53:
 124              		.size	Cy_SysTick_Enable, .-Cy_SysTick_Enable
 125              		.section	.text.Cy_SysTick_Disable,"ax",%progbits
 126              		.align	1
 127              		.global	Cy_SysTick_Disable
 128              		.code	16
 129              		.thumb_func
 130              		.type	Cy_SysTick_Disable, %function
 131              	Cy_SysTick_Disable:
 132              	.LFB54:
  87:Generated_Source\PSoC6\pdl\drivers\peripheral\systick/cy_systick.c ****     Cy_SysTick_DisableInterrupt();
 133              		.loc 1 87 0
 134              		.cfi_startproc
 135              		@ args = 0, pretend = 0, frame = 0
 136              		@ frame_needed = 0, uses_anonymous_args = 0
 137              		@ link register save eliminated.
 138              	.LBB29:
 139              	.LBB30:
 210:Generated_Source\PSoC6\pdl\drivers\peripheral\systick/cy_systick.h **** }
 140              		.loc 2 210 0
 141 0000 0221     		movs	r1, #2
 142 0002 044B     		ldr	r3, .L18
 143              	.LBE30:
 144              	.LBE29:
ARM GAS  C:\Users\cmila\AppData\Local\Temp\cc97sZC5.s 			page 13


  90:Generated_Source\PSoC6\pdl\drivers\peripheral\systick/cy_systick.c **** 
 145              		.loc 1 90 0
 146              		@ sp needed
 147              	.LBB32:
 148              	.LBB31:
 210:Generated_Source\PSoC6\pdl\drivers\peripheral\systick/cy_systick.h **** }
 149              		.loc 2 210 0
 150 0004 1A68     		ldr	r2, [r3]
 151 0006 8A43     		bics	r2, r1
 152 0008 1A60     		str	r2, [r3]
 153              	.LBE31:
 154              	.LBE32:
  89:Generated_Source\PSoC6\pdl\drivers\peripheral\systick/cy_systick.c **** }
 155              		.loc 1 89 0
 156 000a 1A68     		ldr	r2, [r3]
 157 000c 0139     		subs	r1, r1, #1
 158 000e 8A43     		bics	r2, r1
 159 0010 1A60     		str	r2, [r3]
  90:Generated_Source\PSoC6\pdl\drivers\peripheral\systick/cy_systick.c **** 
 160              		.loc 1 90 0
 161 0012 7047     		bx	lr
 162              	.L19:
 163              		.align	2
 164              	.L18:
 165 0014 10E000E0 		.word	-536813552
 166              		.cfi_endproc
 167              	.LFE54:
 168              		.size	Cy_SysTick_Disable, .-Cy_SysTick_Disable
 169              		.section	.text.Cy_SysTick_SetClockSource,"ax",%progbits
 170              		.align	1
 171              		.global	Cy_SysTick_SetClockSource
 172              		.code	16
 173              		.thumb_func
 174              		.type	Cy_SysTick_SetClockSource, %function
 175              	Cy_SysTick_SetClockSource:
 176              	.LFB55:
 113:Generated_Source\PSoC6\pdl\drivers\peripheral\systick/cy_systick.c ****     if (clockSource == CY_SYSTICK_CLOCK_SOURCE_CLK_CPU)
 177              		.loc 1 113 0
 178              		.cfi_startproc
 179              		@ args = 0, pretend = 0, frame = 0
 180              		@ frame_needed = 0, uses_anonymous_args = 0
 181              	.LVL1:
 182 0000 10B5     		push	{r4, lr}
 183              		.cfi_def_cfa_offset 8
 184              		.cfi_offset 4, -8
 185              		.cfi_offset 14, -4
 186 0002 0C4B     		ldr	r3, .L23
 114:Generated_Source\PSoC6\pdl\drivers\peripheral\systick/cy_systick.c ****     {
 187              		.loc 1 114 0
 188 0004 0428     		cmp	r0, #4
 189 0006 03D1     		bne	.L21
 190              	.LVL2:
 191              	.LBB35:
 192              	.LBB36:
 116:Generated_Source\PSoC6\pdl\drivers\peripheral\systick/cy_systick.c ****     }
 193              		.loc 1 116 0
 194 0008 1A68     		ldr	r2, [r3]
ARM GAS  C:\Users\cmila\AppData\Local\Temp\cc97sZC5.s 			page 14


 195 000a 1043     		orrs	r0, r2
 196              	.LVL3:
 197 000c 1860     		str	r0, [r3]
 198 000e 0FE0     		b	.L20
 199              	.LVL4:
 200              	.L21:
 201              	.LBE36:
 202              	.LBE35:
 120:Generated_Source\PSoC6\pdl\drivers\peripheral\systick/cy_systick.c ****         SYSTICK_CTRL &= ~SysTick_CTRL_CLKSOURCE_Msk;
 203              		.loc 1 120 0
 204 0010 094A     		ldr	r2, .L23+4
 205 0012 0006     		lsls	r0, r0, #24
 206              	.LVL5:
 207 0014 1268     		ldr	r2, [r2]
 208 0016 1400     		movs	r4, r2
 209 0018 A034     		adds	r4, r4, #160
 210 001a 1168     		ldr	r1, [r2]
 211 001c 2268     		ldr	r2, [r4]
 212 001e 8A18     		adds	r2, r1, r2
 213 0020 C021     		movs	r1, #192
 214 0022 8904     		lsls	r1, r1, #18
 215 0024 0840     		ands	r0, r1
 121:Generated_Source\PSoC6\pdl\drivers\peripheral\systick/cy_systick.c ****     }
 216              		.loc 1 121 0
 217 0026 0421     		movs	r1, #4
 120:Generated_Source\PSoC6\pdl\drivers\peripheral\systick/cy_systick.c ****         SYSTICK_CTRL &= ~SysTick_CTRL_CLKSOURCE_Msk;
 218              		.loc 1 120 0
 219 0028 1060     		str	r0, [r2]
 121:Generated_Source\PSoC6\pdl\drivers\peripheral\systick/cy_systick.c ****     }
 220              		.loc 1 121 0
 221 002a 1A68     		ldr	r2, [r3]
 222 002c 8A43     		bics	r2, r1
 223 002e 1A60     		str	r2, [r3]
 224              	.L20:
 123:Generated_Source\PSoC6\pdl\drivers\peripheral\systick/cy_systick.c **** 
 225              		.loc 1 123 0
 226              		@ sp needed
 227 0030 10BD     		pop	{r4, pc}
 228              	.L24:
 229 0032 C046     		.align	2
 230              	.L23:
 231 0034 10E000E0 		.word	-536813552
 232 0038 00000000 		.word	cy_device
 233              		.cfi_endproc
 234              	.LFE55:
 235              		.size	Cy_SysTick_SetClockSource, .-Cy_SysTick_SetClockSource
 236              		.section	.text.Cy_SysTick_Init,"ax",%progbits
 237              		.align	1
 238              		.global	Cy_SysTick_Init
 239              		.code	16
 240              		.thumb_func
 241              		.type	Cy_SysTick_Init, %function
 242              	Cy_SysTick_Init:
 243              	.LFB52:
  44:Generated_Source\PSoC6\pdl\drivers\peripheral\systick/cy_systick.c ****     uint32_t i;
 244              		.loc 1 44 0
 245              		.cfi_startproc
ARM GAS  C:\Users\cmila\AppData\Local\Temp\cc97sZC5.s 			page 15


 246              		@ args = 0, pretend = 0, frame = 0
 247              		@ frame_needed = 0, uses_anonymous_args = 0
 248              	.LVL6:
 249 0000 70B5     		push	{r4, r5, r6, lr}
 250              		.cfi_def_cfa_offset 16
 251              		.cfi_offset 4, -16
 252              		.cfi_offset 5, -12
 253              		.cfi_offset 6, -8
 254              		.cfi_offset 14, -4
  49:Generated_Source\PSoC6\pdl\drivers\peripheral\systick/cy_systick.c ****     }
 255              		.loc 1 49 0
 256 0002 0024     		movs	r4, #0
  44:Generated_Source\PSoC6\pdl\drivers\peripheral\systick/cy_systick.c ****     uint32_t i;
 257              		.loc 1 44 0
 258 0004 0D00     		movs	r5, r1
  49:Generated_Source\PSoC6\pdl\drivers\peripheral\systick/cy_systick.c ****     }
 259              		.loc 1 49 0
 260 0006 094B     		ldr	r3, .L26
  52:Generated_Source\PSoC6\pdl\drivers\peripheral\systick/cy_systick.c ****     Cy_SysTick_SetClockSource(clockSource);
 261              		.loc 1 52 0
 262 0008 094A     		ldr	r2, .L26+4
  49:Generated_Source\PSoC6\pdl\drivers\peripheral\systick/cy_systick.c ****     }
 263              		.loc 1 49 0
 264 000a 1C60     		str	r4, [r3]
 265              	.LVL7:
 266 000c 5C60     		str	r4, [r3, #4]
 267              	.LVL8:
 268 000e 9C60     		str	r4, [r3, #8]
 269              	.LVL9:
 270 0010 DC60     		str	r4, [r3, #12]
 271              	.LVL10:
 272 0012 1C61     		str	r4, [r3, #16]
 273              	.LVL11:
  52:Generated_Source\PSoC6\pdl\drivers\peripheral\systick/cy_systick.c ****     Cy_SysTick_SetClockSource(clockSource);
 274              		.loc 1 52 0
 275 0014 074B     		ldr	r3, .L26+8
 276              	.LBB37:
 277              	.LBB38:
 227:Generated_Source\PSoC6\pdl\drivers\peripheral\systick/cy_systick.h **** }
 278              		.loc 2 227 0
 279 0016 2D02     		lsls	r5, r5, #8
 280              	.LBE38:
 281              	.LBE37:
  52:Generated_Source\PSoC6\pdl\drivers\peripheral\systick/cy_systick.c ****     Cy_SysTick_SetClockSource(clockSource);
 282              		.loc 1 52 0
 283 0018 DA63     		str	r2, [r3, #60]
  53:Generated_Source\PSoC6\pdl\drivers\peripheral\systick/cy_systick.c **** 
 284              		.loc 1 53 0
 285 001a FFF7FEFF 		bl	Cy_SysTick_SetClockSource
 286              	.LVL12:
 287              	.LBB40:
 288              	.LBB39:
 227:Generated_Source\PSoC6\pdl\drivers\peripheral\systick/cy_systick.h **** }
 289              		.loc 2 227 0
 290 001e 064B     		ldr	r3, .L26+12
 291 0020 2D0A     		lsrs	r5, r5, #8
 292 0022 5D60     		str	r5, [r3, #4]
ARM GAS  C:\Users\cmila\AppData\Local\Temp\cc97sZC5.s 			page 16


 293              	.LBE39:
 294              	.LBE40:
 295              	.LBB41:
 296              	.LBB42:
 269:Generated_Source\PSoC6\pdl\drivers\peripheral\systick/cy_systick.h **** }
 297              		.loc 2 269 0
 298 0024 9C60     		str	r4, [r3, #8]
 299              	.LBE42:
 300              	.LBE41:
  57:Generated_Source\PSoC6\pdl\drivers\peripheral\systick/cy_systick.c **** }
 301              		.loc 1 57 0
 302 0026 FFF7FEFF 		bl	Cy_SysTick_Enable
 303              	.LVL13:
  58:Generated_Source\PSoC6\pdl\drivers\peripheral\systick/cy_systick.c **** 
 304              		.loc 1 58 0
 305              		@ sp needed
 306 002a 70BD     		pop	{r4, r5, r6, pc}
 307              	.L27:
 308              		.align	2
 309              	.L26:
 310 002c 00000000 		.word	.LANCHOR0
 311 0030 00000000 		.word	Cy_SysTick_ServiceCallbacks
 312 0034 00000000 		.word	__ramVectors
 313 0038 10E000E0 		.word	-536813552
 314              		.cfi_endproc
 315              	.LFE52:
 316              		.size	Cy_SysTick_Init, .-Cy_SysTick_Init
 317              		.section	.text.Cy_SysTick_GetClockSource,"ax",%progbits
 318              		.align	1
 319              		.global	Cy_SysTick_GetClockSource
 320              		.code	16
 321              		.thumb_func
 322              		.type	Cy_SysTick_GetClockSource, %function
 323              	Cy_SysTick_GetClockSource:
 324              	.LFB56:
 136:Generated_Source\PSoC6\pdl\drivers\peripheral\systick/cy_systick.c ****     cy_en_systick_clock_source_t returnValue;
 325              		.loc 1 136 0
 326              		.cfi_startproc
 327              		@ args = 0, pretend = 0, frame = 0
 328              		@ frame_needed = 0, uses_anonymous_args = 0
 329              		@ link register save eliminated.
 141:Generated_Source\PSoC6\pdl\drivers\peripheral\systick/cy_systick.c ****     }
 330              		.loc 1 141 0
 331 0000 0420     		movs	r0, #4
 139:Generated_Source\PSoC6\pdl\drivers\peripheral\systick/cy_systick.c ****     {
 332              		.loc 1 139 0
 333 0002 074B     		ldr	r3, .L31
 334 0004 1B68     		ldr	r3, [r3]
 335 0006 0342     		tst	r3, r0
 336 0008 09D1     		bne	.L29
 145:Generated_Source\PSoC6\pdl\drivers\peripheral\systick/cy_systick.c ****     }
 337              		.loc 1 145 0
 338 000a 064B     		ldr	r3, .L31+4
 339 000c 1B68     		ldr	r3, [r3]
 340 000e 1900     		movs	r1, r3
 341 0010 A031     		adds	r1, r1, #160
 342 0012 1A68     		ldr	r2, [r3]
ARM GAS  C:\Users\cmila\AppData\Local\Temp\cc97sZC5.s 			page 17


 343 0014 0B68     		ldr	r3, [r1]
 344 0016 D318     		adds	r3, r2, r3
 345 0018 1868     		ldr	r0, [r3]
 346 001a 8001     		lsls	r0, r0, #6
 347 001c 800F     		lsrs	r0, r0, #30
 348              	.LVL14:
 349              	.L29:
 149:Generated_Source\PSoC6\pdl\drivers\peripheral\systick/cy_systick.c **** 
 350              		.loc 1 149 0
 351              		@ sp needed
 352 001e 7047     		bx	lr
 353              	.L32:
 354              		.align	2
 355              	.L31:
 356 0020 10E000E0 		.word	-536813552
 357 0024 00000000 		.word	cy_device
 358              		.cfi_endproc
 359              	.LFE56:
 360              		.size	Cy_SysTick_GetClockSource, .-Cy_SysTick_GetClockSource
 361              		.section	.text.Cy_SysTick_SetCallback,"ax",%progbits
 362              		.align	1
 363              		.global	Cy_SysTick_SetCallback
 364              		.code	16
 365              		.thumb_func
 366              		.type	Cy_SysTick_SetCallback, %function
 367              	Cy_SysTick_SetCallback:
 368              	.LFB57:
 173:Generated_Source\PSoC6\pdl\drivers\peripheral\systick/cy_systick.c ****     Cy_SysTick_Callback retVal;
 369              		.loc 1 173 0
 370              		.cfi_startproc
 371              		@ args = 0, pretend = 0, frame = 0
 372              		@ frame_needed = 0, uses_anonymous_args = 0
 373              	.LVL15:
 374 0000 10B5     		push	{r4, lr}
 375              		.cfi_def_cfa_offset 8
 376              		.cfi_offset 4, -8
 377              		.cfi_offset 14, -4
 183:Generated_Source\PSoC6\pdl\drivers\peripheral\systick/cy_systick.c ****     }
 378              		.loc 1 183 0
 379 0002 0022     		movs	r2, #0
 176:Generated_Source\PSoC6\pdl\drivers\peripheral\systick/cy_systick.c ****     {
 380              		.loc 1 176 0
 381 0004 0428     		cmp	r0, #4
 382 0006 03D8     		bhi	.L34
 178:Generated_Source\PSoC6\pdl\drivers\peripheral\systick/cy_systick.c ****         Cy_SysTick_Callbacks[number] = function;
 383              		.loc 1 178 0
 384 0008 024C     		ldr	r4, .L36
 385 000a 8300     		lsls	r3, r0, #2
 386 000c 1A59     		ldr	r2, [r3, r4]
 387              	.LVL16:
 179:Generated_Source\PSoC6\pdl\drivers\peripheral\systick/cy_systick.c ****     }
 388              		.loc 1 179 0
 389 000e 1951     		str	r1, [r3, r4]
 390              	.LVL17:
 391              	.L34:
 187:Generated_Source\PSoC6\pdl\drivers\peripheral\systick/cy_systick.c **** 
 392              		.loc 1 187 0
ARM GAS  C:\Users\cmila\AppData\Local\Temp\cc97sZC5.s 			page 18


 393 0010 1000     		movs	r0, r2
 394              	.LVL18:
 395              		@ sp needed
 396 0012 10BD     		pop	{r4, pc}
 397              	.L37:
 398              		.align	2
 399              	.L36:
 400 0014 00000000 		.word	.LANCHOR0
 401              		.cfi_endproc
 402              	.LFE57:
 403              		.size	Cy_SysTick_SetCallback, .-Cy_SysTick_SetCallback
 404              		.section	.text.Cy_SysTick_GetCallback,"ax",%progbits
 405              		.align	1
 406              		.global	Cy_SysTick_GetCallback
 407              		.code	16
 408              		.thumb_func
 409              		.type	Cy_SysTick_GetCallback, %function
 410              	Cy_SysTick_GetCallback:
 411              	.LFB58:
 205:Generated_Source\PSoC6\pdl\drivers\peripheral\systick/cy_systick.c ****     Cy_SysTick_Callback retVal;
 412              		.loc 1 205 0
 413              		.cfi_startproc
 414              		@ args = 0, pretend = 0, frame = 0
 415              		@ frame_needed = 0, uses_anonymous_args = 0
 416              		@ link register save eliminated.
 417              	.LVL19:
 214:Generated_Source\PSoC6\pdl\drivers\peripheral\systick/cy_systick.c ****     }
 418              		.loc 1 214 0
 419 0000 0023     		movs	r3, #0
 208:Generated_Source\PSoC6\pdl\drivers\peripheral\systick/cy_systick.c ****     {
 420              		.loc 1 208 0
 421 0002 0428     		cmp	r0, #4
 422 0004 02D8     		bhi	.L39
 210:Generated_Source\PSoC6\pdl\drivers\peripheral\systick/cy_systick.c ****     }
 423              		.loc 1 210 0
 424 0006 024B     		ldr	r3, .L41
 425 0008 8000     		lsls	r0, r0, #2
 426              	.LVL20:
 427 000a C358     		ldr	r3, [r0, r3]
 428              	.LVL21:
 429              	.L39:
 218:Generated_Source\PSoC6\pdl\drivers\peripheral\systick/cy_systick.c **** 
 430              		.loc 1 218 0
 431 000c 1800     		movs	r0, r3
 432              		@ sp needed
 433 000e 7047     		bx	lr
 434              	.L42:
 435              		.align	2
 436              	.L41:
 437 0010 00000000 		.word	.LANCHOR0
 438              		.cfi_endproc
 439              	.LFE58:
 440              		.size	Cy_SysTick_GetCallback, .-Cy_SysTick_GetCallback
 441              		.bss
 442              		.align	2
 443              		.set	.LANCHOR0,. + 0
 444              		.type	Cy_SysTick_Callbacks, %object
ARM GAS  C:\Users\cmila\AppData\Local\Temp\cc97sZC5.s 			page 19


 445              		.size	Cy_SysTick_Callbacks, 20
 446              	Cy_SysTick_Callbacks:
 447 0000 00000000 		.space	20
 447      00000000 
 447      00000000 
 447      00000000 
 447      00000000 
 448              		.text
 449              	.Letext0:
 450              		.file 3 "c:\\program files (x86)\\cypress\\psoc creator\\4.4\\psoc creator\\import\\gnu\\arm\\5.4.
 451              		.file 4 "c:\\program files (x86)\\cypress\\psoc creator\\4.4\\psoc creator\\import\\gnu\\arm\\5.4.
 452              		.file 5 "Generated_Source\\PSoC6\\pdl\\drivers/peripheral/device/cy_device.h"
 453              		.file 6 "Generated_Source\\PSoC6\\pdl\\cmsis/include/core_cm0plus.h"
 454              		.file 7 "Generated_Source\\PSoC6\\pdl\\drivers/peripheral/syslib/cy_syslib.h"