ARM GAS  C:\Users\subra\AppData\Local\Temp\ccj7450b.s 			page 1


   1              		.syntax unified
   2              		.cpu cortex-m4
   3              		.eabi_attribute 27, 1
   4              		.fpu fpv4-sp-d16
   5              		.eabi_attribute 20, 1
   6              		.eabi_attribute 21, 1
   7              		.eabi_attribute 23, 3
   8              		.eabi_attribute 24, 1
   9              		.eabi_attribute 25, 1
  10              		.eabi_attribute 26, 1
  11              		.eabi_attribute 30, 1
  12              		.eabi_attribute 34, 1
  13              		.eabi_attribute 18, 4
  14              		.thumb
  15              		.syntax unified
  16              		.file	"cy_tcpwm_pwm.c"
  17              		.text
  18              	.Ltext0:
  19              		.cfi_sections	.debug_frame
  20              		.section	.text.Cy_TCPWM_PWM_Init,"ax",%progbits
  21              		.align	2
  22              		.global	Cy_TCPWM_PWM_Init
  23              		.thumb
  24              		.thumb_func
  25              		.type	Cy_TCPWM_PWM_Init, %function
  26              	Cy_TCPWM_PWM_Init:
  27              	.LFB159:
  28              		.file 1 "Generated_Source\\PSoC6\\pdl\\drivers\\peripheral\\tcpwm\\cy_tcpwm_pwm.c"
   1:Generated_Source\PSoC6\pdl\drivers\peripheral\tcpwm/cy_tcpwm_pwm.c **** /***************************************************************************//**
   2:Generated_Source\PSoC6\pdl\drivers\peripheral\tcpwm/cy_tcpwm_pwm.c **** * \file cy_tcpwm_pwm.c
   3:Generated_Source\PSoC6\pdl\drivers\peripheral\tcpwm/cy_tcpwm_pwm.c **** * \version 1.10
   4:Generated_Source\PSoC6\pdl\drivers\peripheral\tcpwm/cy_tcpwm_pwm.c **** *
   5:Generated_Source\PSoC6\pdl\drivers\peripheral\tcpwm/cy_tcpwm_pwm.c **** * \brief
   6:Generated_Source\PSoC6\pdl\drivers\peripheral\tcpwm/cy_tcpwm_pwm.c **** *  The source file of the tcpwm driver.
   7:Generated_Source\PSoC6\pdl\drivers\peripheral\tcpwm/cy_tcpwm_pwm.c **** *
   8:Generated_Source\PSoC6\pdl\drivers\peripheral\tcpwm/cy_tcpwm_pwm.c **** ********************************************************************************
   9:Generated_Source\PSoC6\pdl\drivers\peripheral\tcpwm/cy_tcpwm_pwm.c **** * \copyright
  10:Generated_Source\PSoC6\pdl\drivers\peripheral\tcpwm/cy_tcpwm_pwm.c **** * Copyright 2016-2018, Cypress Semiconductor Corporation.  All rights reserved.
  11:Generated_Source\PSoC6\pdl\drivers\peripheral\tcpwm/cy_tcpwm_pwm.c **** * You may use this file only in accordance with the license, terms, conditions,
  12:Generated_Source\PSoC6\pdl\drivers\peripheral\tcpwm/cy_tcpwm_pwm.c **** * disclaimers, and limitations in the end user license agreement accompanying
  13:Generated_Source\PSoC6\pdl\drivers\peripheral\tcpwm/cy_tcpwm_pwm.c **** * the software package with which this file was provided.
  14:Generated_Source\PSoC6\pdl\drivers\peripheral\tcpwm/cy_tcpwm_pwm.c **** *******************************************************************************/
  15:Generated_Source\PSoC6\pdl\drivers\peripheral\tcpwm/cy_tcpwm_pwm.c **** 
  16:Generated_Source\PSoC6\pdl\drivers\peripheral\tcpwm/cy_tcpwm_pwm.c **** #include "cy_tcpwm_pwm.h"
  17:Generated_Source\PSoC6\pdl\drivers\peripheral\tcpwm/cy_tcpwm_pwm.c **** 
  18:Generated_Source\PSoC6\pdl\drivers\peripheral\tcpwm/cy_tcpwm_pwm.c **** #ifdef CY_IP_MXTCPWM
  19:Generated_Source\PSoC6\pdl\drivers\peripheral\tcpwm/cy_tcpwm_pwm.c **** 
  20:Generated_Source\PSoC6\pdl\drivers\peripheral\tcpwm/cy_tcpwm_pwm.c **** #if defined(__cplusplus)
  21:Generated_Source\PSoC6\pdl\drivers\peripheral\tcpwm/cy_tcpwm_pwm.c **** extern "C" {
  22:Generated_Source\PSoC6\pdl\drivers\peripheral\tcpwm/cy_tcpwm_pwm.c **** #endif
  23:Generated_Source\PSoC6\pdl\drivers\peripheral\tcpwm/cy_tcpwm_pwm.c **** 
  24:Generated_Source\PSoC6\pdl\drivers\peripheral\tcpwm/cy_tcpwm_pwm.c **** 
  25:Generated_Source\PSoC6\pdl\drivers\peripheral\tcpwm/cy_tcpwm_pwm.c **** /*******************************************************************************
  26:Generated_Source\PSoC6\pdl\drivers\peripheral\tcpwm/cy_tcpwm_pwm.c **** * Function Name: Cy_TCPWM_PWM_Init
  27:Generated_Source\PSoC6\pdl\drivers\peripheral\tcpwm/cy_tcpwm_pwm.c **** ****************************************************************************//**
  28:Generated_Source\PSoC6\pdl\drivers\peripheral\tcpwm/cy_tcpwm_pwm.c **** *
  29:Generated_Source\PSoC6\pdl\drivers\peripheral\tcpwm/cy_tcpwm_pwm.c **** * Initializes the counter in the TCPWM block for the PWM operation.
ARM GAS  C:\Users\subra\AppData\Local\Temp\ccj7450b.s 			page 2


  30:Generated_Source\PSoC6\pdl\drivers\peripheral\tcpwm/cy_tcpwm_pwm.c **** *
  31:Generated_Source\PSoC6\pdl\drivers\peripheral\tcpwm/cy_tcpwm_pwm.c **** * \param base
  32:Generated_Source\PSoC6\pdl\drivers\peripheral\tcpwm/cy_tcpwm_pwm.c **** * The pointer to a TCPWM instance.
  33:Generated_Source\PSoC6\pdl\drivers\peripheral\tcpwm/cy_tcpwm_pwm.c **** *
  34:Generated_Source\PSoC6\pdl\drivers\peripheral\tcpwm/cy_tcpwm_pwm.c **** * \param cntNum
  35:Generated_Source\PSoC6\pdl\drivers\peripheral\tcpwm/cy_tcpwm_pwm.c **** * The Counter instance number in the selected TCPWM.
  36:Generated_Source\PSoC6\pdl\drivers\peripheral\tcpwm/cy_tcpwm_pwm.c **** *
  37:Generated_Source\PSoC6\pdl\drivers\peripheral\tcpwm/cy_tcpwm_pwm.c **** * \param config
  38:Generated_Source\PSoC6\pdl\drivers\peripheral\tcpwm/cy_tcpwm_pwm.c **** * The pointer to a configuration structure. See \ref cy_stc_tcpwm_pwm_config_t.
  39:Generated_Source\PSoC6\pdl\drivers\peripheral\tcpwm/cy_tcpwm_pwm.c **** *
  40:Generated_Source\PSoC6\pdl\drivers\peripheral\tcpwm/cy_tcpwm_pwm.c **** * \return error / status code. See \ref cy_en_tcpwm_status_t.
  41:Generated_Source\PSoC6\pdl\drivers\peripheral\tcpwm/cy_tcpwm_pwm.c **** *
  42:Generated_Source\PSoC6\pdl\drivers\peripheral\tcpwm/cy_tcpwm_pwm.c **** * \funcusage
  43:Generated_Source\PSoC6\pdl\drivers\peripheral\tcpwm/cy_tcpwm_pwm.c **** * \snippet tcpwm\1.10\pwm\snippet\main.c snippet_Cy_TCPWM_PWM_Config
  44:Generated_Source\PSoC6\pdl\drivers\peripheral\tcpwm/cy_tcpwm_pwm.c **** * \snippet tcpwm\1.10\pwm\snippet\main.c snippet_Cy_TCPWM_PWM_Init
  45:Generated_Source\PSoC6\pdl\drivers\peripheral\tcpwm/cy_tcpwm_pwm.c **** *
  46:Generated_Source\PSoC6\pdl\drivers\peripheral\tcpwm/cy_tcpwm_pwm.c **** *******************************************************************************/
  47:Generated_Source\PSoC6\pdl\drivers\peripheral\tcpwm/cy_tcpwm_pwm.c **** cy_en_tcpwm_status_t Cy_TCPWM_PWM_Init(TCPWM_Type *base, uint32_t cntNum,  cy_stc_tcpwm_pwm_config_
  48:Generated_Source\PSoC6\pdl\drivers\peripheral\tcpwm/cy_tcpwm_pwm.c **** {
  29              		.loc 1 48 0
  30              		.cfi_startproc
  31              		@ args = 0, pretend = 0, frame = 0
  32              		@ frame_needed = 0, uses_anonymous_args = 0
  33              		@ link register save eliminated.
  34              	.LVL0:
  49:Generated_Source\PSoC6\pdl\drivers\peripheral\tcpwm/cy_tcpwm_pwm.c ****     cy_en_tcpwm_status_t status = CY_TCPWM_BAD_PARAM;
  50:Generated_Source\PSoC6\pdl\drivers\peripheral\tcpwm/cy_tcpwm_pwm.c **** 
  51:Generated_Source\PSoC6\pdl\drivers\peripheral\tcpwm/cy_tcpwm_pwm.c ****     if ((NULL != base) && (NULL != config))
  35              		.loc 1 51 0
  36 0000 0028     		cmp	r0, #0
  37 0002 00F0AC80 		beq	.L12
  48:Generated_Source\PSoC6\pdl\drivers\peripheral\tcpwm/cy_tcpwm_pwm.c ****     cy_en_tcpwm_status_t status = CY_TCPWM_BAD_PARAM;
  38              		.loc 1 48 0 discriminator 1
  39 0006 70B4     		push	{r4, r5, r6}
  40              		.cfi_def_cfa_offset 12
  41              		.cfi_offset 4, -12
  42              		.cfi_offset 5, -8
  43              		.cfi_offset 6, -4
  44 0008 0446     		mov	r4, r0
  45              		.loc 1 51 0 discriminator 1
  46 000a 002A     		cmp	r2, #0
  47 000c 00F0A980 		beq	.L13
  52:Generated_Source\PSoC6\pdl\drivers\peripheral\tcpwm/cy_tcpwm_pwm.c ****     {
  53:Generated_Source\PSoC6\pdl\drivers\peripheral\tcpwm/cy_tcpwm_pwm.c ****         TCPWM_CNT_CTRL(base, cntNum) = ((config->enableCompareSwap ? TCPWM_CNT_CTRL_AUTO_RELOAD_CC_
  48              		.loc 1 53 0
  49 0010 92F82830 		ldrb	r3, [r2, #40]	@ zero_extendqisi2
  50 0014 0BB1     		cbz	r3, .L14
  51 0016 0125     		movs	r5, #1
  52 0018 00E0     		b	.L3
  53              	.L14:
  54 001a 0025     		movs	r5, #0
  55              	.L3:
  54:Generated_Source\PSoC6\pdl\drivers\peripheral\tcpwm/cy_tcpwm_pwm.c ****                                       (config->enablePeriodSwap ? TCPWM_CNT_CTRL_AUTO_RELOAD_PERIOD
  56              		.loc 1 54 0
  57 001c 137F     		ldrb	r3, [r2, #28]	@ zero_extendqisi2
  58 001e 0BB1     		cbz	r3, .L15
  59 0020 0223     		movs	r3, #2
ARM GAS  C:\Users\subra\AppData\Local\Temp\ccj7450b.s 			page 3


  60 0022 00E0     		b	.L4
  61              	.L15:
  62 0024 0023     		movs	r3, #0
  63              	.L4:
  53:Generated_Source\PSoC6\pdl\drivers\peripheral\tcpwm/cy_tcpwm_pwm.c ****                                       (config->enablePeriodSwap ? TCPWM_CNT_CTRL_AUTO_RELOAD_PERIOD
  64              		.loc 1 53 0
  65 0026 1D43     		orrs	r5, r5, r3
  55:Generated_Source\PSoC6\pdl\drivers\peripheral\tcpwm/cy_tcpwm_pwm.c ****                                       _VAL2FLD(TCPWM_CNT_CTRL_ONE_SHOT, config->runMode) |
  66              		.loc 1 55 0
  67 0028 1669     		ldr	r6, [r2, #16]
  68 002a B604     		lsls	r6, r6, #18
  69 002c 06F48026 		and	r6, r6, #262144
  54:Generated_Source\PSoC6\pdl\drivers\peripheral\tcpwm/cy_tcpwm_pwm.c ****                                       (config->enablePeriodSwap ? TCPWM_CNT_CTRL_AUTO_RELOAD_PERIOD
  70              		.loc 1 54 0
  71 0030 45EA0603 		orr	r3, r5, r6
  56:Generated_Source\PSoC6\pdl\drivers\peripheral\tcpwm/cy_tcpwm_pwm.c ****                                       _VAL2FLD(TCPWM_CNT_CTRL_UP_DOWN_MODE, config->pwmAlignment) |
  72              		.loc 1 56 0
  73 0034 9568     		ldr	r5, [r2, #8]
  74 0036 2D04     		lsls	r5, r5, #16
  75 0038 05F44035 		and	r5, r5, #196608
  55:Generated_Source\PSoC6\pdl\drivers\peripheral\tcpwm/cy_tcpwm_pwm.c ****                                       _VAL2FLD(TCPWM_CNT_CTRL_ONE_SHOT, config->runMode) |
  76              		.loc 1 55 0
  77 003c 1D43     		orrs	r5, r5, r3
  57:Generated_Source\PSoC6\pdl\drivers\peripheral\tcpwm/cy_tcpwm_pwm.c ****                                       _VAL2FLD(TCPWM_CNT_CTRL_MODE, config->pwmMode) |
  78              		.loc 1 57 0
  79 003e 1668     		ldr	r6, [r2]
  80 0040 3006     		lsls	r0, r6, #24
  81              	.LVL1:
  82 0042 00F0E060 		and	r0, r0, #117440512
  56:Generated_Source\PSoC6\pdl\drivers\peripheral\tcpwm/cy_tcpwm_pwm.c ****                                       _VAL2FLD(TCPWM_CNT_CTRL_UP_DOWN_MODE, config->pwmAlignment) |
  83              		.loc 1 56 0
  84 0046 2843     		orrs	r0, r0, r5
  58:Generated_Source\PSoC6\pdl\drivers\peripheral\tcpwm/cy_tcpwm_pwm.c ****                                       _VAL2FLD(TCPWM_CNT_CTRL_QUADRATURE_MODE,
  85              		.loc 1 58 0
  86 0048 136B     		ldr	r3, [r2, #48]
  87 004a 556B     		ldr	r5, [r2, #52]
  88 004c 43EA4503 		orr	r3, r3, r5, lsl #1
  89 0050 1B05     		lsls	r3, r3, #20
  90 0052 03F44013 		and	r3, r3, #3145728
  57:Generated_Source\PSoC6\pdl\drivers\peripheral\tcpwm/cy_tcpwm_pwm.c ****                                       _VAL2FLD(TCPWM_CNT_CTRL_MODE, config->pwmMode) |
  91              		.loc 1 57 0
  92 0056 0343     		orrs	r3, r3, r0
  59:Generated_Source\PSoC6\pdl\drivers\peripheral\tcpwm/cy_tcpwm_pwm.c ****                                            (config->invertPWMOut | (config->invertPWMOutN << 1U))) 
  60:Generated_Source\PSoC6\pdl\drivers\peripheral\tcpwm/cy_tcpwm_pwm.c ****                                            (config->killMode << CY_TCPWM_PWM_CTRL_SYNC_KILL_OR_STOP
  93              		.loc 1 60 0
  94 0058 906B     		ldr	r0, [r2, #56]
  59:Generated_Source\PSoC6\pdl\drivers\peripheral\tcpwm/cy_tcpwm_pwm.c ****                                            (config->invertPWMOut | (config->invertPWMOutN << 1U))) 
  95              		.loc 1 59 0
  96 005a 43EA8000 		orr	r0, r3, r0, lsl #2
  61:Generated_Source\PSoC6\pdl\drivers\peripheral\tcpwm/cy_tcpwm_pwm.c ****                                            _VAL2FLD(TCPWM_CNT_CTRL_GENERIC, ((CY_TCPWM_PWM_MODE_DEA
  97              		.loc 1 61 0
  98 005e 052E     		cmp	r6, #5
  99 0060 03D1     		bne	.L5
 100              		.loc 1 61 0 is_stmt 0 discriminator 1
 101 0062 D368     		ldr	r3, [r2, #12]
 102 0064 1B02     		lsls	r3, r3, #8
 103 0066 9BB2     		uxth	r3, r3
ARM GAS  C:\Users\subra\AppData\Local\Temp\ccj7450b.s 			page 4


 104 0068 02E0     		b	.L6
 105              	.L5:
 106              		.loc 1 61 0 discriminator 2
 107 006a 5368     		ldr	r3, [r2, #4]
 108 006c 1B02     		lsls	r3, r3, #8
 109 006e 9BB2     		uxth	r3, r3
 110              	.L6:
  60:Generated_Source\PSoC6\pdl\drivers\peripheral\tcpwm/cy_tcpwm_pwm.c ****                                            _VAL2FLD(TCPWM_CNT_CTRL_GENERIC, ((CY_TCPWM_PWM_MODE_DEA
 111              		.loc 1 60 0 is_stmt 1
 112 0070 0343     		orrs	r3, r3, r0
  53:Generated_Source\PSoC6\pdl\drivers\peripheral\tcpwm/cy_tcpwm_pwm.c ****                                       (config->enablePeriodSwap ? TCPWM_CNT_CTRL_AUTO_RELOAD_PERIOD
 113              		.loc 1 53 0
 114 0072 081D     		adds	r0, r1, #4
 115 0074 8001     		lsls	r0, r0, #6
 116 0076 2350     		str	r3, [r4, r0]
  62:Generated_Source\PSoC6\pdl\drivers\peripheral\tcpwm/cy_tcpwm_pwm.c ****                                                                      config->deadTimeClocks : confi
  63:Generated_Source\PSoC6\pdl\drivers\peripheral\tcpwm/cy_tcpwm_pwm.c **** 
  64:Generated_Source\PSoC6\pdl\drivers\peripheral\tcpwm/cy_tcpwm_pwm.c ****         if (CY_TCPWM_PWM_MODE_PSEUDORANDOM == config->pwmMode)
 117              		.loc 1 64 0
 118 0078 1368     		ldr	r3, [r2]
 119 007a 062B     		cmp	r3, #6
 120 007c 08D1     		bne	.L7
  65:Generated_Source\PSoC6\pdl\drivers\peripheral\tcpwm/cy_tcpwm_pwm.c ****         {
  66:Generated_Source\PSoC6\pdl\drivers\peripheral\tcpwm/cy_tcpwm_pwm.c ****             TCPWM_CNT_COUNTER(base, cntNum) = CY_TCPWM_CNT_UP_DOWN_INIT_VAL;
 121              		.loc 1 66 0
 122 007e 04EB8113 		add	r3, r4, r1, lsl #6
 123 0082 0120     		movs	r0, #1
 124 0084 C3F80801 		str	r0, [r3, #264]
  67:Generated_Source\PSoC6\pdl\drivers\peripheral\tcpwm/cy_tcpwm_pwm.c ****             TCPWM_CNT_TR_CTRL2(base, cntNum) = CY_TCPWM_PWM_MODE_PR;
 125              		.loc 1 67 0
 126 0088 3F20     		movs	r0, #63
 127 008a C3F82801 		str	r0, [r3, #296]
 128 008e 1DE0     		b	.L8
 129              	.L7:
  68:Generated_Source\PSoC6\pdl\drivers\peripheral\tcpwm/cy_tcpwm_pwm.c ****         }
  69:Generated_Source\PSoC6\pdl\drivers\peripheral\tcpwm/cy_tcpwm_pwm.c ****         else
  70:Generated_Source\PSoC6\pdl\drivers\peripheral\tcpwm/cy_tcpwm_pwm.c ****         {
  71:Generated_Source\PSoC6\pdl\drivers\peripheral\tcpwm/cy_tcpwm_pwm.c ****             if (CY_TCPWM_PWM_LEFT_ALIGN == config->pwmAlignment)
 130              		.loc 1 71 0
 131 0090 9368     		ldr	r3, [r2, #8]
 132 0092 43B9     		cbnz	r3, .L9
  72:Generated_Source\PSoC6\pdl\drivers\peripheral\tcpwm/cy_tcpwm_pwm.c ****             {
  73:Generated_Source\PSoC6\pdl\drivers\peripheral\tcpwm/cy_tcpwm_pwm.c ****                 TCPWM_CNT_COUNTER(base, cntNum) = CY_TCPWM_CNT_UP_INIT_VAL;
 133              		.loc 1 73 0
 134 0094 04EB8113 		add	r3, r4, r1, lsl #6
 135 0098 0020     		movs	r0, #0
 136 009a C3F80801 		str	r0, [r3, #264]
  74:Generated_Source\PSoC6\pdl\drivers\peripheral\tcpwm/cy_tcpwm_pwm.c ****                 TCPWM_CNT_TR_CTRL2(base, cntNum) = CY_TCPWM_PWM_MODE_LEFT;
 137              		.loc 1 74 0
 138 009e 3120     		movs	r0, #49
 139 00a0 C3F82801 		str	r0, [r3, #296]
 140 00a4 12E0     		b	.L8
 141              	.L9:
  75:Generated_Source\PSoC6\pdl\drivers\peripheral\tcpwm/cy_tcpwm_pwm.c ****             }
  76:Generated_Source\PSoC6\pdl\drivers\peripheral\tcpwm/cy_tcpwm_pwm.c ****             else if (CY_TCPWM_PWM_RIGHT_ALIGN == config->pwmAlignment)
 142              		.loc 1 76 0
 143 00a6 012B     		cmp	r3, #1
ARM GAS  C:\Users\subra\AppData\Local\Temp\ccj7450b.s 			page 5


 144 00a8 08D1     		bne	.L10
  77:Generated_Source\PSoC6\pdl\drivers\peripheral\tcpwm/cy_tcpwm_pwm.c ****             {
  78:Generated_Source\PSoC6\pdl\drivers\peripheral\tcpwm/cy_tcpwm_pwm.c ****                 TCPWM_CNT_COUNTER(base, cntNum) = config->period0;
 145              		.loc 1 78 0
 146 00aa 5069     		ldr	r0, [r2, #20]
 147 00ac 04EB8113 		add	r3, r4, r1, lsl #6
 148 00b0 C3F80801 		str	r0, [r3, #264]
  79:Generated_Source\PSoC6\pdl\drivers\peripheral\tcpwm/cy_tcpwm_pwm.c ****                 TCPWM_CNT_TR_CTRL2(base, cntNum) = CY_TCPWM_PWM_MODE_RIGHT;
 149              		.loc 1 79 0
 150 00b4 1C20     		movs	r0, #28
 151 00b6 C3F82801 		str	r0, [r3, #296]
 152 00ba 07E0     		b	.L8
 153              	.L10:
  80:Generated_Source\PSoC6\pdl\drivers\peripheral\tcpwm/cy_tcpwm_pwm.c ****             }
  81:Generated_Source\PSoC6\pdl\drivers\peripheral\tcpwm/cy_tcpwm_pwm.c ****             else
  82:Generated_Source\PSoC6\pdl\drivers\peripheral\tcpwm/cy_tcpwm_pwm.c ****             {
  83:Generated_Source\PSoC6\pdl\drivers\peripheral\tcpwm/cy_tcpwm_pwm.c ****                 TCPWM_CNT_COUNTER(base, cntNum) = CY_TCPWM_CNT_UP_DOWN_INIT_VAL;
 154              		.loc 1 83 0
 155 00bc 04EB8113 		add	r3, r4, r1, lsl #6
 156 00c0 0120     		movs	r0, #1
 157 00c2 C3F80801 		str	r0, [r3, #264]
  84:Generated_Source\PSoC6\pdl\drivers\peripheral\tcpwm/cy_tcpwm_pwm.c ****                 TCPWM_CNT_TR_CTRL2(base, cntNum) = CY_TCPWM_PWM_MODE_CNTR_OR_ASYMM;
 158              		.loc 1 84 0
 159 00c6 1220     		movs	r0, #18
 160 00c8 C3F82801 		str	r0, [r3, #296]
 161              	.L8:
  85:Generated_Source\PSoC6\pdl\drivers\peripheral\tcpwm/cy_tcpwm_pwm.c ****             }
  86:Generated_Source\PSoC6\pdl\drivers\peripheral\tcpwm/cy_tcpwm_pwm.c ****         }
  87:Generated_Source\PSoC6\pdl\drivers\peripheral\tcpwm/cy_tcpwm_pwm.c **** 
  88:Generated_Source\PSoC6\pdl\drivers\peripheral\tcpwm/cy_tcpwm_pwm.c ****         TCPWM_CNT_CC(base, cntNum) = config->compare0;
 162              		.loc 1 88 0
 163 00cc 106A     		ldr	r0, [r2, #32]
 164 00ce 04EB8113 		add	r3, r4, r1, lsl #6
 165 00d2 C3F80C01 		str	r0, [r3, #268]
  89:Generated_Source\PSoC6\pdl\drivers\peripheral\tcpwm/cy_tcpwm_pwm.c ****         TCPWM_CNT_CC_BUFF(base, cntNum) = config->compare1;
 166              		.loc 1 89 0
 167 00d6 506A     		ldr	r0, [r2, #36]
 168 00d8 C3F81001 		str	r0, [r3, #272]
  90:Generated_Source\PSoC6\pdl\drivers\peripheral\tcpwm/cy_tcpwm_pwm.c ****         TCPWM_CNT_PERIOD(base, cntNum) = config->period0;
 169              		.loc 1 90 0
 170 00dc 5069     		ldr	r0, [r2, #20]
 171 00de C3F81401 		str	r0, [r3, #276]
  91:Generated_Source\PSoC6\pdl\drivers\peripheral\tcpwm/cy_tcpwm_pwm.c ****         TCPWM_CNT_PERIOD_BUFF(base, cntNum) = config->period1;
 172              		.loc 1 91 0
 173 00e2 9069     		ldr	r0, [r2, #24]
 174 00e4 C3F81801 		str	r0, [r3, #280]
  92:Generated_Source\PSoC6\pdl\drivers\peripheral\tcpwm/cy_tcpwm_pwm.c **** 
  93:Generated_Source\PSoC6\pdl\drivers\peripheral\tcpwm/cy_tcpwm_pwm.c ****         if (CY_TCPWM_INPUT_CREATOR != config->countInput)
 175              		.loc 1 93 0
 176 00e8 136E     		ldr	r3, [r2, #96]
 177 00ea B3F1FF3F 		cmp	r3, #-1
 178 00ee 17D0     		beq	.L11
  94:Generated_Source\PSoC6\pdl\drivers\peripheral\tcpwm/cy_tcpwm_pwm.c ****         {
  95:Generated_Source\PSoC6\pdl\drivers\peripheral\tcpwm/cy_tcpwm_pwm.c ****             TCPWM_CNT_TR_CTRL0(base, cntNum) = (_VAL2FLD(TCPWM_CNT_TR_CTRL0_CAPTURE_SEL, config->sw
 179              		.loc 1 95 0
 180 00f0 106C     		ldr	r0, [r2, #64]
 181 00f2 00F00F00 		and	r0, r0, #15
ARM GAS  C:\Users\subra\AppData\Local\Temp\ccj7450b.s 			page 6


  96:Generated_Source\PSoC6\pdl\drivers\peripheral\tcpwm/cy_tcpwm_pwm.c ****                                               _VAL2FLD(TCPWM_CNT_TR_CTRL0_RELOAD_SEL, config->reloa
 182              		.loc 1 96 0
 183 00f6 966C     		ldr	r6, [r2, #72]
 184 00f8 3602     		lsls	r6, r6, #8
 185 00fa 06F47066 		and	r6, r6, #3840
  95:Generated_Source\PSoC6\pdl\drivers\peripheral\tcpwm/cy_tcpwm_pwm.c ****                                               _VAL2FLD(TCPWM_CNT_TR_CTRL0_RELOAD_SEL, config->reloa
 186              		.loc 1 95 0
 187 00fe 3043     		orrs	r0, r0, r6
  97:Generated_Source\PSoC6\pdl\drivers\peripheral\tcpwm/cy_tcpwm_pwm.c ****                                               _VAL2FLD(TCPWM_CNT_TR_CTRL0_START_SEL, config->startI
 188              		.loc 1 97 0
 189 0100 156D     		ldr	r5, [r2, #80]
 190 0102 2D04     		lsls	r5, r5, #16
 191 0104 05F47025 		and	r5, r5, #983040
  96:Generated_Source\PSoC6\pdl\drivers\peripheral\tcpwm/cy_tcpwm_pwm.c ****                                               _VAL2FLD(TCPWM_CNT_TR_CTRL0_RELOAD_SEL, config->reloa
 192              		.loc 1 96 0
 193 0108 0543     		orrs	r5, r5, r0
  98:Generated_Source\PSoC6\pdl\drivers\peripheral\tcpwm/cy_tcpwm_pwm.c ****                                               _VAL2FLD(TCPWM_CNT_TR_CTRL0_STOP_SEL, config->killInp
 194              		.loc 1 98 0
 195 010a 906D     		ldr	r0, [r2, #88]
 196 010c 0003     		lsls	r0, r0, #12
 197 010e 80B2     		uxth	r0, r0
  97:Generated_Source\PSoC6\pdl\drivers\peripheral\tcpwm/cy_tcpwm_pwm.c ****                                               _VAL2FLD(TCPWM_CNT_TR_CTRL0_START_SEL, config->startI
 198              		.loc 1 97 0
 199 0110 2843     		orrs	r0, r0, r5
  99:Generated_Source\PSoC6\pdl\drivers\peripheral\tcpwm/cy_tcpwm_pwm.c ****                                               _VAL2FLD(TCPWM_CNT_TR_CTRL0_COUNT_SEL, config->countI
 200              		.loc 1 99 0
 201 0112 1B01     		lsls	r3, r3, #4
 202 0114 DBB2     		uxtb	r3, r3
  98:Generated_Source\PSoC6\pdl\drivers\peripheral\tcpwm/cy_tcpwm_pwm.c ****                                               _VAL2FLD(TCPWM_CNT_TR_CTRL0_STOP_SEL, config->killInp
 203              		.loc 1 98 0
 204 0116 0343     		orrs	r3, r3, r0
  95:Generated_Source\PSoC6\pdl\drivers\peripheral\tcpwm/cy_tcpwm_pwm.c ****                                               _VAL2FLD(TCPWM_CNT_TR_CTRL0_RELOAD_SEL, config->reloa
 205              		.loc 1 95 0
 206 0118 04EB8110 		add	r0, r4, r1, lsl #6
 207 011c C0F82031 		str	r3, [r0, #288]
 208              	.L11:
 100:Generated_Source\PSoC6\pdl\drivers\peripheral\tcpwm/cy_tcpwm_pwm.c ****         }
 101:Generated_Source\PSoC6\pdl\drivers\peripheral\tcpwm/cy_tcpwm_pwm.c ****         
 102:Generated_Source\PSoC6\pdl\drivers\peripheral\tcpwm/cy_tcpwm_pwm.c ****         TCPWM_CNT_TR_CTRL1(base, cntNum) = (_VAL2FLD(TCPWM_CNT_TR_CTRL1_CAPTURE_EDGE, config->swapI
 209              		.loc 1 102 0
 210 0120 D36B     		ldr	r3, [r2, #60]
 211 0122 03F00303 		and	r3, r3, #3
 103:Generated_Source\PSoC6\pdl\drivers\peripheral\tcpwm/cy_tcpwm_pwm.c ****                                           _VAL2FLD(TCPWM_CNT_TR_CTRL1_RELOAD_EDGE, config->reloadIn
 212              		.loc 1 103 0
 213 0126 566C     		ldr	r6, [r2, #68]
 214 0128 3601     		lsls	r6, r6, #4
 215 012a 06F03006 		and	r6, r6, #48
 102:Generated_Source\PSoC6\pdl\drivers\peripheral\tcpwm/cy_tcpwm_pwm.c ****                                           _VAL2FLD(TCPWM_CNT_TR_CTRL1_RELOAD_EDGE, config->reloadIn
 216              		.loc 1 102 0
 217 012e 3343     		orrs	r3, r3, r6
 104:Generated_Source\PSoC6\pdl\drivers\peripheral\tcpwm/cy_tcpwm_pwm.c ****                                           _VAL2FLD(TCPWM_CNT_TR_CTRL1_START_EDGE, config->startInpu
 218              		.loc 1 104 0
 219 0130 D56C     		ldr	r5, [r2, #76]
 220 0132 2D02     		lsls	r5, r5, #8
 221 0134 05F44075 		and	r5, r5, #768
 103:Generated_Source\PSoC6\pdl\drivers\peripheral\tcpwm/cy_tcpwm_pwm.c ****                                           _VAL2FLD(TCPWM_CNT_TR_CTRL1_RELOAD_EDGE, config->reloadIn
 222              		.loc 1 103 0
ARM GAS  C:\Users\subra\AppData\Local\Temp\ccj7450b.s 			page 7


 223 0138 2B43     		orrs	r3, r3, r5
 105:Generated_Source\PSoC6\pdl\drivers\peripheral\tcpwm/cy_tcpwm_pwm.c ****                                           _VAL2FLD(TCPWM_CNT_TR_CTRL1_STOP_EDGE, config->killInputM
 224              		.loc 1 105 0
 225 013a 506D     		ldr	r0, [r2, #84]
 226 013c 8001     		lsls	r0, r0, #6
 227 013e C0B2     		uxtb	r0, r0
 104:Generated_Source\PSoC6\pdl\drivers\peripheral\tcpwm/cy_tcpwm_pwm.c ****                                           _VAL2FLD(TCPWM_CNT_TR_CTRL1_START_EDGE, config->startInpu
 228              		.loc 1 104 0
 229 0140 1843     		orrs	r0, r0, r3
 106:Generated_Source\PSoC6\pdl\drivers\peripheral\tcpwm/cy_tcpwm_pwm.c ****                                           _VAL2FLD(TCPWM_CNT_TR_CTRL1_COUNT_EDGE, config->countInpu
 230              		.loc 1 106 0
 231 0142 D36D     		ldr	r3, [r2, #92]
 232 0144 9B00     		lsls	r3, r3, #2
 233 0146 03F00C03 		and	r3, r3, #12
 105:Generated_Source\PSoC6\pdl\drivers\peripheral\tcpwm/cy_tcpwm_pwm.c ****                                           _VAL2FLD(TCPWM_CNT_TR_CTRL1_STOP_EDGE, config->killInputM
 234              		.loc 1 105 0
 235 014a 0343     		orrs	r3, r3, r0
 102:Generated_Source\PSoC6\pdl\drivers\peripheral\tcpwm/cy_tcpwm_pwm.c ****                                           _VAL2FLD(TCPWM_CNT_TR_CTRL1_RELOAD_EDGE, config->reloadIn
 236              		.loc 1 102 0
 237 014c 04EB8114 		add	r4, r4, r1, lsl #6
 238              	.LVL2:
 239 0150 C4F82431 		str	r3, [r4, #292]
 107:Generated_Source\PSoC6\pdl\drivers\peripheral\tcpwm/cy_tcpwm_pwm.c **** 
 108:Generated_Source\PSoC6\pdl\drivers\peripheral\tcpwm/cy_tcpwm_pwm.c ****         TCPWM_CNT_INTR_MASK(base, cntNum) = config->interruptSources;
 240              		.loc 1 108 0
 241 0154 D36A     		ldr	r3, [r2, #44]
 242 0156 C4F83831 		str	r3, [r4, #312]
 243              	.LVL3:
 109:Generated_Source\PSoC6\pdl\drivers\peripheral\tcpwm/cy_tcpwm_pwm.c **** 
 110:Generated_Source\PSoC6\pdl\drivers\peripheral\tcpwm/cy_tcpwm_pwm.c ****         status = CY_TCPWM_SUCCESS;
 244              		.loc 1 110 0
 245 015a 0020     		movs	r0, #0
 246 015c 02E0     		b	.L2
 247              	.LVL4:
 248              	.L12:
 249              		.cfi_def_cfa_offset 0
 250              		.cfi_restore 4
 251              		.cfi_restore 5
 252              		.cfi_restore 6
  49:Generated_Source\PSoC6\pdl\drivers\peripheral\tcpwm/cy_tcpwm_pwm.c **** 
 253              		.loc 1 49 0
 254 015e 0248     		ldr	r0, .L17
 255              	.LVL5:
 111:Generated_Source\PSoC6\pdl\drivers\peripheral\tcpwm/cy_tcpwm_pwm.c ****     }
 112:Generated_Source\PSoC6\pdl\drivers\peripheral\tcpwm/cy_tcpwm_pwm.c **** 
 113:Generated_Source\PSoC6\pdl\drivers\peripheral\tcpwm/cy_tcpwm_pwm.c ****     return(status);
 114:Generated_Source\PSoC6\pdl\drivers\peripheral\tcpwm/cy_tcpwm_pwm.c **** }
 256              		.loc 1 114 0
 257 0160 7047     		bx	lr
 258              	.LVL6:
 259              	.L13:
 260              		.cfi_def_cfa_offset 12
 261              		.cfi_offset 4, -12
 262              		.cfi_offset 5, -8
 263              		.cfi_offset 6, -4
  49:Generated_Source\PSoC6\pdl\drivers\peripheral\tcpwm/cy_tcpwm_pwm.c **** 
 264              		.loc 1 49 0
ARM GAS  C:\Users\subra\AppData\Local\Temp\ccj7450b.s 			page 8


 265 0162 0148     		ldr	r0, .L17
 266              	.LVL7:
 267              	.L2:
 268              		.loc 1 114 0
 269 0164 70BC     		pop	{r4, r5, r6}
 270              		.cfi_restore 6
 271              		.cfi_restore 5
 272              		.cfi_restore 4
 273              		.cfi_def_cfa_offset 0
 274 0166 7047     		bx	lr
 275              	.L18:
 276              		.align	2
 277              	.L17:
 278 0168 0100B600 		.word	11927553
 279              		.cfi_endproc
 280              	.LFE159:
 281              		.size	Cy_TCPWM_PWM_Init, .-Cy_TCPWM_PWM_Init
 282              		.section	.text.Cy_TCPWM_PWM_DeInit,"ax",%progbits
 283              		.align	2
 284              		.global	Cy_TCPWM_PWM_DeInit
 285              		.thumb
 286              		.thumb_func
 287              		.type	Cy_TCPWM_PWM_DeInit, %function
 288              	Cy_TCPWM_PWM_DeInit:
 289              	.LFB160:
 115:Generated_Source\PSoC6\pdl\drivers\peripheral\tcpwm/cy_tcpwm_pwm.c **** 
 116:Generated_Source\PSoC6\pdl\drivers\peripheral\tcpwm/cy_tcpwm_pwm.c **** /*******************************************************************************
 117:Generated_Source\PSoC6\pdl\drivers\peripheral\tcpwm/cy_tcpwm_pwm.c **** * Function Name: Cy_TCPWM_PWM_DeInit
 118:Generated_Source\PSoC6\pdl\drivers\peripheral\tcpwm/cy_tcpwm_pwm.c **** ****************************************************************************//**
 119:Generated_Source\PSoC6\pdl\drivers\peripheral\tcpwm/cy_tcpwm_pwm.c **** *
 120:Generated_Source\PSoC6\pdl\drivers\peripheral\tcpwm/cy_tcpwm_pwm.c **** * De-initializes the counter in the TCPWM block, returns register values to 
 121:Generated_Source\PSoC6\pdl\drivers\peripheral\tcpwm/cy_tcpwm_pwm.c **** * default.
 122:Generated_Source\PSoC6\pdl\drivers\peripheral\tcpwm/cy_tcpwm_pwm.c **** *
 123:Generated_Source\PSoC6\pdl\drivers\peripheral\tcpwm/cy_tcpwm_pwm.c **** * \param base
 124:Generated_Source\PSoC6\pdl\drivers\peripheral\tcpwm/cy_tcpwm_pwm.c **** * The pointer to a TCPWM instance.
 125:Generated_Source\PSoC6\pdl\drivers\peripheral\tcpwm/cy_tcpwm_pwm.c **** *
 126:Generated_Source\PSoC6\pdl\drivers\peripheral\tcpwm/cy_tcpwm_pwm.c **** * \param cntNum
 127:Generated_Source\PSoC6\pdl\drivers\peripheral\tcpwm/cy_tcpwm_pwm.c **** * The Counter instance number in the selected TCPWM.
 128:Generated_Source\PSoC6\pdl\drivers\peripheral\tcpwm/cy_tcpwm_pwm.c **** *
 129:Generated_Source\PSoC6\pdl\drivers\peripheral\tcpwm/cy_tcpwm_pwm.c **** * \param config
 130:Generated_Source\PSoC6\pdl\drivers\peripheral\tcpwm/cy_tcpwm_pwm.c **** * The pointer to a configuration structure. See \ref cy_stc_tcpwm_pwm_config_t.
 131:Generated_Source\PSoC6\pdl\drivers\peripheral\tcpwm/cy_tcpwm_pwm.c **** *
 132:Generated_Source\PSoC6\pdl\drivers\peripheral\tcpwm/cy_tcpwm_pwm.c **** * \funcusage
 133:Generated_Source\PSoC6\pdl\drivers\peripheral\tcpwm/cy_tcpwm_pwm.c **** * \snippet tcpwm\1.10\pwm\snippet\main.c snippet_Cy_TCPWM_PWM_DeInit
 134:Generated_Source\PSoC6\pdl\drivers\peripheral\tcpwm/cy_tcpwm_pwm.c **** *
 135:Generated_Source\PSoC6\pdl\drivers\peripheral\tcpwm/cy_tcpwm_pwm.c **** *******************************************************************************/
 136:Generated_Source\PSoC6\pdl\drivers\peripheral\tcpwm/cy_tcpwm_pwm.c **** void Cy_TCPWM_PWM_DeInit(TCPWM_Type *base, uint32_t cntNum, cy_stc_tcpwm_pwm_config_t const *config
 137:Generated_Source\PSoC6\pdl\drivers\peripheral\tcpwm/cy_tcpwm_pwm.c **** {
 290              		.loc 1 137 0
 291              		.cfi_startproc
 292              		@ args = 0, pretend = 0, frame = 0
 293              		@ frame_needed = 0, uses_anonymous_args = 0
 294              		@ link register save eliminated.
 295              	.LVL8:
 296 0000 30B4     		push	{r4, r5}
 297              		.cfi_def_cfa_offset 8
 298              		.cfi_offset 4, -8
ARM GAS  C:\Users\subra\AppData\Local\Temp\ccj7450b.s 			page 9


 299              		.cfi_offset 5, -4
 138:Generated_Source\PSoC6\pdl\drivers\peripheral\tcpwm/cy_tcpwm_pwm.c ****     TCPWM_CNT_CTRL(base, cntNum) = CY_TCPWM_CNT_CTRL_DEFAULT;
 300              		.loc 1 138 0
 301 0002 0B1D     		adds	r3, r1, #4
 302 0004 9B01     		lsls	r3, r3, #6
 303 0006 0024     		movs	r4, #0
 304 0008 C450     		str	r4, [r0, r3]
 139:Generated_Source\PSoC6\pdl\drivers\peripheral\tcpwm/cy_tcpwm_pwm.c ****     TCPWM_CNT_COUNTER(base, cntNum) = CY_TCPWM_CNT_COUNTER_DEFAULT;
 305              		.loc 1 139 0
 306 000a 00EB8113 		add	r3, r0, r1, lsl #6
 307 000e C3F80841 		str	r4, [r3, #264]
 140:Generated_Source\PSoC6\pdl\drivers\peripheral\tcpwm/cy_tcpwm_pwm.c ****     TCPWM_CNT_CC(base, cntNum) = CY_TCPWM_CNT_CC_DEFAULT;
 308              		.loc 1 140 0
 309 0012 4FF0FF35 		mov	r5, #-1
 310 0016 C3F80C51 		str	r5, [r3, #268]
 141:Generated_Source\PSoC6\pdl\drivers\peripheral\tcpwm/cy_tcpwm_pwm.c ****     TCPWM_CNT_CC_BUFF(base, cntNum) = CY_TCPWM_CNT_CC_BUFF_DEFAULT;
 311              		.loc 1 141 0
 312 001a C3F81051 		str	r5, [r3, #272]
 142:Generated_Source\PSoC6\pdl\drivers\peripheral\tcpwm/cy_tcpwm_pwm.c ****     TCPWM_CNT_PERIOD(base, cntNum) = CY_TCPWM_CNT_PERIOD_DEFAULT;
 313              		.loc 1 142 0
 314 001e C3F81451 		str	r5, [r3, #276]
 143:Generated_Source\PSoC6\pdl\drivers\peripheral\tcpwm/cy_tcpwm_pwm.c ****     TCPWM_CNT_PERIOD_BUFF(base, cntNum) = CY_TCPWM_CNT_PERIOD_BUFF_DEFAULT;
 315              		.loc 1 143 0
 316 0022 C3F81851 		str	r5, [r3, #280]
 144:Generated_Source\PSoC6\pdl\drivers\peripheral\tcpwm/cy_tcpwm_pwm.c ****     TCPWM_CNT_TR_CTRL1(base, cntNum) = CY_TCPWM_CNT_TR_CTRL1_DEFAULT;
 317              		.loc 1 144 0
 318 0026 40F2FF35 		movw	r5, #1023
 319 002a C3F82451 		str	r5, [r3, #292]
 145:Generated_Source\PSoC6\pdl\drivers\peripheral\tcpwm/cy_tcpwm_pwm.c ****     TCPWM_CNT_TR_CTRL2(base, cntNum) = CY_TCPWM_CNT_TR_CTRL2_DEFAULT;
 320              		.loc 1 145 0
 321 002e 3F25     		movs	r5, #63
 322 0030 C3F82851 		str	r5, [r3, #296]
 146:Generated_Source\PSoC6\pdl\drivers\peripheral\tcpwm/cy_tcpwm_pwm.c ****     TCPWM_CNT_INTR(base, cntNum) = CY_TCPWM_CNT_INTR_DEFAULT;
 323              		.loc 1 146 0
 324 0034 0325     		movs	r5, #3
 325 0036 C3F83051 		str	r5, [r3, #304]
 147:Generated_Source\PSoC6\pdl\drivers\peripheral\tcpwm/cy_tcpwm_pwm.c ****     TCPWM_CNT_INTR_SET(base, cntNum) = CY_TCPWM_CNT_INTR_SET_DEFAULT;
 326              		.loc 1 147 0
 327 003a C3F83441 		str	r4, [r3, #308]
 148:Generated_Source\PSoC6\pdl\drivers\peripheral\tcpwm/cy_tcpwm_pwm.c ****     TCPWM_CNT_INTR_MASK(base, cntNum) = CY_TCPWM_CNT_INTR_MASK_DEFAULT;
 328              		.loc 1 148 0
 329 003e C3F83841 		str	r4, [r3, #312]
 149:Generated_Source\PSoC6\pdl\drivers\peripheral\tcpwm/cy_tcpwm_pwm.c **** 
 150:Generated_Source\PSoC6\pdl\drivers\peripheral\tcpwm/cy_tcpwm_pwm.c ****     if (CY_TCPWM_INPUT_CREATOR != config->countInput)
 330              		.loc 1 150 0
 331 0042 136E     		ldr	r3, [r2, #96]
 332 0044 B3F1FF3F 		cmp	r3, #-1
 333 0048 04D0     		beq	.L19
 151:Generated_Source\PSoC6\pdl\drivers\peripheral\tcpwm/cy_tcpwm_pwm.c ****     {    
 152:Generated_Source\PSoC6\pdl\drivers\peripheral\tcpwm/cy_tcpwm_pwm.c ****         TCPWM_CNT_TR_CTRL0(base, cntNum) = CY_TCPWM_CNT_TR_CTRL0_DEFAULT;
 334              		.loc 1 152 0
 335 004a 00EB8110 		add	r0, r0, r1, lsl #6
 336              	.LVL9:
 337 004e 1023     		movs	r3, #16
 338 0050 C0F82031 		str	r3, [r0, #288]
 339              	.L19:
 153:Generated_Source\PSoC6\pdl\drivers\peripheral\tcpwm/cy_tcpwm_pwm.c ****     }
ARM GAS  C:\Users\subra\AppData\Local\Temp\ccj7450b.s 			page 10


 154:Generated_Source\PSoC6\pdl\drivers\peripheral\tcpwm/cy_tcpwm_pwm.c **** }
 340              		.loc 1 154 0
 341 0054 30BC     		pop	{r4, r5}
 342              		.cfi_restore 5
 343              		.cfi_restore 4
 344              		.cfi_def_cfa_offset 0
 345 0056 7047     		bx	lr
 346              		.cfi_endproc
 347              	.LFE160:
 348              		.size	Cy_TCPWM_PWM_DeInit, .-Cy_TCPWM_PWM_DeInit
 349              		.text
 350              	.Letext0:
 351              		.file 2 "c:\\program files (x86)\\cypress\\psoc creator\\4.4\\psoc creator\\import\\gnu\\arm\\5.4.
 352              		.file 3 "c:\\program files (x86)\\cypress\\psoc creator\\4.4\\psoc creator\\import\\gnu\\arm\\5.4.
 353              		.file 4 "Generated_Source\\PSoC6\\pdl\\devices/psoc6/include/ip/cyip_tcpwm.h"
 354              		.file 5 "Generated_Source\\PSoC6\\pdl\\devices/psoc6/include/psoc6_01_config.h"
 355              		.file 6 "Generated_Source\\PSoC6\\pdl\\drivers\\peripheral\\tcpwm\\cy_tcpwm.h"
 356              		.file 7 "Generated_Source\\PSoC6\\pdl\\drivers\\peripheral\\tcpwm\\cy_tcpwm_pwm.h"
 357              		.file 8 "Generated_Source\\PSoC6\\pdl\\cmsis/include/core_cm4.h"