ARM GAS  C:\Users\subra\AppData\Local\Temp\ccaog18v.s 			page 1


   1              		.syntax unified
   2              		.cpu cortex-m4
   3              		.eabi_attribute 27, 1
   4              		.fpu fpv4-sp-d16
   5              		.eabi_attribute 20, 1
   6              		.eabi_attribute 21, 1
   7              		.eabi_attribute 23, 3
   8              		.eabi_attribute 24, 1
   9              		.eabi_attribute 25, 1
  10              		.eabi_attribute 26, 1
  11              		.eabi_attribute 30, 1
  12              		.eabi_attribute 34, 1
  13              		.eabi_attribute 18, 4
  14              		.thumb
  15              		.syntax unified
  16              		.file	"heap_4.c"
  17              		.text
  18              	.Ltext0:
  19              		.cfi_sections	.debug_frame
  20              		.section	.text.prvHeapInit,"ax",%progbits
  21              		.align	2
  22              		.thumb
  23              		.thumb_func
  24              		.type	prvHeapInit, %function
  25              	prvHeapInit:
  26              	.LFB141:
  27              		.file 1 "Generated_Source\\PSoC6\\pdl\\rtos\\FreeRTOS\\10.0.1\\Source\\portable\\MemMang\\heap_4.c
   1:Generated_Source\PSoC6\pdl\rtos\FreeRTOS\10.0.1\Source\portable\MemMang/heap_4.c **** /*
   2:Generated_Source\PSoC6\pdl\rtos\FreeRTOS\10.0.1\Source\portable\MemMang/heap_4.c ****  * FreeRTOS Kernel V10.0.1
   3:Generated_Source\PSoC6\pdl\rtos\FreeRTOS\10.0.1\Source\portable\MemMang/heap_4.c ****  * Copyright (C) 2017 Amazon.com, Inc. or its affiliates.  All Rights Reserved.
   4:Generated_Source\PSoC6\pdl\rtos\FreeRTOS\10.0.1\Source\portable\MemMang/heap_4.c ****  *
   5:Generated_Source\PSoC6\pdl\rtos\FreeRTOS\10.0.1\Source\portable\MemMang/heap_4.c ****  * Permission is hereby granted, free of charge, to any person obtaining a copy of
   6:Generated_Source\PSoC6\pdl\rtos\FreeRTOS\10.0.1\Source\portable\MemMang/heap_4.c ****  * this software and associated documentation files (the "Software"), to deal in
   7:Generated_Source\PSoC6\pdl\rtos\FreeRTOS\10.0.1\Source\portable\MemMang/heap_4.c ****  * the Software without restriction, including without limitation the rights to
   8:Generated_Source\PSoC6\pdl\rtos\FreeRTOS\10.0.1\Source\portable\MemMang/heap_4.c ****  * use, copy, modify, merge, publish, distribute, sublicense, and/or sell copies of
   9:Generated_Source\PSoC6\pdl\rtos\FreeRTOS\10.0.1\Source\portable\MemMang/heap_4.c ****  * the Software, and to permit persons to whom the Software is furnished to do so,
  10:Generated_Source\PSoC6\pdl\rtos\FreeRTOS\10.0.1\Source\portable\MemMang/heap_4.c ****  * subject to the following conditions:
  11:Generated_Source\PSoC6\pdl\rtos\FreeRTOS\10.0.1\Source\portable\MemMang/heap_4.c ****  *
  12:Generated_Source\PSoC6\pdl\rtos\FreeRTOS\10.0.1\Source\portable\MemMang/heap_4.c ****  * The above copyright notice and this permission notice shall be included in all
  13:Generated_Source\PSoC6\pdl\rtos\FreeRTOS\10.0.1\Source\portable\MemMang/heap_4.c ****  * copies or substantial portions of the Software.
  14:Generated_Source\PSoC6\pdl\rtos\FreeRTOS\10.0.1\Source\portable\MemMang/heap_4.c ****  *
  15:Generated_Source\PSoC6\pdl\rtos\FreeRTOS\10.0.1\Source\portable\MemMang/heap_4.c ****  * THE SOFTWARE IS PROVIDED "AS IS", WITHOUT WARRANTY OF ANY KIND, EXPRESS OR
  16:Generated_Source\PSoC6\pdl\rtos\FreeRTOS\10.0.1\Source\portable\MemMang/heap_4.c ****  * IMPLIED, INCLUDING BUT NOT LIMITED TO THE WARRANTIES OF MERCHANTABILITY, FITNESS
  17:Generated_Source\PSoC6\pdl\rtos\FreeRTOS\10.0.1\Source\portable\MemMang/heap_4.c ****  * FOR A PARTICULAR PURPOSE AND NONINFRINGEMENT. IN NO EVENT SHALL THE AUTHORS OR
  18:Generated_Source\PSoC6\pdl\rtos\FreeRTOS\10.0.1\Source\portable\MemMang/heap_4.c ****  * COPYRIGHT HOLDERS BE LIABLE FOR ANY CLAIM, DAMAGES OR OTHER LIABILITY, WHETHER
  19:Generated_Source\PSoC6\pdl\rtos\FreeRTOS\10.0.1\Source\portable\MemMang/heap_4.c ****  * IN AN ACTION OF CONTRACT, TORT OR OTHERWISE, ARISING FROM, OUT OF OR IN
  20:Generated_Source\PSoC6\pdl\rtos\FreeRTOS\10.0.1\Source\portable\MemMang/heap_4.c ****  * CONNECTION WITH THE SOFTWARE OR THE USE OR OTHER DEALINGS IN THE SOFTWARE.
  21:Generated_Source\PSoC6\pdl\rtos\FreeRTOS\10.0.1\Source\portable\MemMang/heap_4.c ****  *
  22:Generated_Source\PSoC6\pdl\rtos\FreeRTOS\10.0.1\Source\portable\MemMang/heap_4.c ****  * http://www.FreeRTOS.org
  23:Generated_Source\PSoC6\pdl\rtos\FreeRTOS\10.0.1\Source\portable\MemMang/heap_4.c ****  * http://aws.amazon.com/freertos
  24:Generated_Source\PSoC6\pdl\rtos\FreeRTOS\10.0.1\Source\portable\MemMang/heap_4.c ****  *
  25:Generated_Source\PSoC6\pdl\rtos\FreeRTOS\10.0.1\Source\portable\MemMang/heap_4.c ****  * 1 tab == 4 spaces!
  26:Generated_Source\PSoC6\pdl\rtos\FreeRTOS\10.0.1\Source\portable\MemMang/heap_4.c ****  */
  27:Generated_Source\PSoC6\pdl\rtos\FreeRTOS\10.0.1\Source\portable\MemMang/heap_4.c **** 
  28:Generated_Source\PSoC6\pdl\rtos\FreeRTOS\10.0.1\Source\portable\MemMang/heap_4.c **** /*
  29:Generated_Source\PSoC6\pdl\rtos\FreeRTOS\10.0.1\Source\portable\MemMang/heap_4.c ****  * A sample implementation of pvPortMalloc() and vPortFree() that combines
  30:Generated_Source\PSoC6\pdl\rtos\FreeRTOS\10.0.1\Source\portable\MemMang/heap_4.c ****  * (coalescences) adjacent memory blocks as they are freed, and in so doing
ARM GAS  C:\Users\subra\AppData\Local\Temp\ccaog18v.s 			page 2


  31:Generated_Source\PSoC6\pdl\rtos\FreeRTOS\10.0.1\Source\portable\MemMang/heap_4.c ****  * limits memory fragmentation.
  32:Generated_Source\PSoC6\pdl\rtos\FreeRTOS\10.0.1\Source\portable\MemMang/heap_4.c ****  *
  33:Generated_Source\PSoC6\pdl\rtos\FreeRTOS\10.0.1\Source\portable\MemMang/heap_4.c ****  * See heap_1.c, heap_2.c and heap_3.c for alternative implementations, and the
  34:Generated_Source\PSoC6\pdl\rtos\FreeRTOS\10.0.1\Source\portable\MemMang/heap_4.c ****  * memory management pages of http://www.FreeRTOS.org for more information.
  35:Generated_Source\PSoC6\pdl\rtos\FreeRTOS\10.0.1\Source\portable\MemMang/heap_4.c ****  */
  36:Generated_Source\PSoC6\pdl\rtos\FreeRTOS\10.0.1\Source\portable\MemMang/heap_4.c **** #include <stdlib.h>
  37:Generated_Source\PSoC6\pdl\rtos\FreeRTOS\10.0.1\Source\portable\MemMang/heap_4.c **** 
  38:Generated_Source\PSoC6\pdl\rtos\FreeRTOS\10.0.1\Source\portable\MemMang/heap_4.c **** /* Defining MPU_WRAPPERS_INCLUDED_FROM_API_FILE prevents task.h from redefining
  39:Generated_Source\PSoC6\pdl\rtos\FreeRTOS\10.0.1\Source\portable\MemMang/heap_4.c **** all the API functions to use the MPU wrappers.  That should only be done when
  40:Generated_Source\PSoC6\pdl\rtos\FreeRTOS\10.0.1\Source\portable\MemMang/heap_4.c **** task.h is included from an application file. */
  41:Generated_Source\PSoC6\pdl\rtos\FreeRTOS\10.0.1\Source\portable\MemMang/heap_4.c **** #define MPU_WRAPPERS_INCLUDED_FROM_API_FILE
  42:Generated_Source\PSoC6\pdl\rtos\FreeRTOS\10.0.1\Source\portable\MemMang/heap_4.c **** 
  43:Generated_Source\PSoC6\pdl\rtos\FreeRTOS\10.0.1\Source\portable\MemMang/heap_4.c **** #include "FreeRTOS.h"
  44:Generated_Source\PSoC6\pdl\rtos\FreeRTOS\10.0.1\Source\portable\MemMang/heap_4.c **** #include "task.h"
  45:Generated_Source\PSoC6\pdl\rtos\FreeRTOS\10.0.1\Source\portable\MemMang/heap_4.c **** 
  46:Generated_Source\PSoC6\pdl\rtos\FreeRTOS\10.0.1\Source\portable\MemMang/heap_4.c **** #undef MPU_WRAPPERS_INCLUDED_FROM_API_FILE
  47:Generated_Source\PSoC6\pdl\rtos\FreeRTOS\10.0.1\Source\portable\MemMang/heap_4.c **** 
  48:Generated_Source\PSoC6\pdl\rtos\FreeRTOS\10.0.1\Source\portable\MemMang/heap_4.c **** #if( configSUPPORT_DYNAMIC_ALLOCATION == 0 )
  49:Generated_Source\PSoC6\pdl\rtos\FreeRTOS\10.0.1\Source\portable\MemMang/heap_4.c **** 	#error This file must not be used if configSUPPORT_DYNAMIC_ALLOCATION is 0
  50:Generated_Source\PSoC6\pdl\rtos\FreeRTOS\10.0.1\Source\portable\MemMang/heap_4.c **** #endif
  51:Generated_Source\PSoC6\pdl\rtos\FreeRTOS\10.0.1\Source\portable\MemMang/heap_4.c **** 
  52:Generated_Source\PSoC6\pdl\rtos\FreeRTOS\10.0.1\Source\portable\MemMang/heap_4.c **** /* Block sizes must not get too small. */
  53:Generated_Source\PSoC6\pdl\rtos\FreeRTOS\10.0.1\Source\portable\MemMang/heap_4.c **** #define heapMINIMUM_BLOCK_SIZE	( ( size_t ) ( xHeapStructSize << 1 ) )
  54:Generated_Source\PSoC6\pdl\rtos\FreeRTOS\10.0.1\Source\portable\MemMang/heap_4.c **** 
  55:Generated_Source\PSoC6\pdl\rtos\FreeRTOS\10.0.1\Source\portable\MemMang/heap_4.c **** /* Assumes 8bit bytes! */
  56:Generated_Source\PSoC6\pdl\rtos\FreeRTOS\10.0.1\Source\portable\MemMang/heap_4.c **** #define heapBITS_PER_BYTE		( ( size_t ) 8 )
  57:Generated_Source\PSoC6\pdl\rtos\FreeRTOS\10.0.1\Source\portable\MemMang/heap_4.c **** 
  58:Generated_Source\PSoC6\pdl\rtos\FreeRTOS\10.0.1\Source\portable\MemMang/heap_4.c **** /* Allocate the memory for the heap. */
  59:Generated_Source\PSoC6\pdl\rtos\FreeRTOS\10.0.1\Source\portable\MemMang/heap_4.c **** #if( configAPPLICATION_ALLOCATED_HEAP == 1 )
  60:Generated_Source\PSoC6\pdl\rtos\FreeRTOS\10.0.1\Source\portable\MemMang/heap_4.c **** 	/* The application writer has already defined the array used for the RTOS
  61:Generated_Source\PSoC6\pdl\rtos\FreeRTOS\10.0.1\Source\portable\MemMang/heap_4.c **** 	heap - probably so it can be placed in a special segment or address. */
  62:Generated_Source\PSoC6\pdl\rtos\FreeRTOS\10.0.1\Source\portable\MemMang/heap_4.c **** 	extern uint8_t ucHeap[ configTOTAL_HEAP_SIZE ];
  63:Generated_Source\PSoC6\pdl\rtos\FreeRTOS\10.0.1\Source\portable\MemMang/heap_4.c **** #else
  64:Generated_Source\PSoC6\pdl\rtos\FreeRTOS\10.0.1\Source\portable\MemMang/heap_4.c **** 	static uint8_t ucHeap[ configTOTAL_HEAP_SIZE ];
  65:Generated_Source\PSoC6\pdl\rtos\FreeRTOS\10.0.1\Source\portable\MemMang/heap_4.c **** #endif /* configAPPLICATION_ALLOCATED_HEAP */
  66:Generated_Source\PSoC6\pdl\rtos\FreeRTOS\10.0.1\Source\portable\MemMang/heap_4.c **** 
  67:Generated_Source\PSoC6\pdl\rtos\FreeRTOS\10.0.1\Source\portable\MemMang/heap_4.c **** /* Define the linked list structure.  This is used to link free blocks in order
  68:Generated_Source\PSoC6\pdl\rtos\FreeRTOS\10.0.1\Source\portable\MemMang/heap_4.c **** of their memory address. */
  69:Generated_Source\PSoC6\pdl\rtos\FreeRTOS\10.0.1\Source\portable\MemMang/heap_4.c **** typedef struct A_BLOCK_LINK
  70:Generated_Source\PSoC6\pdl\rtos\FreeRTOS\10.0.1\Source\portable\MemMang/heap_4.c **** {
  71:Generated_Source\PSoC6\pdl\rtos\FreeRTOS\10.0.1\Source\portable\MemMang/heap_4.c **** 	struct A_BLOCK_LINK *pxNextFreeBlock;	/*<< The next free block in the list. */
  72:Generated_Source\PSoC6\pdl\rtos\FreeRTOS\10.0.1\Source\portable\MemMang/heap_4.c **** 	size_t xBlockSize;						/*<< The size of the free block. */
  73:Generated_Source\PSoC6\pdl\rtos\FreeRTOS\10.0.1\Source\portable\MemMang/heap_4.c **** } BlockLink_t;
  74:Generated_Source\PSoC6\pdl\rtos\FreeRTOS\10.0.1\Source\portable\MemMang/heap_4.c **** 
  75:Generated_Source\PSoC6\pdl\rtos\FreeRTOS\10.0.1\Source\portable\MemMang/heap_4.c **** /*-----------------------------------------------------------*/
  76:Generated_Source\PSoC6\pdl\rtos\FreeRTOS\10.0.1\Source\portable\MemMang/heap_4.c **** 
  77:Generated_Source\PSoC6\pdl\rtos\FreeRTOS\10.0.1\Source\portable\MemMang/heap_4.c **** /*
  78:Generated_Source\PSoC6\pdl\rtos\FreeRTOS\10.0.1\Source\portable\MemMang/heap_4.c ****  * Inserts a block of memory that is being freed into the correct position in
  79:Generated_Source\PSoC6\pdl\rtos\FreeRTOS\10.0.1\Source\portable\MemMang/heap_4.c ****  * the list of free memory blocks.  The block being freed will be merged with
  80:Generated_Source\PSoC6\pdl\rtos\FreeRTOS\10.0.1\Source\portable\MemMang/heap_4.c ****  * the block in front it and/or the block behind it if the memory blocks are
  81:Generated_Source\PSoC6\pdl\rtos\FreeRTOS\10.0.1\Source\portable\MemMang/heap_4.c ****  * adjacent to each other.
  82:Generated_Source\PSoC6\pdl\rtos\FreeRTOS\10.0.1\Source\portable\MemMang/heap_4.c ****  */
  83:Generated_Source\PSoC6\pdl\rtos\FreeRTOS\10.0.1\Source\portable\MemMang/heap_4.c **** static void prvInsertBlockIntoFreeList( BlockLink_t *pxBlockToInsert );
  84:Generated_Source\PSoC6\pdl\rtos\FreeRTOS\10.0.1\Source\portable\MemMang/heap_4.c **** 
  85:Generated_Source\PSoC6\pdl\rtos\FreeRTOS\10.0.1\Source\portable\MemMang/heap_4.c **** /*
  86:Generated_Source\PSoC6\pdl\rtos\FreeRTOS\10.0.1\Source\portable\MemMang/heap_4.c ****  * Called automatically to setup the required heap structures the first time
  87:Generated_Source\PSoC6\pdl\rtos\FreeRTOS\10.0.1\Source\portable\MemMang/heap_4.c ****  * pvPortMalloc() is called.
ARM GAS  C:\Users\subra\AppData\Local\Temp\ccaog18v.s 			page 3


  88:Generated_Source\PSoC6\pdl\rtos\FreeRTOS\10.0.1\Source\portable\MemMang/heap_4.c ****  */
  89:Generated_Source\PSoC6\pdl\rtos\FreeRTOS\10.0.1\Source\portable\MemMang/heap_4.c **** static void prvHeapInit( void );
  90:Generated_Source\PSoC6\pdl\rtos\FreeRTOS\10.0.1\Source\portable\MemMang/heap_4.c **** 
  91:Generated_Source\PSoC6\pdl\rtos\FreeRTOS\10.0.1\Source\portable\MemMang/heap_4.c **** /*-----------------------------------------------------------*/
  92:Generated_Source\PSoC6\pdl\rtos\FreeRTOS\10.0.1\Source\portable\MemMang/heap_4.c **** 
  93:Generated_Source\PSoC6\pdl\rtos\FreeRTOS\10.0.1\Source\portable\MemMang/heap_4.c **** /* The size of the structure placed at the beginning of each allocated memory
  94:Generated_Source\PSoC6\pdl\rtos\FreeRTOS\10.0.1\Source\portable\MemMang/heap_4.c **** block must by correctly byte aligned. */
  95:Generated_Source\PSoC6\pdl\rtos\FreeRTOS\10.0.1\Source\portable\MemMang/heap_4.c **** static const size_t xHeapStructSize	= ( sizeof( BlockLink_t ) + ( ( size_t ) ( portBYTE_ALIGNMENT -
  96:Generated_Source\PSoC6\pdl\rtos\FreeRTOS\10.0.1\Source\portable\MemMang/heap_4.c **** 
  97:Generated_Source\PSoC6\pdl\rtos\FreeRTOS\10.0.1\Source\portable\MemMang/heap_4.c **** /* Create a couple of list links to mark the start and end of the list. */
  98:Generated_Source\PSoC6\pdl\rtos\FreeRTOS\10.0.1\Source\portable\MemMang/heap_4.c **** static BlockLink_t xStart, *pxEnd = NULL;
  99:Generated_Source\PSoC6\pdl\rtos\FreeRTOS\10.0.1\Source\portable\MemMang/heap_4.c **** 
 100:Generated_Source\PSoC6\pdl\rtos\FreeRTOS\10.0.1\Source\portable\MemMang/heap_4.c **** /* Keeps track of the number of free bytes remaining, but says nothing about
 101:Generated_Source\PSoC6\pdl\rtos\FreeRTOS\10.0.1\Source\portable\MemMang/heap_4.c **** fragmentation. */
 102:Generated_Source\PSoC6\pdl\rtos\FreeRTOS\10.0.1\Source\portable\MemMang/heap_4.c **** static size_t xFreeBytesRemaining = 0U;
 103:Generated_Source\PSoC6\pdl\rtos\FreeRTOS\10.0.1\Source\portable\MemMang/heap_4.c **** static size_t xMinimumEverFreeBytesRemaining = 0U;
 104:Generated_Source\PSoC6\pdl\rtos\FreeRTOS\10.0.1\Source\portable\MemMang/heap_4.c **** 
 105:Generated_Source\PSoC6\pdl\rtos\FreeRTOS\10.0.1\Source\portable\MemMang/heap_4.c **** /* Gets set to the top bit of an size_t type.  When this bit in the xBlockSize
 106:Generated_Source\PSoC6\pdl\rtos\FreeRTOS\10.0.1\Source\portable\MemMang/heap_4.c **** member of an BlockLink_t structure is set then the block belongs to the
 107:Generated_Source\PSoC6\pdl\rtos\FreeRTOS\10.0.1\Source\portable\MemMang/heap_4.c **** application.  When the bit is free the block is still part of the free heap
 108:Generated_Source\PSoC6\pdl\rtos\FreeRTOS\10.0.1\Source\portable\MemMang/heap_4.c **** space. */
 109:Generated_Source\PSoC6\pdl\rtos\FreeRTOS\10.0.1\Source\portable\MemMang/heap_4.c **** static size_t xBlockAllocatedBit = 0;
 110:Generated_Source\PSoC6\pdl\rtos\FreeRTOS\10.0.1\Source\portable\MemMang/heap_4.c **** 
 111:Generated_Source\PSoC6\pdl\rtos\FreeRTOS\10.0.1\Source\portable\MemMang/heap_4.c **** /*-----------------------------------------------------------*/
 112:Generated_Source\PSoC6\pdl\rtos\FreeRTOS\10.0.1\Source\portable\MemMang/heap_4.c **** 
 113:Generated_Source\PSoC6\pdl\rtos\FreeRTOS\10.0.1\Source\portable\MemMang/heap_4.c **** void *pvPortMalloc( size_t xWantedSize )
 114:Generated_Source\PSoC6\pdl\rtos\FreeRTOS\10.0.1\Source\portable\MemMang/heap_4.c **** {
 115:Generated_Source\PSoC6\pdl\rtos\FreeRTOS\10.0.1\Source\portable\MemMang/heap_4.c **** BlockLink_t *pxBlock, *pxPreviousBlock, *pxNewBlockLink;
 116:Generated_Source\PSoC6\pdl\rtos\FreeRTOS\10.0.1\Source\portable\MemMang/heap_4.c **** void *pvReturn = NULL;
 117:Generated_Source\PSoC6\pdl\rtos\FreeRTOS\10.0.1\Source\portable\MemMang/heap_4.c **** 
 118:Generated_Source\PSoC6\pdl\rtos\FreeRTOS\10.0.1\Source\portable\MemMang/heap_4.c **** 	vTaskSuspendAll();
 119:Generated_Source\PSoC6\pdl\rtos\FreeRTOS\10.0.1\Source\portable\MemMang/heap_4.c **** 	{
 120:Generated_Source\PSoC6\pdl\rtos\FreeRTOS\10.0.1\Source\portable\MemMang/heap_4.c **** 		/* If this is the first call to malloc then the heap will require
 121:Generated_Source\PSoC6\pdl\rtos\FreeRTOS\10.0.1\Source\portable\MemMang/heap_4.c **** 		initialisation to setup the list of free blocks. */
 122:Generated_Source\PSoC6\pdl\rtos\FreeRTOS\10.0.1\Source\portable\MemMang/heap_4.c **** 		if( pxEnd == NULL )
 123:Generated_Source\PSoC6\pdl\rtos\FreeRTOS\10.0.1\Source\portable\MemMang/heap_4.c **** 		{
 124:Generated_Source\PSoC6\pdl\rtos\FreeRTOS\10.0.1\Source\portable\MemMang/heap_4.c **** 			prvHeapInit();
 125:Generated_Source\PSoC6\pdl\rtos\FreeRTOS\10.0.1\Source\portable\MemMang/heap_4.c **** 		}
 126:Generated_Source\PSoC6\pdl\rtos\FreeRTOS\10.0.1\Source\portable\MemMang/heap_4.c **** 		else
 127:Generated_Source\PSoC6\pdl\rtos\FreeRTOS\10.0.1\Source\portable\MemMang/heap_4.c **** 		{
 128:Generated_Source\PSoC6\pdl\rtos\FreeRTOS\10.0.1\Source\portable\MemMang/heap_4.c **** 			mtCOVERAGE_TEST_MARKER();
 129:Generated_Source\PSoC6\pdl\rtos\FreeRTOS\10.0.1\Source\portable\MemMang/heap_4.c **** 		}
 130:Generated_Source\PSoC6\pdl\rtos\FreeRTOS\10.0.1\Source\portable\MemMang/heap_4.c **** 
 131:Generated_Source\PSoC6\pdl\rtos\FreeRTOS\10.0.1\Source\portable\MemMang/heap_4.c **** 		/* Check the requested block size is not so large that the top bit is
 132:Generated_Source\PSoC6\pdl\rtos\FreeRTOS\10.0.1\Source\portable\MemMang/heap_4.c **** 		set.  The top bit of the block size member of the BlockLink_t structure
 133:Generated_Source\PSoC6\pdl\rtos\FreeRTOS\10.0.1\Source\portable\MemMang/heap_4.c **** 		is used to determine who owns the block - the application or the
 134:Generated_Source\PSoC6\pdl\rtos\FreeRTOS\10.0.1\Source\portable\MemMang/heap_4.c **** 		kernel, so it must be free. */
 135:Generated_Source\PSoC6\pdl\rtos\FreeRTOS\10.0.1\Source\portable\MemMang/heap_4.c **** 		if( ( xWantedSize & xBlockAllocatedBit ) == 0 )
 136:Generated_Source\PSoC6\pdl\rtos\FreeRTOS\10.0.1\Source\portable\MemMang/heap_4.c **** 		{
 137:Generated_Source\PSoC6\pdl\rtos\FreeRTOS\10.0.1\Source\portable\MemMang/heap_4.c **** 			/* The wanted size is increased so it can contain a BlockLink_t
 138:Generated_Source\PSoC6\pdl\rtos\FreeRTOS\10.0.1\Source\portable\MemMang/heap_4.c **** 			structure in addition to the requested amount of bytes. */
 139:Generated_Source\PSoC6\pdl\rtos\FreeRTOS\10.0.1\Source\portable\MemMang/heap_4.c **** 			if( xWantedSize > 0 )
 140:Generated_Source\PSoC6\pdl\rtos\FreeRTOS\10.0.1\Source\portable\MemMang/heap_4.c **** 			{
 141:Generated_Source\PSoC6\pdl\rtos\FreeRTOS\10.0.1\Source\portable\MemMang/heap_4.c **** 				xWantedSize += xHeapStructSize;
 142:Generated_Source\PSoC6\pdl\rtos\FreeRTOS\10.0.1\Source\portable\MemMang/heap_4.c **** 
 143:Generated_Source\PSoC6\pdl\rtos\FreeRTOS\10.0.1\Source\portable\MemMang/heap_4.c **** 				/* Ensure that blocks are always aligned to the required number
 144:Generated_Source\PSoC6\pdl\rtos\FreeRTOS\10.0.1\Source\portable\MemMang/heap_4.c **** 				of bytes. */
ARM GAS  C:\Users\subra\AppData\Local\Temp\ccaog18v.s 			page 4


 145:Generated_Source\PSoC6\pdl\rtos\FreeRTOS\10.0.1\Source\portable\MemMang/heap_4.c **** 				if( ( xWantedSize & portBYTE_ALIGNMENT_MASK ) != 0x00 )
 146:Generated_Source\PSoC6\pdl\rtos\FreeRTOS\10.0.1\Source\portable\MemMang/heap_4.c **** 				{
 147:Generated_Source\PSoC6\pdl\rtos\FreeRTOS\10.0.1\Source\portable\MemMang/heap_4.c **** 					/* Byte alignment required. */
 148:Generated_Source\PSoC6\pdl\rtos\FreeRTOS\10.0.1\Source\portable\MemMang/heap_4.c **** 					xWantedSize += ( portBYTE_ALIGNMENT - ( xWantedSize & portBYTE_ALIGNMENT_MASK ) );
 149:Generated_Source\PSoC6\pdl\rtos\FreeRTOS\10.0.1\Source\portable\MemMang/heap_4.c **** 					configASSERT( ( xWantedSize & portBYTE_ALIGNMENT_MASK ) == 0 );
 150:Generated_Source\PSoC6\pdl\rtos\FreeRTOS\10.0.1\Source\portable\MemMang/heap_4.c **** 				}
 151:Generated_Source\PSoC6\pdl\rtos\FreeRTOS\10.0.1\Source\portable\MemMang/heap_4.c **** 				else
 152:Generated_Source\PSoC6\pdl\rtos\FreeRTOS\10.0.1\Source\portable\MemMang/heap_4.c **** 				{
 153:Generated_Source\PSoC6\pdl\rtos\FreeRTOS\10.0.1\Source\portable\MemMang/heap_4.c **** 					mtCOVERAGE_TEST_MARKER();
 154:Generated_Source\PSoC6\pdl\rtos\FreeRTOS\10.0.1\Source\portable\MemMang/heap_4.c **** 				}
 155:Generated_Source\PSoC6\pdl\rtos\FreeRTOS\10.0.1\Source\portable\MemMang/heap_4.c **** 			}
 156:Generated_Source\PSoC6\pdl\rtos\FreeRTOS\10.0.1\Source\portable\MemMang/heap_4.c **** 			else
 157:Generated_Source\PSoC6\pdl\rtos\FreeRTOS\10.0.1\Source\portable\MemMang/heap_4.c **** 			{
 158:Generated_Source\PSoC6\pdl\rtos\FreeRTOS\10.0.1\Source\portable\MemMang/heap_4.c **** 				mtCOVERAGE_TEST_MARKER();
 159:Generated_Source\PSoC6\pdl\rtos\FreeRTOS\10.0.1\Source\portable\MemMang/heap_4.c **** 			}
 160:Generated_Source\PSoC6\pdl\rtos\FreeRTOS\10.0.1\Source\portable\MemMang/heap_4.c **** 
 161:Generated_Source\PSoC6\pdl\rtos\FreeRTOS\10.0.1\Source\portable\MemMang/heap_4.c **** 			if( ( xWantedSize > 0 ) && ( xWantedSize <= xFreeBytesRemaining ) )
 162:Generated_Source\PSoC6\pdl\rtos\FreeRTOS\10.0.1\Source\portable\MemMang/heap_4.c **** 			{
 163:Generated_Source\PSoC6\pdl\rtos\FreeRTOS\10.0.1\Source\portable\MemMang/heap_4.c **** 				/* Traverse the list from the start	(lowest address) block until
 164:Generated_Source\PSoC6\pdl\rtos\FreeRTOS\10.0.1\Source\portable\MemMang/heap_4.c **** 				one	of adequate size is found. */
 165:Generated_Source\PSoC6\pdl\rtos\FreeRTOS\10.0.1\Source\portable\MemMang/heap_4.c **** 				pxPreviousBlock = &xStart;
 166:Generated_Source\PSoC6\pdl\rtos\FreeRTOS\10.0.1\Source\portable\MemMang/heap_4.c **** 				pxBlock = xStart.pxNextFreeBlock;
 167:Generated_Source\PSoC6\pdl\rtos\FreeRTOS\10.0.1\Source\portable\MemMang/heap_4.c **** 				while( ( pxBlock->xBlockSize < xWantedSize ) && ( pxBlock->pxNextFreeBlock != NULL ) )
 168:Generated_Source\PSoC6\pdl\rtos\FreeRTOS\10.0.1\Source\portable\MemMang/heap_4.c **** 				{
 169:Generated_Source\PSoC6\pdl\rtos\FreeRTOS\10.0.1\Source\portable\MemMang/heap_4.c **** 					pxPreviousBlock = pxBlock;
 170:Generated_Source\PSoC6\pdl\rtos\FreeRTOS\10.0.1\Source\portable\MemMang/heap_4.c **** 					pxBlock = pxBlock->pxNextFreeBlock;
 171:Generated_Source\PSoC6\pdl\rtos\FreeRTOS\10.0.1\Source\portable\MemMang/heap_4.c **** 				}
 172:Generated_Source\PSoC6\pdl\rtos\FreeRTOS\10.0.1\Source\portable\MemMang/heap_4.c **** 
 173:Generated_Source\PSoC6\pdl\rtos\FreeRTOS\10.0.1\Source\portable\MemMang/heap_4.c **** 				/* If the end marker was reached then a block of adequate size
 174:Generated_Source\PSoC6\pdl\rtos\FreeRTOS\10.0.1\Source\portable\MemMang/heap_4.c **** 				was	not found. */
 175:Generated_Source\PSoC6\pdl\rtos\FreeRTOS\10.0.1\Source\portable\MemMang/heap_4.c **** 				if( pxBlock != pxEnd )
 176:Generated_Source\PSoC6\pdl\rtos\FreeRTOS\10.0.1\Source\portable\MemMang/heap_4.c **** 				{
 177:Generated_Source\PSoC6\pdl\rtos\FreeRTOS\10.0.1\Source\portable\MemMang/heap_4.c **** 					/* Return the memory space pointed to - jumping over the
 178:Generated_Source\PSoC6\pdl\rtos\FreeRTOS\10.0.1\Source\portable\MemMang/heap_4.c **** 					BlockLink_t structure at its start. */
 179:Generated_Source\PSoC6\pdl\rtos\FreeRTOS\10.0.1\Source\portable\MemMang/heap_4.c **** 					pvReturn = ( void * ) ( ( ( uint8_t * ) pxPreviousBlock->pxNextFreeBlock ) + xHeapStructSize )
 180:Generated_Source\PSoC6\pdl\rtos\FreeRTOS\10.0.1\Source\portable\MemMang/heap_4.c **** 
 181:Generated_Source\PSoC6\pdl\rtos\FreeRTOS\10.0.1\Source\portable\MemMang/heap_4.c **** 					/* This block is being returned for use so must be taken out
 182:Generated_Source\PSoC6\pdl\rtos\FreeRTOS\10.0.1\Source\portable\MemMang/heap_4.c **** 					of the list of free blocks. */
 183:Generated_Source\PSoC6\pdl\rtos\FreeRTOS\10.0.1\Source\portable\MemMang/heap_4.c **** 					pxPreviousBlock->pxNextFreeBlock = pxBlock->pxNextFreeBlock;
 184:Generated_Source\PSoC6\pdl\rtos\FreeRTOS\10.0.1\Source\portable\MemMang/heap_4.c **** 
 185:Generated_Source\PSoC6\pdl\rtos\FreeRTOS\10.0.1\Source\portable\MemMang/heap_4.c **** 					/* If the block is larger than required it can be split into
 186:Generated_Source\PSoC6\pdl\rtos\FreeRTOS\10.0.1\Source\portable\MemMang/heap_4.c **** 					two. */
 187:Generated_Source\PSoC6\pdl\rtos\FreeRTOS\10.0.1\Source\portable\MemMang/heap_4.c **** 					if( ( pxBlock->xBlockSize - xWantedSize ) > heapMINIMUM_BLOCK_SIZE )
 188:Generated_Source\PSoC6\pdl\rtos\FreeRTOS\10.0.1\Source\portable\MemMang/heap_4.c **** 					{
 189:Generated_Source\PSoC6\pdl\rtos\FreeRTOS\10.0.1\Source\portable\MemMang/heap_4.c **** 						/* This block is to be split into two.  Create a new
 190:Generated_Source\PSoC6\pdl\rtos\FreeRTOS\10.0.1\Source\portable\MemMang/heap_4.c **** 						block following the number of bytes requested. The void
 191:Generated_Source\PSoC6\pdl\rtos\FreeRTOS\10.0.1\Source\portable\MemMang/heap_4.c **** 						cast is used to prevent byte alignment warnings from the
 192:Generated_Source\PSoC6\pdl\rtos\FreeRTOS\10.0.1\Source\portable\MemMang/heap_4.c **** 						compiler. */
 193:Generated_Source\PSoC6\pdl\rtos\FreeRTOS\10.0.1\Source\portable\MemMang/heap_4.c **** 						pxNewBlockLink = ( void * ) ( ( ( uint8_t * ) pxBlock ) + xWantedSize );
 194:Generated_Source\PSoC6\pdl\rtos\FreeRTOS\10.0.1\Source\portable\MemMang/heap_4.c **** 						configASSERT( ( ( ( size_t ) pxNewBlockLink ) & portBYTE_ALIGNMENT_MASK ) == 0 );
 195:Generated_Source\PSoC6\pdl\rtos\FreeRTOS\10.0.1\Source\portable\MemMang/heap_4.c **** 
 196:Generated_Source\PSoC6\pdl\rtos\FreeRTOS\10.0.1\Source\portable\MemMang/heap_4.c **** 						/* Calculate the sizes of two blocks split from the
 197:Generated_Source\PSoC6\pdl\rtos\FreeRTOS\10.0.1\Source\portable\MemMang/heap_4.c **** 						single block. */
 198:Generated_Source\PSoC6\pdl\rtos\FreeRTOS\10.0.1\Source\portable\MemMang/heap_4.c **** 						pxNewBlockLink->xBlockSize = pxBlock->xBlockSize - xWantedSize;
 199:Generated_Source\PSoC6\pdl\rtos\FreeRTOS\10.0.1\Source\portable\MemMang/heap_4.c **** 						pxBlock->xBlockSize = xWantedSize;
 200:Generated_Source\PSoC6\pdl\rtos\FreeRTOS\10.0.1\Source\portable\MemMang/heap_4.c **** 
 201:Generated_Source\PSoC6\pdl\rtos\FreeRTOS\10.0.1\Source\portable\MemMang/heap_4.c **** 						/* Insert the new block into the list of free blocks. */
ARM GAS  C:\Users\subra\AppData\Local\Temp\ccaog18v.s 			page 5


 202:Generated_Source\PSoC6\pdl\rtos\FreeRTOS\10.0.1\Source\portable\MemMang/heap_4.c **** 						prvInsertBlockIntoFreeList( pxNewBlockLink );
 203:Generated_Source\PSoC6\pdl\rtos\FreeRTOS\10.0.1\Source\portable\MemMang/heap_4.c **** 					}
 204:Generated_Source\PSoC6\pdl\rtos\FreeRTOS\10.0.1\Source\portable\MemMang/heap_4.c **** 					else
 205:Generated_Source\PSoC6\pdl\rtos\FreeRTOS\10.0.1\Source\portable\MemMang/heap_4.c **** 					{
 206:Generated_Source\PSoC6\pdl\rtos\FreeRTOS\10.0.1\Source\portable\MemMang/heap_4.c **** 						mtCOVERAGE_TEST_MARKER();
 207:Generated_Source\PSoC6\pdl\rtos\FreeRTOS\10.0.1\Source\portable\MemMang/heap_4.c **** 					}
 208:Generated_Source\PSoC6\pdl\rtos\FreeRTOS\10.0.1\Source\portable\MemMang/heap_4.c **** 
 209:Generated_Source\PSoC6\pdl\rtos\FreeRTOS\10.0.1\Source\portable\MemMang/heap_4.c **** 					xFreeBytesRemaining -= pxBlock->xBlockSize;
 210:Generated_Source\PSoC6\pdl\rtos\FreeRTOS\10.0.1\Source\portable\MemMang/heap_4.c **** 
 211:Generated_Source\PSoC6\pdl\rtos\FreeRTOS\10.0.1\Source\portable\MemMang/heap_4.c **** 					if( xFreeBytesRemaining < xMinimumEverFreeBytesRemaining )
 212:Generated_Source\PSoC6\pdl\rtos\FreeRTOS\10.0.1\Source\portable\MemMang/heap_4.c **** 					{
 213:Generated_Source\PSoC6\pdl\rtos\FreeRTOS\10.0.1\Source\portable\MemMang/heap_4.c **** 						xMinimumEverFreeBytesRemaining = xFreeBytesRemaining;
 214:Generated_Source\PSoC6\pdl\rtos\FreeRTOS\10.0.1\Source\portable\MemMang/heap_4.c **** 					}
 215:Generated_Source\PSoC6\pdl\rtos\FreeRTOS\10.0.1\Source\portable\MemMang/heap_4.c **** 					else
 216:Generated_Source\PSoC6\pdl\rtos\FreeRTOS\10.0.1\Source\portable\MemMang/heap_4.c **** 					{
 217:Generated_Source\PSoC6\pdl\rtos\FreeRTOS\10.0.1\Source\portable\MemMang/heap_4.c **** 						mtCOVERAGE_TEST_MARKER();
 218:Generated_Source\PSoC6\pdl\rtos\FreeRTOS\10.0.1\Source\portable\MemMang/heap_4.c **** 					}
 219:Generated_Source\PSoC6\pdl\rtos\FreeRTOS\10.0.1\Source\portable\MemMang/heap_4.c **** 
 220:Generated_Source\PSoC6\pdl\rtos\FreeRTOS\10.0.1\Source\portable\MemMang/heap_4.c **** 					/* The block is being returned - it is allocated and owned
 221:Generated_Source\PSoC6\pdl\rtos\FreeRTOS\10.0.1\Source\portable\MemMang/heap_4.c **** 					by the application and has no "next" block. */
 222:Generated_Source\PSoC6\pdl\rtos\FreeRTOS\10.0.1\Source\portable\MemMang/heap_4.c **** 					pxBlock->xBlockSize |= xBlockAllocatedBit;
 223:Generated_Source\PSoC6\pdl\rtos\FreeRTOS\10.0.1\Source\portable\MemMang/heap_4.c **** 					pxBlock->pxNextFreeBlock = NULL;
 224:Generated_Source\PSoC6\pdl\rtos\FreeRTOS\10.0.1\Source\portable\MemMang/heap_4.c **** 				}
 225:Generated_Source\PSoC6\pdl\rtos\FreeRTOS\10.0.1\Source\portable\MemMang/heap_4.c **** 				else
 226:Generated_Source\PSoC6\pdl\rtos\FreeRTOS\10.0.1\Source\portable\MemMang/heap_4.c **** 				{
 227:Generated_Source\PSoC6\pdl\rtos\FreeRTOS\10.0.1\Source\portable\MemMang/heap_4.c **** 					mtCOVERAGE_TEST_MARKER();
 228:Generated_Source\PSoC6\pdl\rtos\FreeRTOS\10.0.1\Source\portable\MemMang/heap_4.c **** 				}
 229:Generated_Source\PSoC6\pdl\rtos\FreeRTOS\10.0.1\Source\portable\MemMang/heap_4.c **** 			}
 230:Generated_Source\PSoC6\pdl\rtos\FreeRTOS\10.0.1\Source\portable\MemMang/heap_4.c **** 			else
 231:Generated_Source\PSoC6\pdl\rtos\FreeRTOS\10.0.1\Source\portable\MemMang/heap_4.c **** 			{
 232:Generated_Source\PSoC6\pdl\rtos\FreeRTOS\10.0.1\Source\portable\MemMang/heap_4.c **** 				mtCOVERAGE_TEST_MARKER();
 233:Generated_Source\PSoC6\pdl\rtos\FreeRTOS\10.0.1\Source\portable\MemMang/heap_4.c **** 			}
 234:Generated_Source\PSoC6\pdl\rtos\FreeRTOS\10.0.1\Source\portable\MemMang/heap_4.c **** 		}
 235:Generated_Source\PSoC6\pdl\rtos\FreeRTOS\10.0.1\Source\portable\MemMang/heap_4.c **** 		else
 236:Generated_Source\PSoC6\pdl\rtos\FreeRTOS\10.0.1\Source\portable\MemMang/heap_4.c **** 		{
 237:Generated_Source\PSoC6\pdl\rtos\FreeRTOS\10.0.1\Source\portable\MemMang/heap_4.c **** 			mtCOVERAGE_TEST_MARKER();
 238:Generated_Source\PSoC6\pdl\rtos\FreeRTOS\10.0.1\Source\portable\MemMang/heap_4.c **** 		}
 239:Generated_Source\PSoC6\pdl\rtos\FreeRTOS\10.0.1\Source\portable\MemMang/heap_4.c **** 
 240:Generated_Source\PSoC6\pdl\rtos\FreeRTOS\10.0.1\Source\portable\MemMang/heap_4.c **** 		traceMALLOC( pvReturn, xWantedSize );
 241:Generated_Source\PSoC6\pdl\rtos\FreeRTOS\10.0.1\Source\portable\MemMang/heap_4.c **** 	}
 242:Generated_Source\PSoC6\pdl\rtos\FreeRTOS\10.0.1\Source\portable\MemMang/heap_4.c **** 	( void ) xTaskResumeAll();
 243:Generated_Source\PSoC6\pdl\rtos\FreeRTOS\10.0.1\Source\portable\MemMang/heap_4.c **** 
 244:Generated_Source\PSoC6\pdl\rtos\FreeRTOS\10.0.1\Source\portable\MemMang/heap_4.c **** 	#if( configUSE_MALLOC_FAILED_HOOK == 1 )
 245:Generated_Source\PSoC6\pdl\rtos\FreeRTOS\10.0.1\Source\portable\MemMang/heap_4.c **** 	{
 246:Generated_Source\PSoC6\pdl\rtos\FreeRTOS\10.0.1\Source\portable\MemMang/heap_4.c **** 		if( pvReturn == NULL )
 247:Generated_Source\PSoC6\pdl\rtos\FreeRTOS\10.0.1\Source\portable\MemMang/heap_4.c **** 		{
 248:Generated_Source\PSoC6\pdl\rtos\FreeRTOS\10.0.1\Source\portable\MemMang/heap_4.c **** 			extern void vApplicationMallocFailedHook( void );
 249:Generated_Source\PSoC6\pdl\rtos\FreeRTOS\10.0.1\Source\portable\MemMang/heap_4.c **** 			vApplicationMallocFailedHook();
 250:Generated_Source\PSoC6\pdl\rtos\FreeRTOS\10.0.1\Source\portable\MemMang/heap_4.c **** 		}
 251:Generated_Source\PSoC6\pdl\rtos\FreeRTOS\10.0.1\Source\portable\MemMang/heap_4.c **** 		else
 252:Generated_Source\PSoC6\pdl\rtos\FreeRTOS\10.0.1\Source\portable\MemMang/heap_4.c **** 		{
 253:Generated_Source\PSoC6\pdl\rtos\FreeRTOS\10.0.1\Source\portable\MemMang/heap_4.c **** 			mtCOVERAGE_TEST_MARKER();
 254:Generated_Source\PSoC6\pdl\rtos\FreeRTOS\10.0.1\Source\portable\MemMang/heap_4.c **** 		}
 255:Generated_Source\PSoC6\pdl\rtos\FreeRTOS\10.0.1\Source\portable\MemMang/heap_4.c **** 	}
 256:Generated_Source\PSoC6\pdl\rtos\FreeRTOS\10.0.1\Source\portable\MemMang/heap_4.c **** 	#endif
 257:Generated_Source\PSoC6\pdl\rtos\FreeRTOS\10.0.1\Source\portable\MemMang/heap_4.c **** 
 258:Generated_Source\PSoC6\pdl\rtos\FreeRTOS\10.0.1\Source\portable\MemMang/heap_4.c **** 	configASSERT( ( ( ( size_t ) pvReturn ) & ( size_t ) portBYTE_ALIGNMENT_MASK ) == 0 );
ARM GAS  C:\Users\subra\AppData\Local\Temp\ccaog18v.s 			page 6


 259:Generated_Source\PSoC6\pdl\rtos\FreeRTOS\10.0.1\Source\portable\MemMang/heap_4.c **** 	return pvReturn;
 260:Generated_Source\PSoC6\pdl\rtos\FreeRTOS\10.0.1\Source\portable\MemMang/heap_4.c **** }
 261:Generated_Source\PSoC6\pdl\rtos\FreeRTOS\10.0.1\Source\portable\MemMang/heap_4.c **** /*-----------------------------------------------------------*/
 262:Generated_Source\PSoC6\pdl\rtos\FreeRTOS\10.0.1\Source\portable\MemMang/heap_4.c **** 
 263:Generated_Source\PSoC6\pdl\rtos\FreeRTOS\10.0.1\Source\portable\MemMang/heap_4.c **** void vPortFree( void *pv )
 264:Generated_Source\PSoC6\pdl\rtos\FreeRTOS\10.0.1\Source\portable\MemMang/heap_4.c **** {
 265:Generated_Source\PSoC6\pdl\rtos\FreeRTOS\10.0.1\Source\portable\MemMang/heap_4.c **** uint8_t *puc = ( uint8_t * ) pv;
 266:Generated_Source\PSoC6\pdl\rtos\FreeRTOS\10.0.1\Source\portable\MemMang/heap_4.c **** BlockLink_t *pxLink;
 267:Generated_Source\PSoC6\pdl\rtos\FreeRTOS\10.0.1\Source\portable\MemMang/heap_4.c **** 
 268:Generated_Source\PSoC6\pdl\rtos\FreeRTOS\10.0.1\Source\portable\MemMang/heap_4.c **** 	if( pv != NULL )
 269:Generated_Source\PSoC6\pdl\rtos\FreeRTOS\10.0.1\Source\portable\MemMang/heap_4.c **** 	{
 270:Generated_Source\PSoC6\pdl\rtos\FreeRTOS\10.0.1\Source\portable\MemMang/heap_4.c **** 		/* The memory being freed will have an BlockLink_t structure immediately
 271:Generated_Source\PSoC6\pdl\rtos\FreeRTOS\10.0.1\Source\portable\MemMang/heap_4.c **** 		before it. */
 272:Generated_Source\PSoC6\pdl\rtos\FreeRTOS\10.0.1\Source\portable\MemMang/heap_4.c **** 		puc -= xHeapStructSize;
 273:Generated_Source\PSoC6\pdl\rtos\FreeRTOS\10.0.1\Source\portable\MemMang/heap_4.c **** 
 274:Generated_Source\PSoC6\pdl\rtos\FreeRTOS\10.0.1\Source\portable\MemMang/heap_4.c **** 		/* This casting is to keep the compiler from issuing warnings. */
 275:Generated_Source\PSoC6\pdl\rtos\FreeRTOS\10.0.1\Source\portable\MemMang/heap_4.c **** 		pxLink = ( void * ) puc;
 276:Generated_Source\PSoC6\pdl\rtos\FreeRTOS\10.0.1\Source\portable\MemMang/heap_4.c **** 
 277:Generated_Source\PSoC6\pdl\rtos\FreeRTOS\10.0.1\Source\portable\MemMang/heap_4.c **** 		/* Check the block is actually allocated. */
 278:Generated_Source\PSoC6\pdl\rtos\FreeRTOS\10.0.1\Source\portable\MemMang/heap_4.c **** 		configASSERT( ( pxLink->xBlockSize & xBlockAllocatedBit ) != 0 );
 279:Generated_Source\PSoC6\pdl\rtos\FreeRTOS\10.0.1\Source\portable\MemMang/heap_4.c **** 		configASSERT( pxLink->pxNextFreeBlock == NULL );
 280:Generated_Source\PSoC6\pdl\rtos\FreeRTOS\10.0.1\Source\portable\MemMang/heap_4.c **** 
 281:Generated_Source\PSoC6\pdl\rtos\FreeRTOS\10.0.1\Source\portable\MemMang/heap_4.c **** 		if( ( pxLink->xBlockSize & xBlockAllocatedBit ) != 0 )
 282:Generated_Source\PSoC6\pdl\rtos\FreeRTOS\10.0.1\Source\portable\MemMang/heap_4.c **** 		{
 283:Generated_Source\PSoC6\pdl\rtos\FreeRTOS\10.0.1\Source\portable\MemMang/heap_4.c **** 			if( pxLink->pxNextFreeBlock == NULL )
 284:Generated_Source\PSoC6\pdl\rtos\FreeRTOS\10.0.1\Source\portable\MemMang/heap_4.c **** 			{
 285:Generated_Source\PSoC6\pdl\rtos\FreeRTOS\10.0.1\Source\portable\MemMang/heap_4.c **** 				/* The block is being returned to the heap - it is no longer
 286:Generated_Source\PSoC6\pdl\rtos\FreeRTOS\10.0.1\Source\portable\MemMang/heap_4.c **** 				allocated. */
 287:Generated_Source\PSoC6\pdl\rtos\FreeRTOS\10.0.1\Source\portable\MemMang/heap_4.c **** 				pxLink->xBlockSize &= ~xBlockAllocatedBit;
 288:Generated_Source\PSoC6\pdl\rtos\FreeRTOS\10.0.1\Source\portable\MemMang/heap_4.c **** 
 289:Generated_Source\PSoC6\pdl\rtos\FreeRTOS\10.0.1\Source\portable\MemMang/heap_4.c **** 				vTaskSuspendAll();
 290:Generated_Source\PSoC6\pdl\rtos\FreeRTOS\10.0.1\Source\portable\MemMang/heap_4.c **** 				{
 291:Generated_Source\PSoC6\pdl\rtos\FreeRTOS\10.0.1\Source\portable\MemMang/heap_4.c **** 					/* Add this block to the list of free blocks. */
 292:Generated_Source\PSoC6\pdl\rtos\FreeRTOS\10.0.1\Source\portable\MemMang/heap_4.c **** 					xFreeBytesRemaining += pxLink->xBlockSize;
 293:Generated_Source\PSoC6\pdl\rtos\FreeRTOS\10.0.1\Source\portable\MemMang/heap_4.c **** 					traceFREE( pv, pxLink->xBlockSize );
 294:Generated_Source\PSoC6\pdl\rtos\FreeRTOS\10.0.1\Source\portable\MemMang/heap_4.c **** 					prvInsertBlockIntoFreeList( ( ( BlockLink_t * ) pxLink ) );
 295:Generated_Source\PSoC6\pdl\rtos\FreeRTOS\10.0.1\Source\portable\MemMang/heap_4.c **** 				}
 296:Generated_Source\PSoC6\pdl\rtos\FreeRTOS\10.0.1\Source\portable\MemMang/heap_4.c **** 				( void ) xTaskResumeAll();
 297:Generated_Source\PSoC6\pdl\rtos\FreeRTOS\10.0.1\Source\portable\MemMang/heap_4.c **** 			}
 298:Generated_Source\PSoC6\pdl\rtos\FreeRTOS\10.0.1\Source\portable\MemMang/heap_4.c **** 			else
 299:Generated_Source\PSoC6\pdl\rtos\FreeRTOS\10.0.1\Source\portable\MemMang/heap_4.c **** 			{
 300:Generated_Source\PSoC6\pdl\rtos\FreeRTOS\10.0.1\Source\portable\MemMang/heap_4.c **** 				mtCOVERAGE_TEST_MARKER();
 301:Generated_Source\PSoC6\pdl\rtos\FreeRTOS\10.0.1\Source\portable\MemMang/heap_4.c **** 			}
 302:Generated_Source\PSoC6\pdl\rtos\FreeRTOS\10.0.1\Source\portable\MemMang/heap_4.c **** 		}
 303:Generated_Source\PSoC6\pdl\rtos\FreeRTOS\10.0.1\Source\portable\MemMang/heap_4.c **** 		else
 304:Generated_Source\PSoC6\pdl\rtos\FreeRTOS\10.0.1\Source\portable\MemMang/heap_4.c **** 		{
 305:Generated_Source\PSoC6\pdl\rtos\FreeRTOS\10.0.1\Source\portable\MemMang/heap_4.c **** 			mtCOVERAGE_TEST_MARKER();
 306:Generated_Source\PSoC6\pdl\rtos\FreeRTOS\10.0.1\Source\portable\MemMang/heap_4.c **** 		}
 307:Generated_Source\PSoC6\pdl\rtos\FreeRTOS\10.0.1\Source\portable\MemMang/heap_4.c **** 	}
 308:Generated_Source\PSoC6\pdl\rtos\FreeRTOS\10.0.1\Source\portable\MemMang/heap_4.c **** }
 309:Generated_Source\PSoC6\pdl\rtos\FreeRTOS\10.0.1\Source\portable\MemMang/heap_4.c **** /*-----------------------------------------------------------*/
 310:Generated_Source\PSoC6\pdl\rtos\FreeRTOS\10.0.1\Source\portable\MemMang/heap_4.c **** 
 311:Generated_Source\PSoC6\pdl\rtos\FreeRTOS\10.0.1\Source\portable\MemMang/heap_4.c **** size_t xPortGetFreeHeapSize( void )
 312:Generated_Source\PSoC6\pdl\rtos\FreeRTOS\10.0.1\Source\portable\MemMang/heap_4.c **** {
 313:Generated_Source\PSoC6\pdl\rtos\FreeRTOS\10.0.1\Source\portable\MemMang/heap_4.c **** 	return xFreeBytesRemaining;
 314:Generated_Source\PSoC6\pdl\rtos\FreeRTOS\10.0.1\Source\portable\MemMang/heap_4.c **** }
 315:Generated_Source\PSoC6\pdl\rtos\FreeRTOS\10.0.1\Source\portable\MemMang/heap_4.c **** /*-----------------------------------------------------------*/
ARM GAS  C:\Users\subra\AppData\Local\Temp\ccaog18v.s 			page 7


 316:Generated_Source\PSoC6\pdl\rtos\FreeRTOS\10.0.1\Source\portable\MemMang/heap_4.c **** 
 317:Generated_Source\PSoC6\pdl\rtos\FreeRTOS\10.0.1\Source\portable\MemMang/heap_4.c **** size_t xPortGetMinimumEverFreeHeapSize( void )
 318:Generated_Source\PSoC6\pdl\rtos\FreeRTOS\10.0.1\Source\portable\MemMang/heap_4.c **** {
 319:Generated_Source\PSoC6\pdl\rtos\FreeRTOS\10.0.1\Source\portable\MemMang/heap_4.c **** 	return xMinimumEverFreeBytesRemaining;
 320:Generated_Source\PSoC6\pdl\rtos\FreeRTOS\10.0.1\Source\portable\MemMang/heap_4.c **** }
 321:Generated_Source\PSoC6\pdl\rtos\FreeRTOS\10.0.1\Source\portable\MemMang/heap_4.c **** /*-----------------------------------------------------------*/
 322:Generated_Source\PSoC6\pdl\rtos\FreeRTOS\10.0.1\Source\portable\MemMang/heap_4.c **** 
 323:Generated_Source\PSoC6\pdl\rtos\FreeRTOS\10.0.1\Source\portable\MemMang/heap_4.c **** void vPortInitialiseBlocks( void )
 324:Generated_Source\PSoC6\pdl\rtos\FreeRTOS\10.0.1\Source\portable\MemMang/heap_4.c **** {
 325:Generated_Source\PSoC6\pdl\rtos\FreeRTOS\10.0.1\Source\portable\MemMang/heap_4.c **** 	/* This just exists to keep the linker quiet. */
 326:Generated_Source\PSoC6\pdl\rtos\FreeRTOS\10.0.1\Source\portable\MemMang/heap_4.c **** }
 327:Generated_Source\PSoC6\pdl\rtos\FreeRTOS\10.0.1\Source\portable\MemMang/heap_4.c **** /*-----------------------------------------------------------*/
 328:Generated_Source\PSoC6\pdl\rtos\FreeRTOS\10.0.1\Source\portable\MemMang/heap_4.c **** 
 329:Generated_Source\PSoC6\pdl\rtos\FreeRTOS\10.0.1\Source\portable\MemMang/heap_4.c **** static void prvHeapInit( void )
 330:Generated_Source\PSoC6\pdl\rtos\FreeRTOS\10.0.1\Source\portable\MemMang/heap_4.c **** {
  28              		.loc 1 330 0
  29              		.cfi_startproc
  30              		@ args = 0, pretend = 0, frame = 0
  31              		@ frame_needed = 0, uses_anonymous_args = 0
  32              		@ link register save eliminated.
  33              	.LVL0:
 331:Generated_Source\PSoC6\pdl\rtos\FreeRTOS\10.0.1\Source\portable\MemMang/heap_4.c **** BlockLink_t *pxFirstFreeBlock;
 332:Generated_Source\PSoC6\pdl\rtos\FreeRTOS\10.0.1\Source\portable\MemMang/heap_4.c **** uint8_t *pucAlignedHeap;
 333:Generated_Source\PSoC6\pdl\rtos\FreeRTOS\10.0.1\Source\portable\MemMang/heap_4.c **** size_t uxAddress;
 334:Generated_Source\PSoC6\pdl\rtos\FreeRTOS\10.0.1\Source\portable\MemMang/heap_4.c **** size_t xTotalHeapSize = configTOTAL_HEAP_SIZE;
 335:Generated_Source\PSoC6\pdl\rtos\FreeRTOS\10.0.1\Source\portable\MemMang/heap_4.c **** 
 336:Generated_Source\PSoC6\pdl\rtos\FreeRTOS\10.0.1\Source\portable\MemMang/heap_4.c **** 	/* Ensure the heap starts on a correctly aligned boundary. */
 337:Generated_Source\PSoC6\pdl\rtos\FreeRTOS\10.0.1\Source\portable\MemMang/heap_4.c **** 	uxAddress = ( size_t ) ucHeap;
  34              		.loc 1 337 0
  35 0000 134A     		ldr	r2, .L4
  36              	.LVL1:
 338:Generated_Source\PSoC6\pdl\rtos\FreeRTOS\10.0.1\Source\portable\MemMang/heap_4.c **** 
 339:Generated_Source\PSoC6\pdl\rtos\FreeRTOS\10.0.1\Source\portable\MemMang/heap_4.c **** 	if( ( uxAddress & portBYTE_ALIGNMENT_MASK ) != 0 )
  37              		.loc 1 339 0
  38 0002 12F0070F 		tst	r2, #7
  39 0006 07D0     		beq	.L3
 340:Generated_Source\PSoC6\pdl\rtos\FreeRTOS\10.0.1\Source\portable\MemMang/heap_4.c **** 	{
 341:Generated_Source\PSoC6\pdl\rtos\FreeRTOS\10.0.1\Source\portable\MemMang/heap_4.c **** 		uxAddress += ( portBYTE_ALIGNMENT - 1 );
  40              		.loc 1 341 0
  41 0008 D11D     		adds	r1, r2, #7
  42              	.LVL2:
 342:Generated_Source\PSoC6\pdl\rtos\FreeRTOS\10.0.1\Source\portable\MemMang/heap_4.c **** 		uxAddress &= ~( ( size_t ) portBYTE_ALIGNMENT_MASK );
  43              		.loc 1 342 0
  44 000a 21F00701 		bic	r1, r1, #7
  45              	.LVL3:
 343:Generated_Source\PSoC6\pdl\rtos\FreeRTOS\10.0.1\Source\portable\MemMang/heap_4.c **** 		xTotalHeapSize -= uxAddress - ( size_t ) ucHeap;
  46              		.loc 1 343 0
  47 000e C1F54043 		rsb	r3, r1, #49152
  48 0012 1344     		add	r3, r3, r2
  49              	.LVL4:
 342:Generated_Source\PSoC6\pdl\rtos\FreeRTOS\10.0.1\Source\portable\MemMang/heap_4.c **** 		uxAddress &= ~( ( size_t ) portBYTE_ALIGNMENT_MASK );
  50              		.loc 1 342 0
  51 0014 0A46     		mov	r2, r1
  52 0016 01E0     		b	.L2
  53              	.LVL5:
  54              	.L3:
 334:Generated_Source\PSoC6\pdl\rtos\FreeRTOS\10.0.1\Source\portable\MemMang/heap_4.c **** 
ARM GAS  C:\Users\subra\AppData\Local\Temp\ccaog18v.s 			page 8


  55              		.loc 1 334 0
  56 0018 4FF44043 		mov	r3, #49152
  57              	.LVL6:
  58              	.L2:
 344:Generated_Source\PSoC6\pdl\rtos\FreeRTOS\10.0.1\Source\portable\MemMang/heap_4.c **** 	}
 345:Generated_Source\PSoC6\pdl\rtos\FreeRTOS\10.0.1\Source\portable\MemMang/heap_4.c **** 
 346:Generated_Source\PSoC6\pdl\rtos\FreeRTOS\10.0.1\Source\portable\MemMang/heap_4.c **** 	pucAlignedHeap = ( uint8_t * ) uxAddress;
 347:Generated_Source\PSoC6\pdl\rtos\FreeRTOS\10.0.1\Source\portable\MemMang/heap_4.c **** 
 348:Generated_Source\PSoC6\pdl\rtos\FreeRTOS\10.0.1\Source\portable\MemMang/heap_4.c **** 	/* xStart is used to hold a pointer to the first item in the list of free
 349:Generated_Source\PSoC6\pdl\rtos\FreeRTOS\10.0.1\Source\portable\MemMang/heap_4.c **** 	blocks.  The void cast is used to prevent compiler warnings. */
 350:Generated_Source\PSoC6\pdl\rtos\FreeRTOS\10.0.1\Source\portable\MemMang/heap_4.c **** 	xStart.pxNextFreeBlock = ( void * ) pucAlignedHeap;
  59              		.loc 1 350 0
  60 001c 0D49     		ldr	r1, .L4+4
  61 001e C1F85825 		str	r2, [r1, #1368]
 351:Generated_Source\PSoC6\pdl\rtos\FreeRTOS\10.0.1\Source\portable\MemMang/heap_4.c **** 	xStart.xBlockSize = ( size_t ) 0;
  62              		.loc 1 351 0
  63 0022 0020     		movs	r0, #0
  64 0024 C1F85C05 		str	r0, [r1, #1372]
 352:Generated_Source\PSoC6\pdl\rtos\FreeRTOS\10.0.1\Source\portable\MemMang/heap_4.c **** 
 353:Generated_Source\PSoC6\pdl\rtos\FreeRTOS\10.0.1\Source\portable\MemMang/heap_4.c **** 	/* pxEnd is used to mark the end of the list of free blocks and is inserted
 354:Generated_Source\PSoC6\pdl\rtos\FreeRTOS\10.0.1\Source\portable\MemMang/heap_4.c **** 	at the end of the heap space. */
 355:Generated_Source\PSoC6\pdl\rtos\FreeRTOS\10.0.1\Source\portable\MemMang/heap_4.c **** 	uxAddress = ( ( size_t ) pucAlignedHeap ) + xTotalHeapSize;
  65              		.loc 1 355 0
  66 0028 1344     		add	r3, r3, r2
  67              	.LVL7:
 356:Generated_Source\PSoC6\pdl\rtos\FreeRTOS\10.0.1\Source\portable\MemMang/heap_4.c **** 	uxAddress -= xHeapStructSize;
  68              		.loc 1 356 0
  69 002a 083B     		subs	r3, r3, #8
  70              	.LVL8:
 357:Generated_Source\PSoC6\pdl\rtos\FreeRTOS\10.0.1\Source\portable\MemMang/heap_4.c **** 	uxAddress &= ~( ( size_t ) portBYTE_ALIGNMENT_MASK );
  71              		.loc 1 357 0
  72 002c 23F00703 		bic	r3, r3, #7
  73              	.LVL9:
 358:Generated_Source\PSoC6\pdl\rtos\FreeRTOS\10.0.1\Source\portable\MemMang/heap_4.c **** 	pxEnd = ( void * ) uxAddress;
  74              		.loc 1 358 0
  75 0030 C1F86035 		str	r3, [r1, #1376]
 359:Generated_Source\PSoC6\pdl\rtos\FreeRTOS\10.0.1\Source\portable\MemMang/heap_4.c **** 	pxEnd->xBlockSize = 0;
  76              		.loc 1 359 0
  77 0034 5860     		str	r0, [r3, #4]
 360:Generated_Source\PSoC6\pdl\rtos\FreeRTOS\10.0.1\Source\portable\MemMang/heap_4.c **** 	pxEnd->pxNextFreeBlock = NULL;
  78              		.loc 1 360 0
  79 0036 1860     		str	r0, [r3]
  80              	.LVL10:
 361:Generated_Source\PSoC6\pdl\rtos\FreeRTOS\10.0.1\Source\portable\MemMang/heap_4.c **** 
 362:Generated_Source\PSoC6\pdl\rtos\FreeRTOS\10.0.1\Source\portable\MemMang/heap_4.c **** 	/* To start with there is a single free block that is sized to take up the
 363:Generated_Source\PSoC6\pdl\rtos\FreeRTOS\10.0.1\Source\portable\MemMang/heap_4.c **** 	entire heap space, minus the space taken by pxEnd. */
 364:Generated_Source\PSoC6\pdl\rtos\FreeRTOS\10.0.1\Source\portable\MemMang/heap_4.c **** 	pxFirstFreeBlock = ( void * ) pucAlignedHeap;
 365:Generated_Source\PSoC6\pdl\rtos\FreeRTOS\10.0.1\Source\portable\MemMang/heap_4.c **** 	pxFirstFreeBlock->xBlockSize = uxAddress - ( size_t ) pxFirstFreeBlock;
  81              		.loc 1 365 0
  82 0038 981A     		subs	r0, r3, r2
  83 003a 5060     		str	r0, [r2, #4]
 366:Generated_Source\PSoC6\pdl\rtos\FreeRTOS\10.0.1\Source\portable\MemMang/heap_4.c **** 	pxFirstFreeBlock->pxNextFreeBlock = pxEnd;
  84              		.loc 1 366 0
  85 003c 1360     		str	r3, [r2]
 367:Generated_Source\PSoC6\pdl\rtos\FreeRTOS\10.0.1\Source\portable\MemMang/heap_4.c **** 
 368:Generated_Source\PSoC6\pdl\rtos\FreeRTOS\10.0.1\Source\portable\MemMang/heap_4.c **** 	/* Only one block exists - and it covers the entire usable heap space. */
 369:Generated_Source\PSoC6\pdl\rtos\FreeRTOS\10.0.1\Source\portable\MemMang/heap_4.c **** 	xMinimumEverFreeBytesRemaining = pxFirstFreeBlock->xBlockSize;
ARM GAS  C:\Users\subra\AppData\Local\Temp\ccaog18v.s 			page 9


  86              		.loc 1 369 0
  87 003e C1F86405 		str	r0, [r1, #1380]
 370:Generated_Source\PSoC6\pdl\rtos\FreeRTOS\10.0.1\Source\portable\MemMang/heap_4.c **** 	xFreeBytesRemaining = pxFirstFreeBlock->xBlockSize;
  88              		.loc 1 370 0
  89 0042 C1F86805 		str	r0, [r1, #1384]
 371:Generated_Source\PSoC6\pdl\rtos\FreeRTOS\10.0.1\Source\portable\MemMang/heap_4.c **** 
 372:Generated_Source\PSoC6\pdl\rtos\FreeRTOS\10.0.1\Source\portable\MemMang/heap_4.c **** 	/* Work out the position of the top bit in a size_t variable. */
 373:Generated_Source\PSoC6\pdl\rtos\FreeRTOS\10.0.1\Source\portable\MemMang/heap_4.c **** 	xBlockAllocatedBit = ( ( size_t ) 1 ) << ( ( sizeof( size_t ) * heapBITS_PER_BYTE ) - 1 );
  90              		.loc 1 373 0
  91 0046 4FF00043 		mov	r3, #-2147483648
  92              	.LVL11:
  93 004a C1F86C35 		str	r3, [r1, #1388]
  94 004e 7047     		bx	lr
  95              	.L5:
  96              		.align	2
  97              	.L4:
  98 0050 00000000 		.word	.LANCHOR0
  99 0054 A8BA0000 		.word	.LANCHOR1
 100              		.cfi_endproc
 101              	.LFE141:
 102              		.size	prvHeapInit, .-prvHeapInit
 103              		.section	.text.prvInsertBlockIntoFreeList,"ax",%progbits
 104              		.align	2
 105              		.thumb
 106              		.thumb_func
 107              		.type	prvInsertBlockIntoFreeList, %function
 108              	prvInsertBlockIntoFreeList:
 109              	.LFB142:
 374:Generated_Source\PSoC6\pdl\rtos\FreeRTOS\10.0.1\Source\portable\MemMang/heap_4.c **** }
 375:Generated_Source\PSoC6\pdl\rtos\FreeRTOS\10.0.1\Source\portable\MemMang/heap_4.c **** /*-----------------------------------------------------------*/
 376:Generated_Source\PSoC6\pdl\rtos\FreeRTOS\10.0.1\Source\portable\MemMang/heap_4.c **** 
 377:Generated_Source\PSoC6\pdl\rtos\FreeRTOS\10.0.1\Source\portable\MemMang/heap_4.c **** static void prvInsertBlockIntoFreeList( BlockLink_t *pxBlockToInsert )
 378:Generated_Source\PSoC6\pdl\rtos\FreeRTOS\10.0.1\Source\portable\MemMang/heap_4.c **** {
 110              		.loc 1 378 0
 111              		.cfi_startproc
 112              		@ args = 0, pretend = 0, frame = 0
 113              		@ frame_needed = 0, uses_anonymous_args = 0
 114              		@ link register save eliminated.
 115              	.LVL12:
 379:Generated_Source\PSoC6\pdl\rtos\FreeRTOS\10.0.1\Source\portable\MemMang/heap_4.c **** BlockLink_t *pxIterator;
 380:Generated_Source\PSoC6\pdl\rtos\FreeRTOS\10.0.1\Source\portable\MemMang/heap_4.c **** uint8_t *puc;
 381:Generated_Source\PSoC6\pdl\rtos\FreeRTOS\10.0.1\Source\portable\MemMang/heap_4.c **** 
 382:Generated_Source\PSoC6\pdl\rtos\FreeRTOS\10.0.1\Source\portable\MemMang/heap_4.c **** 	/* Iterate through the list until a block is found that has a higher address
 383:Generated_Source\PSoC6\pdl\rtos\FreeRTOS\10.0.1\Source\portable\MemMang/heap_4.c **** 	than the block being inserted. */
 384:Generated_Source\PSoC6\pdl\rtos\FreeRTOS\10.0.1\Source\portable\MemMang/heap_4.c **** 	for( pxIterator = &xStart; pxIterator->pxNextFreeBlock < pxBlockToInsert; pxIterator = pxIterator-
 116              		.loc 1 384 0
 117 0000 134B     		ldr	r3, .L15
 118 0002 00E0     		b	.L7
 119              	.LVL13:
 120              	.L13:
 121 0004 1346     		mov	r3, r2
 122              	.LVL14:
 123              	.L7:
 124              		.loc 1 384 0 is_stmt 0 discriminator 1
 125 0006 1A68     		ldr	r2, [r3]
 126 0008 8242     		cmp	r2, r0
 127 000a FBD3     		bcc	.L13
ARM GAS  C:\Users\subra\AppData\Local\Temp\ccaog18v.s 			page 10


 378:Generated_Source\PSoC6\pdl\rtos\FreeRTOS\10.0.1\Source\portable\MemMang/heap_4.c **** BlockLink_t *pxIterator;
 128              		.loc 1 378 0 is_stmt 1
 129 000c 10B4     		push	{r4}
 130              		.cfi_def_cfa_offset 4
 131              		.cfi_offset 4, -4
 132              	.LVL15:
 385:Generated_Source\PSoC6\pdl\rtos\FreeRTOS\10.0.1\Source\portable\MemMang/heap_4.c **** 	{
 386:Generated_Source\PSoC6\pdl\rtos\FreeRTOS\10.0.1\Source\portable\MemMang/heap_4.c **** 		/* Nothing to do here, just iterate to the right position. */
 387:Generated_Source\PSoC6\pdl\rtos\FreeRTOS\10.0.1\Source\portable\MemMang/heap_4.c **** 	}
 388:Generated_Source\PSoC6\pdl\rtos\FreeRTOS\10.0.1\Source\portable\MemMang/heap_4.c **** 
 389:Generated_Source\PSoC6\pdl\rtos\FreeRTOS\10.0.1\Source\portable\MemMang/heap_4.c **** 	/* Do the block being inserted, and the block it is being inserted after
 390:Generated_Source\PSoC6\pdl\rtos\FreeRTOS\10.0.1\Source\portable\MemMang/heap_4.c **** 	make a contiguous block of memory? */
 391:Generated_Source\PSoC6\pdl\rtos\FreeRTOS\10.0.1\Source\portable\MemMang/heap_4.c **** 	puc = ( uint8_t * ) pxIterator;
 392:Generated_Source\PSoC6\pdl\rtos\FreeRTOS\10.0.1\Source\portable\MemMang/heap_4.c **** 	if( ( puc + pxIterator->xBlockSize ) == ( uint8_t * ) pxBlockToInsert )
 133              		.loc 1 392 0
 134 000e 5C68     		ldr	r4, [r3, #4]
 135 0010 1919     		adds	r1, r3, r4
 136 0012 8842     		cmp	r0, r1
 137 0014 03D1     		bne	.L8
 393:Generated_Source\PSoC6\pdl\rtos\FreeRTOS\10.0.1\Source\portable\MemMang/heap_4.c **** 	{
 394:Generated_Source\PSoC6\pdl\rtos\FreeRTOS\10.0.1\Source\portable\MemMang/heap_4.c **** 		pxIterator->xBlockSize += pxBlockToInsert->xBlockSize;
 138              		.loc 1 394 0
 139 0016 4168     		ldr	r1, [r0, #4]
 140 0018 2144     		add	r1, r1, r4
 141 001a 5960     		str	r1, [r3, #4]
 142              	.LVL16:
 395:Generated_Source\PSoC6\pdl\rtos\FreeRTOS\10.0.1\Source\portable\MemMang/heap_4.c **** 		pxBlockToInsert = pxIterator;
 143              		.loc 1 395 0
 144 001c 1846     		mov	r0, r3
 145              	.LVL17:
 146              	.L8:
 396:Generated_Source\PSoC6\pdl\rtos\FreeRTOS\10.0.1\Source\portable\MemMang/heap_4.c **** 	}
 397:Generated_Source\PSoC6\pdl\rtos\FreeRTOS\10.0.1\Source\portable\MemMang/heap_4.c **** 	else
 398:Generated_Source\PSoC6\pdl\rtos\FreeRTOS\10.0.1\Source\portable\MemMang/heap_4.c **** 	{
 399:Generated_Source\PSoC6\pdl\rtos\FreeRTOS\10.0.1\Source\portable\MemMang/heap_4.c **** 		mtCOVERAGE_TEST_MARKER();
 400:Generated_Source\PSoC6\pdl\rtos\FreeRTOS\10.0.1\Source\portable\MemMang/heap_4.c **** 	}
 401:Generated_Source\PSoC6\pdl\rtos\FreeRTOS\10.0.1\Source\portable\MemMang/heap_4.c **** 
 402:Generated_Source\PSoC6\pdl\rtos\FreeRTOS\10.0.1\Source\portable\MemMang/heap_4.c **** 	/* Do the block being inserted, and the block it is being inserted before
 403:Generated_Source\PSoC6\pdl\rtos\FreeRTOS\10.0.1\Source\portable\MemMang/heap_4.c **** 	make a contiguous block of memory? */
 404:Generated_Source\PSoC6\pdl\rtos\FreeRTOS\10.0.1\Source\portable\MemMang/heap_4.c **** 	puc = ( uint8_t * ) pxBlockToInsert;
 405:Generated_Source\PSoC6\pdl\rtos\FreeRTOS\10.0.1\Source\portable\MemMang/heap_4.c **** 	if( ( puc + pxBlockToInsert->xBlockSize ) == ( uint8_t * ) pxIterator->pxNextFreeBlock )
 147              		.loc 1 405 0
 148 001e 4468     		ldr	r4, [r0, #4]
 149 0020 0119     		adds	r1, r0, r4
 150 0022 8A42     		cmp	r2, r1
 151 0024 0DD1     		bne	.L9
 406:Generated_Source\PSoC6\pdl\rtos\FreeRTOS\10.0.1\Source\portable\MemMang/heap_4.c **** 	{
 407:Generated_Source\PSoC6\pdl\rtos\FreeRTOS\10.0.1\Source\portable\MemMang/heap_4.c **** 		if( pxIterator->pxNextFreeBlock != pxEnd )
 152              		.loc 1 407 0
 153 0026 0B49     		ldr	r1, .L15+4
 154 0028 D1F86015 		ldr	r1, [r1, #1376]
 155 002c 8A42     		cmp	r2, r1
 156 002e 06D0     		beq	.L10
 408:Generated_Source\PSoC6\pdl\rtos\FreeRTOS\10.0.1\Source\portable\MemMang/heap_4.c **** 		{
 409:Generated_Source\PSoC6\pdl\rtos\FreeRTOS\10.0.1\Source\portable\MemMang/heap_4.c **** 			/* Form one big block from the two blocks. */
 410:Generated_Source\PSoC6\pdl\rtos\FreeRTOS\10.0.1\Source\portable\MemMang/heap_4.c **** 			pxBlockToInsert->xBlockSize += pxIterator->pxNextFreeBlock->xBlockSize;
 157              		.loc 1 410 0
ARM GAS  C:\Users\subra\AppData\Local\Temp\ccaog18v.s 			page 11


 158 0030 5268     		ldr	r2, [r2, #4]
 159 0032 2244     		add	r2, r2, r4
 160 0034 4260     		str	r2, [r0, #4]
 411:Generated_Source\PSoC6\pdl\rtos\FreeRTOS\10.0.1\Source\portable\MemMang/heap_4.c **** 			pxBlockToInsert->pxNextFreeBlock = pxIterator->pxNextFreeBlock->pxNextFreeBlock;
 161              		.loc 1 411 0
 162 0036 1A68     		ldr	r2, [r3]
 163 0038 1268     		ldr	r2, [r2]
 164 003a 0260     		str	r2, [r0]
 165 003c 02E0     		b	.L11
 166              	.L10:
 412:Generated_Source\PSoC6\pdl\rtos\FreeRTOS\10.0.1\Source\portable\MemMang/heap_4.c **** 		}
 413:Generated_Source\PSoC6\pdl\rtos\FreeRTOS\10.0.1\Source\portable\MemMang/heap_4.c **** 		else
 414:Generated_Source\PSoC6\pdl\rtos\FreeRTOS\10.0.1\Source\portable\MemMang/heap_4.c **** 		{
 415:Generated_Source\PSoC6\pdl\rtos\FreeRTOS\10.0.1\Source\portable\MemMang/heap_4.c **** 			pxBlockToInsert->pxNextFreeBlock = pxEnd;
 167              		.loc 1 415 0
 168 003e 0160     		str	r1, [r0]
 169 0040 00E0     		b	.L11
 170              	.L9:
 416:Generated_Source\PSoC6\pdl\rtos\FreeRTOS\10.0.1\Source\portable\MemMang/heap_4.c **** 		}
 417:Generated_Source\PSoC6\pdl\rtos\FreeRTOS\10.0.1\Source\portable\MemMang/heap_4.c **** 	}
 418:Generated_Source\PSoC6\pdl\rtos\FreeRTOS\10.0.1\Source\portable\MemMang/heap_4.c **** 	else
 419:Generated_Source\PSoC6\pdl\rtos\FreeRTOS\10.0.1\Source\portable\MemMang/heap_4.c **** 	{
 420:Generated_Source\PSoC6\pdl\rtos\FreeRTOS\10.0.1\Source\portable\MemMang/heap_4.c **** 		pxBlockToInsert->pxNextFreeBlock = pxIterator->pxNextFreeBlock;
 171              		.loc 1 420 0
 172 0042 0260     		str	r2, [r0]
 173              	.L11:
 421:Generated_Source\PSoC6\pdl\rtos\FreeRTOS\10.0.1\Source\portable\MemMang/heap_4.c **** 	}
 422:Generated_Source\PSoC6\pdl\rtos\FreeRTOS\10.0.1\Source\portable\MemMang/heap_4.c **** 
 423:Generated_Source\PSoC6\pdl\rtos\FreeRTOS\10.0.1\Source\portable\MemMang/heap_4.c **** 	/* If the block being inserted plugged a gab, so was merged with the block
 424:Generated_Source\PSoC6\pdl\rtos\FreeRTOS\10.0.1\Source\portable\MemMang/heap_4.c **** 	before and the block after, then it's pxNextFreeBlock pointer will have
 425:Generated_Source\PSoC6\pdl\rtos\FreeRTOS\10.0.1\Source\portable\MemMang/heap_4.c **** 	already been set, and should not be set here as that would make it point
 426:Generated_Source\PSoC6\pdl\rtos\FreeRTOS\10.0.1\Source\portable\MemMang/heap_4.c **** 	to itself. */
 427:Generated_Source\PSoC6\pdl\rtos\FreeRTOS\10.0.1\Source\portable\MemMang/heap_4.c **** 	if( pxIterator != pxBlockToInsert )
 174              		.loc 1 427 0
 175 0044 9842     		cmp	r0, r3
 176 0046 00D0     		beq	.L6
 428:Generated_Source\PSoC6\pdl\rtos\FreeRTOS\10.0.1\Source\portable\MemMang/heap_4.c **** 	{
 429:Generated_Source\PSoC6\pdl\rtos\FreeRTOS\10.0.1\Source\portable\MemMang/heap_4.c **** 		pxIterator->pxNextFreeBlock = pxBlockToInsert;
 177              		.loc 1 429 0
 178 0048 1860     		str	r0, [r3]
 179              	.L6:
 430:Generated_Source\PSoC6\pdl\rtos\FreeRTOS\10.0.1\Source\portable\MemMang/heap_4.c **** 	}
 431:Generated_Source\PSoC6\pdl\rtos\FreeRTOS\10.0.1\Source\portable\MemMang/heap_4.c **** 	else
 432:Generated_Source\PSoC6\pdl\rtos\FreeRTOS\10.0.1\Source\portable\MemMang/heap_4.c **** 	{
 433:Generated_Source\PSoC6\pdl\rtos\FreeRTOS\10.0.1\Source\portable\MemMang/heap_4.c **** 		mtCOVERAGE_TEST_MARKER();
 434:Generated_Source\PSoC6\pdl\rtos\FreeRTOS\10.0.1\Source\portable\MemMang/heap_4.c **** 	}
 435:Generated_Source\PSoC6\pdl\rtos\FreeRTOS\10.0.1\Source\portable\MemMang/heap_4.c **** }
 180              		.loc 1 435 0
 181 004a 5DF8044B 		ldr	r4, [sp], #4
 182              		.cfi_restore 4
 183              		.cfi_def_cfa_offset 0
 184 004e 7047     		bx	lr
 185              	.L16:
 186              		.align	2
 187              	.L15:
 188 0050 00C00000 		.word	.LANCHOR1+1368
 189 0054 A8BA0000 		.word	.LANCHOR1
ARM GAS  C:\Users\subra\AppData\Local\Temp\ccaog18v.s 			page 12


 190              		.cfi_endproc
 191              	.LFE142:
 192              		.size	prvInsertBlockIntoFreeList, .-prvInsertBlockIntoFreeList
 193              		.section	.text.pvPortMalloc,"ax",%progbits
 194              		.align	2
 195              		.global	pvPortMalloc
 196              		.thumb
 197              		.thumb_func
 198              		.type	pvPortMalloc, %function
 199              	pvPortMalloc:
 200              	.LFB136:
 114:Generated_Source\PSoC6\pdl\rtos\FreeRTOS\10.0.1\Source\portable\MemMang/heap_4.c **** BlockLink_t *pxBlock, *pxPreviousBlock, *pxNewBlockLink;
 201              		.loc 1 114 0
 202              		.cfi_startproc
 203              		@ args = 0, pretend = 0, frame = 0
 204              		@ frame_needed = 0, uses_anonymous_args = 0
 205              	.LVL18:
 206 0000 70B5     		push	{r4, r5, r6, lr}
 207              		.cfi_def_cfa_offset 16
 208              		.cfi_offset 4, -16
 209              		.cfi_offset 5, -12
 210              		.cfi_offset 6, -8
 211              		.cfi_offset 14, -4
 212 0002 0446     		mov	r4, r0
 213              	.LVL19:
 118:Generated_Source\PSoC6\pdl\rtos\FreeRTOS\10.0.1\Source\portable\MemMang/heap_4.c **** 	{
 214              		.loc 1 118 0
 215 0004 FFF7FEFF 		bl	vTaskSuspendAll
 216              	.LVL20:
 122:Generated_Source\PSoC6\pdl\rtos\FreeRTOS\10.0.1\Source\portable\MemMang/heap_4.c **** 		{
 217              		.loc 1 122 0
 218 0008 3F4B     		ldr	r3, .L36
 219 000a D3F86035 		ldr	r3, [r3, #1376]
 220 000e 0BB9     		cbnz	r3, .L18
 124:Generated_Source\PSoC6\pdl\rtos\FreeRTOS\10.0.1\Source\portable\MemMang/heap_4.c **** 		}
 221              		.loc 1 124 0
 222 0010 FFF7FEFF 		bl	prvHeapInit
 223              	.LVL21:
 224              	.L18:
 135:Generated_Source\PSoC6\pdl\rtos\FreeRTOS\10.0.1\Source\portable\MemMang/heap_4.c **** 		{
 225              		.loc 1 135 0
 226 0014 3C4B     		ldr	r3, .L36
 227 0016 D3F86C35 		ldr	r3, [r3, #1388]
 228 001a 1C42     		tst	r4, r3
 229 001c 5CD1     		bne	.L30
 139:Generated_Source\PSoC6\pdl\rtos\FreeRTOS\10.0.1\Source\portable\MemMang/heap_4.c **** 			{
 230              		.loc 1 139 0
 231 001e 94B1     		cbz	r4, .L20
 141:Generated_Source\PSoC6\pdl\rtos\FreeRTOS\10.0.1\Source\portable\MemMang/heap_4.c **** 
 232              		.loc 1 141 0
 233 0020 0834     		adds	r4, r4, #8
 234              	.LVL22:
 145:Generated_Source\PSoC6\pdl\rtos\FreeRTOS\10.0.1\Source\portable\MemMang/heap_4.c **** 				{
 235              		.loc 1 145 0
 236 0022 14F0070F 		tst	r4, #7
 237 0026 0ED0     		beq	.L20
 148:Generated_Source\PSoC6\pdl\rtos\FreeRTOS\10.0.1\Source\portable\MemMang/heap_4.c **** 					configASSERT( ( xWantedSize & portBYTE_ALIGNMENT_MASK ) == 0 );
ARM GAS  C:\Users\subra\AppData\Local\Temp\ccaog18v.s 			page 13


 238              		.loc 1 148 0
 239 0028 24F00704 		bic	r4, r4, #7
 240              	.LVL23:
 241 002c 0834     		adds	r4, r4, #8
 242              	.LVL24:
 149:Generated_Source\PSoC6\pdl\rtos\FreeRTOS\10.0.1\Source\portable\MemMang/heap_4.c **** 				}
 243              		.loc 1 149 0
 244 002e 04F00703 		and	r3, r4, #7
 245 0032 43B1     		cbz	r3, .L20
 246              	.LBB12:
 247              	.LBB13:
 248              		.file 2 "Generated_Source\\PSoC6\\pdl\\rtos/FreeRTOS/10.0.1/Source/portable/GCC/CM4F/portmacro.h"
   1:Generated_Source\PSoC6\pdl\rtos/FreeRTOS/10.0.1/Source/portable/GCC/CM4F/portmacro.h **** /*
   2:Generated_Source\PSoC6\pdl\rtos/FreeRTOS/10.0.1/Source/portable/GCC/CM4F/portmacro.h ****  * FreeRTOS Kernel V10.0.1
   3:Generated_Source\PSoC6\pdl\rtos/FreeRTOS/10.0.1/Source/portable/GCC/CM4F/portmacro.h ****  * Copyright (C) 2017 Amazon.com, Inc. or its affiliates.  All Rights Reserved.
   4:Generated_Source\PSoC6\pdl\rtos/FreeRTOS/10.0.1/Source/portable/GCC/CM4F/portmacro.h ****  *
   5:Generated_Source\PSoC6\pdl\rtos/FreeRTOS/10.0.1/Source/portable/GCC/CM4F/portmacro.h ****  * Permission is hereby granted, free of charge, to any person obtaining a copy of
   6:Generated_Source\PSoC6\pdl\rtos/FreeRTOS/10.0.1/Source/portable/GCC/CM4F/portmacro.h ****  * this software and associated documentation files (the "Software"), to deal in
   7:Generated_Source\PSoC6\pdl\rtos/FreeRTOS/10.0.1/Source/portable/GCC/CM4F/portmacro.h ****  * the Software without restriction, including without limitation the rights to
   8:Generated_Source\PSoC6\pdl\rtos/FreeRTOS/10.0.1/Source/portable/GCC/CM4F/portmacro.h ****  * use, copy, modify, merge, publish, distribute, sublicense, and/or sell copies of
   9:Generated_Source\PSoC6\pdl\rtos/FreeRTOS/10.0.1/Source/portable/GCC/CM4F/portmacro.h ****  * the Software, and to permit persons to whom the Software is furnished to do so,
  10:Generated_Source\PSoC6\pdl\rtos/FreeRTOS/10.0.1/Source/portable/GCC/CM4F/portmacro.h ****  * subject to the following conditions:
  11:Generated_Source\PSoC6\pdl\rtos/FreeRTOS/10.0.1/Source/portable/GCC/CM4F/portmacro.h ****  *
  12:Generated_Source\PSoC6\pdl\rtos/FreeRTOS/10.0.1/Source/portable/GCC/CM4F/portmacro.h ****  * The above copyright notice and this permission notice shall be included in all
  13:Generated_Source\PSoC6\pdl\rtos/FreeRTOS/10.0.1/Source/portable/GCC/CM4F/portmacro.h ****  * copies or substantial portions of the Software.
  14:Generated_Source\PSoC6\pdl\rtos/FreeRTOS/10.0.1/Source/portable/GCC/CM4F/portmacro.h ****  *
  15:Generated_Source\PSoC6\pdl\rtos/FreeRTOS/10.0.1/Source/portable/GCC/CM4F/portmacro.h ****  * THE SOFTWARE IS PROVIDED "AS IS", WITHOUT WARRANTY OF ANY KIND, EXPRESS OR
  16:Generated_Source\PSoC6\pdl\rtos/FreeRTOS/10.0.1/Source/portable/GCC/CM4F/portmacro.h ****  * IMPLIED, INCLUDING BUT NOT LIMITED TO THE WARRANTIES OF MERCHANTABILITY, FITNESS
  17:Generated_Source\PSoC6\pdl\rtos/FreeRTOS/10.0.1/Source/portable/GCC/CM4F/portmacro.h ****  * FOR A PARTICULAR PURPOSE AND NONINFRINGEMENT. IN NO EVENT SHALL THE AUTHORS OR
  18:Generated_Source\PSoC6\pdl\rtos/FreeRTOS/10.0.1/Source/portable/GCC/CM4F/portmacro.h ****  * COPYRIGHT HOLDERS BE LIABLE FOR ANY CLAIM, DAMAGES OR OTHER LIABILITY, WHETHER
  19:Generated_Source\PSoC6\pdl\rtos/FreeRTOS/10.0.1/Source/portable/GCC/CM4F/portmacro.h ****  * IN AN ACTION OF CONTRACT, TORT OR OTHERWISE, ARISING FROM, OUT OF OR IN
  20:Generated_Source\PSoC6\pdl\rtos/FreeRTOS/10.0.1/Source/portable/GCC/CM4F/portmacro.h ****  * CONNECTION WITH THE SOFTWARE OR THE USE OR OTHER DEALINGS IN THE SOFTWARE.
  21:Generated_Source\PSoC6\pdl\rtos/FreeRTOS/10.0.1/Source/portable/GCC/CM4F/portmacro.h ****  *
  22:Generated_Source\PSoC6\pdl\rtos/FreeRTOS/10.0.1/Source/portable/GCC/CM4F/portmacro.h ****  * http://www.FreeRTOS.org
  23:Generated_Source\PSoC6\pdl\rtos/FreeRTOS/10.0.1/Source/portable/GCC/CM4F/portmacro.h ****  * http://aws.amazon.com/freertos
  24:Generated_Source\PSoC6\pdl\rtos/FreeRTOS/10.0.1/Source/portable/GCC/CM4F/portmacro.h ****  *
  25:Generated_Source\PSoC6\pdl\rtos/FreeRTOS/10.0.1/Source/portable/GCC/CM4F/portmacro.h ****  * 1 tab == 4 spaces!
  26:Generated_Source\PSoC6\pdl\rtos/FreeRTOS/10.0.1/Source/portable/GCC/CM4F/portmacro.h ****  */
  27:Generated_Source\PSoC6\pdl\rtos/FreeRTOS/10.0.1/Source/portable/GCC/CM4F/portmacro.h **** 
  28:Generated_Source\PSoC6\pdl\rtos/FreeRTOS/10.0.1/Source/portable/GCC/CM4F/portmacro.h **** 
  29:Generated_Source\PSoC6\pdl\rtos/FreeRTOS/10.0.1/Source/portable/GCC/CM4F/portmacro.h **** #ifndef PORTMACRO_H
  30:Generated_Source\PSoC6\pdl\rtos/FreeRTOS/10.0.1/Source/portable/GCC/CM4F/portmacro.h **** #define PORTMACRO_H
  31:Generated_Source\PSoC6\pdl\rtos/FreeRTOS/10.0.1/Source/portable/GCC/CM4F/portmacro.h **** 
  32:Generated_Source\PSoC6\pdl\rtos/FreeRTOS/10.0.1/Source/portable/GCC/CM4F/portmacro.h **** #ifdef __cplusplus
  33:Generated_Source\PSoC6\pdl\rtos/FreeRTOS/10.0.1/Source/portable/GCC/CM4F/portmacro.h **** extern "C" {
  34:Generated_Source\PSoC6\pdl\rtos/FreeRTOS/10.0.1/Source/portable/GCC/CM4F/portmacro.h **** #endif
  35:Generated_Source\PSoC6\pdl\rtos/FreeRTOS/10.0.1/Source/portable/GCC/CM4F/portmacro.h **** 
  36:Generated_Source\PSoC6\pdl\rtos/FreeRTOS/10.0.1/Source/portable/GCC/CM4F/portmacro.h **** /*-----------------------------------------------------------
  37:Generated_Source\PSoC6\pdl\rtos/FreeRTOS/10.0.1/Source/portable/GCC/CM4F/portmacro.h ****  * Port specific definitions.
  38:Generated_Source\PSoC6\pdl\rtos/FreeRTOS/10.0.1/Source/portable/GCC/CM4F/portmacro.h ****  *
  39:Generated_Source\PSoC6\pdl\rtos/FreeRTOS/10.0.1/Source/portable/GCC/CM4F/portmacro.h ****  * The settings in this file configure FreeRTOS correctly for the
  40:Generated_Source\PSoC6\pdl\rtos/FreeRTOS/10.0.1/Source/portable/GCC/CM4F/portmacro.h ****  * given hardware and compiler.
  41:Generated_Source\PSoC6\pdl\rtos/FreeRTOS/10.0.1/Source/portable/GCC/CM4F/portmacro.h ****  *
  42:Generated_Source\PSoC6\pdl\rtos/FreeRTOS/10.0.1/Source/portable/GCC/CM4F/portmacro.h ****  * These settings should not be altered.
  43:Generated_Source\PSoC6\pdl\rtos/FreeRTOS/10.0.1/Source/portable/GCC/CM4F/portmacro.h ****  *-----------------------------------------------------------
  44:Generated_Source\PSoC6\pdl\rtos/FreeRTOS/10.0.1/Source/portable/GCC/CM4F/portmacro.h ****  */
  45:Generated_Source\PSoC6\pdl\rtos/FreeRTOS/10.0.1/Source/portable/GCC/CM4F/portmacro.h **** 
ARM GAS  C:\Users\subra\AppData\Local\Temp\ccaog18v.s 			page 14


  46:Generated_Source\PSoC6\pdl\rtos/FreeRTOS/10.0.1/Source/portable/GCC/CM4F/portmacro.h **** /* Type definitions. */
  47:Generated_Source\PSoC6\pdl\rtos/FreeRTOS/10.0.1/Source/portable/GCC/CM4F/portmacro.h **** #define portCHAR		char
  48:Generated_Source\PSoC6\pdl\rtos/FreeRTOS/10.0.1/Source/portable/GCC/CM4F/portmacro.h **** #define portFLOAT		float
  49:Generated_Source\PSoC6\pdl\rtos/FreeRTOS/10.0.1/Source/portable/GCC/CM4F/portmacro.h **** #define portDOUBLE		double
  50:Generated_Source\PSoC6\pdl\rtos/FreeRTOS/10.0.1/Source/portable/GCC/CM4F/portmacro.h **** #define portLONG		long
  51:Generated_Source\PSoC6\pdl\rtos/FreeRTOS/10.0.1/Source/portable/GCC/CM4F/portmacro.h **** #define portSHORT		short
  52:Generated_Source\PSoC6\pdl\rtos/FreeRTOS/10.0.1/Source/portable/GCC/CM4F/portmacro.h **** #define portSTACK_TYPE	uint32_t
  53:Generated_Source\PSoC6\pdl\rtos/FreeRTOS/10.0.1/Source/portable/GCC/CM4F/portmacro.h **** #define portBASE_TYPE	long
  54:Generated_Source\PSoC6\pdl\rtos/FreeRTOS/10.0.1/Source/portable/GCC/CM4F/portmacro.h **** 
  55:Generated_Source\PSoC6\pdl\rtos/FreeRTOS/10.0.1/Source/portable/GCC/CM4F/portmacro.h **** typedef portSTACK_TYPE StackType_t;
  56:Generated_Source\PSoC6\pdl\rtos/FreeRTOS/10.0.1/Source/portable/GCC/CM4F/portmacro.h **** typedef long BaseType_t;
  57:Generated_Source\PSoC6\pdl\rtos/FreeRTOS/10.0.1/Source/portable/GCC/CM4F/portmacro.h **** typedef unsigned long UBaseType_t;
  58:Generated_Source\PSoC6\pdl\rtos/FreeRTOS/10.0.1/Source/portable/GCC/CM4F/portmacro.h **** 
  59:Generated_Source\PSoC6\pdl\rtos/FreeRTOS/10.0.1/Source/portable/GCC/CM4F/portmacro.h **** #if( configUSE_16_BIT_TICKS == 1 )
  60:Generated_Source\PSoC6\pdl\rtos/FreeRTOS/10.0.1/Source/portable/GCC/CM4F/portmacro.h **** 	typedef uint16_t TickType_t;
  61:Generated_Source\PSoC6\pdl\rtos/FreeRTOS/10.0.1/Source/portable/GCC/CM4F/portmacro.h **** 	#define portMAX_DELAY ( TickType_t ) 0xffff
  62:Generated_Source\PSoC6\pdl\rtos/FreeRTOS/10.0.1/Source/portable/GCC/CM4F/portmacro.h **** #else
  63:Generated_Source\PSoC6\pdl\rtos/FreeRTOS/10.0.1/Source/portable/GCC/CM4F/portmacro.h **** 	typedef uint32_t TickType_t;
  64:Generated_Source\PSoC6\pdl\rtos/FreeRTOS/10.0.1/Source/portable/GCC/CM4F/portmacro.h **** 	#define portMAX_DELAY ( TickType_t ) 0xffffffffUL
  65:Generated_Source\PSoC6\pdl\rtos/FreeRTOS/10.0.1/Source/portable/GCC/CM4F/portmacro.h **** 
  66:Generated_Source\PSoC6\pdl\rtos/FreeRTOS/10.0.1/Source/portable/GCC/CM4F/portmacro.h **** 	/* 32-bit tick type on a 32-bit architecture, so reads of the tick count do
  67:Generated_Source\PSoC6\pdl\rtos/FreeRTOS/10.0.1/Source/portable/GCC/CM4F/portmacro.h **** 	not need to be guarded with a critical section. */
  68:Generated_Source\PSoC6\pdl\rtos/FreeRTOS/10.0.1/Source/portable/GCC/CM4F/portmacro.h **** 	#define portTICK_TYPE_IS_ATOMIC 1
  69:Generated_Source\PSoC6\pdl\rtos/FreeRTOS/10.0.1/Source/portable/GCC/CM4F/portmacro.h **** #endif
  70:Generated_Source\PSoC6\pdl\rtos/FreeRTOS/10.0.1/Source/portable/GCC/CM4F/portmacro.h **** /*-----------------------------------------------------------*/
  71:Generated_Source\PSoC6\pdl\rtos/FreeRTOS/10.0.1/Source/portable/GCC/CM4F/portmacro.h **** 
  72:Generated_Source\PSoC6\pdl\rtos/FreeRTOS/10.0.1/Source/portable/GCC/CM4F/portmacro.h **** /* Architecture specifics. */
  73:Generated_Source\PSoC6\pdl\rtos/FreeRTOS/10.0.1/Source/portable/GCC/CM4F/portmacro.h **** #define portSTACK_GROWTH			( -1 )
  74:Generated_Source\PSoC6\pdl\rtos/FreeRTOS/10.0.1/Source/portable/GCC/CM4F/portmacro.h **** #define portTICK_PERIOD_MS			( ( TickType_t ) 1000 / configTICK_RATE_HZ )
  75:Generated_Source\PSoC6\pdl\rtos/FreeRTOS/10.0.1/Source/portable/GCC/CM4F/portmacro.h **** #define portBYTE_ALIGNMENT			8
  76:Generated_Source\PSoC6\pdl\rtos/FreeRTOS/10.0.1/Source/portable/GCC/CM4F/portmacro.h **** /*-----------------------------------------------------------*/
  77:Generated_Source\PSoC6\pdl\rtos/FreeRTOS/10.0.1/Source/portable/GCC/CM4F/portmacro.h **** 
  78:Generated_Source\PSoC6\pdl\rtos/FreeRTOS/10.0.1/Source/portable/GCC/CM4F/portmacro.h **** /* Scheduler utilities. */
  79:Generated_Source\PSoC6\pdl\rtos/FreeRTOS/10.0.1/Source/portable/GCC/CM4F/portmacro.h **** #define portYIELD() 															\
  80:Generated_Source\PSoC6\pdl\rtos/FreeRTOS/10.0.1/Source/portable/GCC/CM4F/portmacro.h **** {																				\
  81:Generated_Source\PSoC6\pdl\rtos/FreeRTOS/10.0.1/Source/portable/GCC/CM4F/portmacro.h **** 	/* Set a PendSV to request a context switch. */								\
  82:Generated_Source\PSoC6\pdl\rtos/FreeRTOS/10.0.1/Source/portable/GCC/CM4F/portmacro.h **** 	portNVIC_INT_CTRL_REG = portNVIC_PENDSVSET_BIT;								\
  83:Generated_Source\PSoC6\pdl\rtos/FreeRTOS/10.0.1/Source/portable/GCC/CM4F/portmacro.h **** 																				\
  84:Generated_Source\PSoC6\pdl\rtos/FreeRTOS/10.0.1/Source/portable/GCC/CM4F/portmacro.h **** 	/* Barriers are normally not required but do ensure the code is completely	\
  85:Generated_Source\PSoC6\pdl\rtos/FreeRTOS/10.0.1/Source/portable/GCC/CM4F/portmacro.h **** 	within the specified behaviour for the architecture. */						\
  86:Generated_Source\PSoC6\pdl\rtos/FreeRTOS/10.0.1/Source/portable/GCC/CM4F/portmacro.h **** 	__asm volatile( "dsb" ::: "memory" );										\
  87:Generated_Source\PSoC6\pdl\rtos/FreeRTOS/10.0.1/Source/portable/GCC/CM4F/portmacro.h **** 	__asm volatile( "isb" );													\
  88:Generated_Source\PSoC6\pdl\rtos/FreeRTOS/10.0.1/Source/portable/GCC/CM4F/portmacro.h **** }
  89:Generated_Source\PSoC6\pdl\rtos/FreeRTOS/10.0.1/Source/portable/GCC/CM4F/portmacro.h **** 
  90:Generated_Source\PSoC6\pdl\rtos/FreeRTOS/10.0.1/Source/portable/GCC/CM4F/portmacro.h **** #define portNVIC_INT_CTRL_REG		( * ( ( volatile uint32_t * ) 0xe000ed04 ) )
  91:Generated_Source\PSoC6\pdl\rtos/FreeRTOS/10.0.1/Source/portable/GCC/CM4F/portmacro.h **** #define portNVIC_PENDSVSET_BIT		( 1UL << 28UL )
  92:Generated_Source\PSoC6\pdl\rtos/FreeRTOS/10.0.1/Source/portable/GCC/CM4F/portmacro.h **** #define portEND_SWITCHING_ISR( xSwitchRequired ) if( xSwitchRequired != pdFALSE ) portYIELD()
  93:Generated_Source\PSoC6\pdl\rtos/FreeRTOS/10.0.1/Source/portable/GCC/CM4F/portmacro.h **** #define portYIELD_FROM_ISR( x ) portEND_SWITCHING_ISR( x )
  94:Generated_Source\PSoC6\pdl\rtos/FreeRTOS/10.0.1/Source/portable/GCC/CM4F/portmacro.h **** /*-----------------------------------------------------------*/
  95:Generated_Source\PSoC6\pdl\rtos/FreeRTOS/10.0.1/Source/portable/GCC/CM4F/portmacro.h **** 
  96:Generated_Source\PSoC6\pdl\rtos/FreeRTOS/10.0.1/Source/portable/GCC/CM4F/portmacro.h **** /* Critical section management. */
  97:Generated_Source\PSoC6\pdl\rtos/FreeRTOS/10.0.1/Source/portable/GCC/CM4F/portmacro.h **** extern void vPortEnterCritical( void );
  98:Generated_Source\PSoC6\pdl\rtos/FreeRTOS/10.0.1/Source/portable/GCC/CM4F/portmacro.h **** extern void vPortExitCritical( void );
  99:Generated_Source\PSoC6\pdl\rtos/FreeRTOS/10.0.1/Source/portable/GCC/CM4F/portmacro.h **** #define portSET_INTERRUPT_MASK_FROM_ISR()		ulPortRaiseBASEPRI()
 100:Generated_Source\PSoC6\pdl\rtos/FreeRTOS/10.0.1/Source/portable/GCC/CM4F/portmacro.h **** #define portCLEAR_INTERRUPT_MASK_FROM_ISR(x)	vPortSetBASEPRI(x)
 101:Generated_Source\PSoC6\pdl\rtos/FreeRTOS/10.0.1/Source/portable/GCC/CM4F/portmacro.h **** #define portDISABLE_INTERRUPTS()				vPortRaiseBASEPRI()
 102:Generated_Source\PSoC6\pdl\rtos/FreeRTOS/10.0.1/Source/portable/GCC/CM4F/portmacro.h **** #define portENABLE_INTERRUPTS()					vPortSetBASEPRI(0)
ARM GAS  C:\Users\subra\AppData\Local\Temp\ccaog18v.s 			page 15


 103:Generated_Source\PSoC6\pdl\rtos/FreeRTOS/10.0.1/Source/portable/GCC/CM4F/portmacro.h **** #define portENTER_CRITICAL()					vPortEnterCritical()
 104:Generated_Source\PSoC6\pdl\rtos/FreeRTOS/10.0.1/Source/portable/GCC/CM4F/portmacro.h **** #define portEXIT_CRITICAL()						vPortExitCritical()
 105:Generated_Source\PSoC6\pdl\rtos/FreeRTOS/10.0.1/Source/portable/GCC/CM4F/portmacro.h **** 
 106:Generated_Source\PSoC6\pdl\rtos/FreeRTOS/10.0.1/Source/portable/GCC/CM4F/portmacro.h **** /*-----------------------------------------------------------*/
 107:Generated_Source\PSoC6\pdl\rtos/FreeRTOS/10.0.1/Source/portable/GCC/CM4F/portmacro.h **** 
 108:Generated_Source\PSoC6\pdl\rtos/FreeRTOS/10.0.1/Source/portable/GCC/CM4F/portmacro.h **** /* Task function macros as described on the FreeRTOS.org WEB site.  These are
 109:Generated_Source\PSoC6\pdl\rtos/FreeRTOS/10.0.1/Source/portable/GCC/CM4F/portmacro.h **** not necessary for to use this port.  They are defined so the common demo files
 110:Generated_Source\PSoC6\pdl\rtos/FreeRTOS/10.0.1/Source/portable/GCC/CM4F/portmacro.h **** (which build with all the ports) will build. */
 111:Generated_Source\PSoC6\pdl\rtos/FreeRTOS/10.0.1/Source/portable/GCC/CM4F/portmacro.h **** #define portTASK_FUNCTION_PROTO( vFunction, pvParameters ) void vFunction( void *pvParameters )
 112:Generated_Source\PSoC6\pdl\rtos/FreeRTOS/10.0.1/Source/portable/GCC/CM4F/portmacro.h **** #define portTASK_FUNCTION( vFunction, pvParameters ) void vFunction( void *pvParameters )
 113:Generated_Source\PSoC6\pdl\rtos/FreeRTOS/10.0.1/Source/portable/GCC/CM4F/portmacro.h **** 
 114:Generated_Source\PSoC6\pdl\rtos/FreeRTOS/10.0.1/Source/portable/GCC/CM4F/portmacro.h **** /*-----------------------------------------------------------*/
 115:Generated_Source\PSoC6\pdl\rtos/FreeRTOS/10.0.1/Source/portable/GCC/CM4F/portmacro.h **** 
 116:Generated_Source\PSoC6\pdl\rtos/FreeRTOS/10.0.1/Source/portable/GCC/CM4F/portmacro.h **** #ifdef configASSERT
 117:Generated_Source\PSoC6\pdl\rtos/FreeRTOS/10.0.1/Source/portable/GCC/CM4F/portmacro.h **** 	void vPortValidateInterruptPriority( void );
 118:Generated_Source\PSoC6\pdl\rtos/FreeRTOS/10.0.1/Source/portable/GCC/CM4F/portmacro.h **** 	#define portASSERT_IF_INTERRUPT_PRIORITY_INVALID() 	vPortValidateInterruptPriority()
 119:Generated_Source\PSoC6\pdl\rtos/FreeRTOS/10.0.1/Source/portable/GCC/CM4F/portmacro.h **** #endif
 120:Generated_Source\PSoC6\pdl\rtos/FreeRTOS/10.0.1/Source/portable/GCC/CM4F/portmacro.h **** 
 121:Generated_Source\PSoC6\pdl\rtos/FreeRTOS/10.0.1/Source/portable/GCC/CM4F/portmacro.h **** /* portNOP() is not required by this port. */
 122:Generated_Source\PSoC6\pdl\rtos/FreeRTOS/10.0.1/Source/portable/GCC/CM4F/portmacro.h **** #define portNOP()
 123:Generated_Source\PSoC6\pdl\rtos/FreeRTOS/10.0.1/Source/portable/GCC/CM4F/portmacro.h **** 
 124:Generated_Source\PSoC6\pdl\rtos/FreeRTOS/10.0.1/Source/portable/GCC/CM4F/portmacro.h **** #define portINLINE	__inline
 125:Generated_Source\PSoC6\pdl\rtos/FreeRTOS/10.0.1/Source/portable/GCC/CM4F/portmacro.h **** 
 126:Generated_Source\PSoC6\pdl\rtos/FreeRTOS/10.0.1/Source/portable/GCC/CM4F/portmacro.h **** #ifndef portFORCE_INLINE
 127:Generated_Source\PSoC6\pdl\rtos/FreeRTOS/10.0.1/Source/portable/GCC/CM4F/portmacro.h **** 	#define portFORCE_INLINE inline __attribute__(( always_inline))
 128:Generated_Source\PSoC6\pdl\rtos/FreeRTOS/10.0.1/Source/portable/GCC/CM4F/portmacro.h **** #endif
 129:Generated_Source\PSoC6\pdl\rtos/FreeRTOS/10.0.1/Source/portable/GCC/CM4F/portmacro.h **** 
 130:Generated_Source\PSoC6\pdl\rtos/FreeRTOS/10.0.1/Source/portable/GCC/CM4F/portmacro.h **** portFORCE_INLINE static BaseType_t xPortIsInsideInterrupt( void )
 131:Generated_Source\PSoC6\pdl\rtos/FreeRTOS/10.0.1/Source/portable/GCC/CM4F/portmacro.h **** {
 132:Generated_Source\PSoC6\pdl\rtos/FreeRTOS/10.0.1/Source/portable/GCC/CM4F/portmacro.h **** uint32_t ulCurrentInterrupt;
 133:Generated_Source\PSoC6\pdl\rtos/FreeRTOS/10.0.1/Source/portable/GCC/CM4F/portmacro.h **** BaseType_t xReturn;
 134:Generated_Source\PSoC6\pdl\rtos/FreeRTOS/10.0.1/Source/portable/GCC/CM4F/portmacro.h **** 
 135:Generated_Source\PSoC6\pdl\rtos/FreeRTOS/10.0.1/Source/portable/GCC/CM4F/portmacro.h **** 	/* Obtain the number of the currently executing interrupt. */
 136:Generated_Source\PSoC6\pdl\rtos/FreeRTOS/10.0.1/Source/portable/GCC/CM4F/portmacro.h **** 	__asm volatile( "mrs %0, ipsr" : "=r"( ulCurrentInterrupt ) :: "memory" );
 137:Generated_Source\PSoC6\pdl\rtos/FreeRTOS/10.0.1/Source/portable/GCC/CM4F/portmacro.h **** 
 138:Generated_Source\PSoC6\pdl\rtos/FreeRTOS/10.0.1/Source/portable/GCC/CM4F/portmacro.h **** 	if( ulCurrentInterrupt == 0 )
 139:Generated_Source\PSoC6\pdl\rtos/FreeRTOS/10.0.1/Source/portable/GCC/CM4F/portmacro.h **** 	{
 140:Generated_Source\PSoC6\pdl\rtos/FreeRTOS/10.0.1/Source/portable/GCC/CM4F/portmacro.h **** 		xReturn = pdFALSE;
 141:Generated_Source\PSoC6\pdl\rtos/FreeRTOS/10.0.1/Source/portable/GCC/CM4F/portmacro.h **** 	}
 142:Generated_Source\PSoC6\pdl\rtos/FreeRTOS/10.0.1/Source/portable/GCC/CM4F/portmacro.h **** 	else
 143:Generated_Source\PSoC6\pdl\rtos/FreeRTOS/10.0.1/Source/portable/GCC/CM4F/portmacro.h **** 	{
 144:Generated_Source\PSoC6\pdl\rtos/FreeRTOS/10.0.1/Source/portable/GCC/CM4F/portmacro.h **** 		xReturn = pdTRUE;
 145:Generated_Source\PSoC6\pdl\rtos/FreeRTOS/10.0.1/Source/portable/GCC/CM4F/portmacro.h **** 	}
 146:Generated_Source\PSoC6\pdl\rtos/FreeRTOS/10.0.1/Source/portable/GCC/CM4F/portmacro.h **** 
 147:Generated_Source\PSoC6\pdl\rtos/FreeRTOS/10.0.1/Source/portable/GCC/CM4F/portmacro.h **** 	return xReturn;
 148:Generated_Source\PSoC6\pdl\rtos/FreeRTOS/10.0.1/Source/portable/GCC/CM4F/portmacro.h **** }
 149:Generated_Source\PSoC6\pdl\rtos/FreeRTOS/10.0.1/Source/portable/GCC/CM4F/portmacro.h **** 
 150:Generated_Source\PSoC6\pdl\rtos/FreeRTOS/10.0.1/Source/portable/GCC/CM4F/portmacro.h **** /*-----------------------------------------------------------*/
 151:Generated_Source\PSoC6\pdl\rtos/FreeRTOS/10.0.1/Source/portable/GCC/CM4F/portmacro.h **** 
 152:Generated_Source\PSoC6\pdl\rtos/FreeRTOS/10.0.1/Source/portable/GCC/CM4F/portmacro.h **** portFORCE_INLINE static void vPortRaiseBASEPRI( void )
 153:Generated_Source\PSoC6\pdl\rtos/FreeRTOS/10.0.1/Source/portable/GCC/CM4F/portmacro.h **** {
 154:Generated_Source\PSoC6\pdl\rtos/FreeRTOS/10.0.1/Source/portable/GCC/CM4F/portmacro.h **** uint32_t ulNewBASEPRI;
 155:Generated_Source\PSoC6\pdl\rtos/FreeRTOS/10.0.1/Source/portable/GCC/CM4F/portmacro.h **** 
 156:Generated_Source\PSoC6\pdl\rtos/FreeRTOS/10.0.1/Source/portable/GCC/CM4F/portmacro.h **** 	__asm volatile
 249              		.loc 2 156 0
 250              		.syntax unified
 251              	@ 156 "Generated_Source\PSoC6\pdl\rtos/FreeRTOS/10.0.1/Source/portable/GCC/CM4F/portmacro.h" 1
ARM GAS  C:\Users\subra\AppData\Local\Temp\ccaog18v.s 			page 16


 252 0034 4FF02003 			mov r3, #32												
 253 0038 83F31188 		msr basepri, r3											
 254 003c BFF36F8F 		isb														
 255 0040 BFF34F8F 		dsb														
 256              	
 257              	@ 0 "" 2
 258              	.LVL25:
 259              		.thumb
 260              		.syntax unified
 261              	.L21:
 262 0044 FEE7     		b	.L21
 263              	.L20:
 264              	.LBE13:
 265              	.LBE12:
 161:Generated_Source\PSoC6\pdl\rtos\FreeRTOS\10.0.1\Source\portable\MemMang/heap_4.c **** 			{
 266              		.loc 1 161 0
 267 0046 002C     		cmp	r4, #0
 268 0048 48D0     		beq	.L31
 161:Generated_Source\PSoC6\pdl\rtos\FreeRTOS\10.0.1\Source\portable\MemMang/heap_4.c **** 			{
 269              		.loc 1 161 0 is_stmt 0 discriminator 1
 270 004a 2F4B     		ldr	r3, .L36
 271 004c D3F86835 		ldr	r3, [r3, #1384]
 272 0050 9C42     		cmp	r4, r3
 273 0052 45D8     		bhi	.L32
 274              	.LVL26:
 166:Generated_Source\PSoC6\pdl\rtos\FreeRTOS\10.0.1\Source\portable\MemMang/heap_4.c **** 				while( ( pxBlock->xBlockSize < xWantedSize ) && ( pxBlock->pxNextFreeBlock != NULL ) )
 275              		.loc 1 166 0 is_stmt 1
 276 0054 2C4B     		ldr	r3, .L36
 277 0056 D3F85855 		ldr	r5, [r3, #1368]
 278              	.LVL27:
 165:Generated_Source\PSoC6\pdl\rtos\FreeRTOS\10.0.1\Source\portable\MemMang/heap_4.c **** 				pxBlock = xStart.pxNextFreeBlock;
 279              		.loc 1 165 0
 280 005a 03F5AB63 		add	r3, r3, #1368
 167:Generated_Source\PSoC6\pdl\rtos\FreeRTOS\10.0.1\Source\portable\MemMang/heap_4.c **** 				{
 281              		.loc 1 167 0
 282 005e 01E0     		b	.L23
 283              	.LVL28:
 284              	.L33:
 169:Generated_Source\PSoC6\pdl\rtos\FreeRTOS\10.0.1\Source\portable\MemMang/heap_4.c **** 					pxBlock = pxBlock->pxNextFreeBlock;
 285              		.loc 1 169 0
 286 0060 2B46     		mov	r3, r5
 287              	.LVL29:
 170:Generated_Source\PSoC6\pdl\rtos\FreeRTOS\10.0.1\Source\portable\MemMang/heap_4.c **** 				}
 288              		.loc 1 170 0
 289 0062 1546     		mov	r5, r2
 290              	.LVL30:
 291              	.L23:
 167:Generated_Source\PSoC6\pdl\rtos\FreeRTOS\10.0.1\Source\portable\MemMang/heap_4.c **** 				{
 292              		.loc 1 167 0
 293 0064 6A68     		ldr	r2, [r5, #4]
 294 0066 9442     		cmp	r4, r2
 295 0068 02D9     		bls	.L22
 167:Generated_Source\PSoC6\pdl\rtos\FreeRTOS\10.0.1\Source\portable\MemMang/heap_4.c **** 				{
 296              		.loc 1 167 0 is_stmt 0 discriminator 1
 297 006a 2A68     		ldr	r2, [r5]
 298 006c 002A     		cmp	r2, #0
 299 006e F7D1     		bne	.L33
ARM GAS  C:\Users\subra\AppData\Local\Temp\ccaog18v.s 			page 17


 300              	.L22:
 175:Generated_Source\PSoC6\pdl\rtos\FreeRTOS\10.0.1\Source\portable\MemMang/heap_4.c **** 				{
 301              		.loc 1 175 0 is_stmt 1
 302 0070 254A     		ldr	r2, .L36
 303 0072 D2F86025 		ldr	r2, [r2, #1376]
 304 0076 9542     		cmp	r5, r2
 305 0078 34D0     		beq	.L34
 179:Generated_Source\PSoC6\pdl\rtos\FreeRTOS\10.0.1\Source\portable\MemMang/heap_4.c **** 
 306              		.loc 1 179 0
 307 007a 1E68     		ldr	r6, [r3]
 308 007c 0836     		adds	r6, r6, #8
 309              	.LVL31:
 183:Generated_Source\PSoC6\pdl\rtos\FreeRTOS\10.0.1\Source\portable\MemMang/heap_4.c **** 
 310              		.loc 1 183 0
 311 007e 2A68     		ldr	r2, [r5]
 312 0080 1A60     		str	r2, [r3]
 187:Generated_Source\PSoC6\pdl\rtos\FreeRTOS\10.0.1\Source\portable\MemMang/heap_4.c **** 					{
 313              		.loc 1 187 0
 314 0082 6B68     		ldr	r3, [r5, #4]
 315              	.LVL32:
 316 0084 1B1B     		subs	r3, r3, r4
 317 0086 102B     		cmp	r3, #16
 318 0088 10D9     		bls	.L24
 193:Generated_Source\PSoC6\pdl\rtos\FreeRTOS\10.0.1\Source\portable\MemMang/heap_4.c **** 						configASSERT( ( ( ( size_t ) pxNewBlockLink ) & portBYTE_ALIGNMENT_MASK ) == 0 );
 319              		.loc 1 193 0
 320 008a 2819     		adds	r0, r5, r4
 321              	.LVL33:
 194:Generated_Source\PSoC6\pdl\rtos\FreeRTOS\10.0.1\Source\portable\MemMang/heap_4.c **** 
 322              		.loc 1 194 0
 323 008c 10F0070F 		tst	r0, #7
 324 0090 08D0     		beq	.L25
 325              	.LBB14:
 326              	.LBB15:
 327              		.loc 2 156 0
 328              		.syntax unified
 329              	@ 156 "Generated_Source\PSoC6\pdl\rtos/FreeRTOS/10.0.1/Source/portable/GCC/CM4F/portmacro.h" 1
 330 0092 4FF02003 			mov r3, #32												
 331 0096 83F31188 		msr basepri, r3											
 332 009a BFF36F8F 		isb														
 333 009e BFF34F8F 		dsb														
 334              	
 335              	@ 0 "" 2
 336              	.LVL34:
 337              		.thumb
 338              		.syntax unified
 339              	.L26:
 340 00a2 FEE7     		b	.L26
 341              	.L25:
 342              	.LBE15:
 343              	.LBE14:
 198:Generated_Source\PSoC6\pdl\rtos\FreeRTOS\10.0.1\Source\portable\MemMang/heap_4.c **** 						pxBlock->xBlockSize = xWantedSize;
 344              		.loc 1 198 0
 345 00a4 4360     		str	r3, [r0, #4]
 199:Generated_Source\PSoC6\pdl\rtos\FreeRTOS\10.0.1\Source\portable\MemMang/heap_4.c **** 
 346              		.loc 1 199 0
 347 00a6 6C60     		str	r4, [r5, #4]
 202:Generated_Source\PSoC6\pdl\rtos\FreeRTOS\10.0.1\Source\portable\MemMang/heap_4.c **** 					}
ARM GAS  C:\Users\subra\AppData\Local\Temp\ccaog18v.s 			page 18


 348              		.loc 1 202 0
 349 00a8 FFF7FEFF 		bl	prvInsertBlockIntoFreeList
 350              	.LVL35:
 351              	.L24:
 209:Generated_Source\PSoC6\pdl\rtos\FreeRTOS\10.0.1\Source\portable\MemMang/heap_4.c **** 
 352              		.loc 1 209 0
 353 00ac 6A68     		ldr	r2, [r5, #4]
 354 00ae 1649     		ldr	r1, .L36
 355 00b0 D1F86835 		ldr	r3, [r1, #1384]
 356 00b4 9B1A     		subs	r3, r3, r2
 357 00b6 C1F86835 		str	r3, [r1, #1384]
 211:Generated_Source\PSoC6\pdl\rtos\FreeRTOS\10.0.1\Source\portable\MemMang/heap_4.c **** 					{
 358              		.loc 1 211 0
 359 00ba D1F86415 		ldr	r1, [r1, #1380]
 360 00be 8B42     		cmp	r3, r1
 361 00c0 02D2     		bcs	.L27
 213:Generated_Source\PSoC6\pdl\rtos\FreeRTOS\10.0.1\Source\portable\MemMang/heap_4.c **** 					}
 362              		.loc 1 213 0
 363 00c2 1149     		ldr	r1, .L36
 364 00c4 C1F86435 		str	r3, [r1, #1380]
 365              	.L27:
 222:Generated_Source\PSoC6\pdl\rtos\FreeRTOS\10.0.1\Source\portable\MemMang/heap_4.c **** 					pxBlock->pxNextFreeBlock = NULL;
 366              		.loc 1 222 0
 367 00c8 0F4B     		ldr	r3, .L36
 368 00ca D3F86C35 		ldr	r3, [r3, #1388]
 369 00ce 1A43     		orrs	r2, r2, r3
 370 00d0 6A60     		str	r2, [r5, #4]
 223:Generated_Source\PSoC6\pdl\rtos\FreeRTOS\10.0.1\Source\portable\MemMang/heap_4.c **** 				}
 371              		.loc 1 223 0
 372 00d2 0023     		movs	r3, #0
 373 00d4 2B60     		str	r3, [r5]
 374 00d6 06E0     		b	.L19
 375              	.LVL36:
 376              	.L30:
 116:Generated_Source\PSoC6\pdl\rtos\FreeRTOS\10.0.1\Source\portable\MemMang/heap_4.c **** 
 377              		.loc 1 116 0
 378 00d8 0026     		movs	r6, #0
 379 00da 04E0     		b	.L19
 380              	.L31:
 381 00dc 0026     		movs	r6, #0
 382 00de 02E0     		b	.L19
 383              	.L32:
 384 00e0 0026     		movs	r6, #0
 385 00e2 00E0     		b	.L19
 386              	.LVL37:
 387              	.L34:
 388 00e4 0026     		movs	r6, #0
 389              	.LVL38:
 390              	.L19:
 242:Generated_Source\PSoC6\pdl\rtos\FreeRTOS\10.0.1\Source\portable\MemMang/heap_4.c **** 
 391              		.loc 1 242 0
 392 00e6 FFF7FEFF 		bl	xTaskResumeAll
 393              	.LVL39:
 258:Generated_Source\PSoC6\pdl\rtos\FreeRTOS\10.0.1\Source\portable\MemMang/heap_4.c **** 	return pvReturn;
 394              		.loc 1 258 0
 395 00ea 16F0070F 		tst	r6, #7
 396 00ee 08D0     		beq	.L28
ARM GAS  C:\Users\subra\AppData\Local\Temp\ccaog18v.s 			page 19


 397              	.LBB16:
 398              	.LBB17:
 399              		.loc 2 156 0
 400              		.syntax unified
 401              	@ 156 "Generated_Source\PSoC6\pdl\rtos/FreeRTOS/10.0.1/Source/portable/GCC/CM4F/portmacro.h" 1
 402 00f0 4FF02003 			mov r3, #32												
 403 00f4 83F31188 		msr basepri, r3											
 404 00f8 BFF36F8F 		isb														
 405 00fc BFF34F8F 		dsb														
 406              	
 407              	@ 0 "" 2
 408              	.LVL40:
 409              		.thumb
 410              		.syntax unified
 411              	.L29:
 412 0100 FEE7     		b	.L29
 413              	.L28:
 414              	.LBE17:
 415              	.LBE16:
 260:Generated_Source\PSoC6\pdl\rtos\FreeRTOS\10.0.1\Source\portable\MemMang/heap_4.c **** /*-----------------------------------------------------------*/
 416              		.loc 1 260 0
 417 0102 3046     		mov	r0, r6
 418 0104 70BD     		pop	{r4, r5, r6, pc}
 419              	.LVL41:
 420              	.L37:
 421 0106 00BF     		.align	2
 422              	.L36:
 423 0108 A8BA0000 		.word	.LANCHOR1
 424              		.cfi_endproc
 425              	.LFE136:
 426              		.size	pvPortMalloc, .-pvPortMalloc
 427              		.section	.text.vPortFree,"ax",%progbits
 428              		.align	2
 429              		.global	vPortFree
 430              		.thumb
 431              		.thumb_func
 432              		.type	vPortFree, %function
 433              	vPortFree:
 434              	.LFB137:
 264:Generated_Source\PSoC6\pdl\rtos\FreeRTOS\10.0.1\Source\portable\MemMang/heap_4.c **** uint8_t *puc = ( uint8_t * ) pv;
 435              		.loc 1 264 0
 436              		.cfi_startproc
 437              		@ args = 0, pretend = 0, frame = 0
 438              		@ frame_needed = 0, uses_anonymous_args = 0
 439              	.LVL42:
 268:Generated_Source\PSoC6\pdl\rtos\FreeRTOS\10.0.1\Source\portable\MemMang/heap_4.c **** 	{
 440              		.loc 1 268 0
 441 0000 B8B3     		cbz	r0, .L45
 264:Generated_Source\PSoC6\pdl\rtos\FreeRTOS\10.0.1\Source\portable\MemMang/heap_4.c **** uint8_t *puc = ( uint8_t * ) pv;
 442              		.loc 1 264 0
 443 0002 38B5     		push	{r3, r4, r5, lr}
 444              		.cfi_def_cfa_offset 16
 445              		.cfi_offset 3, -16
 446              		.cfi_offset 4, -12
 447              		.cfi_offset 5, -8
 448              		.cfi_offset 14, -4
 449 0004 0346     		mov	r3, r0
ARM GAS  C:\Users\subra\AppData\Local\Temp\ccaog18v.s 			page 20


 272:Generated_Source\PSoC6\pdl\rtos\FreeRTOS\10.0.1\Source\portable\MemMang/heap_4.c **** 
 450              		.loc 1 272 0
 451 0006 A0F10805 		sub	r5, r0, #8
 452              	.LVL43:
 278:Generated_Source\PSoC6\pdl\rtos\FreeRTOS\10.0.1\Source\portable\MemMang/heap_4.c **** 		configASSERT( pxLink->pxNextFreeBlock == NULL );
 453              		.loc 1 278 0
 454 000a 50F8042C 		ldr	r2, [r0, #-4]
 455 000e 1949     		ldr	r1, .L46
 456 0010 D1F86C15 		ldr	r1, [r1, #1388]
 457 0014 12EA0104 		ands	r4, r2, r1
 458 0018 08D1     		bne	.L40
 459              	.LBB18:
 460              	.LBB19:
 461              		.loc 2 156 0
 462              		.syntax unified
 463              	@ 156 "Generated_Source\PSoC6\pdl\rtos/FreeRTOS/10.0.1/Source/portable/GCC/CM4F/portmacro.h" 1
 464 001a 4FF02003 			mov r3, #32												
 465 001e 83F31188 		msr basepri, r3											
 466 0022 BFF36F8F 		isb														
 467 0026 BFF34F8F 		dsb														
 468              	
 469              	@ 0 "" 2
 470              	.LVL44:
 471              		.thumb
 472              		.syntax unified
 473              	.L41:
 474 002a FEE7     		b	.L41
 475              	.L40:
 476              	.LBE19:
 477              	.LBE18:
 279:Generated_Source\PSoC6\pdl\rtos\FreeRTOS\10.0.1\Source\portable\MemMang/heap_4.c **** 
 478              		.loc 1 279 0
 479 002c 50F8080C 		ldr	r0, [r0, #-8]
 480              	.LVL45:
 481 0030 40B1     		cbz	r0, .L42
 482              	.LBB20:
 483              	.LBB21:
 484              		.loc 2 156 0
 485              		.syntax unified
 486              	@ 156 "Generated_Source\PSoC6\pdl\rtos/FreeRTOS/10.0.1/Source/portable/GCC/CM4F/portmacro.h" 1
 487 0032 4FF02003 			mov r3, #32												
 488 0036 83F31188 		msr basepri, r3											
 489 003a BFF36F8F 		isb														
 490 003e BFF34F8F 		dsb														
 491              	
 492              	@ 0 "" 2
 493              	.LVL46:
 494              		.thumb
 495              		.syntax unified
 496              	.L43:
 497 0042 FEE7     		b	.L43
 498              	.LVL47:
 499              	.L42:
 500              	.LBE21:
 501              	.LBE20:
 281:Generated_Source\PSoC6\pdl\rtos\FreeRTOS\10.0.1\Source\portable\MemMang/heap_4.c **** 		{
 502              		.loc 1 281 0
ARM GAS  C:\Users\subra\AppData\Local\Temp\ccaog18v.s 			page 21


 503 0044 A4B1     		cbz	r4, .L38
 283:Generated_Source\PSoC6\pdl\rtos\FreeRTOS\10.0.1\Source\portable\MemMang/heap_4.c **** 			{
 504              		.loc 1 283 0
 505 0046 98B9     		cbnz	r0, .L38
 506 0048 1C46     		mov	r4, r3
 287:Generated_Source\PSoC6\pdl\rtos\FreeRTOS\10.0.1\Source\portable\MemMang/heap_4.c **** 
 507              		.loc 1 287 0
 508 004a 22EA0102 		bic	r2, r2, r1
 509 004e 43F8042C 		str	r2, [r3, #-4]
 289:Generated_Source\PSoC6\pdl\rtos\FreeRTOS\10.0.1\Source\portable\MemMang/heap_4.c **** 				{
 510              		.loc 1 289 0
 511 0052 FFF7FEFF 		bl	vTaskSuspendAll
 512              	.LVL48:
 292:Generated_Source\PSoC6\pdl\rtos\FreeRTOS\10.0.1\Source\portable\MemMang/heap_4.c **** 					traceFREE( pv, pxLink->xBlockSize );
 513              		.loc 1 292 0
 514 0056 54F8043C 		ldr	r3, [r4, #-4]
 515 005a 064A     		ldr	r2, .L46
 516 005c D2F86815 		ldr	r1, [r2, #1384]
 517 0060 0B44     		add	r3, r3, r1
 518 0062 C2F86835 		str	r3, [r2, #1384]
 294:Generated_Source\PSoC6\pdl\rtos\FreeRTOS\10.0.1\Source\portable\MemMang/heap_4.c **** 				}
 519              		.loc 1 294 0
 520 0066 2846     		mov	r0, r5
 521 0068 FFF7FEFF 		bl	prvInsertBlockIntoFreeList
 522              	.LVL49:
 296:Generated_Source\PSoC6\pdl\rtos\FreeRTOS\10.0.1\Source\portable\MemMang/heap_4.c **** 			}
 523              		.loc 1 296 0
 524 006c FFF7FEFF 		bl	xTaskResumeAll
 525              	.LVL50:
 526              	.L38:
 527 0070 38BD     		pop	{r3, r4, r5, pc}
 528              	.LVL51:
 529              	.L45:
 530              		.cfi_def_cfa_offset 0
 531              		.cfi_restore 3
 532              		.cfi_restore 4
 533              		.cfi_restore 5
 534              		.cfi_restore 14
 535 0072 7047     		bx	lr
 536              	.L47:
 537              		.align	2
 538              	.L46:
 539 0074 A8BA0000 		.word	.LANCHOR1
 540              		.cfi_endproc
 541              	.LFE137:
 542              		.size	vPortFree, .-vPortFree
 543              		.section	.text.xPortGetFreeHeapSize,"ax",%progbits
 544              		.align	2
 545              		.global	xPortGetFreeHeapSize
 546              		.thumb
 547              		.thumb_func
 548              		.type	xPortGetFreeHeapSize, %function
 549              	xPortGetFreeHeapSize:
 550              	.LFB138:
 312:Generated_Source\PSoC6\pdl\rtos\FreeRTOS\10.0.1\Source\portable\MemMang/heap_4.c **** 	return xFreeBytesRemaining;
 551              		.loc 1 312 0
 552              		.cfi_startproc
ARM GAS  C:\Users\subra\AppData\Local\Temp\ccaog18v.s 			page 22


 553              		@ args = 0, pretend = 0, frame = 0
 554              		@ frame_needed = 0, uses_anonymous_args = 0
 555              		@ link register save eliminated.
 314:Generated_Source\PSoC6\pdl\rtos\FreeRTOS\10.0.1\Source\portable\MemMang/heap_4.c **** /*-----------------------------------------------------------*/
 556              		.loc 1 314 0
 557 0000 014B     		ldr	r3, .L49
 558 0002 D3F86805 		ldr	r0, [r3, #1384]
 559 0006 7047     		bx	lr
 560              	.L50:
 561              		.align	2
 562              	.L49:
 563 0008 A8BA0000 		.word	.LANCHOR1
 564              		.cfi_endproc
 565              	.LFE138:
 566              		.size	xPortGetFreeHeapSize, .-xPortGetFreeHeapSize
 567              		.section	.text.xPortGetMinimumEverFreeHeapSize,"ax",%progbits
 568              		.align	2
 569              		.global	xPortGetMinimumEverFreeHeapSize
 570              		.thumb
 571              		.thumb_func
 572              		.type	xPortGetMinimumEverFreeHeapSize, %function
 573              	xPortGetMinimumEverFreeHeapSize:
 574              	.LFB139:
 318:Generated_Source\PSoC6\pdl\rtos\FreeRTOS\10.0.1\Source\portable\MemMang/heap_4.c **** 	return xMinimumEverFreeBytesRemaining;
 575              		.loc 1 318 0
 576              		.cfi_startproc
 577              		@ args = 0, pretend = 0, frame = 0
 578              		@ frame_needed = 0, uses_anonymous_args = 0
 579              		@ link register save eliminated.
 320:Generated_Source\PSoC6\pdl\rtos\FreeRTOS\10.0.1\Source\portable\MemMang/heap_4.c **** /*-----------------------------------------------------------*/
 580              		.loc 1 320 0
 581 0000 014B     		ldr	r3, .L52
 582 0002 D3F86405 		ldr	r0, [r3, #1380]
 583 0006 7047     		bx	lr
 584              	.L53:
 585              		.align	2
 586              	.L52:
 587 0008 A8BA0000 		.word	.LANCHOR1
 588              		.cfi_endproc
 589              	.LFE139:
 590              		.size	xPortGetMinimumEverFreeHeapSize, .-xPortGetMinimumEverFreeHeapSize
 591              		.section	.text.vPortInitialiseBlocks,"ax",%progbits
 592              		.align	2
 593              		.global	vPortInitialiseBlocks
 594              		.thumb
 595              		.thumb_func
 596              		.type	vPortInitialiseBlocks, %function
 597              	vPortInitialiseBlocks:
 598              	.LFB140:
 324:Generated_Source\PSoC6\pdl\rtos\FreeRTOS\10.0.1\Source\portable\MemMang/heap_4.c **** 	/* This just exists to keep the linker quiet. */
 599              		.loc 1 324 0
 600              		.cfi_startproc
 601              		@ args = 0, pretend = 0, frame = 0
 602              		@ frame_needed = 0, uses_anonymous_args = 0
 603              		@ link register save eliminated.
 604 0000 7047     		bx	lr
 605              		.cfi_endproc
ARM GAS  C:\Users\subra\AppData\Local\Temp\ccaog18v.s 			page 23


 606              	.LFE140:
 607              		.size	vPortInitialiseBlocks, .-vPortInitialiseBlocks
 608 0002 00BF     		.bss
 609              		.align	2
 610              		.set	.LANCHOR0,. + 0
 611              		.set	.LANCHOR1,. + 47784
 612              		.type	ucHeap, %object
 613              		.size	ucHeap, 49152
 614              	ucHeap:
 615 0000 00000000 		.space	49152
 615      00000000 
 615      00000000 
 615      00000000 
 615      00000000 
 616              		.type	xStart, %object
 617              		.size	xStart, 8
 618              	xStart:
 619 c000 00000000 		.space	8
 619      00000000 
 620              		.type	pxEnd, %object
 621              		.size	pxEnd, 4
 622              	pxEnd:
 623 c008 00000000 		.space	4
 624              		.type	xMinimumEverFreeBytesRemaining, %object
 625              		.size	xMinimumEverFreeBytesRemaining, 4
 626              	xMinimumEverFreeBytesRemaining:
 627 c00c 00000000 		.space	4
 628              		.type	xFreeBytesRemaining, %object
 629              		.size	xFreeBytesRemaining, 4
 630              	xFreeBytesRemaining:
 631 c010 00000000 		.space	4
 632              		.type	xBlockAllocatedBit, %object
 633              		.size	xBlockAllocatedBit, 4
 634              	xBlockAllocatedBit:
 635 c014 00000000 		.space	4
 636              		.text
 637              	.Letext0:
 638              		.file 3 "d:\\program files (x86)\\cypress\\psoc creator\\4.4\\psoc creator\\import\\gnu\\arm\\5.4.
 639              		.file 4 "d:\\program files (x86)\\cypress\\psoc creator\\4.4\\psoc creator\\import\\gnu\\arm\\5.4.
 640              		.file 5 "d:\\program files (x86)\\cypress\\psoc creator\\4.4\\psoc creator\\import\\gnu\\arm\\5.4.
 641              		.file 6 "Generated_Source\\PSoC6\\pdl\\rtos/FreeRTOS/10.0.1/Source/include/task.h"
 642              		.file 7 "Generated_Source\\PSoC6\\pdl\\cmsis/include/core_cm4.h"