ARM GAS  C:\Users\subra\AppData\Local\Temp\ccqqvmwo.s 			page 1


   1              		.syntax unified
   2              		.cpu cortex-m4
   3              		.eabi_attribute 27, 1
   4              		.fpu fpv4-sp-d16
   5              		.eabi_attribute 20, 1
   6              		.eabi_attribute 21, 1
   7              		.eabi_attribute 23, 3
   8              		.eabi_attribute 24, 1
   9              		.eabi_attribute 25, 1
  10              		.eabi_attribute 26, 1
  11              		.eabi_attribute 30, 1
  12              		.eabi_attribute 34, 1
  13              		.eabi_attribute 18, 4
  14              		.thumb
  15              		.syntax unified
  16              		.file	"main_cm4.c"
  17              		.text
  18              	.Ltext0:
  19              		.cfi_sections	.debug_frame
  20              		.section	.text.genericEventHandler,"ax",%progbits
  21              		.align	2
  22              		.global	genericEventHandler
  23              		.thumb
  24              		.thumb_func
  25              		.type	genericEventHandler, %function
  26              	genericEventHandler:
  27              	.LFB496:
  28              		.file 1 "main_cm4.c"
   1:main_cm4.c    **** /* ========================================
   2:main_cm4.c    ****  *
   3:main_cm4.c    ****  * Copyright YOUR COMPANY, THE YEAR
   4:main_cm4.c    ****  * All Rights Reserved
   5:main_cm4.c    ****  * UNPUBLISHED, LICENSED SOFTWARE.
   6:main_cm4.c    ****  *
   7:main_cm4.c    ****  * CONFIDENTIAL AND PROPRIETARY INFORMATION
   8:main_cm4.c    ****  * WHICH IS THE PROPERTY OF your company.
   9:main_cm4.c    ****  *
  10:main_cm4.c    ****  * ========================================
  11:main_cm4.c    **** */
  12:main_cm4.c    **** #include "project.h"
  13:main_cm4.c    **** #include "FreeRTOS.h"
  14:main_cm4.c    **** #include "task.h"
  15:main_cm4.c    **** #include "semphr.h"
  16:main_cm4.c    **** #include <stdio.h>
  17:main_cm4.c    **** #include <limits.h>
  18:main_cm4.c    **** 
  19:main_cm4.c    **** SemaphoreHandle_t bleSemaphore;
  20:main_cm4.c    **** 
  21:main_cm4.c    **** void genericEventHandler(uint32_t event, void *eventParameter) {
  29              		.loc 1 21 0
  30              		.cfi_startproc
  31              		@ args = 0, pretend = 0, frame = 0
  32              		@ frame_needed = 0, uses_anonymous_args = 0
  33              	.LVL0:
  34 0000 70B5     		push	{r4, r5, r6, lr}
  35              		.cfi_def_cfa_offset 16
  36              		.cfi_offset 4, -16
ARM GAS  C:\Users\subra\AppData\Local\Temp\ccqqvmwo.s 			page 2


  37              		.cfi_offset 5, -12
  38              		.cfi_offset 6, -8
  39              		.cfi_offset 14, -4
  22:main_cm4.c    ****     cy_stc_ble_gatts_write_cmd_req_param_t *writeReqParameter;
  23:main_cm4.c    ****     
  24:main_cm4.c    ****     // Take an action based on current event
  25:main_cm4.c    ****     switch (event) {
  40              		.loc 1 25 0
  41 0002 44F20803 		movw	r3, #16392
  42 0006 9842     		cmp	r0, r3
  43 0008 0ED0     		beq	.L3
  44 000a 0D46     		mov	r5, r1
  45 000c 03D8     		bhi	.L4
  46 000e B0F5805F 		cmp	r0, #4096
  47 0012 09D0     		beq	.L3
  48 0014 70BD     		pop	{r4, r5, r6, pc}
  49              	.L4:
  50 0016 45F20103 		movw	r3, #20481
  51 001a 9842     		cmp	r0, r3
  52 001c 0CD0     		beq	.L5
  53 001e 45F20C03 		movw	r3, #20492
  54 0022 9842     		cmp	r0, r3
  55 0024 0CD0     		beq	.L6
  56 0026 70BD     		pop	{r4, r5, r6, pc}
  57              	.L3:
  26:main_cm4.c    ****         case CY_BLE_EVT_STACK_ON:
  27:main_cm4.c    ****         case CY_BLE_EVT_GAP_DEVICE_DISCONNECTED:
  28:main_cm4.c    ****             printf("disconnected\n");
  58              		.loc 1 28 0
  59 0028 0E48     		ldr	r0, .L11
  60              	.LVL1:
  61 002a FFF7FEFF 		bl	puts
  62              	.LVL2:
  29:main_cm4.c    ****             Cy_BLE_GAPP_StartAdvertisement(CY_BLE_ADVERTISING_FAST, CY_BLE_PERIPHERAL_CONFIGURATION
  63              		.loc 1 29 0
  64 002e 0021     		movs	r1, #0
  65 0030 0846     		mov	r0, r1
  66 0032 FFF7FEFF 		bl	Cy_BLE_GAPP_StartAdvertisement
  67              	.LVL3:
  30:main_cm4.c    ****             break;
  68              		.loc 1 30 0
  69 0036 70BD     		pop	{r4, r5, r6, pc}
  70              	.LVL4:
  71              	.L5:
  31:main_cm4.c    ****         case CY_BLE_EVT_GATT_CONNECT_IND:
  32:main_cm4.c    ****             printf("connected\n");
  72              		.loc 1 32 0
  73 0038 0B48     		ldr	r0, .L11+4
  74              	.LVL5:
  75 003a FFF7FEFF 		bl	puts
  76              	.LVL6:
  33:main_cm4.c    ****             break;
  77              		.loc 1 33 0
  78 003e 70BD     		pop	{r4, r5, r6, pc}
  79              	.LVL7:
  80              	.L6:
  34:main_cm4.c    ****         case CY_BLE_EVT_GATTS_WRITE_REQ:
ARM GAS  C:\Users\subra\AppData\Local\Temp\ccqqvmwo.s 			page 3


  35:main_cm4.c    ****             writeReqParameter = (cy_stc_ble_gatts_write_cmd_req_param_t *) eventParameter;
  36:main_cm4.c    ****             
  37:main_cm4.c    ****             if (CY_BLE_NS_NSCHARACTERISTIC_CHAR_HANDLE == writeReqParameter->handleValPair.attrHand
  81              		.loc 1 37 0
  82 0040 0B89     		ldrh	r3, [r1, #8]
  83 0042 122B     		cmp	r3, #18
  84 0044 0AD1     		bne	.L7
  85              	.LBB4:
  38:main_cm4.c    ****                 uint8_t *commands = writeReqParameter->handleValPair.value.val;
  86              		.loc 1 38 0
  87 0046 0E68     		ldr	r6, [r1]
  88              	.LVL8:
  89              	.LBB5:
  39:main_cm4.c    ****                 
  40:main_cm4.c    ****                 for (int i=0; i < 5; i++) {
  90              		.loc 1 40 0
  91 0048 0024     		movs	r4, #0
  92 004a 05E0     		b	.L8
  93              	.LVL9:
  94              	.L9:
  41:main_cm4.c    ****                     printf("command[%d] = %d\r\n", i, commands[i]);
  95              		.loc 1 41 0 discriminator 3
  96 004c 325D     		ldrb	r2, [r6, r4]	@ zero_extendqisi2
  97 004e 2146     		mov	r1, r4
  98 0050 0648     		ldr	r0, .L11+8
  99 0052 FFF7FEFF 		bl	printf
 100              	.LVL10:
  40:main_cm4.c    ****                     printf("command[%d] = %d\r\n", i, commands[i]);
 101              		.loc 1 40 0 discriminator 3
 102 0056 0134     		adds	r4, r4, #1
 103              	.LVL11:
 104              	.L8:
  40:main_cm4.c    ****                     printf("command[%d] = %d\r\n", i, commands[i]);
 105              		.loc 1 40 0 is_stmt 0 discriminator 1
 106 0058 042C     		cmp	r4, #4
 107 005a F7DD     		ble	.L9
 108              	.LVL12:
 109              	.L7:
 110              	.LBE5:
 111              	.LBE4:
  42:main_cm4.c    ****                 }
  43:main_cm4.c    ****                 
  44:main_cm4.c    ****             }
  45:main_cm4.c    ****             
  46:main_cm4.c    ****             Cy_BLE_GATTS_WriteRsp(writeReqParameter->connHandle);
 112              		.loc 1 46 0 is_stmt 1
 113 005c E868     		ldr	r0, [r5, #12]
 114 005e FFF7FEFF 		bl	Cy_BLE_GATTS_WriteRsp
 115              	.LVL13:
 116 0062 70BD     		pop	{r4, r5, r6, pc}
 117              	.LVL14:
 118              	.L12:
 119              		.align	2
 120              	.L11:
 121 0064 00000000 		.word	.LC0
 122 0068 10000000 		.word	.LC1
 123 006c 1C000000 		.word	.LC2
ARM GAS  C:\Users\subra\AppData\Local\Temp\ccqqvmwo.s 			page 4


 124              		.cfi_endproc
 125              	.LFE496:
 126              		.size	genericEventHandler, .-genericEventHandler
 127              		.section	.text.bleInterruptNotify,"ax",%progbits
 128              		.align	2
 129              		.global	bleInterruptNotify
 130              		.thumb
 131              		.thumb_func
 132              		.type	bleInterruptNotify, %function
 133              	bleInterruptNotify:
 134              	.LFB497:
  47:main_cm4.c    ****             break;
  48:main_cm4.c    ****         default:
  49:main_cm4.c    ****             break;
  50:main_cm4.c    ****     }
  51:main_cm4.c    **** }
  52:main_cm4.c    **** 
  53:main_cm4.c    **** void bleInterruptNotify() {
 135              		.loc 1 53 0
 136              		.cfi_startproc
 137              		@ args = 0, pretend = 0, frame = 8
 138              		@ frame_needed = 0, uses_anonymous_args = 0
 139 0000 00B5     		push	{lr}
 140              		.cfi_def_cfa_offset 4
 141              		.cfi_offset 14, -4
 142 0002 83B0     		sub	sp, sp, #12
 143              		.cfi_def_cfa_offset 16
  54:main_cm4.c    ****     BaseType_t xHigherPriorityTaskWoken;
  55:main_cm4.c    ****     xHigherPriorityTaskWoken = pdFALSE;
 144              		.loc 1 55 0
 145 0004 02A9     		add	r1, sp, #8
 146 0006 0023     		movs	r3, #0
 147 0008 41F8043D 		str	r3, [r1, #-4]!
  56:main_cm4.c    ****     xSemaphoreGiveFromISR(bleSemaphore, &xHigherPriorityTaskWoken);
 148              		.loc 1 56 0
 149 000c 084B     		ldr	r3, .L16
 150 000e 1868     		ldr	r0, [r3]
 151 0010 FFF7FEFF 		bl	xQueueGiveFromISR
 152              	.LVL15:
  57:main_cm4.c    ****     portYIELD_FROM_ISR(xHigherPriorityTaskWoken);
 153              		.loc 1 57 0
 154 0014 019B     		ldr	r3, [sp, #4]
 155 0016 3BB1     		cbz	r3, .L13
 156              		.loc 1 57 0 is_stmt 0 discriminator 1
 157 0018 4FF08052 		mov	r2, #268435456
 158 001c 054B     		ldr	r3, .L16+4
 159 001e 1A60     		str	r2, [r3]
 160              		.syntax unified
 161              	@ 57 "main_cm4.c" 1
 162 0020 BFF34F8F 		dsb
 163              	@ 0 "" 2
 164              	@ 57 "main_cm4.c" 1
 165 0024 BFF36F8F 		isb
 166              	@ 0 "" 2
 167              		.thumb
 168              		.syntax unified
 169              	.L13:
ARM GAS  C:\Users\subra\AppData\Local\Temp\ccqqvmwo.s 			page 5


  58:main_cm4.c    **** }
 170              		.loc 1 58 0 is_stmt 1
 171 0028 03B0     		add	sp, sp, #12
 172              		.cfi_def_cfa_offset 4
 173              		@ sp needed
 174 002a 5DF804FB 		ldr	pc, [sp], #4
 175              	.L17:
 176 002e 00BF     		.align	2
 177              	.L16:
 178 0030 00000000 		.word	bleSemaphore
 179 0034 04ED00E0 		.word	-536810236
 180              		.cfi_endproc
 181              	.LFE497:
 182              		.size	bleInterruptNotify, .-bleInterruptNotify
 183              		.section	.text.bleTask,"ax",%progbits
 184              		.align	2
 185              		.global	bleTask
 186              		.thumb
 187              		.thumb_func
 188              		.type	bleTask, %function
 189              	bleTask:
 190              	.LFB498:
  59:main_cm4.c    **** 
  60:main_cm4.c    **** void bleTask(void *arg) {
 191              		.loc 1 60 0
 192              		.cfi_startproc
 193              		@ Volatile: function does not return.
 194              		@ args = 0, pretend = 0, frame = 0
 195              		@ frame_needed = 0, uses_anonymous_args = 0
 196              	.LVL16:
 197 0000 08B5     		push	{r3, lr}
 198              		.cfi_def_cfa_offset 8
 199              		.cfi_offset 3, -8
 200              		.cfi_offset 14, -4
  61:main_cm4.c    ****     (void) arg;
  62:main_cm4.c    ****     printf("BLE Task Started\r\n");
 201              		.loc 1 62 0
 202 0002 1048     		ldr	r0, .L23
 203              	.LVL17:
 204 0004 FFF7FEFF 		bl	puts
 205              	.LVL18:
  63:main_cm4.c    ****     
  64:main_cm4.c    ****     bleSemaphore = xSemaphoreCreateCounting(UINT_MAX, 0);
 206              		.loc 1 64 0
 207 0008 0021     		movs	r1, #0
 208 000a 4FF0FF30 		mov	r0, #-1
 209 000e FFF7FEFF 		bl	xQueueCreateCountingSemaphore
 210              	.LVL19:
 211 0012 0D4B     		ldr	r3, .L23+4
 212 0014 1860     		str	r0, [r3]
  65:main_cm4.c    ****     
  66:main_cm4.c    ****     Cy_BLE_Start(genericEventHandler);
 213              		.loc 1 66 0
 214 0016 0D48     		ldr	r0, .L23+8
 215 0018 FFF7FEFF 		bl	Cy_BLE_Start
 216              	.LVL20:
  67:main_cm4.c    ****     
ARM GAS  C:\Users\subra\AppData\Local\Temp\ccqqvmwo.s 			page 6


  68:main_cm4.c    ****     while (Cy_BLE_GetState() != CY_BLE_STATE_ON) {
 217              		.loc 1 68 0
 218 001c 01E0     		b	.L19
 219              	.L20:
  69:main_cm4.c    ****         Cy_BLE_ProcessEvents();
 220              		.loc 1 69 0
 221 001e FFF7FEFF 		bl	Cy_BLE_ProcessEvents
 222              	.LVL21:
 223              	.L19:
  68:main_cm4.c    ****         Cy_BLE_ProcessEvents();
 224              		.loc 1 68 0
 225 0022 0B4B     		ldr	r3, .L23+12
 226 0024 1B78     		ldrb	r3, [r3]	@ zero_extendqisi2
 227 0026 022B     		cmp	r3, #2
 228 0028 F9D1     		bne	.L20
  70:main_cm4.c    ****     }
  71:main_cm4.c    ****     
  72:main_cm4.c    ****     Cy_BLE_RegisterAppHostCallback(bleInterruptNotify);
 229              		.loc 1 72 0
 230 002a 0A48     		ldr	r0, .L23+16
 231 002c FFF7FEFF 		bl	Cy_BLE_RegisterAppHostCallback
 232              	.LVL22:
 233              	.L21:
  73:main_cm4.c    ****     
  74:main_cm4.c    ****     for(;;) {
  75:main_cm4.c    ****         xSemaphoreTake(bleSemaphore, portMAX_DELAY);
 234              		.loc 1 75 0 discriminator 1
 235 0030 4FF0FF31 		mov	r1, #-1
 236 0034 044B     		ldr	r3, .L23+4
 237 0036 1868     		ldr	r0, [r3]
 238 0038 FFF7FEFF 		bl	xQueueSemaphoreTake
 239              	.LVL23:
  76:main_cm4.c    ****         Cy_BLE_ProcessEvents();
 240              		.loc 1 76 0 discriminator 1
 241 003c FFF7FEFF 		bl	Cy_BLE_ProcessEvents
 242              	.LVL24:
 243 0040 F6E7     		b	.L21
 244              	.L24:
 245 0042 00BF     		.align	2
 246              	.L23:
 247 0044 30000000 		.word	.LC3
 248 0048 00000000 		.word	bleSemaphore
 249 004c 00000000 		.word	genericEventHandler
 250 0050 00000000 		.word	cy_ble_state
 251 0054 00000000 		.word	bleInterruptNotify
 252              		.cfi_endproc
 253              	.LFE498:
 254              		.size	bleTask, .-bleTask
 255              		.section	.text.main,"ax",%progbits
 256              		.align	2
 257              		.global	main
 258              		.thumb
 259              		.thumb_func
 260              		.type	main, %function
 261              	main:
 262              	.LFB499:
  77:main_cm4.c    ****     }
ARM GAS  C:\Users\subra\AppData\Local\Temp\ccqqvmwo.s 			page 7


  78:main_cm4.c    **** }
  79:main_cm4.c    **** 
  80:main_cm4.c    **** 
  81:main_cm4.c    **** int main(void)
  82:main_cm4.c    **** {
 263              		.loc 1 82 0
 264              		.cfi_startproc
 265              		@ Volatile: function does not return.
 266              		@ args = 0, pretend = 0, frame = 0
 267              		@ frame_needed = 0, uses_anonymous_args = 0
 268 0000 00B5     		push	{lr}
 269              		.cfi_def_cfa_offset 4
 270              		.cfi_offset 14, -4
 271 0002 83B0     		sub	sp, sp, #12
 272              		.cfi_def_cfa_offset 16
 273              	.LBB6:
 274              	.LBB7:
 275              		.file 2 "Generated_Source\\PSoC6\\pdl\\cmsis/include/cmsis_gcc.h"
   1:Generated_Source\PSoC6\pdl\cmsis/include/cmsis_gcc.h **** /**************************************************************************//**
   2:Generated_Source\PSoC6\pdl\cmsis/include/cmsis_gcc.h ****  * @file     cmsis_gcc.h
   3:Generated_Source\PSoC6\pdl\cmsis/include/cmsis_gcc.h ****  * @brief    CMSIS compiler GCC header file
   4:Generated_Source\PSoC6\pdl\cmsis/include/cmsis_gcc.h ****  * @version  V5.0.3
   5:Generated_Source\PSoC6\pdl\cmsis/include/cmsis_gcc.h ****  * @date     16. January 2018
   6:Generated_Source\PSoC6\pdl\cmsis/include/cmsis_gcc.h ****  ******************************************************************************/
   7:Generated_Source\PSoC6\pdl\cmsis/include/cmsis_gcc.h **** /*
   8:Generated_Source\PSoC6\pdl\cmsis/include/cmsis_gcc.h ****  * Copyright (c) 2009-2017 ARM Limited. All rights reserved.
   9:Generated_Source\PSoC6\pdl\cmsis/include/cmsis_gcc.h ****  *
  10:Generated_Source\PSoC6\pdl\cmsis/include/cmsis_gcc.h ****  * SPDX-License-Identifier: Apache-2.0
  11:Generated_Source\PSoC6\pdl\cmsis/include/cmsis_gcc.h ****  *
  12:Generated_Source\PSoC6\pdl\cmsis/include/cmsis_gcc.h ****  * Licensed under the Apache License, Version 2.0 (the License); you may
  13:Generated_Source\PSoC6\pdl\cmsis/include/cmsis_gcc.h ****  * not use this file except in compliance with the License.
  14:Generated_Source\PSoC6\pdl\cmsis/include/cmsis_gcc.h ****  * You may obtain a copy of the License at
  15:Generated_Source\PSoC6\pdl\cmsis/include/cmsis_gcc.h ****  *
  16:Generated_Source\PSoC6\pdl\cmsis/include/cmsis_gcc.h ****  * www.apache.org/licenses/LICENSE-2.0
  17:Generated_Source\PSoC6\pdl\cmsis/include/cmsis_gcc.h ****  *
  18:Generated_Source\PSoC6\pdl\cmsis/include/cmsis_gcc.h ****  * Unless required by applicable law or agreed to in writing, software
  19:Generated_Source\PSoC6\pdl\cmsis/include/cmsis_gcc.h ****  * distributed under the License is distributed on an AS IS BASIS, WITHOUT
  20:Generated_Source\PSoC6\pdl\cmsis/include/cmsis_gcc.h ****  * WARRANTIES OR CONDITIONS OF ANY KIND, either express or implied.
  21:Generated_Source\PSoC6\pdl\cmsis/include/cmsis_gcc.h ****  * See the License for the specific language governing permissions and
  22:Generated_Source\PSoC6\pdl\cmsis/include/cmsis_gcc.h ****  * limitations under the License.
  23:Generated_Source\PSoC6\pdl\cmsis/include/cmsis_gcc.h ****  */
  24:Generated_Source\PSoC6\pdl\cmsis/include/cmsis_gcc.h **** 
  25:Generated_Source\PSoC6\pdl\cmsis/include/cmsis_gcc.h **** #ifndef __CMSIS_GCC_H
  26:Generated_Source\PSoC6\pdl\cmsis/include/cmsis_gcc.h **** #define __CMSIS_GCC_H
  27:Generated_Source\PSoC6\pdl\cmsis/include/cmsis_gcc.h **** 
  28:Generated_Source\PSoC6\pdl\cmsis/include/cmsis_gcc.h **** /* ignore some GCC warnings */
  29:Generated_Source\PSoC6\pdl\cmsis/include/cmsis_gcc.h **** #pragma GCC diagnostic push
  30:Generated_Source\PSoC6\pdl\cmsis/include/cmsis_gcc.h **** #pragma GCC diagnostic ignored "-Wsign-conversion"
  31:Generated_Source\PSoC6\pdl\cmsis/include/cmsis_gcc.h **** #pragma GCC diagnostic ignored "-Wconversion"
  32:Generated_Source\PSoC6\pdl\cmsis/include/cmsis_gcc.h **** #pragma GCC diagnostic ignored "-Wunused-parameter"
  33:Generated_Source\PSoC6\pdl\cmsis/include/cmsis_gcc.h **** 
  34:Generated_Source\PSoC6\pdl\cmsis/include/cmsis_gcc.h **** /* Fallback for __has_builtin */
  35:Generated_Source\PSoC6\pdl\cmsis/include/cmsis_gcc.h **** #ifndef __has_builtin
  36:Generated_Source\PSoC6\pdl\cmsis/include/cmsis_gcc.h ****   #define __has_builtin(x) (0)
  37:Generated_Source\PSoC6\pdl\cmsis/include/cmsis_gcc.h **** #endif
  38:Generated_Source\PSoC6\pdl\cmsis/include/cmsis_gcc.h **** 
  39:Generated_Source\PSoC6\pdl\cmsis/include/cmsis_gcc.h **** /* CMSIS compiler specific defines */
ARM GAS  C:\Users\subra\AppData\Local\Temp\ccqqvmwo.s 			page 8


  40:Generated_Source\PSoC6\pdl\cmsis/include/cmsis_gcc.h **** #ifndef   __ASM
  41:Generated_Source\PSoC6\pdl\cmsis/include/cmsis_gcc.h ****   #define __ASM                                  __asm
  42:Generated_Source\PSoC6\pdl\cmsis/include/cmsis_gcc.h **** #endif
  43:Generated_Source\PSoC6\pdl\cmsis/include/cmsis_gcc.h **** #ifndef   __INLINE
  44:Generated_Source\PSoC6\pdl\cmsis/include/cmsis_gcc.h ****   #define __INLINE                               inline
  45:Generated_Source\PSoC6\pdl\cmsis/include/cmsis_gcc.h **** #endif
  46:Generated_Source\PSoC6\pdl\cmsis/include/cmsis_gcc.h **** #ifndef   __STATIC_INLINE
  47:Generated_Source\PSoC6\pdl\cmsis/include/cmsis_gcc.h ****   #define __STATIC_INLINE                        static inline
  48:Generated_Source\PSoC6\pdl\cmsis/include/cmsis_gcc.h **** #endif
  49:Generated_Source\PSoC6\pdl\cmsis/include/cmsis_gcc.h **** #ifndef   __STATIC_FORCEINLINE                 
  50:Generated_Source\PSoC6\pdl\cmsis/include/cmsis_gcc.h ****   #define __STATIC_FORCEINLINE                   __attribute__((always_inline)) static inline
  51:Generated_Source\PSoC6\pdl\cmsis/include/cmsis_gcc.h **** #endif                                           
  52:Generated_Source\PSoC6\pdl\cmsis/include/cmsis_gcc.h **** #ifndef   __NO_RETURN
  53:Generated_Source\PSoC6\pdl\cmsis/include/cmsis_gcc.h ****   #define __NO_RETURN                            __attribute__((__noreturn__))
  54:Generated_Source\PSoC6\pdl\cmsis/include/cmsis_gcc.h **** #endif
  55:Generated_Source\PSoC6\pdl\cmsis/include/cmsis_gcc.h **** #ifndef   __USED
  56:Generated_Source\PSoC6\pdl\cmsis/include/cmsis_gcc.h ****   #define __USED                                 __attribute__((used))
  57:Generated_Source\PSoC6\pdl\cmsis/include/cmsis_gcc.h **** #endif
  58:Generated_Source\PSoC6\pdl\cmsis/include/cmsis_gcc.h **** #ifndef   __WEAK
  59:Generated_Source\PSoC6\pdl\cmsis/include/cmsis_gcc.h ****   #define __WEAK                                 __attribute__((weak))
  60:Generated_Source\PSoC6\pdl\cmsis/include/cmsis_gcc.h **** #endif
  61:Generated_Source\PSoC6\pdl\cmsis/include/cmsis_gcc.h **** #ifndef   __PACKED
  62:Generated_Source\PSoC6\pdl\cmsis/include/cmsis_gcc.h ****   #define __PACKED                               __attribute__((packed, aligned(1)))
  63:Generated_Source\PSoC6\pdl\cmsis/include/cmsis_gcc.h **** #endif
  64:Generated_Source\PSoC6\pdl\cmsis/include/cmsis_gcc.h **** #ifndef   __PACKED_STRUCT
  65:Generated_Source\PSoC6\pdl\cmsis/include/cmsis_gcc.h ****   #define __PACKED_STRUCT                        struct __attribute__((packed, aligned(1)))
  66:Generated_Source\PSoC6\pdl\cmsis/include/cmsis_gcc.h **** #endif
  67:Generated_Source\PSoC6\pdl\cmsis/include/cmsis_gcc.h **** #ifndef   __PACKED_UNION
  68:Generated_Source\PSoC6\pdl\cmsis/include/cmsis_gcc.h ****   #define __PACKED_UNION                         union __attribute__((packed, aligned(1)))
  69:Generated_Source\PSoC6\pdl\cmsis/include/cmsis_gcc.h **** #endif
  70:Generated_Source\PSoC6\pdl\cmsis/include/cmsis_gcc.h **** #ifndef   __UNALIGNED_UINT32        /* deprecated */
  71:Generated_Source\PSoC6\pdl\cmsis/include/cmsis_gcc.h ****   #pragma GCC diagnostic push
  72:Generated_Source\PSoC6\pdl\cmsis/include/cmsis_gcc.h ****   #pragma GCC diagnostic ignored "-Wpacked"
  73:Generated_Source\PSoC6\pdl\cmsis/include/cmsis_gcc.h ****   #pragma GCC diagnostic ignored "-Wattributes"
  74:Generated_Source\PSoC6\pdl\cmsis/include/cmsis_gcc.h ****   struct __attribute__((packed)) T_UINT32 { uint32_t v; };
  75:Generated_Source\PSoC6\pdl\cmsis/include/cmsis_gcc.h ****   #pragma GCC diagnostic pop
  76:Generated_Source\PSoC6\pdl\cmsis/include/cmsis_gcc.h ****   #define __UNALIGNED_UINT32(x)                  (((struct T_UINT32 *)(x))->v)
  77:Generated_Source\PSoC6\pdl\cmsis/include/cmsis_gcc.h **** #endif
  78:Generated_Source\PSoC6\pdl\cmsis/include/cmsis_gcc.h **** #ifndef   __UNALIGNED_UINT16_WRITE
  79:Generated_Source\PSoC6\pdl\cmsis/include/cmsis_gcc.h ****   #pragma GCC diagnostic push
  80:Generated_Source\PSoC6\pdl\cmsis/include/cmsis_gcc.h ****   #pragma GCC diagnostic ignored "-Wpacked"
  81:Generated_Source\PSoC6\pdl\cmsis/include/cmsis_gcc.h ****   #pragma GCC diagnostic ignored "-Wattributes"
  82:Generated_Source\PSoC6\pdl\cmsis/include/cmsis_gcc.h ****   __PACKED_STRUCT T_UINT16_WRITE { uint16_t v; };
  83:Generated_Source\PSoC6\pdl\cmsis/include/cmsis_gcc.h ****   #pragma GCC diagnostic pop
  84:Generated_Source\PSoC6\pdl\cmsis/include/cmsis_gcc.h ****   #define __UNALIGNED_UINT16_WRITE(addr, val)    (void)((((struct T_UINT16_WRITE *)(void *)(addr))-
  85:Generated_Source\PSoC6\pdl\cmsis/include/cmsis_gcc.h **** #endif
  86:Generated_Source\PSoC6\pdl\cmsis/include/cmsis_gcc.h **** #ifndef   __UNALIGNED_UINT16_READ
  87:Generated_Source\PSoC6\pdl\cmsis/include/cmsis_gcc.h ****   #pragma GCC diagnostic push
  88:Generated_Source\PSoC6\pdl\cmsis/include/cmsis_gcc.h ****   #pragma GCC diagnostic ignored "-Wpacked"
  89:Generated_Source\PSoC6\pdl\cmsis/include/cmsis_gcc.h ****   #pragma GCC diagnostic ignored "-Wattributes"
  90:Generated_Source\PSoC6\pdl\cmsis/include/cmsis_gcc.h ****   __PACKED_STRUCT T_UINT16_READ { uint16_t v; };
  91:Generated_Source\PSoC6\pdl\cmsis/include/cmsis_gcc.h ****   #pragma GCC diagnostic pop
  92:Generated_Source\PSoC6\pdl\cmsis/include/cmsis_gcc.h ****   #define __UNALIGNED_UINT16_READ(addr)          (((const struct T_UINT16_READ *)(const void *)(add
  93:Generated_Source\PSoC6\pdl\cmsis/include/cmsis_gcc.h **** #endif
  94:Generated_Source\PSoC6\pdl\cmsis/include/cmsis_gcc.h **** #ifndef   __UNALIGNED_UINT32_WRITE
  95:Generated_Source\PSoC6\pdl\cmsis/include/cmsis_gcc.h ****   #pragma GCC diagnostic push
  96:Generated_Source\PSoC6\pdl\cmsis/include/cmsis_gcc.h ****   #pragma GCC diagnostic ignored "-Wpacked"
ARM GAS  C:\Users\subra\AppData\Local\Temp\ccqqvmwo.s 			page 9


  97:Generated_Source\PSoC6\pdl\cmsis/include/cmsis_gcc.h ****   #pragma GCC diagnostic ignored "-Wattributes"
  98:Generated_Source\PSoC6\pdl\cmsis/include/cmsis_gcc.h ****   __PACKED_STRUCT T_UINT32_WRITE { uint32_t v; };
  99:Generated_Source\PSoC6\pdl\cmsis/include/cmsis_gcc.h ****   #pragma GCC diagnostic pop
 100:Generated_Source\PSoC6\pdl\cmsis/include/cmsis_gcc.h ****   #define __UNALIGNED_UINT32_WRITE(addr, val)    (void)((((struct T_UINT32_WRITE *)(void *)(addr))-
 101:Generated_Source\PSoC6\pdl\cmsis/include/cmsis_gcc.h **** #endif
 102:Generated_Source\PSoC6\pdl\cmsis/include/cmsis_gcc.h **** #ifndef   __UNALIGNED_UINT32_READ
 103:Generated_Source\PSoC6\pdl\cmsis/include/cmsis_gcc.h ****   #pragma GCC diagnostic push
 104:Generated_Source\PSoC6\pdl\cmsis/include/cmsis_gcc.h ****   #pragma GCC diagnostic ignored "-Wpacked"
 105:Generated_Source\PSoC6\pdl\cmsis/include/cmsis_gcc.h ****   #pragma GCC diagnostic ignored "-Wattributes"
 106:Generated_Source\PSoC6\pdl\cmsis/include/cmsis_gcc.h ****   __PACKED_STRUCT T_UINT32_READ { uint32_t v; };
 107:Generated_Source\PSoC6\pdl\cmsis/include/cmsis_gcc.h ****   #pragma GCC diagnostic pop
 108:Generated_Source\PSoC6\pdl\cmsis/include/cmsis_gcc.h ****   #define __UNALIGNED_UINT32_READ(addr)          (((const struct T_UINT32_READ *)(const void *)(add
 109:Generated_Source\PSoC6\pdl\cmsis/include/cmsis_gcc.h **** #endif
 110:Generated_Source\PSoC6\pdl\cmsis/include/cmsis_gcc.h **** #ifndef   __ALIGNED
 111:Generated_Source\PSoC6\pdl\cmsis/include/cmsis_gcc.h ****   #define __ALIGNED(x)                           __attribute__((aligned(x)))
 112:Generated_Source\PSoC6\pdl\cmsis/include/cmsis_gcc.h **** #endif
 113:Generated_Source\PSoC6\pdl\cmsis/include/cmsis_gcc.h **** #ifndef   __RESTRICT
 114:Generated_Source\PSoC6\pdl\cmsis/include/cmsis_gcc.h ****   #define __RESTRICT                             __restrict
 115:Generated_Source\PSoC6\pdl\cmsis/include/cmsis_gcc.h **** #endif
 116:Generated_Source\PSoC6\pdl\cmsis/include/cmsis_gcc.h **** 
 117:Generated_Source\PSoC6\pdl\cmsis/include/cmsis_gcc.h **** 
 118:Generated_Source\PSoC6\pdl\cmsis/include/cmsis_gcc.h **** /* ###########################  Core Function Access  ########################### */
 119:Generated_Source\PSoC6\pdl\cmsis/include/cmsis_gcc.h **** /** \ingroup  CMSIS_Core_FunctionInterface
 120:Generated_Source\PSoC6\pdl\cmsis/include/cmsis_gcc.h ****     \defgroup CMSIS_Core_RegAccFunctions CMSIS Core Register Access Functions
 121:Generated_Source\PSoC6\pdl\cmsis/include/cmsis_gcc.h ****   @{
 122:Generated_Source\PSoC6\pdl\cmsis/include/cmsis_gcc.h ****  */
 123:Generated_Source\PSoC6\pdl\cmsis/include/cmsis_gcc.h **** 
 124:Generated_Source\PSoC6\pdl\cmsis/include/cmsis_gcc.h **** /**
 125:Generated_Source\PSoC6\pdl\cmsis/include/cmsis_gcc.h ****   \brief   Enable IRQ Interrupts
 126:Generated_Source\PSoC6\pdl\cmsis/include/cmsis_gcc.h ****   \details Enables IRQ interrupts by clearing the I-bit in the CPSR.
 127:Generated_Source\PSoC6\pdl\cmsis/include/cmsis_gcc.h ****            Can only be executed in Privileged modes.
 128:Generated_Source\PSoC6\pdl\cmsis/include/cmsis_gcc.h ****  */
 129:Generated_Source\PSoC6\pdl\cmsis/include/cmsis_gcc.h **** __STATIC_FORCEINLINE void __enable_irq(void)
 130:Generated_Source\PSoC6\pdl\cmsis/include/cmsis_gcc.h **** {
 131:Generated_Source\PSoC6\pdl\cmsis/include/cmsis_gcc.h ****   __ASM volatile ("cpsie i" : : : "memory");
 276              		.loc 2 131 0
 277              		.syntax unified
 278              	@ 131 "Generated_Source\PSoC6\pdl\cmsis/include/cmsis_gcc.h" 1
 279 0004 62B6     		cpsie i
 280              	@ 0 "" 2
 281              		.thumb
 282              		.syntax unified
 283              	.LBE7:
 284              	.LBE6:
  83:main_cm4.c    ****     __enable_irq(); /* Enable global interrupts. */
  84:main_cm4.c    ****     
  85:main_cm4.c    ****     UART_1_Start();
 285              		.loc 1 85 0
 286 0006 FFF7FEFF 		bl	UART_1_Start
 287              	.LVL25:
  86:main_cm4.c    ****     setvbuf(stdin, NULL, _IONBF, 0);
 288              		.loc 1 86 0
 289 000a 0F4C     		ldr	r4, .L28
 290 000c 2068     		ldr	r0, [r4]
 291 000e 0023     		movs	r3, #0
 292 0010 0222     		movs	r2, #2
 293 0012 1946     		mov	r1, r3
ARM GAS  C:\Users\subra\AppData\Local\Temp\ccqqvmwo.s 			page 10


 294 0014 4068     		ldr	r0, [r0, #4]
 295 0016 FFF7FEFF 		bl	setvbuf
 296              	.LVL26:
  87:main_cm4.c    ****     setvbuf(stdout, NULL, _IONBF, 0);
 297              		.loc 1 87 0
 298 001a 2068     		ldr	r0, [r4]
 299 001c 0023     		movs	r3, #0
 300 001e 0222     		movs	r2, #2
 301 0020 1946     		mov	r1, r3
 302 0022 8068     		ldr	r0, [r0, #8]
 303 0024 FFF7FEFF 		bl	setvbuf
 304              	.LVL27:
  88:main_cm4.c    ****     printf("System started\r\n");
 305              		.loc 1 88 0
 306 0028 0848     		ldr	r0, .L28+4
 307 002a FFF7FEFF 		bl	puts
 308              	.LVL28:
  89:main_cm4.c    ****     
  90:main_cm4.c    ****     xTaskCreate(bleTask, "bleTask", 8*1024, 0, 2, 0);
 309              		.loc 1 90 0
 310 002e 0023     		movs	r3, #0
 311 0030 0193     		str	r3, [sp, #4]
 312 0032 0222     		movs	r2, #2
 313 0034 0092     		str	r2, [sp]
 314 0036 4FF40052 		mov	r2, #8192
 315 003a 0549     		ldr	r1, .L28+8
 316 003c 0548     		ldr	r0, .L28+12
 317 003e FFF7FEFF 		bl	xTaskCreate
 318              	.LVL29:
  91:main_cm4.c    ****     
  92:main_cm4.c    ****     vTaskStartScheduler();
 319              		.loc 1 92 0
 320 0042 FFF7FEFF 		bl	vTaskStartScheduler
 321              	.LVL30:
 322              	.L26:
 323 0046 FEE7     		b	.L26
 324              	.L29:
 325              		.align	2
 326              	.L28:
 327 0048 00000000 		.word	_impure_ptr
 328 004c 44000000 		.word	.LC4
 329 0050 54000000 		.word	.LC5
 330 0054 00000000 		.word	bleTask
 331              		.cfi_endproc
 332              	.LFE499:
 333              		.size	main, .-main
 334              		.comm	bleSemaphore,4,4
 335              		.section	.rodata.str1.4,"aMS",%progbits,1
 336              		.align	2
 337              	.LC0:
 338 0000 64697363 		.ascii	"disconnected\000"
 338      6F6E6E65 
 338      63746564 
 338      00
 339 000d 000000   		.space	3
 340              	.LC1:
 341 0010 636F6E6E 		.ascii	"connected\000"
ARM GAS  C:\Users\subra\AppData\Local\Temp\ccqqvmwo.s 			page 11


 341      65637465 
 341      6400
 342 001a 0000     		.space	2
 343              	.LC2:
 344 001c 636F6D6D 		.ascii	"command[%d] = %d\015\012\000"
 344      616E645B 
 344      25645D20 
 344      3D202564 
 344      0D0A00
 345 002f 00       		.space	1
 346              	.LC3:
 347 0030 424C4520 		.ascii	"BLE Task Started\015\000"
 347      5461736B 
 347      20537461 
 347      72746564 
 347      0D00
 348 0042 0000     		.space	2
 349              	.LC4:
 350 0044 53797374 		.ascii	"System started\015\000"
 350      656D2073 
 350      74617274 
 350      65640D00 
 351              	.LC5:
 352 0054 626C6554 		.ascii	"bleTask\000"
 352      61736B00 
 353              		.text
 354              	.Letext0:
 355              		.file 3 "d:\\program files (x86)\\cypress\\psoc creator\\4.4\\psoc creator\\import\\gnu\\arm\\5.4.
 356              		.file 4 "d:\\program files (x86)\\cypress\\psoc creator\\4.4\\psoc creator\\import\\gnu\\arm\\5.4.
 357              		.file 5 "Generated_Source\\PSoC6\\pdl\\drivers/peripheral/device/cy_device.h"
 358              		.file 6 "Generated_Source\\PSoC6\\pdl\\drivers/peripheral/scb/cy_scb_uart.h"
 359              		.file 7 "d:\\program files (x86)\\cypress\\psoc creator\\4.4\\psoc creator\\import\\gnu\\arm\\5.4.
 360              		.file 8 "d:\\program files (x86)\\cypress\\psoc creator\\4.4\\psoc creator\\import\\gnu\\arm\\5.4.
 361              		.file 9 "d:\\program files (x86)\\cypress\\psoc creator\\4.4\\psoc creator\\import\\gnu\\arm\\5.4.
 362              		.file 10 "d:\\program files (x86)\\cypress\\psoc creator\\4.4\\psoc creator\\import\\gnu\\arm\\5.4
 363              		.file 11 "Generated_Source\\PSoC6\\pdl\\middleware/ble/cy_ble_stack_host_main.h"
 364              		.file 12 "Generated_Source\\PSoC6\\pdl\\middleware/ble/cy_ble_stack_gatt.h"
 365              		.file 13 "Generated_Source\\PSoC6\\pdl\\middleware/ble/cy_ble_stack.h"
 366              		.file 14 "Generated_Source\\PSoC6\\pdl\\middleware/ble/cy_ble_gap.h"
 367              		.file 15 "Generated_Source\\PSoC6\\pdl\\middleware/ble/cy_ble_stack_gatt_server.h"
 368              		.file 16 "Generated_Source\\PSoC6\\pdl\\rtos/FreeRTOS/10.0.1/Source/portable/GCC/CM4F/portmacro.h"
 369              		.file 17 "Generated_Source\\PSoC6\\pdl\\rtos/FreeRTOS/10.0.1/Source/include/queue.h"
 370              		.file 18 "Generated_Source\\PSoC6\\pdl\\rtos/FreeRTOS/10.0.1/Source/include/semphr.h"
 371              		.file 19 "Generated_Source\\PSoC6\\pdl\\cmsis/include/core_cm4.h"
 372              		.file 20 "Generated_Source\\PSoC6/UART_1.h"
 373              		.file 21 "d:\\program files (x86)\\cypress\\psoc creator\\4.4\\psoc creator\\import\\gnu\\arm\\5.4
 374              		.file 22 "Generated_Source\\PSoC6/BLE.h"
 375              		.file 23 "Generated_Source\\PSoC6\\pdl\\middleware/ble/cy_ble.h"
 376              		.file 24 "Generated_Source\\PSoC6\\pdl\\rtos/FreeRTOS/10.0.1/Source/include/task.h"
 377              		.file 25 "<built-in>"