ARM GAS  C:\Users\cmila\AppData\Local\Temp\ccUkpexV.s 			page 1


   1              		.syntax unified
   2              		.cpu cortex-m4
   3              		.eabi_attribute 27, 1
   4              		.fpu fpv4-sp-d16
   5              		.eabi_attribute 20, 1
   6              		.eabi_attribute 21, 1
   7              		.eabi_attribute 23, 3
   8              		.eabi_attribute 24, 1
   9              		.eabi_attribute 25, 1
  10              		.eabi_attribute 26, 1
  11              		.eabi_attribute 30, 1
  12              		.eabi_attribute 34, 1
  13              		.eabi_attribute 18, 4
  14              		.thumb
  15              		.syntax unified
  16              		.file	"cy_gpio.c"
  17              		.text
  18              	.Ltext0:
  19              		.cfi_sections	.debug_frame
  20              		.section	.text.Cy_GPIO_Pin_Init,"ax",%progbits
  21              		.align	2
  22              		.global	Cy_GPIO_Pin_Init
  23              		.thumb
  24              		.thumb_func
  25              		.type	Cy_GPIO_Pin_Init, %function
  26              	Cy_GPIO_Pin_Init:
  27              	.LFB173:
  28              		.file 1 "Generated_Source\\PSoC6\\pdl\\drivers\\peripheral\\gpio\\cy_gpio.c"
   1:Generated_Source\PSoC6\pdl\drivers\peripheral\gpio/cy_gpio.c **** /***************************************************************************//**
   2:Generated_Source\PSoC6\pdl\drivers\peripheral\gpio/cy_gpio.c **** * \file cy_gpio.c
   3:Generated_Source\PSoC6\pdl\drivers\peripheral\gpio/cy_gpio.c **** * \version 1.20
   4:Generated_Source\PSoC6\pdl\drivers\peripheral\gpio/cy_gpio.c **** *
   5:Generated_Source\PSoC6\pdl\drivers\peripheral\gpio/cy_gpio.c **** * Provides an API implementation of the GPIO driver
   6:Generated_Source\PSoC6\pdl\drivers\peripheral\gpio/cy_gpio.c **** *
   7:Generated_Source\PSoC6\pdl\drivers\peripheral\gpio/cy_gpio.c **** ********************************************************************************
   8:Generated_Source\PSoC6\pdl\drivers\peripheral\gpio/cy_gpio.c **** * \copyright
   9:Generated_Source\PSoC6\pdl\drivers\peripheral\gpio/cy_gpio.c **** * Copyright 2016-2018, Cypress Semiconductor Corporation. All rights reserved.
  10:Generated_Source\PSoC6\pdl\drivers\peripheral\gpio/cy_gpio.c **** * You may use this file only in accordance with the license, terms, conditions,
  11:Generated_Source\PSoC6\pdl\drivers\peripheral\gpio/cy_gpio.c **** * disclaimers, and limitations in the end user license agreement accompanying
  12:Generated_Source\PSoC6\pdl\drivers\peripheral\gpio/cy_gpio.c **** * the software package with which this file was provided.
  13:Generated_Source\PSoC6\pdl\drivers\peripheral\gpio/cy_gpio.c **** *******************************************************************************/
  14:Generated_Source\PSoC6\pdl\drivers\peripheral\gpio/cy_gpio.c **** 
  15:Generated_Source\PSoC6\pdl\drivers\peripheral\gpio/cy_gpio.c **** #include "cy_gpio.h"
  16:Generated_Source\PSoC6\pdl\drivers\peripheral\gpio/cy_gpio.c **** 
  17:Generated_Source\PSoC6\pdl\drivers\peripheral\gpio/cy_gpio.c **** #if defined(__cplusplus)
  18:Generated_Source\PSoC6\pdl\drivers\peripheral\gpio/cy_gpio.c **** extern "C" {
  19:Generated_Source\PSoC6\pdl\drivers\peripheral\gpio/cy_gpio.c **** #endif
  20:Generated_Source\PSoC6\pdl\drivers\peripheral\gpio/cy_gpio.c **** 
  21:Generated_Source\PSoC6\pdl\drivers\peripheral\gpio/cy_gpio.c **** 
  22:Generated_Source\PSoC6\pdl\drivers\peripheral\gpio/cy_gpio.c **** /* Define for AMUX A splitters */
  23:Generated_Source\PSoC6\pdl\drivers\peripheral\gpio/cy_gpio.c **** #define GPIO_AMUXA_SPLITTER_MASK     (uint32_t)(HSIOM_AMUX_SPLIT_CTL_SWITCH_AA_SL_Msk \
  24:Generated_Source\PSoC6\pdl\drivers\peripheral\gpio/cy_gpio.c ****                                               | HSIOM_AMUX_SPLIT_CTL_SWITCH_AA_SR_Msk \
  25:Generated_Source\PSoC6\pdl\drivers\peripheral\gpio/cy_gpio.c ****                                               | HSIOM_AMUX_SPLIT_CTL_SWITCH_AA_S0_Msk)
  26:Generated_Source\PSoC6\pdl\drivers\peripheral\gpio/cy_gpio.c **** 
  27:Generated_Source\PSoC6\pdl\drivers\peripheral\gpio/cy_gpio.c **** /* Define for AMUX B splitters */
  28:Generated_Source\PSoC6\pdl\drivers\peripheral\gpio/cy_gpio.c **** #define GPIO_AMUXB_SPLITTER_MASK     (uint32_t)(HSIOM_AMUX_SPLIT_CTL_SWITCH_BB_SL_Msk \
  29:Generated_Source\PSoC6\pdl\drivers\peripheral\gpio/cy_gpio.c ****                                               | HSIOM_AMUX_SPLIT_CTL_SWITCH_BB_SR_Msk \
ARM GAS  C:\Users\cmila\AppData\Local\Temp\ccUkpexV.s 			page 2


  30:Generated_Source\PSoC6\pdl\drivers\peripheral\gpio/cy_gpio.c ****                                               | HSIOM_AMUX_SPLIT_CTL_SWITCH_BB_S0_Msk)
  31:Generated_Source\PSoC6\pdl\drivers\peripheral\gpio/cy_gpio.c **** 
  32:Generated_Source\PSoC6\pdl\drivers\peripheral\gpio/cy_gpio.c **** 
  33:Generated_Source\PSoC6\pdl\drivers\peripheral\gpio/cy_gpio.c **** 
  34:Generated_Source\PSoC6\pdl\drivers\peripheral\gpio/cy_gpio.c **** /*******************************************************************************
  35:Generated_Source\PSoC6\pdl\drivers\peripheral\gpio/cy_gpio.c **** * Function Name: Cy_GPIO_Pin_Init
  36:Generated_Source\PSoC6\pdl\drivers\peripheral\gpio/cy_gpio.c **** ****************************************************************************//**
  37:Generated_Source\PSoC6\pdl\drivers\peripheral\gpio/cy_gpio.c **** *
  38:Generated_Source\PSoC6\pdl\drivers\peripheral\gpio/cy_gpio.c **** * Initializes all pin configuration settings for the specified pin.
  39:Generated_Source\PSoC6\pdl\drivers\peripheral\gpio/cy_gpio.c **** *
  40:Generated_Source\PSoC6\pdl\drivers\peripheral\gpio/cy_gpio.c **** * \param base
  41:Generated_Source\PSoC6\pdl\drivers\peripheral\gpio/cy_gpio.c **** * Pointer to the pin's port register base address
  42:Generated_Source\PSoC6\pdl\drivers\peripheral\gpio/cy_gpio.c **** *
  43:Generated_Source\PSoC6\pdl\drivers\peripheral\gpio/cy_gpio.c **** * \param pinNum
  44:Generated_Source\PSoC6\pdl\drivers\peripheral\gpio/cy_gpio.c **** * Position of the pin bit-field within the port register
  45:Generated_Source\PSoC6\pdl\drivers\peripheral\gpio/cy_gpio.c **** *
  46:Generated_Source\PSoC6\pdl\drivers\peripheral\gpio/cy_gpio.c **** * \param config
  47:Generated_Source\PSoC6\pdl\drivers\peripheral\gpio/cy_gpio.c **** * Pointer to the pin config structure base address
  48:Generated_Source\PSoC6\pdl\drivers\peripheral\gpio/cy_gpio.c **** *
  49:Generated_Source\PSoC6\pdl\drivers\peripheral\gpio/cy_gpio.c **** * \return
  50:Generated_Source\PSoC6\pdl\drivers\peripheral\gpio/cy_gpio.c **** * Initialization status
  51:Generated_Source\PSoC6\pdl\drivers\peripheral\gpio/cy_gpio.c **** *
  52:Generated_Source\PSoC6\pdl\drivers\peripheral\gpio/cy_gpio.c **** * \note 
  53:Generated_Source\PSoC6\pdl\drivers\peripheral\gpio/cy_gpio.c **** * This function modifies port registers in read-modify-write operations. It is
  54:Generated_Source\PSoC6\pdl\drivers\peripheral\gpio/cy_gpio.c **** * not thread safe as the resource is shared among multiple pins on a port.
  55:Generated_Source\PSoC6\pdl\drivers\peripheral\gpio/cy_gpio.c **** *
  56:Generated_Source\PSoC6\pdl\drivers\peripheral\gpio/cy_gpio.c **** * \funcusage
  57:Generated_Source\PSoC6\pdl\drivers\peripheral\gpio/cy_gpio.c **** * \snippet gpio/gpio_v1_10_sut_01.cydsn/main_cm4.c snippet_Cy_GPIO_Pin_Init
  58:Generated_Source\PSoC6\pdl\drivers\peripheral\gpio/cy_gpio.c **** *
  59:Generated_Source\PSoC6\pdl\drivers\peripheral\gpio/cy_gpio.c **** *******************************************************************************/
  60:Generated_Source\PSoC6\pdl\drivers\peripheral\gpio/cy_gpio.c **** cy_en_gpio_status_t Cy_GPIO_Pin_Init(GPIO_PRT_Type *base, uint32_t pinNum, const cy_stc_gpio_pin_co
  61:Generated_Source\PSoC6\pdl\drivers\peripheral\gpio/cy_gpio.c **** {
  29              		.loc 1 61 0
  30              		.cfi_startproc
  31              		@ args = 0, pretend = 0, frame = 0
  32              		@ frame_needed = 0, uses_anonymous_args = 0
  33              	.LVL0:
  62:Generated_Source\PSoC6\pdl\drivers\peripheral\gpio/cy_gpio.c ****     cy_en_gpio_status_t status = CY_GPIO_BAD_PARAM;
  63:Generated_Source\PSoC6\pdl\drivers\peripheral\gpio/cy_gpio.c **** 
  64:Generated_Source\PSoC6\pdl\drivers\peripheral\gpio/cy_gpio.c ****     if ((NULL != base) && (NULL != config))
  34              		.loc 1 64 0
  35 0000 0028     		cmp	r0, #0
  36 0002 00F06E81 		beq	.L33
  61:Generated_Source\PSoC6\pdl\drivers\peripheral\gpio/cy_gpio.c ****     cy_en_gpio_status_t status = CY_GPIO_BAD_PARAM;
  37              		.loc 1 61 0 discriminator 1
  38 0006 F8B5     		push	{r3, r4, r5, r6, r7, lr}
  39              		.cfi_def_cfa_offset 24
  40              		.cfi_offset 3, -24
  41              		.cfi_offset 4, -20
  42              		.cfi_offset 5, -16
  43              		.cfi_offset 6, -12
  44              		.cfi_offset 7, -8
  45              		.cfi_offset 14, -4
  46 0008 0646     		mov	r6, r0
  47              		.loc 1 64 0 discriminator 1
  48 000a 002A     		cmp	r2, #0
  49 000c 00F06B81 		beq	.L34
ARM GAS  C:\Users\cmila\AppData\Local\Temp\ccUkpexV.s 			page 3


  50 0010 1446     		mov	r4, r2
  51 0012 0D46     		mov	r5, r1
  52              	.LBB15:
  65:Generated_Source\PSoC6\pdl\drivers\peripheral\gpio/cy_gpio.c ****     {
  66:Generated_Source\PSoC6\pdl\drivers\peripheral\gpio/cy_gpio.c ****         uint32_t maskCfgOut;
  67:Generated_Source\PSoC6\pdl\drivers\peripheral\gpio/cy_gpio.c ****         uint32_t tempReg;
  68:Generated_Source\PSoC6\pdl\drivers\peripheral\gpio/cy_gpio.c ****         
  69:Generated_Source\PSoC6\pdl\drivers\peripheral\gpio/cy_gpio.c ****         CY_ASSERT_L2(CY_GPIO_IS_PIN_VALID(pinNum));
  53              		.loc 1 69 0
  54 0014 0729     		cmp	r1, #7
  55 0016 03D9     		bls	.L3
  56              		.loc 1 69 0 is_stmt 0 discriminator 1
  57 0018 4521     		movs	r1, #69
  58              	.LVL1:
  59 001a B448     		ldr	r0, .L36
  60              	.LVL2:
  61 001c FFF7FEFF 		bl	Cy_SysLib_AssertFailed
  62              	.LVL3:
  63              	.L3:
  70:Generated_Source\PSoC6\pdl\drivers\peripheral\gpio/cy_gpio.c ****         CY_ASSERT_L2(CY_GPIO_IS_VALUE_VALID(config->outVal));
  64              		.loc 1 70 0 is_stmt 1
  65 0020 2368     		ldr	r3, [r4]
  66 0022 012B     		cmp	r3, #1
  67 0024 03D9     		bls	.L4
  68              		.loc 1 70 0 is_stmt 0 discriminator 1
  69 0026 4621     		movs	r1, #70
  70 0028 B048     		ldr	r0, .L36
  71 002a FFF7FEFF 		bl	Cy_SysLib_AssertFailed
  72              	.LVL4:
  73              	.L4:
  71:Generated_Source\PSoC6\pdl\drivers\peripheral\gpio/cy_gpio.c ****         CY_ASSERT_L2(CY_GPIO_IS_DM_VALID(config->driveMode));
  74              		.loc 1 71 0 is_stmt 1
  75 002e 6368     		ldr	r3, [r4, #4]
  76 0030 33F00F03 		bics	r3, r3, #15
  77 0034 03D0     		beq	.L5
  78              		.loc 1 71 0 is_stmt 0 discriminator 1
  79 0036 4721     		movs	r1, #71
  80 0038 AC48     		ldr	r0, .L36
  81 003a FFF7FEFF 		bl	Cy_SysLib_AssertFailed
  82              	.LVL5:
  83              	.L5:
  72:Generated_Source\PSoC6\pdl\drivers\peripheral\gpio/cy_gpio.c ****         CY_ASSERT_L2(CY_GPIO_IS_HSIOM_VALID(config->hsiom));  
  84              		.loc 1 72 0 is_stmt 1
  85 003e 237A     		ldrb	r3, [r4, #8]	@ zero_extendqisi2
  86 0040 33F01F03 		bics	r3, r3, #31
  87 0044 03D0     		beq	.L6
  88              		.loc 1 72 0 is_stmt 0 discriminator 1
  89 0046 4821     		movs	r1, #72
  90 0048 A848     		ldr	r0, .L36
  91 004a FFF7FEFF 		bl	Cy_SysLib_AssertFailed
  92              	.LVL6:
  93              	.L6:
  73:Generated_Source\PSoC6\pdl\drivers\peripheral\gpio/cy_gpio.c ****         CY_ASSERT_L2(CY_GPIO_IS_INT_EDGE_VALID(config->intEdge)); 
  94              		.loc 1 73 0 is_stmt 1
  95 004e E368     		ldr	r3, [r4, #12]
  96 0050 032B     		cmp	r3, #3
  97 0052 03D9     		bls	.L7
ARM GAS  C:\Users\cmila\AppData\Local\Temp\ccUkpexV.s 			page 4


  98              		.loc 1 73 0 is_stmt 0 discriminator 1
  99 0054 4921     		movs	r1, #73
 100 0056 A548     		ldr	r0, .L36
 101 0058 FFF7FEFF 		bl	Cy_SysLib_AssertFailed
 102              	.LVL7:
 103              	.L7:
  74:Generated_Source\PSoC6\pdl\drivers\peripheral\gpio/cy_gpio.c ****         CY_ASSERT_L2(CY_GPIO_IS_VALUE_VALID(config->intMask));
 104              		.loc 1 74 0 is_stmt 1
 105 005c 2369     		ldr	r3, [r4, #16]
 106 005e 012B     		cmp	r3, #1
 107 0060 03D9     		bls	.L8
 108              		.loc 1 74 0 is_stmt 0 discriminator 1
 109 0062 4A21     		movs	r1, #74
 110 0064 A148     		ldr	r0, .L36
 111 0066 FFF7FEFF 		bl	Cy_SysLib_AssertFailed
 112              	.LVL8:
 113              	.L8:
  75:Generated_Source\PSoC6\pdl\drivers\peripheral\gpio/cy_gpio.c ****         CY_ASSERT_L2(CY_GPIO_IS_VALUE_VALID(config->vtrip));
 114              		.loc 1 75 0 is_stmt 1
 115 006a 6369     		ldr	r3, [r4, #20]
 116 006c 012B     		cmp	r3, #1
 117 006e 03D9     		bls	.L9
 118              		.loc 1 75 0 is_stmt 0 discriminator 1
 119 0070 4B21     		movs	r1, #75
 120 0072 9E48     		ldr	r0, .L36
 121 0074 FFF7FEFF 		bl	Cy_SysLib_AssertFailed
 122              	.LVL9:
 123              	.L9:
  76:Generated_Source\PSoC6\pdl\drivers\peripheral\gpio/cy_gpio.c ****         CY_ASSERT_L2(CY_GPIO_IS_VALUE_VALID(config->slewRate));
 124              		.loc 1 76 0 is_stmt 1
 125 0078 A369     		ldr	r3, [r4, #24]
 126 007a 012B     		cmp	r3, #1
 127 007c 03D9     		bls	.L10
 128              		.loc 1 76 0 is_stmt 0 discriminator 1
 129 007e 4C21     		movs	r1, #76
 130 0080 9A48     		ldr	r0, .L36
 131 0082 FFF7FEFF 		bl	Cy_SysLib_AssertFailed
 132              	.LVL10:
 133              	.L10:
  77:Generated_Source\PSoC6\pdl\drivers\peripheral\gpio/cy_gpio.c ****         CY_ASSERT_L2(CY_GPIO_IS_DRIVE_SEL_VALID(config->driveSel));
 134              		.loc 1 77 0 is_stmt 1
 135 0086 E369     		ldr	r3, [r4, #28]
 136 0088 032B     		cmp	r3, #3
 137 008a 03D9     		bls	.L11
 138              		.loc 1 77 0 is_stmt 0 discriminator 1
 139 008c 4D21     		movs	r1, #77
 140 008e 9748     		ldr	r0, .L36
 141 0090 FFF7FEFF 		bl	Cy_SysLib_AssertFailed
 142              	.LVL11:
 143              	.L11:
  78:Generated_Source\PSoC6\pdl\drivers\peripheral\gpio/cy_gpio.c ****         CY_ASSERT_L2(CY_GPIO_IS_VALUE_VALID(config->vregEn));
 144              		.loc 1 78 0 is_stmt 1
 145 0094 236A     		ldr	r3, [r4, #32]
 146 0096 012B     		cmp	r3, #1
 147 0098 03D9     		bls	.L12
 148              		.loc 1 78 0 is_stmt 0 discriminator 1
 149 009a 4E21     		movs	r1, #78
ARM GAS  C:\Users\cmila\AppData\Local\Temp\ccUkpexV.s 			page 5


 150 009c 9348     		ldr	r0, .L36
 151 009e FFF7FEFF 		bl	Cy_SysLib_AssertFailed
 152              	.LVL12:
 153              	.L12:
  79:Generated_Source\PSoC6\pdl\drivers\peripheral\gpio/cy_gpio.c ****         CY_ASSERT_L2(CY_GPIO_IS_VALUE_VALID(config->ibufMode));
 154              		.loc 1 79 0 is_stmt 1
 155 00a2 636A     		ldr	r3, [r4, #36]
 156 00a4 012B     		cmp	r3, #1
 157 00a6 03D9     		bls	.L13
 158              		.loc 1 79 0 is_stmt 0 discriminator 1
 159 00a8 4F21     		movs	r1, #79
 160 00aa 9048     		ldr	r0, .L36
 161 00ac FFF7FEFF 		bl	Cy_SysLib_AssertFailed
 162              	.LVL13:
 163              	.L13:
  80:Generated_Source\PSoC6\pdl\drivers\peripheral\gpio/cy_gpio.c ****         CY_ASSERT_L2(CY_GPIO_IS_VALUE_VALID(config->vtripSel));
 164              		.loc 1 80 0 is_stmt 1
 165 00b0 A36A     		ldr	r3, [r4, #40]
 166 00b2 012B     		cmp	r3, #1
 167 00b4 03D9     		bls	.L14
 168              		.loc 1 80 0 is_stmt 0 discriminator 1
 169 00b6 5021     		movs	r1, #80
 170 00b8 8C48     		ldr	r0, .L36
 171 00ba FFF7FEFF 		bl	Cy_SysLib_AssertFailed
 172              	.LVL14:
 173              	.L14:
  81:Generated_Source\PSoC6\pdl\drivers\peripheral\gpio/cy_gpio.c ****         CY_ASSERT_L2(CY_GPIO_IS_VREF_SEL_VALID(config->vrefSel));
 174              		.loc 1 81 0 is_stmt 1
 175 00be E36A     		ldr	r3, [r4, #44]
 176 00c0 032B     		cmp	r3, #3
 177 00c2 03D9     		bls	.L15
 178              		.loc 1 81 0 is_stmt 0 discriminator 1
 179 00c4 5121     		movs	r1, #81
 180 00c6 8948     		ldr	r0, .L36
 181 00c8 FFF7FEFF 		bl	Cy_SysLib_AssertFailed
 182              	.LVL15:
 183              	.L15:
  82:Generated_Source\PSoC6\pdl\drivers\peripheral\gpio/cy_gpio.c ****         CY_ASSERT_L2(CY_GPIO_IS_VOH_SEL_VALID(config->vohSel));
 184              		.loc 1 82 0 is_stmt 1
 185 00cc 236B     		ldr	r3, [r4, #48]
 186 00ce 072B     		cmp	r3, #7
 187 00d0 03D9     		bls	.L16
 188              		.loc 1 82 0 is_stmt 0 discriminator 1
 189 00d2 5221     		movs	r1, #82
 190 00d4 8548     		ldr	r0, .L36
 191 00d6 FFF7FEFF 		bl	Cy_SysLib_AssertFailed
 192              	.LVL16:
 193              	.L16:
  83:Generated_Source\PSoC6\pdl\drivers\peripheral\gpio/cy_gpio.c ****     
  84:Generated_Source\PSoC6\pdl\drivers\peripheral\gpio/cy_gpio.c ****         Cy_GPIO_Write(base, pinNum, config->outVal);
 194              		.loc 1 84 0 is_stmt 1
 195 00da 2768     		ldr	r7, [r4]
 196              	.LVL17:
 197              	.LBB16:
 198              	.LBB17:
 199              		.file 2 "Generated_Source\\PSoC6\\pdl\\drivers\\peripheral\\gpio\\cy_gpio.h"
   1:Generated_Source\PSoC6\pdl\drivers\peripheral\gpio/cy_gpio.h **** /***************************************************************************//**
ARM GAS  C:\Users\cmila\AppData\Local\Temp\ccUkpexV.s 			page 6


   2:Generated_Source\PSoC6\pdl\drivers\peripheral\gpio/cy_gpio.h **** * \file cy_gpio.h
   3:Generated_Source\PSoC6\pdl\drivers\peripheral\gpio/cy_gpio.h **** * \version 1.20
   4:Generated_Source\PSoC6\pdl\drivers\peripheral\gpio/cy_gpio.h **** *
   5:Generated_Source\PSoC6\pdl\drivers\peripheral\gpio/cy_gpio.h **** * Provides an API declaration of the GPIO driver
   6:Generated_Source\PSoC6\pdl\drivers\peripheral\gpio/cy_gpio.h **** *
   7:Generated_Source\PSoC6\pdl\drivers\peripheral\gpio/cy_gpio.h **** ********************************************************************************
   8:Generated_Source\PSoC6\pdl\drivers\peripheral\gpio/cy_gpio.h **** * \copyright
   9:Generated_Source\PSoC6\pdl\drivers\peripheral\gpio/cy_gpio.h **** * Copyright 2016-2018, Cypress Semiconductor Corporation. All rights reserved.
  10:Generated_Source\PSoC6\pdl\drivers\peripheral\gpio/cy_gpio.h **** * You may use this file only in accordance with the license, terms, conditions,
  11:Generated_Source\PSoC6\pdl\drivers\peripheral\gpio/cy_gpio.h **** * disclaimers, and limitations in the end user license agreement accompanying
  12:Generated_Source\PSoC6\pdl\drivers\peripheral\gpio/cy_gpio.h **** * the software package with which this file was provided.
  13:Generated_Source\PSoC6\pdl\drivers\peripheral\gpio/cy_gpio.h **** *******************************************************************************/
  14:Generated_Source\PSoC6\pdl\drivers\peripheral\gpio/cy_gpio.h **** 
  15:Generated_Source\PSoC6\pdl\drivers\peripheral\gpio/cy_gpio.h **** /**
  16:Generated_Source\PSoC6\pdl\drivers\peripheral\gpio/cy_gpio.h **** * \addtogroup group_gpio
  17:Generated_Source\PSoC6\pdl\drivers\peripheral\gpio/cy_gpio.h **** * \{
  18:Generated_Source\PSoC6\pdl\drivers\peripheral\gpio/cy_gpio.h **** * The GPIO driver provides an API to configure and access device Input/Output pins.
  19:Generated_Source\PSoC6\pdl\drivers\peripheral\gpio/cy_gpio.h **** *
  20:Generated_Source\PSoC6\pdl\drivers\peripheral\gpio/cy_gpio.h **** * The functions and other declarations used in this driver are in cy_gpio.h. 
  21:Generated_Source\PSoC6\pdl\drivers\peripheral\gpio/cy_gpio.h **** * You can include cy_pdl.h (ModusToolbox only) to get access to all functions 
  22:Generated_Source\PSoC6\pdl\drivers\peripheral\gpio/cy_gpio.h **** * and declarations in the PDL.
  23:Generated_Source\PSoC6\pdl\drivers\peripheral\gpio/cy_gpio.h **** *
  24:Generated_Source\PSoC6\pdl\drivers\peripheral\gpio/cy_gpio.h **** * IO pins include all general purpose types such as GPIO, SIO, HSIO, AUXIO, and
  25:Generated_Source\PSoC6\pdl\drivers\peripheral\gpio/cy_gpio.h **** * their variants.
  26:Generated_Source\PSoC6\pdl\drivers\peripheral\gpio/cy_gpio.h **** *
  27:Generated_Source\PSoC6\pdl\drivers\peripheral\gpio/cy_gpio.h **** * Initialization can be performed either at the port level or by configuring the
  28:Generated_Source\PSoC6\pdl\drivers\peripheral\gpio/cy_gpio.h **** * individual pins. For efficient use of code space, port
  29:Generated_Source\PSoC6\pdl\drivers\peripheral\gpio/cy_gpio.h **** * configuration should be used in the field. Refer to the product device header files 
  30:Generated_Source\PSoC6\pdl\drivers\peripheral\gpio/cy_gpio.h **** * for the list of supported ports and pins.
  31:Generated_Source\PSoC6\pdl\drivers\peripheral\gpio/cy_gpio.h **** * 
  32:Generated_Source\PSoC6\pdl\drivers\peripheral\gpio/cy_gpio.h **** * - Single pin configuration is performed by using \ref Cy_GPIO_Pin_FastInit 
  33:Generated_Source\PSoC6\pdl\drivers\peripheral\gpio/cy_gpio.h **** *   (provide specific values) or \ref Cy_GPIO_Pin_Init (provide a filled
  34:Generated_Source\PSoC6\pdl\drivers\peripheral\gpio/cy_gpio.h **** *   cy_stc_gpio_pin_config_t structure).
  35:Generated_Source\PSoC6\pdl\drivers\peripheral\gpio/cy_gpio.h **** * - An entire port can be configured using \ref Cy_GPIO_Port_Init. Provide a filled 
  36:Generated_Source\PSoC6\pdl\drivers\peripheral\gpio/cy_gpio.h **** *   cy_stc_gpio_prt_config_t structure. The values in the structure are 
  37:Generated_Source\PSoC6\pdl\drivers\peripheral\gpio/cy_gpio.h **** *   bitfields representing the desired value for each pin in the port.
  38:Generated_Source\PSoC6\pdl\drivers\peripheral\gpio/cy_gpio.h **** * - Pin configuration and management is based on the port address and pin number.
  39:Generated_Source\PSoC6\pdl\drivers\peripheral\gpio/cy_gpio.h **** *   \ref Cy_GPIO_PortToAddr function can optionally be used to calculate the port
  40:Generated_Source\PSoC6\pdl\drivers\peripheral\gpio/cy_gpio.h **** *   address from the port number at run-time.
  41:Generated_Source\PSoC6\pdl\drivers\peripheral\gpio/cy_gpio.h **** *
  42:Generated_Source\PSoC6\pdl\drivers\peripheral\gpio/cy_gpio.h **** * Once the pin/port initialization is complete, each pin can be accessed by 
  43:Generated_Source\PSoC6\pdl\drivers\peripheral\gpio/cy_gpio.h **** * specifying the port (GPIO_PRT_Type) and the pin (0-7) in the provided API 
  44:Generated_Source\PSoC6\pdl\drivers\peripheral\gpio/cy_gpio.h **** * functions.
  45:Generated_Source\PSoC6\pdl\drivers\peripheral\gpio/cy_gpio.h **** *
  46:Generated_Source\PSoC6\pdl\drivers\peripheral\gpio/cy_gpio.h **** * \section group_gpio_configuration Configuration Considerations
  47:Generated_Source\PSoC6\pdl\drivers\peripheral\gpio/cy_gpio.h **** *
  48:Generated_Source\PSoC6\pdl\drivers\peripheral\gpio/cy_gpio.h **** * 1. Pin multiplexing is controlled through the High-Speed IO Matrix (HSIOM) selection.
  49:Generated_Source\PSoC6\pdl\drivers\peripheral\gpio/cy_gpio.h **** *    This allows the pin to connect to signal sources/sinks throughout the device,
  50:Generated_Source\PSoC6\pdl\drivers\peripheral\gpio/cy_gpio.h **** *    as defined by the pin HSIOM selection options (en_hsiom_sel_t).
  51:Generated_Source\PSoC6\pdl\drivers\peripheral\gpio/cy_gpio.h **** * 2. All pins are initialized to High-Z drive mode with HSIOM connected to CPU (SW
  52:Generated_Source\PSoC6\pdl\drivers\peripheral\gpio/cy_gpio.h **** *    control digital pin only) at Power-On-Reset(POR).
  53:Generated_Source\PSoC6\pdl\drivers\peripheral\gpio/cy_gpio.h **** * 3. Some API functions perform read-modify-write operations on shared port
  54:Generated_Source\PSoC6\pdl\drivers\peripheral\gpio/cy_gpio.h **** *    registers. These functions are not thread safe and care must be taken when
  55:Generated_Source\PSoC6\pdl\drivers\peripheral\gpio/cy_gpio.h **** *    called by the application.
  56:Generated_Source\PSoC6\pdl\drivers\peripheral\gpio/cy_gpio.h **** * 4. Digital input buffer provides a high-impedance buffer for the external 
  57:Generated_Source\PSoC6\pdl\drivers\peripheral\gpio/cy_gpio.h **** *    digital input. The input buffer is connected to the HSIOM for routing to 
  58:Generated_Source\PSoC6\pdl\drivers\peripheral\gpio/cy_gpio.h **** *    the CPU port registers and selected peripheral. Enabling the input 
ARM GAS  C:\Users\cmila\AppData\Local\Temp\ccUkpexV.s 			page 7


  59:Generated_Source\PSoC6\pdl\drivers\peripheral\gpio/cy_gpio.h **** *    buffer provides possibility to read the pin state via the CPU.
  60:Generated_Source\PSoC6\pdl\drivers\peripheral\gpio/cy_gpio.h **** *    If pin is connected to an analog signal, the input buffer should be 
  61:Generated_Source\PSoC6\pdl\drivers\peripheral\gpio/cy_gpio.h **** *    disabled to avoid crowbar currents. For more information refer to device 
  62:Generated_Source\PSoC6\pdl\drivers\peripheral\gpio/cy_gpio.h **** *    TRM and the device datasheet.
  63:Generated_Source\PSoC6\pdl\drivers\peripheral\gpio/cy_gpio.h **** *
  64:Generated_Source\PSoC6\pdl\drivers\peripheral\gpio/cy_gpio.h **** * Multiple pins on a port can be updated using direct port register writes with an
  65:Generated_Source\PSoC6\pdl\drivers\peripheral\gpio/cy_gpio.h **** * appropriate port mask. An example is shown below, highlighting the different ways of 
  66:Generated_Source\PSoC6\pdl\drivers\peripheral\gpio/cy_gpio.h **** * configuring Port 1 pins using:
  67:Generated_Source\PSoC6\pdl\drivers\peripheral\gpio/cy_gpio.h **** * 
  68:Generated_Source\PSoC6\pdl\drivers\peripheral\gpio/cy_gpio.h **** * - Port output data register
  69:Generated_Source\PSoC6\pdl\drivers\peripheral\gpio/cy_gpio.h **** * - Port output data set register
  70:Generated_Source\PSoC6\pdl\drivers\peripheral\gpio/cy_gpio.h **** * - Port output data clear register
  71:Generated_Source\PSoC6\pdl\drivers\peripheral\gpio/cy_gpio.h **** *
  72:Generated_Source\PSoC6\pdl\drivers\peripheral\gpio/cy_gpio.h **** * \snippet gpio/gpio_v1_10_sut_01.cydsn/main_cm4.c Cy_GPIO_Snippet
  73:Generated_Source\PSoC6\pdl\drivers\peripheral\gpio/cy_gpio.h **** *
  74:Generated_Source\PSoC6\pdl\drivers\peripheral\gpio/cy_gpio.h **** * \section group_gpio_more_information More Information
  75:Generated_Source\PSoC6\pdl\drivers\peripheral\gpio/cy_gpio.h **** *
  76:Generated_Source\PSoC6\pdl\drivers\peripheral\gpio/cy_gpio.h **** * Refer to the technical reference manual (TRM) and the device datasheet.
  77:Generated_Source\PSoC6\pdl\drivers\peripheral\gpio/cy_gpio.h **** *
  78:Generated_Source\PSoC6\pdl\drivers\peripheral\gpio/cy_gpio.h **** * \section group_gpio_MISRA MISRA-C Compliance
  79:Generated_Source\PSoC6\pdl\drivers\peripheral\gpio/cy_gpio.h **** * The GPIO driver has the following specific deviations:
  80:Generated_Source\PSoC6\pdl\drivers\peripheral\gpio/cy_gpio.h **** *
  81:Generated_Source\PSoC6\pdl\drivers\peripheral\gpio/cy_gpio.h **** * <table class="doxtable">
  82:Generated_Source\PSoC6\pdl\drivers\peripheral\gpio/cy_gpio.h **** *   <tr>
  83:Generated_Source\PSoC6\pdl\drivers\peripheral\gpio/cy_gpio.h **** *     <th>MISRA Rule</th>
  84:Generated_Source\PSoC6\pdl\drivers\peripheral\gpio/cy_gpio.h **** *     <th>Rule Class (Required/Advisory)</th>
  85:Generated_Source\PSoC6\pdl\drivers\peripheral\gpio/cy_gpio.h **** *     <th>Rule Description</th>
  86:Generated_Source\PSoC6\pdl\drivers\peripheral\gpio/cy_gpio.h **** *     <th>Description of Deviation(s)</th>
  87:Generated_Source\PSoC6\pdl\drivers\peripheral\gpio/cy_gpio.h **** *   </tr>
  88:Generated_Source\PSoC6\pdl\drivers\peripheral\gpio/cy_gpio.h **** *   <tr>
  89:Generated_Source\PSoC6\pdl\drivers\peripheral\gpio/cy_gpio.h **** *     <td>11.4</td>
  90:Generated_Source\PSoC6\pdl\drivers\peripheral\gpio/cy_gpio.h **** *     <td>A</td>
  91:Generated_Source\PSoC6\pdl\drivers\peripheral\gpio/cy_gpio.h **** *     <td>A cast should not be performed between a pointer to object type and
  92:Generated_Source\PSoC6\pdl\drivers\peripheral\gpio/cy_gpio.h **** *         a different pointer to object type.</td>
  93:Generated_Source\PSoC6\pdl\drivers\peripheral\gpio/cy_gpio.h **** *     <td> This code is safe because the elements of both GPIO_PRT_V1_Type and GPIO_PRT_V2_Type 
  94:Generated_Source\PSoC6\pdl\drivers\peripheral\gpio/cy_gpio.h **** *          types have identical alignment.</td>
  95:Generated_Source\PSoC6\pdl\drivers\peripheral\gpio/cy_gpio.h **** *   </tr>
  96:Generated_Source\PSoC6\pdl\drivers\peripheral\gpio/cy_gpio.h **** *   <tr>
  97:Generated_Source\PSoC6\pdl\drivers\peripheral\gpio/cy_gpio.h **** *     <td>16.7</td>
  98:Generated_Source\PSoC6\pdl\drivers\peripheral\gpio/cy_gpio.h **** *     <td>A</td>
  99:Generated_Source\PSoC6\pdl\drivers\peripheral\gpio/cy_gpio.h **** *     <td>A pointer parameter in a function prototype should be declared as pointer 
 100:Generated_Source\PSoC6\pdl\drivers\peripheral\gpio/cy_gpio.h **** *         to const if the pointer is not used to modify the addressed object.</td>
 101:Generated_Source\PSoC6\pdl\drivers\peripheral\gpio/cy_gpio.h **** *     <td>The objects pointed to by the base addresses of the GPIO port are not always modified.
 102:Generated_Source\PSoC6\pdl\drivers\peripheral\gpio/cy_gpio.h **** *         While a const qualifier can be used in select scenarios, it brings little benefit
 103:Generated_Source\PSoC6\pdl\drivers\peripheral\gpio/cy_gpio.h **** *         in adding this to the affected functions. </td>
 104:Generated_Source\PSoC6\pdl\drivers\peripheral\gpio/cy_gpio.h **** *   </tr>
 105:Generated_Source\PSoC6\pdl\drivers\peripheral\gpio/cy_gpio.h **** * </table>
 106:Generated_Source\PSoC6\pdl\drivers\peripheral\gpio/cy_gpio.h **** *
 107:Generated_Source\PSoC6\pdl\drivers\peripheral\gpio/cy_gpio.h **** * \section group_gpio_changelog Changelog
 108:Generated_Source\PSoC6\pdl\drivers\peripheral\gpio/cy_gpio.h **** * <table class="doxtable">
 109:Generated_Source\PSoC6\pdl\drivers\peripheral\gpio/cy_gpio.h **** *   <tr><th>Version</th><th>Changes</th><th>Reason for Change</th></tr>
 110:Generated_Source\PSoC6\pdl\drivers\peripheral\gpio/cy_gpio.h **** *   <tr>
 111:Generated_Source\PSoC6\pdl\drivers\peripheral\gpio/cy_gpio.h **** *     <td rowspan="3">1.20</td>
 112:Generated_Source\PSoC6\pdl\drivers\peripheral\gpio/cy_gpio.h **** *     <td>Flattened the organization of the driver source code into the single source directory and
 113:Generated_Source\PSoC6\pdl\drivers\peripheral\gpio/cy_gpio.h **** *     <td>Driver library directory-structure simplification.</td>
 114:Generated_Source\PSoC6\pdl\drivers\peripheral\gpio/cy_gpio.h **** *   </tr>
 115:Generated_Source\PSoC6\pdl\drivers\peripheral\gpio/cy_gpio.h **** *   <tr>
ARM GAS  C:\Users\cmila\AppData\Local\Temp\ccUkpexV.s 			page 8


 116:Generated_Source\PSoC6\pdl\drivers\peripheral\gpio/cy_gpio.h **** *     <td>Added the functions for configuring the AMux bus splitter switch cells:
 117:Generated_Source\PSoC6\pdl\drivers\peripheral\gpio/cy_gpio.h **** *     - \ref Cy_GPIO_SetAmuxSplit
 118:Generated_Source\PSoC6\pdl\drivers\peripheral\gpio/cy_gpio.h **** *     - \ref Cy_GPIO_GetAmuxSplit
 119:Generated_Source\PSoC6\pdl\drivers\peripheral\gpio/cy_gpio.h **** *     </td>
 120:Generated_Source\PSoC6\pdl\drivers\peripheral\gpio/cy_gpio.h **** *     <td>Added a new functionality related to AMux bus.</td>
 121:Generated_Source\PSoC6\pdl\drivers\peripheral\gpio/cy_gpio.h **** *   </tr>
 122:Generated_Source\PSoC6\pdl\drivers\peripheral\gpio/cy_gpio.h **** *   <tr>
 123:Generated_Source\PSoC6\pdl\drivers\peripheral\gpio/cy_gpio.h **** *     <td>Added register access layer. Use register access macros instead
 124:Generated_Source\PSoC6\pdl\drivers\peripheral\gpio/cy_gpio.h **** *         of direct register access using dereferenced pointers.</td>
 125:Generated_Source\PSoC6\pdl\drivers\peripheral\gpio/cy_gpio.h **** *     <td>Makes register access device-independent, so that the PDL does 
 126:Generated_Source\PSoC6\pdl\drivers\peripheral\gpio/cy_gpio.h **** *         not need to be recompiled for each supported part number.</td>
 127:Generated_Source\PSoC6\pdl\drivers\peripheral\gpio/cy_gpio.h **** *   </tr>
 128:Generated_Source\PSoC6\pdl\drivers\peripheral\gpio/cy_gpio.h **** *   <tr>
 129:Generated_Source\PSoC6\pdl\drivers\peripheral\gpio/cy_gpio.h **** *     <td>1.10.1</td>
 130:Generated_Source\PSoC6\pdl\drivers\peripheral\gpio/cy_gpio.h **** *     <td>Updated description for the functions: \ref Cy_GPIO_GetInterruptStatus, 
 131:Generated_Source\PSoC6\pdl\drivers\peripheral\gpio/cy_gpio.h **** *         \ref Cy_GPIO_GetInterruptMask, \ref Cy_GPIO_GetInterruptStatusMasked.
 132:Generated_Source\PSoC6\pdl\drivers\peripheral\gpio/cy_gpio.h **** *
 133:Generated_Source\PSoC6\pdl\drivers\peripheral\gpio/cy_gpio.h **** *         Minor documentation edits.
 134:Generated_Source\PSoC6\pdl\drivers\peripheral\gpio/cy_gpio.h **** *     </td>
 135:Generated_Source\PSoC6\pdl\drivers\peripheral\gpio/cy_gpio.h **** *     <td>Documentation update and clarification</td>
 136:Generated_Source\PSoC6\pdl\drivers\peripheral\gpio/cy_gpio.h **** *   </tr>
 137:Generated_Source\PSoC6\pdl\drivers\peripheral\gpio/cy_gpio.h **** *   <tr>
 138:Generated_Source\PSoC6\pdl\drivers\peripheral\gpio/cy_gpio.h **** *     <td>1.10</td>
 139:Generated_Source\PSoC6\pdl\drivers\peripheral\gpio/cy_gpio.h **** *     <td>Added input parameter validation to the API functions</td>
 140:Generated_Source\PSoC6\pdl\drivers\peripheral\gpio/cy_gpio.h **** *     <td></td>
 141:Generated_Source\PSoC6\pdl\drivers\peripheral\gpio/cy_gpio.h **** *   </tr>
 142:Generated_Source\PSoC6\pdl\drivers\peripheral\gpio/cy_gpio.h **** *   <tr>
 143:Generated_Source\PSoC6\pdl\drivers\peripheral\gpio/cy_gpio.h **** *     <td>1.0</td>
 144:Generated_Source\PSoC6\pdl\drivers\peripheral\gpio/cy_gpio.h **** *     <td>Initial version</td>
 145:Generated_Source\PSoC6\pdl\drivers\peripheral\gpio/cy_gpio.h **** *     <td></td>
 146:Generated_Source\PSoC6\pdl\drivers\peripheral\gpio/cy_gpio.h **** *   </tr>
 147:Generated_Source\PSoC6\pdl\drivers\peripheral\gpio/cy_gpio.h **** * </table>
 148:Generated_Source\PSoC6\pdl\drivers\peripheral\gpio/cy_gpio.h **** *
 149:Generated_Source\PSoC6\pdl\drivers\peripheral\gpio/cy_gpio.h **** * \defgroup group_gpio_macros Macros
 150:Generated_Source\PSoC6\pdl\drivers\peripheral\gpio/cy_gpio.h **** * \defgroup group_gpio_functions Functions
 151:Generated_Source\PSoC6\pdl\drivers\peripheral\gpio/cy_gpio.h **** * \{
 152:Generated_Source\PSoC6\pdl\drivers\peripheral\gpio/cy_gpio.h **** *   \defgroup group_gpio_functions_init       Initialization Functions
 153:Generated_Source\PSoC6\pdl\drivers\peripheral\gpio/cy_gpio.h **** *   \defgroup group_gpio_functions_gpio       GPIO Functions
 154:Generated_Source\PSoC6\pdl\drivers\peripheral\gpio/cy_gpio.h **** *   \defgroup group_gpio_functions_sio        SIO Functions
 155:Generated_Source\PSoC6\pdl\drivers\peripheral\gpio/cy_gpio.h **** *   \defgroup group_gpio_functions_interrupt  Port Interrupt Functions
 156:Generated_Source\PSoC6\pdl\drivers\peripheral\gpio/cy_gpio.h **** * \}
 157:Generated_Source\PSoC6\pdl\drivers\peripheral\gpio/cy_gpio.h **** * \defgroup group_gpio_data_structures Data Structures
 158:Generated_Source\PSoC6\pdl\drivers\peripheral\gpio/cy_gpio.h **** * \defgroup group_gpio_enums Enumerated Types
 159:Generated_Source\PSoC6\pdl\drivers\peripheral\gpio/cy_gpio.h **** */
 160:Generated_Source\PSoC6\pdl\drivers\peripheral\gpio/cy_gpio.h **** 
 161:Generated_Source\PSoC6\pdl\drivers\peripheral\gpio/cy_gpio.h **** #if !defined(CY_GPIO_H)
 162:Generated_Source\PSoC6\pdl\drivers\peripheral\gpio/cy_gpio.h **** #define CY_GPIO_H
 163:Generated_Source\PSoC6\pdl\drivers\peripheral\gpio/cy_gpio.h **** 
 164:Generated_Source\PSoC6\pdl\drivers\peripheral\gpio/cy_gpio.h **** #include <stddef.h>
 165:Generated_Source\PSoC6\pdl\drivers\peripheral\gpio/cy_gpio.h **** #include "cy_device.h"
 166:Generated_Source\PSoC6\pdl\drivers\peripheral\gpio/cy_gpio.h **** #include "cy_device_headers.h"
 167:Generated_Source\PSoC6\pdl\drivers\peripheral\gpio/cy_gpio.h **** #include "cy_syslib.h"
 168:Generated_Source\PSoC6\pdl\drivers\peripheral\gpio/cy_gpio.h **** 
 169:Generated_Source\PSoC6\pdl\drivers\peripheral\gpio/cy_gpio.h **** #if defined(__cplusplus)
 170:Generated_Source\PSoC6\pdl\drivers\peripheral\gpio/cy_gpio.h **** extern "C" {
 171:Generated_Source\PSoC6\pdl\drivers\peripheral\gpio/cy_gpio.h **** #endif
 172:Generated_Source\PSoC6\pdl\drivers\peripheral\gpio/cy_gpio.h **** 
ARM GAS  C:\Users\cmila\AppData\Local\Temp\ccUkpexV.s 			page 9


 173:Generated_Source\PSoC6\pdl\drivers\peripheral\gpio/cy_gpio.h **** /** \addtogroup group_gpio_macros
 174:Generated_Source\PSoC6\pdl\drivers\peripheral\gpio/cy_gpio.h **** * \{
 175:Generated_Source\PSoC6\pdl\drivers\peripheral\gpio/cy_gpio.h **** */
 176:Generated_Source\PSoC6\pdl\drivers\peripheral\gpio/cy_gpio.h **** 
 177:Generated_Source\PSoC6\pdl\drivers\peripheral\gpio/cy_gpio.h **** /** Driver major version */
 178:Generated_Source\PSoC6\pdl\drivers\peripheral\gpio/cy_gpio.h **** #define CY_GPIO_DRV_VERSION_MAJOR       1
 179:Generated_Source\PSoC6\pdl\drivers\peripheral\gpio/cy_gpio.h **** 
 180:Generated_Source\PSoC6\pdl\drivers\peripheral\gpio/cy_gpio.h **** /** Driver minor version */
 181:Generated_Source\PSoC6\pdl\drivers\peripheral\gpio/cy_gpio.h **** #define CY_GPIO_DRV_VERSION_MINOR       20
 182:Generated_Source\PSoC6\pdl\drivers\peripheral\gpio/cy_gpio.h **** 
 183:Generated_Source\PSoC6\pdl\drivers\peripheral\gpio/cy_gpio.h **** /** GPIO driver ID */
 184:Generated_Source\PSoC6\pdl\drivers\peripheral\gpio/cy_gpio.h **** #define CY_GPIO_ID CY_PDL_DRV_ID(0x16U)
 185:Generated_Source\PSoC6\pdl\drivers\peripheral\gpio/cy_gpio.h **** 
 186:Generated_Source\PSoC6\pdl\drivers\peripheral\gpio/cy_gpio.h **** /** \} group_gpio_macros */
 187:Generated_Source\PSoC6\pdl\drivers\peripheral\gpio/cy_gpio.h **** 
 188:Generated_Source\PSoC6\pdl\drivers\peripheral\gpio/cy_gpio.h **** 
 189:Generated_Source\PSoC6\pdl\drivers\peripheral\gpio/cy_gpio.h **** /***************************************
 190:Generated_Source\PSoC6\pdl\drivers\peripheral\gpio/cy_gpio.h **** *       Enumerations
 191:Generated_Source\PSoC6\pdl\drivers\peripheral\gpio/cy_gpio.h **** ***************************************/
 192:Generated_Source\PSoC6\pdl\drivers\peripheral\gpio/cy_gpio.h **** /**
 193:Generated_Source\PSoC6\pdl\drivers\peripheral\gpio/cy_gpio.h **** * \addtogroup group_gpio_enums
 194:Generated_Source\PSoC6\pdl\drivers\peripheral\gpio/cy_gpio.h **** * \{
 195:Generated_Source\PSoC6\pdl\drivers\peripheral\gpio/cy_gpio.h **** */
 196:Generated_Source\PSoC6\pdl\drivers\peripheral\gpio/cy_gpio.h **** 
 197:Generated_Source\PSoC6\pdl\drivers\peripheral\gpio/cy_gpio.h **** /** GPIO Driver error codes */
 198:Generated_Source\PSoC6\pdl\drivers\peripheral\gpio/cy_gpio.h **** typedef enum 
 199:Generated_Source\PSoC6\pdl\drivers\peripheral\gpio/cy_gpio.h **** {
 200:Generated_Source\PSoC6\pdl\drivers\peripheral\gpio/cy_gpio.h ****     CY_GPIO_SUCCESS   = 0x00U,                                    /**< Returned successful */
 201:Generated_Source\PSoC6\pdl\drivers\peripheral\gpio/cy_gpio.h ****     CY_GPIO_BAD_PARAM = CY_GPIO_ID | CY_PDL_STATUS_ERROR | 0x01U, /**< Bad parameter was passed */
 202:Generated_Source\PSoC6\pdl\drivers\peripheral\gpio/cy_gpio.h **** } cy_en_gpio_status_t;
 203:Generated_Source\PSoC6\pdl\drivers\peripheral\gpio/cy_gpio.h **** 
 204:Generated_Source\PSoC6\pdl\drivers\peripheral\gpio/cy_gpio.h **** /** AMux switch open/close config */
 205:Generated_Source\PSoC6\pdl\drivers\peripheral\gpio/cy_gpio.h **** typedef enum
 206:Generated_Source\PSoC6\pdl\drivers\peripheral\gpio/cy_gpio.h **** {
 207:Generated_Source\PSoC6\pdl\drivers\peripheral\gpio/cy_gpio.h ****     CY_GPIO_AMUX_OPENALL,   /**< Open ground switch. Open right switch. Open left switch */
 208:Generated_Source\PSoC6\pdl\drivers\peripheral\gpio/cy_gpio.h ****     CY_GPIO_AMUX_L,         /**< Open ground switch. Open right switch. Close left switch */
 209:Generated_Source\PSoC6\pdl\drivers\peripheral\gpio/cy_gpio.h ****     CY_GPIO_AMUX_R,         /**< Open ground switch. Close right switch. Open left switch */
 210:Generated_Source\PSoC6\pdl\drivers\peripheral\gpio/cy_gpio.h ****     CY_GPIO_AMUX_LR,        /**< Open ground switch. Close right switch. Close left switch */
 211:Generated_Source\PSoC6\pdl\drivers\peripheral\gpio/cy_gpio.h ****     CY_GPIO_AMUX_G,         /**< Close ground switch. Open right switch. Open left switch */
 212:Generated_Source\PSoC6\pdl\drivers\peripheral\gpio/cy_gpio.h ****     CY_GPIO_AMUX_GL,        /**< Close ground switch. Open right switch. Close left switch */
 213:Generated_Source\PSoC6\pdl\drivers\peripheral\gpio/cy_gpio.h ****     CY_GPIO_AMUX_GR,        /**< Close ground switch. Close right switch. Open left switch */
 214:Generated_Source\PSoC6\pdl\drivers\peripheral\gpio/cy_gpio.h ****     CY_GPIO_AMUX_GLR,       /**< Close ground switch. Close right switch. Close left switch */
 215:Generated_Source\PSoC6\pdl\drivers\peripheral\gpio/cy_gpio.h **** }cy_en_gpio_amuxconnect_t;
 216:Generated_Source\PSoC6\pdl\drivers\peripheral\gpio/cy_gpio.h **** 
 217:Generated_Source\PSoC6\pdl\drivers\peripheral\gpio/cy_gpio.h **** /**
 218:Generated_Source\PSoC6\pdl\drivers\peripheral\gpio/cy_gpio.h **** * AMux Bus selection
 219:Generated_Source\PSoC6\pdl\drivers\peripheral\gpio/cy_gpio.h **** */
 220:Generated_Source\PSoC6\pdl\drivers\peripheral\gpio/cy_gpio.h **** typedef enum
 221:Generated_Source\PSoC6\pdl\drivers\peripheral\gpio/cy_gpio.h **** {
 222:Generated_Source\PSoC6\pdl\drivers\peripheral\gpio/cy_gpio.h ****     CY_GPIO_AMUXBUSA,       /**< AMuxBus A */
 223:Generated_Source\PSoC6\pdl\drivers\peripheral\gpio/cy_gpio.h ****     CY_GPIO_AMUXBUSB        /**< AMuxBus B */
 224:Generated_Source\PSoC6\pdl\drivers\peripheral\gpio/cy_gpio.h **** }cy_en_gpio_amuxselect_t;
 225:Generated_Source\PSoC6\pdl\drivers\peripheral\gpio/cy_gpio.h **** 
 226:Generated_Source\PSoC6\pdl\drivers\peripheral\gpio/cy_gpio.h **** /** \} group_gpio_enums */
 227:Generated_Source\PSoC6\pdl\drivers\peripheral\gpio/cy_gpio.h **** 
 228:Generated_Source\PSoC6\pdl\drivers\peripheral\gpio/cy_gpio.h **** 
 229:Generated_Source\PSoC6\pdl\drivers\peripheral\gpio/cy_gpio.h **** /***************************************
ARM GAS  C:\Users\cmila\AppData\Local\Temp\ccUkpexV.s 			page 10


 230:Generated_Source\PSoC6\pdl\drivers\peripheral\gpio/cy_gpio.h **** *       Configuration Structures
 231:Generated_Source\PSoC6\pdl\drivers\peripheral\gpio/cy_gpio.h **** ***************************************/
 232:Generated_Source\PSoC6\pdl\drivers\peripheral\gpio/cy_gpio.h **** 
 233:Generated_Source\PSoC6\pdl\drivers\peripheral\gpio/cy_gpio.h **** /**
 234:Generated_Source\PSoC6\pdl\drivers\peripheral\gpio/cy_gpio.h **** * \addtogroup group_gpio_data_structures
 235:Generated_Source\PSoC6\pdl\drivers\peripheral\gpio/cy_gpio.h **** * \{
 236:Generated_Source\PSoC6\pdl\drivers\peripheral\gpio/cy_gpio.h **** */
 237:Generated_Source\PSoC6\pdl\drivers\peripheral\gpio/cy_gpio.h **** 
 238:Generated_Source\PSoC6\pdl\drivers\peripheral\gpio/cy_gpio.h **** /** This structure is used to initialize a port of GPIO pins */
 239:Generated_Source\PSoC6\pdl\drivers\peripheral\gpio/cy_gpio.h **** typedef struct 
 240:Generated_Source\PSoC6\pdl\drivers\peripheral\gpio/cy_gpio.h **** {
 241:Generated_Source\PSoC6\pdl\drivers\peripheral\gpio/cy_gpio.h ****     uint32_t out;           /**< Initial output data for the IO pins in the port */
 242:Generated_Source\PSoC6\pdl\drivers\peripheral\gpio/cy_gpio.h ****     uint32_t intrMask;      /**< Interrupt enable mask for the port interrupt */
 243:Generated_Source\PSoC6\pdl\drivers\peripheral\gpio/cy_gpio.h ****     uint32_t intrCfg;       /**< Port pin interrupt edge detection configuration */
 244:Generated_Source\PSoC6\pdl\drivers\peripheral\gpio/cy_gpio.h ****     uint32_t cfg;           /**< Port pin drive modes and input buffer enable configuration */
 245:Generated_Source\PSoC6\pdl\drivers\peripheral\gpio/cy_gpio.h ****     uint32_t cfgIn;         /**< Port pin input buffer configuration */
 246:Generated_Source\PSoC6\pdl\drivers\peripheral\gpio/cy_gpio.h ****     uint32_t cfgOut;        /**< Port pin output buffer configuration */
 247:Generated_Source\PSoC6\pdl\drivers\peripheral\gpio/cy_gpio.h ****     uint32_t cfgSIO;        /**< Port SIO pins configuration */
 248:Generated_Source\PSoC6\pdl\drivers\peripheral\gpio/cy_gpio.h ****     uint32_t sel0Active;    /**< HSIOM selection for port pins 0,1,2,3 */
 249:Generated_Source\PSoC6\pdl\drivers\peripheral\gpio/cy_gpio.h ****     uint32_t sel1Active;    /**< HSIOM selection for port pins 4,5,6,7 */
 250:Generated_Source\PSoC6\pdl\drivers\peripheral\gpio/cy_gpio.h **** } cy_stc_gpio_prt_config_t;
 251:Generated_Source\PSoC6\pdl\drivers\peripheral\gpio/cy_gpio.h **** 
 252:Generated_Source\PSoC6\pdl\drivers\peripheral\gpio/cy_gpio.h **** /** This structure is used to initialize a single GPIO pin */
 253:Generated_Source\PSoC6\pdl\drivers\peripheral\gpio/cy_gpio.h **** typedef struct
 254:Generated_Source\PSoC6\pdl\drivers\peripheral\gpio/cy_gpio.h **** {
 255:Generated_Source\PSoC6\pdl\drivers\peripheral\gpio/cy_gpio.h ****     uint32_t outVal;         /**< Pin output state */
 256:Generated_Source\PSoC6\pdl\drivers\peripheral\gpio/cy_gpio.h ****     uint32_t driveMode;      /**< Drive mode */
 257:Generated_Source\PSoC6\pdl\drivers\peripheral\gpio/cy_gpio.h ****     en_hsiom_sel_t hsiom;    /**< HSIOM selection */
 258:Generated_Source\PSoC6\pdl\drivers\peripheral\gpio/cy_gpio.h ****     uint32_t intEdge;        /**< Interrupt Edge type */
 259:Generated_Source\PSoC6\pdl\drivers\peripheral\gpio/cy_gpio.h ****     uint32_t intMask;        /**< Interrupt enable mask */
 260:Generated_Source\PSoC6\pdl\drivers\peripheral\gpio/cy_gpio.h ****     uint32_t vtrip;          /**< Input buffer voltage trip type */
 261:Generated_Source\PSoC6\pdl\drivers\peripheral\gpio/cy_gpio.h ****     uint32_t slewRate;       /**< Output buffer slew rate */
 262:Generated_Source\PSoC6\pdl\drivers\peripheral\gpio/cy_gpio.h ****     uint32_t driveSel;       /**< Drive strength */
 263:Generated_Source\PSoC6\pdl\drivers\peripheral\gpio/cy_gpio.h ****     uint32_t vregEn;         /**< SIO pair output buffer mode */
 264:Generated_Source\PSoC6\pdl\drivers\peripheral\gpio/cy_gpio.h ****     uint32_t ibufMode;       /**< SIO pair input buffer mode */
 265:Generated_Source\PSoC6\pdl\drivers\peripheral\gpio/cy_gpio.h ****     uint32_t vtripSel;       /**< SIO pair input buffer trip point */
 266:Generated_Source\PSoC6\pdl\drivers\peripheral\gpio/cy_gpio.h ****     uint32_t vrefSel;        /**< SIO pair reference voltage for input buffer trip point */
 267:Generated_Source\PSoC6\pdl\drivers\peripheral\gpio/cy_gpio.h ****     uint32_t vohSel;         /**< SIO pair regulated voltage output level */
 268:Generated_Source\PSoC6\pdl\drivers\peripheral\gpio/cy_gpio.h **** } cy_stc_gpio_pin_config_t;
 269:Generated_Source\PSoC6\pdl\drivers\peripheral\gpio/cy_gpio.h **** 
 270:Generated_Source\PSoC6\pdl\drivers\peripheral\gpio/cy_gpio.h **** /** \} group_gpio_data_structures */
 271:Generated_Source\PSoC6\pdl\drivers\peripheral\gpio/cy_gpio.h **** 
 272:Generated_Source\PSoC6\pdl\drivers\peripheral\gpio/cy_gpio.h **** /***************************************
 273:Generated_Source\PSoC6\pdl\drivers\peripheral\gpio/cy_gpio.h **** *        Constants
 274:Generated_Source\PSoC6\pdl\drivers\peripheral\gpio/cy_gpio.h **** ***************************************/
 275:Generated_Source\PSoC6\pdl\drivers\peripheral\gpio/cy_gpio.h **** 
 276:Generated_Source\PSoC6\pdl\drivers\peripheral\gpio/cy_gpio.h **** /** \cond INTERNAL */
 277:Generated_Source\PSoC6\pdl\drivers\peripheral\gpio/cy_gpio.h **** 
 278:Generated_Source\PSoC6\pdl\drivers\peripheral\gpio/cy_gpio.h **** /* General Constants */
 279:Generated_Source\PSoC6\pdl\drivers\peripheral\gpio/cy_gpio.h **** #define CY_GPIO_PRT_HALF                       (4UL)      /**< Half-way point of a GPIO port */
 280:Generated_Source\PSoC6\pdl\drivers\peripheral\gpio/cy_gpio.h **** #define CY_GPIO_PRT_DEINIT                     (0UL)      /**< De-init value for port registers */
 281:Generated_Source\PSoC6\pdl\drivers\peripheral\gpio/cy_gpio.h **** 
 282:Generated_Source\PSoC6\pdl\drivers\peripheral\gpio/cy_gpio.h **** /* GPIO Masks */
 283:Generated_Source\PSoC6\pdl\drivers\peripheral\gpio/cy_gpio.h **** #define CY_GPIO_HSIOM_MASK                     (0x1FUL)   /**< HSIOM selection mask */
 284:Generated_Source\PSoC6\pdl\drivers\peripheral\gpio/cy_gpio.h **** #define CY_GPIO_OUT_MASK                       (0x01UL)   /**< Single pin mask for OUT register */
 285:Generated_Source\PSoC6\pdl\drivers\peripheral\gpio/cy_gpio.h **** #define CY_GPIO_IN_MASK                        (0x01UL)   /**< Single pin mask for IN register */
 286:Generated_Source\PSoC6\pdl\drivers\peripheral\gpio/cy_gpio.h **** #define CY_GPIO_CFG_DM_MASK                    (0x0FUL)   /**< Single pin mask for drive mode in CF
ARM GAS  C:\Users\cmila\AppData\Local\Temp\ccUkpexV.s 			page 11


 287:Generated_Source\PSoC6\pdl\drivers\peripheral\gpio/cy_gpio.h **** #define CY_GPIO_CFG_IN_VTRIP_SEL_MASK          (0x01UL)   /**< Single pin mask for VTRIP selection 
 288:Generated_Source\PSoC6\pdl\drivers\peripheral\gpio/cy_gpio.h **** #define CY_GPIO_CFG_OUT_SLOW_MASK              (0x01UL)   /**< Single pin mask for slew rate in CFG
 289:Generated_Source\PSoC6\pdl\drivers\peripheral\gpio/cy_gpio.h **** #define CY_GPIO_CFG_OUT_DRIVE_SEL_MASK         (0x03UL)   /**< Single pin mask for drive strength i
 290:Generated_Source\PSoC6\pdl\drivers\peripheral\gpio/cy_gpio.h **** #define CY_GPIO_INTR_STATUS_MASK               (0x01UL)   /**< Single pin mask for interrupt status
 291:Generated_Source\PSoC6\pdl\drivers\peripheral\gpio/cy_gpio.h **** #define CY_GPIO_INTR_EN_MASK                   (0x01UL)   /**< Single pin mask for interrupt status
 292:Generated_Source\PSoC6\pdl\drivers\peripheral\gpio/cy_gpio.h **** #define CY_GPIO_INTR_MASKED_MASK               (0x01UL)   /**< Single pin mask for masked interrupt
 293:Generated_Source\PSoC6\pdl\drivers\peripheral\gpio/cy_gpio.h **** #define CY_GPIO_INTR_SET_MASK                  (0x01UL)   /**< Single pin mask for setting the inte
 294:Generated_Source\PSoC6\pdl\drivers\peripheral\gpio/cy_gpio.h **** #define CY_GPIO_INTR_EDGE_MASK                 (0x03UL)   /**< Single pin mask for interrupt edge t
 295:Generated_Source\PSoC6\pdl\drivers\peripheral\gpio/cy_gpio.h **** #define CY_GPIO_INTR_FLT_EDGE_MASK             (0x07UL)   /**< Single pin mask for setting filtered
 296:Generated_Source\PSoC6\pdl\drivers\peripheral\gpio/cy_gpio.h **** 
 297:Generated_Source\PSoC6\pdl\drivers\peripheral\gpio/cy_gpio.h **** /* SIO Masks */
 298:Generated_Source\PSoC6\pdl\drivers\peripheral\gpio/cy_gpio.h **** #define CY_GPIO_VREG_EN_MASK                   (0x01UL)   /**< Single SIO pin mask for voltage regu
 299:Generated_Source\PSoC6\pdl\drivers\peripheral\gpio/cy_gpio.h **** #define CY_GPIO_IBUF_MASK                      (0x01UL)   /**< Single SIO pin mask for input buffer
 300:Generated_Source\PSoC6\pdl\drivers\peripheral\gpio/cy_gpio.h **** #define CY_GPIO_IBUF_SHIFT                     (0x01UL)   /**< Single SIO pin shift for input buffe
 301:Generated_Source\PSoC6\pdl\drivers\peripheral\gpio/cy_gpio.h **** #define CY_GPIO_VTRIP_SEL_MASK                 (0x01UL)   /**< Single SIO pin mask for the input bu
 302:Generated_Source\PSoC6\pdl\drivers\peripheral\gpio/cy_gpio.h **** #define CY_GPIO_VTRIP_SEL_SHIFT                (0x02UL)   /**< Single SIO pin shift for the input b
 303:Generated_Source\PSoC6\pdl\drivers\peripheral\gpio/cy_gpio.h **** #define CY_GPIO_VREF_SEL_MASK                  (0x03UL)   /**< Single SIO pin mask for voltage refe
 304:Generated_Source\PSoC6\pdl\drivers\peripheral\gpio/cy_gpio.h **** #define CY_GPIO_VREF_SEL_SHIFT                 (0x03UL)   /**< Single SIO pin shift for voltage ref
 305:Generated_Source\PSoC6\pdl\drivers\peripheral\gpio/cy_gpio.h **** #define CY_GPIO_VOH_SEL_MASK                   (0x07UL)   /**< Single SIO pin mask for VOH */
 306:Generated_Source\PSoC6\pdl\drivers\peripheral\gpio/cy_gpio.h **** #define CY_GPIO_VOH_SEL_SHIFT                  (0x05UL)   /**< Single SIO pin shift for VOH */
 307:Generated_Source\PSoC6\pdl\drivers\peripheral\gpio/cy_gpio.h **** 
 308:Generated_Source\PSoC6\pdl\drivers\peripheral\gpio/cy_gpio.h **** /* Special mask for SIO pin pair setting */
 309:Generated_Source\PSoC6\pdl\drivers\peripheral\gpio/cy_gpio.h **** #define CY_GPIO_SIO_ODD_PIN_MASK               (0x00FEUL) /**< SIO pin pair selection mask */
 310:Generated_Source\PSoC6\pdl\drivers\peripheral\gpio/cy_gpio.h **** #define CY_GPIO_SIO_PIN_MASK                   (0x00FFUL) /**< SIO pin pair mask */
 311:Generated_Source\PSoC6\pdl\drivers\peripheral\gpio/cy_gpio.h **** 
 312:Generated_Source\PSoC6\pdl\drivers\peripheral\gpio/cy_gpio.h **** /* Offsets */
 313:Generated_Source\PSoC6\pdl\drivers\peripheral\gpio/cy_gpio.h **** #define CY_GPIO_HSIOM_OFFSET                   (3UL)      /**< Offset for HSIOM */
 314:Generated_Source\PSoC6\pdl\drivers\peripheral\gpio/cy_gpio.h **** #define CY_GPIO_DRIVE_MODE_OFFSET              (2UL)      /**< Offset for Drive mode */
 315:Generated_Source\PSoC6\pdl\drivers\peripheral\gpio/cy_gpio.h **** #define CY_GPIO_INBUF_OFFSET                   (3UL)      /**< Offset for input buffer */
 316:Generated_Source\PSoC6\pdl\drivers\peripheral\gpio/cy_gpio.h **** #define CY_GPIO_CFG_OUT_DRIVE_OFFSET           (16UL)     /**< Offset for drive strength */
 317:Generated_Source\PSoC6\pdl\drivers\peripheral\gpio/cy_gpio.h **** #define CY_GPIO_INTR_CFG_OFFSET                (1UL)      /**< Offset for interrupt config */
 318:Generated_Source\PSoC6\pdl\drivers\peripheral\gpio/cy_gpio.h **** #define CY_GPIO_INTR_FILT_OFFSET               (18UL)     /**< Offset for filtered interrupt config
 319:Generated_Source\PSoC6\pdl\drivers\peripheral\gpio/cy_gpio.h **** #define CY_GPIO_CFG_SIO_OFFSET                 (2UL)      /**< Offset for SIO config */
 320:Generated_Source\PSoC6\pdl\drivers\peripheral\gpio/cy_gpio.h **** 
 321:Generated_Source\PSoC6\pdl\drivers\peripheral\gpio/cy_gpio.h **** /* Parameter validation constants */
 322:Generated_Source\PSoC6\pdl\drivers\peripheral\gpio/cy_gpio.h **** #define CY_GPIO_PINS_MAX                       (8UL)      /**< Number of pins in the port */
 323:Generated_Source\PSoC6\pdl\drivers\peripheral\gpio/cy_gpio.h **** #define CY_GPIO_PRT_PINS_MASK                  (0x0000000FFUL)
 324:Generated_Source\PSoC6\pdl\drivers\peripheral\gpio/cy_gpio.h **** #define CY_GPIO_PRT_INTR_CFG_EDGE_SEL_MASK     (GPIO_PRT_INTR_CFG_EDGE0_SEL_Msk | \
 325:Generated_Source\PSoC6\pdl\drivers\peripheral\gpio/cy_gpio.h ****                                                 GPIO_PRT_INTR_CFG_EDGE1_SEL_Msk | \
 326:Generated_Source\PSoC6\pdl\drivers\peripheral\gpio/cy_gpio.h ****                                                 GPIO_PRT_INTR_CFG_EDGE2_SEL_Msk | \
 327:Generated_Source\PSoC6\pdl\drivers\peripheral\gpio/cy_gpio.h ****                                                 GPIO_PRT_INTR_CFG_EDGE3_SEL_Msk | \
 328:Generated_Source\PSoC6\pdl\drivers\peripheral\gpio/cy_gpio.h ****                                                 GPIO_PRT_INTR_CFG_EDGE4_SEL_Msk | \
 329:Generated_Source\PSoC6\pdl\drivers\peripheral\gpio/cy_gpio.h ****                                                 GPIO_PRT_INTR_CFG_EDGE5_SEL_Msk | \
 330:Generated_Source\PSoC6\pdl\drivers\peripheral\gpio/cy_gpio.h ****                                                 GPIO_PRT_INTR_CFG_EDGE6_SEL_Msk | \
 331:Generated_Source\PSoC6\pdl\drivers\peripheral\gpio/cy_gpio.h ****                                                 GPIO_PRT_INTR_CFG_EDGE7_SEL_Msk)
 332:Generated_Source\PSoC6\pdl\drivers\peripheral\gpio/cy_gpio.h **** #define CY_GPIO_PRT_INTR_CFG_RANGE_MASK        (CY_GPIO_PRT_INTR_CFG_EDGE_SEL_MASK | \
 333:Generated_Source\PSoC6\pdl\drivers\peripheral\gpio/cy_gpio.h ****                                                 GPIO_PRT_INTR_CFG_FLT_EDGE_SEL_Msk | \
 334:Generated_Source\PSoC6\pdl\drivers\peripheral\gpio/cy_gpio.h ****                                                 GPIO_PRT_INTR_CFG_FLT_SEL_Msk)
 335:Generated_Source\PSoC6\pdl\drivers\peripheral\gpio/cy_gpio.h **** #define CY_GPIO_PRT_INT_MASK_MASK              (0x0000001FFUL)
 336:Generated_Source\PSoC6\pdl\drivers\peripheral\gpio/cy_gpio.h **** #define CY_GPIO_PRT_SEL_ACTIVE_MASK            (0x1FFFFFFFUL)
 337:Generated_Source\PSoC6\pdl\drivers\peripheral\gpio/cy_gpio.h **** 
 338:Generated_Source\PSoC6\pdl\drivers\peripheral\gpio/cy_gpio.h **** #define GPIO_MAX_SPLIT_CELL_SEGMENTS           (9U)
 339:Generated_Source\PSoC6\pdl\drivers\peripheral\gpio/cy_gpio.h **** 
 340:Generated_Source\PSoC6\pdl\drivers\peripheral\gpio/cy_gpio.h **** /* Parameter validation macros */
 341:Generated_Source\PSoC6\pdl\drivers\peripheral\gpio/cy_gpio.h **** #define CY_GPIO_IS_PIN_VALID(pinNum)           (CY_GPIO_PINS_MAX > (pinNum))
 342:Generated_Source\PSoC6\pdl\drivers\peripheral\gpio/cy_gpio.h **** #define CY_GPIO_IS_FILTER_PIN_VALID(pinNum)    (CY_GPIO_PINS_MAX >= (pinNum))
 343:Generated_Source\PSoC6\pdl\drivers\peripheral\gpio/cy_gpio.h **** #define CY_GPIO_IS_VALUE_VALID(outVal)         (1UL >= (outVal))
ARM GAS  C:\Users\cmila\AppData\Local\Temp\ccUkpexV.s 			page 12


 344:Generated_Source\PSoC6\pdl\drivers\peripheral\gpio/cy_gpio.h **** #define CY_GPIO_IS_DM_VALID(driveMode)         (0U == ((driveMode) & (uint32_t)~CY_GPIO_CFG_DM_MASK
 345:Generated_Source\PSoC6\pdl\drivers\peripheral\gpio/cy_gpio.h **** 
 346:Generated_Source\PSoC6\pdl\drivers\peripheral\gpio/cy_gpio.h **** #define CY_GPIO_IS_HSIOM_VALID(hsiom)          (0U == ((hsiom) & (uint32_t)~CY_GPIO_HSIOM_MASK))
 347:Generated_Source\PSoC6\pdl\drivers\peripheral\gpio/cy_gpio.h **** 
 348:Generated_Source\PSoC6\pdl\drivers\peripheral\gpio/cy_gpio.h **** #define CY_GPIO_IS_INT_EDGE_VALID(intEdge)     ((CY_GPIO_INTR_DISABLE  == (intEdge)) || \
 349:Generated_Source\PSoC6\pdl\drivers\peripheral\gpio/cy_gpio.h ****                                                 (CY_GPIO_INTR_RISING   == (intEdge)) || \
 350:Generated_Source\PSoC6\pdl\drivers\peripheral\gpio/cy_gpio.h ****                                                 (CY_GPIO_INTR_FALLING  == (intEdge)) || \
 351:Generated_Source\PSoC6\pdl\drivers\peripheral\gpio/cy_gpio.h ****                                                 (CY_GPIO_INTR_BOTH     == (intEdge)))
 352:Generated_Source\PSoC6\pdl\drivers\peripheral\gpio/cy_gpio.h **** 
 353:Generated_Source\PSoC6\pdl\drivers\peripheral\gpio/cy_gpio.h **** #define CY_GPIO_IS_DRIVE_SEL_VALID(driveSel)   ((CY_GPIO_DRIVE_FULL    == (driveSel)) || \
 354:Generated_Source\PSoC6\pdl\drivers\peripheral\gpio/cy_gpio.h ****                                                 (CY_GPIO_DRIVE_1_2     == (driveSel)) || \
 355:Generated_Source\PSoC6\pdl\drivers\peripheral\gpio/cy_gpio.h ****                                                 (CY_GPIO_DRIVE_1_4     == (driveSel)) || \
 356:Generated_Source\PSoC6\pdl\drivers\peripheral\gpio/cy_gpio.h ****                                                 (CY_GPIO_DRIVE_1_8     == (driveSel)))
 357:Generated_Source\PSoC6\pdl\drivers\peripheral\gpio/cy_gpio.h **** 
 358:Generated_Source\PSoC6\pdl\drivers\peripheral\gpio/cy_gpio.h **** #define CY_GPIO_IS_VREF_SEL_VALID(vrefSel)     ((CY_SIO_VREF_PINREF    == (vrefSel)) || \
 359:Generated_Source\PSoC6\pdl\drivers\peripheral\gpio/cy_gpio.h ****                                                 (CY_SIO_VREF_1_2V      == (vrefSel)) || \
 360:Generated_Source\PSoC6\pdl\drivers\peripheral\gpio/cy_gpio.h ****                                                 (CY_SIO_VREF_AMUX_A    == (vrefSel)) || \
 361:Generated_Source\PSoC6\pdl\drivers\peripheral\gpio/cy_gpio.h ****                                                 (CY_SIO_VREF_AMUX_B    == (vrefSel)))
 362:Generated_Source\PSoC6\pdl\drivers\peripheral\gpio/cy_gpio.h **** 
 363:Generated_Source\PSoC6\pdl\drivers\peripheral\gpio/cy_gpio.h **** #define CY_GPIO_IS_VOH_SEL_VALID(vrefSel)      ((CY_SIO_VOH_1_00       == (vrefSel)) || \
 364:Generated_Source\PSoC6\pdl\drivers\peripheral\gpio/cy_gpio.h ****                                                 (CY_SIO_VOH_1_25       == (vrefSel)) || \
 365:Generated_Source\PSoC6\pdl\drivers\peripheral\gpio/cy_gpio.h ****                                                 (CY_SIO_VOH_1_49       == (vrefSel)) || \
 366:Generated_Source\PSoC6\pdl\drivers\peripheral\gpio/cy_gpio.h ****                                                 (CY_SIO_VOH_1_67       == (vrefSel)) || \
 367:Generated_Source\PSoC6\pdl\drivers\peripheral\gpio/cy_gpio.h ****                                                 (CY_SIO_VOH_2_08       == (vrefSel)) || \
 368:Generated_Source\PSoC6\pdl\drivers\peripheral\gpio/cy_gpio.h ****                                                 (CY_SIO_VOH_2_50       == (vrefSel)) || \
 369:Generated_Source\PSoC6\pdl\drivers\peripheral\gpio/cy_gpio.h ****                                                 (CY_SIO_VOH_2_78       == (vrefSel)) || \
 370:Generated_Source\PSoC6\pdl\drivers\peripheral\gpio/cy_gpio.h ****                                                 (CY_SIO_VOH_4_16       == (vrefSel)))
 371:Generated_Source\PSoC6\pdl\drivers\peripheral\gpio/cy_gpio.h ****                    
 372:Generated_Source\PSoC6\pdl\drivers\peripheral\gpio/cy_gpio.h **** #define CY_GPIO_IS_PIN_BIT_VALID(pinBit)       (0U == ((pinBit) & (uint32_t)~CY_GPIO_PRT_PINS_MASK)
 373:Generated_Source\PSoC6\pdl\drivers\peripheral\gpio/cy_gpio.h **** #define CY_GPIO_IS_INTR_CFG_VALID(intrCfg)     (0U == ((intrCfg) & (uint32_t)~CY_GPIO_PRT_INTR_CFG_
 374:Generated_Source\PSoC6\pdl\drivers\peripheral\gpio/cy_gpio.h **** #define CY_GPIO_IS_INTR_MASK_VALID(intrMask)   (0U == ((intrMask) & (uint32_t)~CY_GPIO_PRT_INT_MASK
 375:Generated_Source\PSoC6\pdl\drivers\peripheral\gpio/cy_gpio.h **** #define CY_GPIO_IS_SEL_ACT_VALID(selActive)    (0U == ((selActive) & (uint32_t)~CY_GPIO_PRT_SEL_ACT
 376:Generated_Source\PSoC6\pdl\drivers\peripheral\gpio/cy_gpio.h **** 
 377:Generated_Source\PSoC6\pdl\drivers\peripheral\gpio/cy_gpio.h **** #define CY_GPIO_IS_AMUX_SPLIT_VALID(switchCtrl)       (((uint32_t) (switchCtrl)) < GPIO_MAX_SPLIT_C
 378:Generated_Source\PSoC6\pdl\drivers\peripheral\gpio/cy_gpio.h **** 
 379:Generated_Source\PSoC6\pdl\drivers\peripheral\gpio/cy_gpio.h **** #define CY_GPIO_IS_AMUX_CONNECT_VALID(amuxConnect)    ((CY_GPIO_AMUX_OPENALL == (amuxConnect)) || \
 380:Generated_Source\PSoC6\pdl\drivers\peripheral\gpio/cy_gpio.h ****                                                        (CY_GPIO_AMUX_L       == (amuxConnect)) || \
 381:Generated_Source\PSoC6\pdl\drivers\peripheral\gpio/cy_gpio.h ****                                                        (CY_GPIO_AMUX_R       == (amuxConnect)) || \
 382:Generated_Source\PSoC6\pdl\drivers\peripheral\gpio/cy_gpio.h ****                                                        (CY_GPIO_AMUX_LR      == (amuxConnect)) || \
 383:Generated_Source\PSoC6\pdl\drivers\peripheral\gpio/cy_gpio.h ****                                                        (CY_GPIO_AMUX_G       == (amuxConnect)) || \
 384:Generated_Source\PSoC6\pdl\drivers\peripheral\gpio/cy_gpio.h ****                                                        (CY_GPIO_AMUX_GL      == (amuxConnect)) || \
 385:Generated_Source\PSoC6\pdl\drivers\peripheral\gpio/cy_gpio.h ****                                                        (CY_GPIO_AMUX_GR      == (amuxConnect)) || \
 386:Generated_Source\PSoC6\pdl\drivers\peripheral\gpio/cy_gpio.h ****                                                        (CY_GPIO_AMUX_GLR     == (amuxConnect)))
 387:Generated_Source\PSoC6\pdl\drivers\peripheral\gpio/cy_gpio.h **** 
 388:Generated_Source\PSoC6\pdl\drivers\peripheral\gpio/cy_gpio.h **** #define CY_GPIO_IS_AMUX_SELECT_VALID(amuxBus)       ((CY_GPIO_AMUXBUSA       == (amuxBus)) || \
 389:Generated_Source\PSoC6\pdl\drivers\peripheral\gpio/cy_gpio.h ****                                                      (CY_GPIO_AMUXBUSB       == (amuxBus)))
 390:Generated_Source\PSoC6\pdl\drivers\peripheral\gpio/cy_gpio.h **** /** \endcond */
 391:Generated_Source\PSoC6\pdl\drivers\peripheral\gpio/cy_gpio.h **** 
 392:Generated_Source\PSoC6\pdl\drivers\peripheral\gpio/cy_gpio.h **** 
 393:Generated_Source\PSoC6\pdl\drivers\peripheral\gpio/cy_gpio.h **** /***************************************
 394:Generated_Source\PSoC6\pdl\drivers\peripheral\gpio/cy_gpio.h **** *        Function Constants
 395:Generated_Source\PSoC6\pdl\drivers\peripheral\gpio/cy_gpio.h **** ***************************************/
 396:Generated_Source\PSoC6\pdl\drivers\peripheral\gpio/cy_gpio.h **** 
 397:Generated_Source\PSoC6\pdl\drivers\peripheral\gpio/cy_gpio.h **** /**
 398:Generated_Source\PSoC6\pdl\drivers\peripheral\gpio/cy_gpio.h **** * \addtogroup group_gpio_macros
 399:Generated_Source\PSoC6\pdl\drivers\peripheral\gpio/cy_gpio.h **** * \{
 400:Generated_Source\PSoC6\pdl\drivers\peripheral\gpio/cy_gpio.h **** */
ARM GAS  C:\Users\cmila\AppData\Local\Temp\ccUkpexV.s 			page 13


 401:Generated_Source\PSoC6\pdl\drivers\peripheral\gpio/cy_gpio.h **** 
 402:Generated_Source\PSoC6\pdl\drivers\peripheral\gpio/cy_gpio.h **** /**
 403:Generated_Source\PSoC6\pdl\drivers\peripheral\gpio/cy_gpio.h **** * \defgroup group_gpio_driveModes Pin drive mode
 404:Generated_Source\PSoC6\pdl\drivers\peripheral\gpio/cy_gpio.h **** * \{
 405:Generated_Source\PSoC6\pdl\drivers\peripheral\gpio/cy_gpio.h **** * Constants to be used for setting the drive mode of the pin.
 406:Generated_Source\PSoC6\pdl\drivers\peripheral\gpio/cy_gpio.h **** */
 407:Generated_Source\PSoC6\pdl\drivers\peripheral\gpio/cy_gpio.h **** #define CY_GPIO_DM_ANALOG                      (0x00UL) /**< Analog High-Z. Input buffer off */
 408:Generated_Source\PSoC6\pdl\drivers\peripheral\gpio/cy_gpio.h **** #define CY_GPIO_DM_PULLUP_IN_OFF               (0x02UL) /**< Resistive Pull-Up. Input buffer off */
 409:Generated_Source\PSoC6\pdl\drivers\peripheral\gpio/cy_gpio.h **** #define CY_GPIO_DM_PULLDOWN_IN_OFF             (0x03UL) /**< Resistive Pull-Down. Input buffer off 
 410:Generated_Source\PSoC6\pdl\drivers\peripheral\gpio/cy_gpio.h **** #define CY_GPIO_DM_OD_DRIVESLOW_IN_OFF         (0x04UL) /**< Open Drain, Drives Low. Input buffer o
 411:Generated_Source\PSoC6\pdl\drivers\peripheral\gpio/cy_gpio.h **** #define CY_GPIO_DM_OD_DRIVESHIGH_IN_OFF        (0x05UL) /**< Open Drain, Drives High. Input buffer 
 412:Generated_Source\PSoC6\pdl\drivers\peripheral\gpio/cy_gpio.h **** #define CY_GPIO_DM_STRONG_IN_OFF               (0x06UL) /**< Strong Drive. Input buffer off */
 413:Generated_Source\PSoC6\pdl\drivers\peripheral\gpio/cy_gpio.h **** #define CY_GPIO_DM_PULLUP_DOWN_IN_OFF          (0x07UL) /**< Resistive Pull-Up/Down. Input buffer o
 414:Generated_Source\PSoC6\pdl\drivers\peripheral\gpio/cy_gpio.h **** #define CY_GPIO_DM_HIGHZ                       (0x08UL) /**< Digital High-Z. Input buffer on */
 415:Generated_Source\PSoC6\pdl\drivers\peripheral\gpio/cy_gpio.h **** #define CY_GPIO_DM_PULLUP                      (0x0AUL) /**< Resistive Pull-Up. Input buffer on */
 416:Generated_Source\PSoC6\pdl\drivers\peripheral\gpio/cy_gpio.h **** #define CY_GPIO_DM_PULLDOWN                    (0x0BUL) /**< Resistive Pull-Down. Input buffer on *
 417:Generated_Source\PSoC6\pdl\drivers\peripheral\gpio/cy_gpio.h **** #define CY_GPIO_DM_OD_DRIVESLOW                (0x0CUL) /**< Open Drain, Drives Low. Input buffer o
 418:Generated_Source\PSoC6\pdl\drivers\peripheral\gpio/cy_gpio.h **** #define CY_GPIO_DM_OD_DRIVESHIGH               (0x0DUL) /**< Open Drain, Drives High. Input buffer 
 419:Generated_Source\PSoC6\pdl\drivers\peripheral\gpio/cy_gpio.h **** #define CY_GPIO_DM_STRONG                      (0x0EUL) /**< Strong Drive. Input buffer on */
 420:Generated_Source\PSoC6\pdl\drivers\peripheral\gpio/cy_gpio.h **** #define CY_GPIO_DM_PULLUP_DOWN                 (0x0FUL) /**< Resistive Pull-Up/Down. Input buffer o
 421:Generated_Source\PSoC6\pdl\drivers\peripheral\gpio/cy_gpio.h **** /** \} */
 422:Generated_Source\PSoC6\pdl\drivers\peripheral\gpio/cy_gpio.h **** 
 423:Generated_Source\PSoC6\pdl\drivers\peripheral\gpio/cy_gpio.h **** /**
 424:Generated_Source\PSoC6\pdl\drivers\peripheral\gpio/cy_gpio.h **** * \defgroup group_gpio_vtrip Voltage trip mode
 425:Generated_Source\PSoC6\pdl\drivers\peripheral\gpio/cy_gpio.h **** * \{
 426:Generated_Source\PSoC6\pdl\drivers\peripheral\gpio/cy_gpio.h **** * Constants to be used for setting the voltage trip type on the pin.
 427:Generated_Source\PSoC6\pdl\drivers\peripheral\gpio/cy_gpio.h **** */
 428:Generated_Source\PSoC6\pdl\drivers\peripheral\gpio/cy_gpio.h **** #define CY_GPIO_VTRIP_CMOS                     (0x00UL) /**< Input buffer compatible with CMOS and 
 429:Generated_Source\PSoC6\pdl\drivers\peripheral\gpio/cy_gpio.h **** #define CY_GPIO_VTRIP_TTL                      (0x01UL) /**< Input buffer compatible with TTL and M
 430:Generated_Source\PSoC6\pdl\drivers\peripheral\gpio/cy_gpio.h **** /** \} */
 431:Generated_Source\PSoC6\pdl\drivers\peripheral\gpio/cy_gpio.h **** 
 432:Generated_Source\PSoC6\pdl\drivers\peripheral\gpio/cy_gpio.h **** /**
 433:Generated_Source\PSoC6\pdl\drivers\peripheral\gpio/cy_gpio.h **** * \defgroup group_gpio_slewRate Slew Rate Mode
 434:Generated_Source\PSoC6\pdl\drivers\peripheral\gpio/cy_gpio.h **** * \{
 435:Generated_Source\PSoC6\pdl\drivers\peripheral\gpio/cy_gpio.h **** * Constants to be used for setting the slew rate of the pin.
 436:Generated_Source\PSoC6\pdl\drivers\peripheral\gpio/cy_gpio.h **** */
 437:Generated_Source\PSoC6\pdl\drivers\peripheral\gpio/cy_gpio.h **** #define CY_GPIO_SLEW_FAST                      (0x00UL) /**< Fast slew rate */
 438:Generated_Source\PSoC6\pdl\drivers\peripheral\gpio/cy_gpio.h **** #define CY_GPIO_SLEW_SLOW                      (0x01UL) /**< Slow slew rate */
 439:Generated_Source\PSoC6\pdl\drivers\peripheral\gpio/cy_gpio.h **** /** \} */
 440:Generated_Source\PSoC6\pdl\drivers\peripheral\gpio/cy_gpio.h **** 
 441:Generated_Source\PSoC6\pdl\drivers\peripheral\gpio/cy_gpio.h **** /**
 442:Generated_Source\PSoC6\pdl\drivers\peripheral\gpio/cy_gpio.h **** * \defgroup group_gpio_driveStrength Pin drive strength
 443:Generated_Source\PSoC6\pdl\drivers\peripheral\gpio/cy_gpio.h **** * \{
 444:Generated_Source\PSoC6\pdl\drivers\peripheral\gpio/cy_gpio.h **** * Constants to be used for setting the drive strength of the pin.
 445:Generated_Source\PSoC6\pdl\drivers\peripheral\gpio/cy_gpio.h **** */
 446:Generated_Source\PSoC6\pdl\drivers\peripheral\gpio/cy_gpio.h **** #define CY_GPIO_DRIVE_FULL                     (0x00UL) /**< Full drive strength: Max drive current
 447:Generated_Source\PSoC6\pdl\drivers\peripheral\gpio/cy_gpio.h **** #define CY_GPIO_DRIVE_1_2                      (0x01UL) /**< 1/2 drive strength: 1/2 drive current 
 448:Generated_Source\PSoC6\pdl\drivers\peripheral\gpio/cy_gpio.h **** #define CY_GPIO_DRIVE_1_4                      (0x02UL) /**< 1/4 drive strength: 1/4 drive current 
 449:Generated_Source\PSoC6\pdl\drivers\peripheral\gpio/cy_gpio.h **** #define CY_GPIO_DRIVE_1_8                      (0x03UL) /**< 1/8 drive strength: 1/8 drive current 
 450:Generated_Source\PSoC6\pdl\drivers\peripheral\gpio/cy_gpio.h **** /** \} */
 451:Generated_Source\PSoC6\pdl\drivers\peripheral\gpio/cy_gpio.h **** 
 452:Generated_Source\PSoC6\pdl\drivers\peripheral\gpio/cy_gpio.h **** /**
 453:Generated_Source\PSoC6\pdl\drivers\peripheral\gpio/cy_gpio.h **** * \defgroup group_gpio_interruptTrigger Interrupt trigger type
 454:Generated_Source\PSoC6\pdl\drivers\peripheral\gpio/cy_gpio.h **** * \{
 455:Generated_Source\PSoC6\pdl\drivers\peripheral\gpio/cy_gpio.h **** * Constants to be used for setting the interrupt trigger type on the pin.
 456:Generated_Source\PSoC6\pdl\drivers\peripheral\gpio/cy_gpio.h **** */
 457:Generated_Source\PSoC6\pdl\drivers\peripheral\gpio/cy_gpio.h **** #define CY_GPIO_INTR_DISABLE                   (0x00UL) /**< Disable the pin interrupt generation *
ARM GAS  C:\Users\cmila\AppData\Local\Temp\ccUkpexV.s 			page 14


 458:Generated_Source\PSoC6\pdl\drivers\peripheral\gpio/cy_gpio.h **** #define CY_GPIO_INTR_RISING                    (0x01UL) /**< Rising-Edge interrupt */
 459:Generated_Source\PSoC6\pdl\drivers\peripheral\gpio/cy_gpio.h **** #define CY_GPIO_INTR_FALLING                   (0x02UL) /**< Falling-Edge interrupt */
 460:Generated_Source\PSoC6\pdl\drivers\peripheral\gpio/cy_gpio.h **** #define CY_GPIO_INTR_BOTH                      (0x03UL) /**< Both-Edge interrupt */
 461:Generated_Source\PSoC6\pdl\drivers\peripheral\gpio/cy_gpio.h **** /** \} */
 462:Generated_Source\PSoC6\pdl\drivers\peripheral\gpio/cy_gpio.h **** 
 463:Generated_Source\PSoC6\pdl\drivers\peripheral\gpio/cy_gpio.h **** /**
 464:Generated_Source\PSoC6\pdl\drivers\peripheral\gpio/cy_gpio.h **** * \defgroup group_gpio_sioVreg SIO output buffer mode
 465:Generated_Source\PSoC6\pdl\drivers\peripheral\gpio/cy_gpio.h **** * \{
 466:Generated_Source\PSoC6\pdl\drivers\peripheral\gpio/cy_gpio.h **** * Constants to be used for setting the SIO output buffer mode on the pin.
 467:Generated_Source\PSoC6\pdl\drivers\peripheral\gpio/cy_gpio.h **** */
 468:Generated_Source\PSoC6\pdl\drivers\peripheral\gpio/cy_gpio.h **** #define CY_SIO_VREG_UNREGULATED                (0x00UL) /**< Unregulated output buffer */
 469:Generated_Source\PSoC6\pdl\drivers\peripheral\gpio/cy_gpio.h **** #define CY_SIO_VREG_REGULATED                  (0x01UL) /**< Regulated output buffer */
 470:Generated_Source\PSoC6\pdl\drivers\peripheral\gpio/cy_gpio.h **** /** \} */
 471:Generated_Source\PSoC6\pdl\drivers\peripheral\gpio/cy_gpio.h **** 
 472:Generated_Source\PSoC6\pdl\drivers\peripheral\gpio/cy_gpio.h **** /**
 473:Generated_Source\PSoC6\pdl\drivers\peripheral\gpio/cy_gpio.h **** * \defgroup group_gpio_sioIbuf SIO input buffer mode
 474:Generated_Source\PSoC6\pdl\drivers\peripheral\gpio/cy_gpio.h **** * \{
 475:Generated_Source\PSoC6\pdl\drivers\peripheral\gpio/cy_gpio.h **** * Constants to be used for setting the SIO input buffer mode on the pin.
 476:Generated_Source\PSoC6\pdl\drivers\peripheral\gpio/cy_gpio.h **** */
 477:Generated_Source\PSoC6\pdl\drivers\peripheral\gpio/cy_gpio.h **** #define CY_SIO_IBUF_SINGLEENDED                (0x00UL) /**< Single ended input buffer */
 478:Generated_Source\PSoC6\pdl\drivers\peripheral\gpio/cy_gpio.h **** #define CY_SIO_IBUF_DIFFERENTIAL               (0x01UL) /**< Differential input buffer */
 479:Generated_Source\PSoC6\pdl\drivers\peripheral\gpio/cy_gpio.h **** /** \} */
 480:Generated_Source\PSoC6\pdl\drivers\peripheral\gpio/cy_gpio.h **** 
 481:Generated_Source\PSoC6\pdl\drivers\peripheral\gpio/cy_gpio.h **** /**
 482:Generated_Source\PSoC6\pdl\drivers\peripheral\gpio/cy_gpio.h **** * \defgroup group_gpio_sioVtrip SIO input buffer trip-point
 483:Generated_Source\PSoC6\pdl\drivers\peripheral\gpio/cy_gpio.h **** * \{
 484:Generated_Source\PSoC6\pdl\drivers\peripheral\gpio/cy_gpio.h **** * Constants to be used for setting the SIO input buffer trip-point of the pin.
 485:Generated_Source\PSoC6\pdl\drivers\peripheral\gpio/cy_gpio.h **** */
 486:Generated_Source\PSoC6\pdl\drivers\peripheral\gpio/cy_gpio.h **** #define CY_SIO_VTRIP_CMOS                      (0x00UL) /**< CMOS input buffer (single-ended) */
 487:Generated_Source\PSoC6\pdl\drivers\peripheral\gpio/cy_gpio.h **** #define CY_SIO_VTRIP_TTL                       (0x01UL) /**< TTL input buffer (single-ended) */
 488:Generated_Source\PSoC6\pdl\drivers\peripheral\gpio/cy_gpio.h **** #define CY_SIO_VTRIP_0_5VDDIO_0_5VOH           (0x00UL) /**< 0.5xVddio or 0.5xVoh (differential) */
 489:Generated_Source\PSoC6\pdl\drivers\peripheral\gpio/cy_gpio.h **** #define CY_SIO_VTRIP_0_4VDDIO_1_0VREF          (0x01UL) /**< 0.4xVddio or 0.4xVoh (differential) */
 490:Generated_Source\PSoC6\pdl\drivers\peripheral\gpio/cy_gpio.h **** /** \} */
 491:Generated_Source\PSoC6\pdl\drivers\peripheral\gpio/cy_gpio.h **** 
 492:Generated_Source\PSoC6\pdl\drivers\peripheral\gpio/cy_gpio.h **** /**
 493:Generated_Source\PSoC6\pdl\drivers\peripheral\gpio/cy_gpio.h **** * \defgroup group_gpio_sioVref SIO reference voltage for input buffer trip-point
 494:Generated_Source\PSoC6\pdl\drivers\peripheral\gpio/cy_gpio.h **** * \{
 495:Generated_Source\PSoC6\pdl\drivers\peripheral\gpio/cy_gpio.h **** * Constants to be used for setting the reference voltage of SIO input buffer trip-point.
 496:Generated_Source\PSoC6\pdl\drivers\peripheral\gpio/cy_gpio.h **** */
 497:Generated_Source\PSoC6\pdl\drivers\peripheral\gpio/cy_gpio.h **** #define CY_SIO_VREF_PINREF                     (0x00UL) /**< Vref from analog pin */
 498:Generated_Source\PSoC6\pdl\drivers\peripheral\gpio/cy_gpio.h **** #define CY_SIO_VREF_1_2V                       (0x01UL) /**< Vref from internal 1.2V reference */
 499:Generated_Source\PSoC6\pdl\drivers\peripheral\gpio/cy_gpio.h **** #define CY_SIO_VREF_AMUX_A                     (0x02UL) /**< Vref from AMUXBUS_A */
 500:Generated_Source\PSoC6\pdl\drivers\peripheral\gpio/cy_gpio.h **** #define CY_SIO_VREF_AMUX_B                     (0x03UL) /**< Vref from AMUXBUS_B */
 501:Generated_Source\PSoC6\pdl\drivers\peripheral\gpio/cy_gpio.h **** /** \} */
 502:Generated_Source\PSoC6\pdl\drivers\peripheral\gpio/cy_gpio.h **** 
 503:Generated_Source\PSoC6\pdl\drivers\peripheral\gpio/cy_gpio.h **** /**
 504:Generated_Source\PSoC6\pdl\drivers\peripheral\gpio/cy_gpio.h **** * \defgroup group_gpio_sioVoh Regulated output voltage level (Voh) and input buffer trip-point of a
 505:Generated_Source\PSoC6\pdl\drivers\peripheral\gpio/cy_gpio.h **** * \{
 506:Generated_Source\PSoC6\pdl\drivers\peripheral\gpio/cy_gpio.h **** * Constants to be used for setting the Voh and input buffer trip-point of an SIO pair
 507:Generated_Source\PSoC6\pdl\drivers\peripheral\gpio/cy_gpio.h **** */
 508:Generated_Source\PSoC6\pdl\drivers\peripheral\gpio/cy_gpio.h **** #define CY_SIO_VOH_1_00                        (0x00UL) /**< Voh = 1 x Reference */
 509:Generated_Source\PSoC6\pdl\drivers\peripheral\gpio/cy_gpio.h **** #define CY_SIO_VOH_1_25                        (0x01UL) /**< Voh = 1.25 x Reference */
 510:Generated_Source\PSoC6\pdl\drivers\peripheral\gpio/cy_gpio.h **** #define CY_SIO_VOH_1_49                        (0x02UL) /**< Voh = 1.49 x Reference */
 511:Generated_Source\PSoC6\pdl\drivers\peripheral\gpio/cy_gpio.h **** #define CY_SIO_VOH_1_67                        (0x03UL) /**< Voh = 1.67 x Reference */
 512:Generated_Source\PSoC6\pdl\drivers\peripheral\gpio/cy_gpio.h **** #define CY_SIO_VOH_2_08                        (0x04UL) /**< Voh = 2.08 x Reference */
 513:Generated_Source\PSoC6\pdl\drivers\peripheral\gpio/cy_gpio.h **** #define CY_SIO_VOH_2_50                        (0x05UL) /**< Voh = 2.50 x Reference */
 514:Generated_Source\PSoC6\pdl\drivers\peripheral\gpio/cy_gpio.h **** #define CY_SIO_VOH_2_78                        (0x06UL) /**< Voh = 2.78 x Reference */
ARM GAS  C:\Users\cmila\AppData\Local\Temp\ccUkpexV.s 			page 15


 515:Generated_Source\PSoC6\pdl\drivers\peripheral\gpio/cy_gpio.h **** #define CY_SIO_VOH_4_16                        (0x07UL) /**< Voh = 4.16 x Reference */
 516:Generated_Source\PSoC6\pdl\drivers\peripheral\gpio/cy_gpio.h **** /** \} */
 517:Generated_Source\PSoC6\pdl\drivers\peripheral\gpio/cy_gpio.h **** 
 518:Generated_Source\PSoC6\pdl\drivers\peripheral\gpio/cy_gpio.h **** /** \} group_gpio_macros */
 519:Generated_Source\PSoC6\pdl\drivers\peripheral\gpio/cy_gpio.h **** 
 520:Generated_Source\PSoC6\pdl\drivers\peripheral\gpio/cy_gpio.h **** /***************************************
 521:Generated_Source\PSoC6\pdl\drivers\peripheral\gpio/cy_gpio.h **** *        Function Prototypes
 522:Generated_Source\PSoC6\pdl\drivers\peripheral\gpio/cy_gpio.h **** ***************************************/
 523:Generated_Source\PSoC6\pdl\drivers\peripheral\gpio/cy_gpio.h **** 
 524:Generated_Source\PSoC6\pdl\drivers\peripheral\gpio/cy_gpio.h **** /**
 525:Generated_Source\PSoC6\pdl\drivers\peripheral\gpio/cy_gpio.h **** * \addtogroup group_gpio_functions
 526:Generated_Source\PSoC6\pdl\drivers\peripheral\gpio/cy_gpio.h **** * \{
 527:Generated_Source\PSoC6\pdl\drivers\peripheral\gpio/cy_gpio.h **** */
 528:Generated_Source\PSoC6\pdl\drivers\peripheral\gpio/cy_gpio.h **** 
 529:Generated_Source\PSoC6\pdl\drivers\peripheral\gpio/cy_gpio.h **** /**
 530:Generated_Source\PSoC6\pdl\drivers\peripheral\gpio/cy_gpio.h **** * \addtogroup group_gpio_functions_init
 531:Generated_Source\PSoC6\pdl\drivers\peripheral\gpio/cy_gpio.h **** * \{
 532:Generated_Source\PSoC6\pdl\drivers\peripheral\gpio/cy_gpio.h **** */
 533:Generated_Source\PSoC6\pdl\drivers\peripheral\gpio/cy_gpio.h **** 
 534:Generated_Source\PSoC6\pdl\drivers\peripheral\gpio/cy_gpio.h **** cy_en_gpio_status_t Cy_GPIO_Pin_Init(GPIO_PRT_Type* base, uint32_t pinNum, const cy_stc_gpio_pin_co
 535:Generated_Source\PSoC6\pdl\drivers\peripheral\gpio/cy_gpio.h **** cy_en_gpio_status_t Cy_GPIO_Port_Init(GPIO_PRT_Type* base, const cy_stc_gpio_prt_config_t *config);
 536:Generated_Source\PSoC6\pdl\drivers\peripheral\gpio/cy_gpio.h **** void Cy_GPIO_Pin_FastInit(GPIO_PRT_Type* base, uint32_t pinNum, uint32_t driveMode, uint32_t outVal
 537:Generated_Source\PSoC6\pdl\drivers\peripheral\gpio/cy_gpio.h **** void Cy_GPIO_Port_Deinit(GPIO_PRT_Type* base);
 538:Generated_Source\PSoC6\pdl\drivers\peripheral\gpio/cy_gpio.h **** __STATIC_INLINE void Cy_GPIO_SetHSIOM(GPIO_PRT_Type* base, uint32_t pinNum, en_hsiom_sel_t value);
 539:Generated_Source\PSoC6\pdl\drivers\peripheral\gpio/cy_gpio.h **** __STATIC_INLINE en_hsiom_sel_t Cy_GPIO_GetHSIOM(GPIO_PRT_Type* base, uint32_t pinNum);
 540:Generated_Source\PSoC6\pdl\drivers\peripheral\gpio/cy_gpio.h **** __STATIC_INLINE GPIO_PRT_Type* Cy_GPIO_PortToAddr(uint32_t portNum);
 541:Generated_Source\PSoC6\pdl\drivers\peripheral\gpio/cy_gpio.h **** 
 542:Generated_Source\PSoC6\pdl\drivers\peripheral\gpio/cy_gpio.h **** /** \} group_gpio_functions_init */
 543:Generated_Source\PSoC6\pdl\drivers\peripheral\gpio/cy_gpio.h **** 
 544:Generated_Source\PSoC6\pdl\drivers\peripheral\gpio/cy_gpio.h **** /**
 545:Generated_Source\PSoC6\pdl\drivers\peripheral\gpio/cy_gpio.h **** * \addtogroup group_gpio_functions_gpio
 546:Generated_Source\PSoC6\pdl\drivers\peripheral\gpio/cy_gpio.h **** * \{
 547:Generated_Source\PSoC6\pdl\drivers\peripheral\gpio/cy_gpio.h **** */
 548:Generated_Source\PSoC6\pdl\drivers\peripheral\gpio/cy_gpio.h **** 
 549:Generated_Source\PSoC6\pdl\drivers\peripheral\gpio/cy_gpio.h **** void Cy_GPIO_SetAmuxSplit(cy_en_amux_split_t switchCtrl, cy_en_gpio_amuxconnect_t amuxConnect, cy_e
 550:Generated_Source\PSoC6\pdl\drivers\peripheral\gpio/cy_gpio.h **** cy_en_gpio_amuxconnect_t Cy_GPIO_GetAmuxSplit(cy_en_amux_split_t switchCtrl, cy_en_gpio_amuxselect_
 551:Generated_Source\PSoC6\pdl\drivers\peripheral\gpio/cy_gpio.h **** 
 552:Generated_Source\PSoC6\pdl\drivers\peripheral\gpio/cy_gpio.h **** __STATIC_INLINE uint32_t Cy_GPIO_Read(GPIO_PRT_Type* base, uint32_t pinNum);
 553:Generated_Source\PSoC6\pdl\drivers\peripheral\gpio/cy_gpio.h **** __STATIC_INLINE void Cy_GPIO_Write(GPIO_PRT_Type* base, uint32_t pinNum, uint32_t value);
 554:Generated_Source\PSoC6\pdl\drivers\peripheral\gpio/cy_gpio.h **** __STATIC_INLINE uint32_t Cy_GPIO_ReadOut(GPIO_PRT_Type* base, uint32_t pinNum);
 555:Generated_Source\PSoC6\pdl\drivers\peripheral\gpio/cy_gpio.h **** __STATIC_INLINE void Cy_GPIO_Set(GPIO_PRT_Type* base, uint32_t pinNum);
 556:Generated_Source\PSoC6\pdl\drivers\peripheral\gpio/cy_gpio.h **** __STATIC_INLINE void Cy_GPIO_Clr(GPIO_PRT_Type* base, uint32_t pinNum);
 557:Generated_Source\PSoC6\pdl\drivers\peripheral\gpio/cy_gpio.h **** __STATIC_INLINE void Cy_GPIO_Inv(GPIO_PRT_Type* base, uint32_t pinNum);
 558:Generated_Source\PSoC6\pdl\drivers\peripheral\gpio/cy_gpio.h **** __STATIC_INLINE void Cy_GPIO_SetDrivemode(GPIO_PRT_Type* base, uint32_t pinNum, uint32_t value);
 559:Generated_Source\PSoC6\pdl\drivers\peripheral\gpio/cy_gpio.h **** __STATIC_INLINE uint32_t Cy_GPIO_GetDrivemode(GPIO_PRT_Type* base, uint32_t pinNum);
 560:Generated_Source\PSoC6\pdl\drivers\peripheral\gpio/cy_gpio.h **** __STATIC_INLINE void Cy_GPIO_SetVtrip(GPIO_PRT_Type* base, uint32_t pinNum, uint32_t value);
 561:Generated_Source\PSoC6\pdl\drivers\peripheral\gpio/cy_gpio.h **** __STATIC_INLINE uint32_t Cy_GPIO_GetVtrip(GPIO_PRT_Type* base, uint32_t pinNum);
 562:Generated_Source\PSoC6\pdl\drivers\peripheral\gpio/cy_gpio.h **** __STATIC_INLINE void Cy_GPIO_SetSlewRate(GPIO_PRT_Type* base, uint32_t pinNum, uint32_t value);
 563:Generated_Source\PSoC6\pdl\drivers\peripheral\gpio/cy_gpio.h **** __STATIC_INLINE uint32_t Cy_GPIO_GetSlewRate(GPIO_PRT_Type* base, uint32_t pinNum);
 564:Generated_Source\PSoC6\pdl\drivers\peripheral\gpio/cy_gpio.h **** __STATIC_INLINE void Cy_GPIO_SetDriveSel(GPIO_PRT_Type* base, uint32_t pinNum, uint32_t value);
 565:Generated_Source\PSoC6\pdl\drivers\peripheral\gpio/cy_gpio.h **** __STATIC_INLINE uint32_t Cy_GPIO_GetDriveSel(GPIO_PRT_Type* base, uint32_t pinNum);
 566:Generated_Source\PSoC6\pdl\drivers\peripheral\gpio/cy_gpio.h **** 
 567:Generated_Source\PSoC6\pdl\drivers\peripheral\gpio/cy_gpio.h **** /** \} group_gpio_functions_gpio */
 568:Generated_Source\PSoC6\pdl\drivers\peripheral\gpio/cy_gpio.h **** 
 569:Generated_Source\PSoC6\pdl\drivers\peripheral\gpio/cy_gpio.h **** /**
 570:Generated_Source\PSoC6\pdl\drivers\peripheral\gpio/cy_gpio.h **** * \addtogroup group_gpio_functions_sio
 571:Generated_Source\PSoC6\pdl\drivers\peripheral\gpio/cy_gpio.h **** * \{
ARM GAS  C:\Users\cmila\AppData\Local\Temp\ccUkpexV.s 			page 16


 572:Generated_Source\PSoC6\pdl\drivers\peripheral\gpio/cy_gpio.h **** */
 573:Generated_Source\PSoC6\pdl\drivers\peripheral\gpio/cy_gpio.h **** 
 574:Generated_Source\PSoC6\pdl\drivers\peripheral\gpio/cy_gpio.h **** __STATIC_INLINE void Cy_GPIO_SetVregEn(GPIO_PRT_Type* base, uint32_t pinNum, uint32_t value);
 575:Generated_Source\PSoC6\pdl\drivers\peripheral\gpio/cy_gpio.h **** __STATIC_INLINE uint32_t Cy_GPIO_GetVregEn(GPIO_PRT_Type* base, uint32_t pinNum);
 576:Generated_Source\PSoC6\pdl\drivers\peripheral\gpio/cy_gpio.h **** __STATIC_INLINE void Cy_GPIO_SetIbufMode(GPIO_PRT_Type* base, uint32_t pinNum, uint32_t value);
 577:Generated_Source\PSoC6\pdl\drivers\peripheral\gpio/cy_gpio.h **** __STATIC_INLINE uint32_t Cy_GPIO_GetIbufMode(GPIO_PRT_Type* base, uint32_t pinNum);
 578:Generated_Source\PSoC6\pdl\drivers\peripheral\gpio/cy_gpio.h **** __STATIC_INLINE void Cy_GPIO_SetVtripSel(GPIO_PRT_Type* base, uint32_t pinNum, uint32_t value);
 579:Generated_Source\PSoC6\pdl\drivers\peripheral\gpio/cy_gpio.h **** __STATIC_INLINE uint32_t Cy_GPIO_GetVtripSel(GPIO_PRT_Type* base, uint32_t pinNum);
 580:Generated_Source\PSoC6\pdl\drivers\peripheral\gpio/cy_gpio.h **** __STATIC_INLINE void Cy_GPIO_SetVrefSel(GPIO_PRT_Type* base, uint32_t pinNum, uint32_t value);
 581:Generated_Source\PSoC6\pdl\drivers\peripheral\gpio/cy_gpio.h **** __STATIC_INLINE uint32_t Cy_GPIO_GetVrefSel(GPIO_PRT_Type* base, uint32_t pinNum);
 582:Generated_Source\PSoC6\pdl\drivers\peripheral\gpio/cy_gpio.h **** __STATIC_INLINE void Cy_GPIO_SetVohSel(GPIO_PRT_Type* base, uint32_t pinNum, uint32_t value);
 583:Generated_Source\PSoC6\pdl\drivers\peripheral\gpio/cy_gpio.h **** __STATIC_INLINE uint32_t Cy_GPIO_GetVohSel(GPIO_PRT_Type* base, uint32_t pinNum);
 584:Generated_Source\PSoC6\pdl\drivers\peripheral\gpio/cy_gpio.h **** 
 585:Generated_Source\PSoC6\pdl\drivers\peripheral\gpio/cy_gpio.h **** /** \} group_gpio_functions_sio */
 586:Generated_Source\PSoC6\pdl\drivers\peripheral\gpio/cy_gpio.h **** 
 587:Generated_Source\PSoC6\pdl\drivers\peripheral\gpio/cy_gpio.h **** /**
 588:Generated_Source\PSoC6\pdl\drivers\peripheral\gpio/cy_gpio.h **** * \addtogroup group_gpio_functions_interrupt
 589:Generated_Source\PSoC6\pdl\drivers\peripheral\gpio/cy_gpio.h **** * \{
 590:Generated_Source\PSoC6\pdl\drivers\peripheral\gpio/cy_gpio.h **** */
 591:Generated_Source\PSoC6\pdl\drivers\peripheral\gpio/cy_gpio.h **** 
 592:Generated_Source\PSoC6\pdl\drivers\peripheral\gpio/cy_gpio.h **** __STATIC_INLINE uint32_t Cy_GPIO_GetInterruptStatus(GPIO_PRT_Type* base, uint32_t pinNum);
 593:Generated_Source\PSoC6\pdl\drivers\peripheral\gpio/cy_gpio.h **** __STATIC_INLINE void Cy_GPIO_ClearInterrupt(GPIO_PRT_Type* base, uint32_t pinNum);
 594:Generated_Source\PSoC6\pdl\drivers\peripheral\gpio/cy_gpio.h **** __STATIC_INLINE void Cy_GPIO_SetInterruptMask(GPIO_PRT_Type* base, uint32_t pinNum, uint32_t value)
 595:Generated_Source\PSoC6\pdl\drivers\peripheral\gpio/cy_gpio.h **** __STATIC_INLINE uint32_t Cy_GPIO_GetInterruptMask(GPIO_PRT_Type* base, uint32_t pinNum);
 596:Generated_Source\PSoC6\pdl\drivers\peripheral\gpio/cy_gpio.h **** __STATIC_INLINE uint32_t Cy_GPIO_GetInterruptStatusMasked(GPIO_PRT_Type* base, uint32_t pinNum);
 597:Generated_Source\PSoC6\pdl\drivers\peripheral\gpio/cy_gpio.h **** __STATIC_INLINE void Cy_GPIO_SetSwInterrupt(GPIO_PRT_Type* base, uint32_t pinNum);
 598:Generated_Source\PSoC6\pdl\drivers\peripheral\gpio/cy_gpio.h **** __STATIC_INLINE void Cy_GPIO_SetInterruptEdge(GPIO_PRT_Type* base, uint32_t pinNum, uint32_t value)
 599:Generated_Source\PSoC6\pdl\drivers\peripheral\gpio/cy_gpio.h **** __STATIC_INLINE uint32_t Cy_GPIO_GetInterruptEdge(GPIO_PRT_Type* base, uint32_t pinNum);
 600:Generated_Source\PSoC6\pdl\drivers\peripheral\gpio/cy_gpio.h **** __STATIC_INLINE void Cy_GPIO_SetFilter(GPIO_PRT_Type* base, uint32_t value);
 601:Generated_Source\PSoC6\pdl\drivers\peripheral\gpio/cy_gpio.h **** __STATIC_INLINE uint32_t Cy_GPIO_GetFilter(GPIO_PRT_Type* base);
 602:Generated_Source\PSoC6\pdl\drivers\peripheral\gpio/cy_gpio.h **** 
 603:Generated_Source\PSoC6\pdl\drivers\peripheral\gpio/cy_gpio.h **** __STATIC_INLINE uint32_t Cy_GPIO_GetInterruptCause0(void);
 604:Generated_Source\PSoC6\pdl\drivers\peripheral\gpio/cy_gpio.h **** __STATIC_INLINE uint32_t Cy_GPIO_GetInterruptCause1(void);
 605:Generated_Source\PSoC6\pdl\drivers\peripheral\gpio/cy_gpio.h **** __STATIC_INLINE uint32_t Cy_GPIO_GetInterruptCause2(void);
 606:Generated_Source\PSoC6\pdl\drivers\peripheral\gpio/cy_gpio.h **** __STATIC_INLINE uint32_t Cy_GPIO_GetInterruptCause3(void);
 607:Generated_Source\PSoC6\pdl\drivers\peripheral\gpio/cy_gpio.h **** 
 608:Generated_Source\PSoC6\pdl\drivers\peripheral\gpio/cy_gpio.h **** /** \} group_gpio_functions_interrupt */
 609:Generated_Source\PSoC6\pdl\drivers\peripheral\gpio/cy_gpio.h **** 
 610:Generated_Source\PSoC6\pdl\drivers\peripheral\gpio/cy_gpio.h **** 
 611:Generated_Source\PSoC6\pdl\drivers\peripheral\gpio/cy_gpio.h **** /**
 612:Generated_Source\PSoC6\pdl\drivers\peripheral\gpio/cy_gpio.h **** * \addtogroup group_gpio_functions_init
 613:Generated_Source\PSoC6\pdl\drivers\peripheral\gpio/cy_gpio.h **** * \{
 614:Generated_Source\PSoC6\pdl\drivers\peripheral\gpio/cy_gpio.h **** */
 615:Generated_Source\PSoC6\pdl\drivers\peripheral\gpio/cy_gpio.h **** 
 616:Generated_Source\PSoC6\pdl\drivers\peripheral\gpio/cy_gpio.h **** /*******************************************************************************
 617:Generated_Source\PSoC6\pdl\drivers\peripheral\gpio/cy_gpio.h **** * Function Name: Cy_GPIO_SetHSIOM
 618:Generated_Source\PSoC6\pdl\drivers\peripheral\gpio/cy_gpio.h **** ****************************************************************************//**
 619:Generated_Source\PSoC6\pdl\drivers\peripheral\gpio/cy_gpio.h **** *
 620:Generated_Source\PSoC6\pdl\drivers\peripheral\gpio/cy_gpio.h **** * Configures the HSIOM connection to the pin.
 621:Generated_Source\PSoC6\pdl\drivers\peripheral\gpio/cy_gpio.h **** *
 622:Generated_Source\PSoC6\pdl\drivers\peripheral\gpio/cy_gpio.h **** * Connects the specified High-Speed Input Output Multiplexer (HSIOM) selection
 623:Generated_Source\PSoC6\pdl\drivers\peripheral\gpio/cy_gpio.h **** * to the pin.
 624:Generated_Source\PSoC6\pdl\drivers\peripheral\gpio/cy_gpio.h **** *
 625:Generated_Source\PSoC6\pdl\drivers\peripheral\gpio/cy_gpio.h **** * \param base
 626:Generated_Source\PSoC6\pdl\drivers\peripheral\gpio/cy_gpio.h **** * Pointer to the pin's port register base address
 627:Generated_Source\PSoC6\pdl\drivers\peripheral\gpio/cy_gpio.h **** *
 628:Generated_Source\PSoC6\pdl\drivers\peripheral\gpio/cy_gpio.h **** * \param pinNum
ARM GAS  C:\Users\cmila\AppData\Local\Temp\ccUkpexV.s 			page 17


 629:Generated_Source\PSoC6\pdl\drivers\peripheral\gpio/cy_gpio.h **** * Position of the pin bit-field within the port register
 630:Generated_Source\PSoC6\pdl\drivers\peripheral\gpio/cy_gpio.h **** *
 631:Generated_Source\PSoC6\pdl\drivers\peripheral\gpio/cy_gpio.h **** * \param value
 632:Generated_Source\PSoC6\pdl\drivers\peripheral\gpio/cy_gpio.h **** * HSIOM input selection
 633:Generated_Source\PSoC6\pdl\drivers\peripheral\gpio/cy_gpio.h **** *
 634:Generated_Source\PSoC6\pdl\drivers\peripheral\gpio/cy_gpio.h **** * \note 
 635:Generated_Source\PSoC6\pdl\drivers\peripheral\gpio/cy_gpio.h **** * This function modifies a port register in a read-modify-write operation. It is
 636:Generated_Source\PSoC6\pdl\drivers\peripheral\gpio/cy_gpio.h **** * not thread safe as the resource is shared among multiple pins on a port.
 637:Generated_Source\PSoC6\pdl\drivers\peripheral\gpio/cy_gpio.h **** *
 638:Generated_Source\PSoC6\pdl\drivers\peripheral\gpio/cy_gpio.h **** * \funcusage
 639:Generated_Source\PSoC6\pdl\drivers\peripheral\gpio/cy_gpio.h **** * \snippet gpio/gpio_v1_10_sut_01.cydsn/main_cm4.c snippet_Cy_GPIO_SetHSIOM
 640:Generated_Source\PSoC6\pdl\drivers\peripheral\gpio/cy_gpio.h **** *
 641:Generated_Source\PSoC6\pdl\drivers\peripheral\gpio/cy_gpio.h **** *******************************************************************************/
 642:Generated_Source\PSoC6\pdl\drivers\peripheral\gpio/cy_gpio.h **** __STATIC_INLINE void Cy_GPIO_SetHSIOM(GPIO_PRT_Type* base, uint32_t pinNum, en_hsiom_sel_t value)
 643:Generated_Source\PSoC6\pdl\drivers\peripheral\gpio/cy_gpio.h **** {
 644:Generated_Source\PSoC6\pdl\drivers\peripheral\gpio/cy_gpio.h ****     uint32_t portNum;
 645:Generated_Source\PSoC6\pdl\drivers\peripheral\gpio/cy_gpio.h ****     uint32_t tempReg;
 646:Generated_Source\PSoC6\pdl\drivers\peripheral\gpio/cy_gpio.h ****     HSIOM_PRT_V1_Type* portAddrHSIOM;
 647:Generated_Source\PSoC6\pdl\drivers\peripheral\gpio/cy_gpio.h **** 
 648:Generated_Source\PSoC6\pdl\drivers\peripheral\gpio/cy_gpio.h ****     CY_ASSERT_L2(CY_GPIO_IS_PIN_VALID(pinNum));
 649:Generated_Source\PSoC6\pdl\drivers\peripheral\gpio/cy_gpio.h ****     CY_ASSERT_L2(CY_GPIO_IS_HSIOM_VALID(value));
 650:Generated_Source\PSoC6\pdl\drivers\peripheral\gpio/cy_gpio.h **** 
 651:Generated_Source\PSoC6\pdl\drivers\peripheral\gpio/cy_gpio.h ****     portNum = ((uint32_t)(base) - CY_GPIO_BASE) / GPIO_PRT_SECTION_SIZE;
 652:Generated_Source\PSoC6\pdl\drivers\peripheral\gpio/cy_gpio.h ****     portAddrHSIOM = (HSIOM_PRT_V1_Type*)(CY_HSIOM_BASE + (HSIOM_PRT_SECTION_SIZE * portNum));
 653:Generated_Source\PSoC6\pdl\drivers\peripheral\gpio/cy_gpio.h **** 
 654:Generated_Source\PSoC6\pdl\drivers\peripheral\gpio/cy_gpio.h ****     if(pinNum < CY_GPIO_PRT_HALF)
 655:Generated_Source\PSoC6\pdl\drivers\peripheral\gpio/cy_gpio.h ****     {
 656:Generated_Source\PSoC6\pdl\drivers\peripheral\gpio/cy_gpio.h ****         tempReg = HSIOM_PRT_PORT_SEL0(portAddrHSIOM) & ~(CY_GPIO_HSIOM_MASK << (pinNum << CY_GPIO_H
 657:Generated_Source\PSoC6\pdl\drivers\peripheral\gpio/cy_gpio.h ****         HSIOM_PRT_PORT_SEL0(portAddrHSIOM) = tempReg | ((value & CY_GPIO_HSIOM_MASK) << (pinNum << 
 658:Generated_Source\PSoC6\pdl\drivers\peripheral\gpio/cy_gpio.h ****     }
 659:Generated_Source\PSoC6\pdl\drivers\peripheral\gpio/cy_gpio.h ****     else
 660:Generated_Source\PSoC6\pdl\drivers\peripheral\gpio/cy_gpio.h ****     {
 661:Generated_Source\PSoC6\pdl\drivers\peripheral\gpio/cy_gpio.h ****         pinNum -= CY_GPIO_PRT_HALF;
 662:Generated_Source\PSoC6\pdl\drivers\peripheral\gpio/cy_gpio.h ****         tempReg = HSIOM_PRT_PORT_SEL1(portAddrHSIOM) & ~(CY_GPIO_HSIOM_MASK << (pinNum << CY_GPIO_H
 663:Generated_Source\PSoC6\pdl\drivers\peripheral\gpio/cy_gpio.h ****         HSIOM_PRT_PORT_SEL1(portAddrHSIOM) = tempReg | ((value & CY_GPIO_HSIOM_MASK) << (pinNum << 
 664:Generated_Source\PSoC6\pdl\drivers\peripheral\gpio/cy_gpio.h ****     }
 665:Generated_Source\PSoC6\pdl\drivers\peripheral\gpio/cy_gpio.h **** }
 666:Generated_Source\PSoC6\pdl\drivers\peripheral\gpio/cy_gpio.h **** 
 667:Generated_Source\PSoC6\pdl\drivers\peripheral\gpio/cy_gpio.h **** 
 668:Generated_Source\PSoC6\pdl\drivers\peripheral\gpio/cy_gpio.h **** /*******************************************************************************
 669:Generated_Source\PSoC6\pdl\drivers\peripheral\gpio/cy_gpio.h **** * Function Name: Cy_GPIO_GetHSIOM
 670:Generated_Source\PSoC6\pdl\drivers\peripheral\gpio/cy_gpio.h **** ****************************************************************************//**
 671:Generated_Source\PSoC6\pdl\drivers\peripheral\gpio/cy_gpio.h **** *
 672:Generated_Source\PSoC6\pdl\drivers\peripheral\gpio/cy_gpio.h **** * Returns the current HSIOM multiplexer connection to the pin.
 673:Generated_Source\PSoC6\pdl\drivers\peripheral\gpio/cy_gpio.h **** *
 674:Generated_Source\PSoC6\pdl\drivers\peripheral\gpio/cy_gpio.h **** * \param base
 675:Generated_Source\PSoC6\pdl\drivers\peripheral\gpio/cy_gpio.h **** * Pointer to the pin's port register base address
 676:Generated_Source\PSoC6\pdl\drivers\peripheral\gpio/cy_gpio.h **** *
 677:Generated_Source\PSoC6\pdl\drivers\peripheral\gpio/cy_gpio.h **** * \param pinNum
 678:Generated_Source\PSoC6\pdl\drivers\peripheral\gpio/cy_gpio.h **** * Position of the pin bit-field within the port register
 679:Generated_Source\PSoC6\pdl\drivers\peripheral\gpio/cy_gpio.h **** *
 680:Generated_Source\PSoC6\pdl\drivers\peripheral\gpio/cy_gpio.h **** * \return
 681:Generated_Source\PSoC6\pdl\drivers\peripheral\gpio/cy_gpio.h **** * HSIOM input selection
 682:Generated_Source\PSoC6\pdl\drivers\peripheral\gpio/cy_gpio.h **** *
 683:Generated_Source\PSoC6\pdl\drivers\peripheral\gpio/cy_gpio.h **** * \funcusage
 684:Generated_Source\PSoC6\pdl\drivers\peripheral\gpio/cy_gpio.h **** * \snippet gpio/gpio_v1_10_sut_01.cydsn/main_cm4.c snippet_Cy_GPIO_SetHSIOM
 685:Generated_Source\PSoC6\pdl\drivers\peripheral\gpio/cy_gpio.h **** *
ARM GAS  C:\Users\cmila\AppData\Local\Temp\ccUkpexV.s 			page 18


 686:Generated_Source\PSoC6\pdl\drivers\peripheral\gpio/cy_gpio.h **** *******************************************************************************/
 687:Generated_Source\PSoC6\pdl\drivers\peripheral\gpio/cy_gpio.h **** __STATIC_INLINE en_hsiom_sel_t Cy_GPIO_GetHSIOM(GPIO_PRT_Type* base, uint32_t pinNum)
 688:Generated_Source\PSoC6\pdl\drivers\peripheral\gpio/cy_gpio.h **** {
 689:Generated_Source\PSoC6\pdl\drivers\peripheral\gpio/cy_gpio.h ****     uint32_t returnValue;
 690:Generated_Source\PSoC6\pdl\drivers\peripheral\gpio/cy_gpio.h ****     uint32_t portNum;
 691:Generated_Source\PSoC6\pdl\drivers\peripheral\gpio/cy_gpio.h ****     HSIOM_PRT_V1_Type* portAddrHSIOM;
 692:Generated_Source\PSoC6\pdl\drivers\peripheral\gpio/cy_gpio.h ****     
 693:Generated_Source\PSoC6\pdl\drivers\peripheral\gpio/cy_gpio.h ****     CY_ASSERT_L2(CY_GPIO_IS_PIN_VALID(pinNum));
 694:Generated_Source\PSoC6\pdl\drivers\peripheral\gpio/cy_gpio.h **** 
 695:Generated_Source\PSoC6\pdl\drivers\peripheral\gpio/cy_gpio.h ****     portNum = ((uint32_t)(base) - CY_GPIO_BASE) / GPIO_PRT_SECTION_SIZE;
 696:Generated_Source\PSoC6\pdl\drivers\peripheral\gpio/cy_gpio.h ****     portAddrHSIOM = (HSIOM_PRT_V1_Type*)(CY_HSIOM_BASE + (HSIOM_PRT_SECTION_SIZE * portNum));
 697:Generated_Source\PSoC6\pdl\drivers\peripheral\gpio/cy_gpio.h **** 
 698:Generated_Source\PSoC6\pdl\drivers\peripheral\gpio/cy_gpio.h ****     if(pinNum < CY_GPIO_PRT_HALF)
 699:Generated_Source\PSoC6\pdl\drivers\peripheral\gpio/cy_gpio.h ****     {
 700:Generated_Source\PSoC6\pdl\drivers\peripheral\gpio/cy_gpio.h ****         returnValue = (HSIOM_PRT_PORT_SEL0(portAddrHSIOM) >> (pinNum << CY_GPIO_HSIOM_OFFSET)) & CY
 701:Generated_Source\PSoC6\pdl\drivers\peripheral\gpio/cy_gpio.h ****     }
 702:Generated_Source\PSoC6\pdl\drivers\peripheral\gpio/cy_gpio.h ****     else
 703:Generated_Source\PSoC6\pdl\drivers\peripheral\gpio/cy_gpio.h ****     {
 704:Generated_Source\PSoC6\pdl\drivers\peripheral\gpio/cy_gpio.h ****         pinNum -= CY_GPIO_PRT_HALF;
 705:Generated_Source\PSoC6\pdl\drivers\peripheral\gpio/cy_gpio.h ****         returnValue = (HSIOM_PRT_PORT_SEL1(portAddrHSIOM) >> (pinNum << CY_GPIO_HSIOM_OFFSET)) & CY
 706:Generated_Source\PSoC6\pdl\drivers\peripheral\gpio/cy_gpio.h ****     }
 707:Generated_Source\PSoC6\pdl\drivers\peripheral\gpio/cy_gpio.h **** 
 708:Generated_Source\PSoC6\pdl\drivers\peripheral\gpio/cy_gpio.h ****     return (en_hsiom_sel_t)returnValue;
 709:Generated_Source\PSoC6\pdl\drivers\peripheral\gpio/cy_gpio.h **** }
 710:Generated_Source\PSoC6\pdl\drivers\peripheral\gpio/cy_gpio.h **** 
 711:Generated_Source\PSoC6\pdl\drivers\peripheral\gpio/cy_gpio.h **** 
 712:Generated_Source\PSoC6\pdl\drivers\peripheral\gpio/cy_gpio.h **** /*******************************************************************************
 713:Generated_Source\PSoC6\pdl\drivers\peripheral\gpio/cy_gpio.h **** * Function Name: Cy_GPIO_PortToAddr
 714:Generated_Source\PSoC6\pdl\drivers\peripheral\gpio/cy_gpio.h **** ****************************************************************************//**
 715:Generated_Source\PSoC6\pdl\drivers\peripheral\gpio/cy_gpio.h **** *
 716:Generated_Source\PSoC6\pdl\drivers\peripheral\gpio/cy_gpio.h **** * Retrieves the port address based on the given port number.
 717:Generated_Source\PSoC6\pdl\drivers\peripheral\gpio/cy_gpio.h **** *
 718:Generated_Source\PSoC6\pdl\drivers\peripheral\gpio/cy_gpio.h **** * This is a helper function to calculate the port base address when given a port
 719:Generated_Source\PSoC6\pdl\drivers\peripheral\gpio/cy_gpio.h **** * number. It is to be used when pin access needs to be calculated at runtime.
 720:Generated_Source\PSoC6\pdl\drivers\peripheral\gpio/cy_gpio.h **** *
 721:Generated_Source\PSoC6\pdl\drivers\peripheral\gpio/cy_gpio.h **** * \param portNum
 722:Generated_Source\PSoC6\pdl\drivers\peripheral\gpio/cy_gpio.h **** * Port number
 723:Generated_Source\PSoC6\pdl\drivers\peripheral\gpio/cy_gpio.h **** *
 724:Generated_Source\PSoC6\pdl\drivers\peripheral\gpio/cy_gpio.h **** * \return
 725:Generated_Source\PSoC6\pdl\drivers\peripheral\gpio/cy_gpio.h **** * Base address of the port register structure
 726:Generated_Source\PSoC6\pdl\drivers\peripheral\gpio/cy_gpio.h **** *
 727:Generated_Source\PSoC6\pdl\drivers\peripheral\gpio/cy_gpio.h **** * \funcusage
 728:Generated_Source\PSoC6\pdl\drivers\peripheral\gpio/cy_gpio.h **** * \snippet gpio/gpio_v1_10_sut_01.cydsn/main_cm4.c snippet_Cy_GPIO_PortToAddr
 729:Generated_Source\PSoC6\pdl\drivers\peripheral\gpio/cy_gpio.h **** *
 730:Generated_Source\PSoC6\pdl\drivers\peripheral\gpio/cy_gpio.h **** *******************************************************************************/
 731:Generated_Source\PSoC6\pdl\drivers\peripheral\gpio/cy_gpio.h **** __STATIC_INLINE GPIO_PRT_Type* Cy_GPIO_PortToAddr(uint32_t portNum)
 732:Generated_Source\PSoC6\pdl\drivers\peripheral\gpio/cy_gpio.h **** {
 733:Generated_Source\PSoC6\pdl\drivers\peripheral\gpio/cy_gpio.h ****     GPIO_PRT_Type* portBase;
 734:Generated_Source\PSoC6\pdl\drivers\peripheral\gpio/cy_gpio.h ****     
 735:Generated_Source\PSoC6\pdl\drivers\peripheral\gpio/cy_gpio.h ****     if(portNum < (uint32_t)IOSS_GPIO_GPIO_PORT_NR)
 736:Generated_Source\PSoC6\pdl\drivers\peripheral\gpio/cy_gpio.h ****     {
 737:Generated_Source\PSoC6\pdl\drivers\peripheral\gpio/cy_gpio.h ****         portBase = (GPIO_PRT_Type *)(CY_GPIO_BASE + (GPIO_PRT_SECTION_SIZE * portNum));
 738:Generated_Source\PSoC6\pdl\drivers\peripheral\gpio/cy_gpio.h ****     }
 739:Generated_Source\PSoC6\pdl\drivers\peripheral\gpio/cy_gpio.h ****     else
 740:Generated_Source\PSoC6\pdl\drivers\peripheral\gpio/cy_gpio.h ****     {
 741:Generated_Source\PSoC6\pdl\drivers\peripheral\gpio/cy_gpio.h ****         /* Error: Return default base address */
 742:Generated_Source\PSoC6\pdl\drivers\peripheral\gpio/cy_gpio.h ****         portBase = (GPIO_PRT_Type *)(CY_GPIO_BASE);
ARM GAS  C:\Users\cmila\AppData\Local\Temp\ccUkpexV.s 			page 19


 743:Generated_Source\PSoC6\pdl\drivers\peripheral\gpio/cy_gpio.h ****     }
 744:Generated_Source\PSoC6\pdl\drivers\peripheral\gpio/cy_gpio.h **** 
 745:Generated_Source\PSoC6\pdl\drivers\peripheral\gpio/cy_gpio.h ****     return (portBase);
 746:Generated_Source\PSoC6\pdl\drivers\peripheral\gpio/cy_gpio.h **** }
 747:Generated_Source\PSoC6\pdl\drivers\peripheral\gpio/cy_gpio.h **** 
 748:Generated_Source\PSoC6\pdl\drivers\peripheral\gpio/cy_gpio.h **** /** \} group_gpio_functions_init */
 749:Generated_Source\PSoC6\pdl\drivers\peripheral\gpio/cy_gpio.h **** 
 750:Generated_Source\PSoC6\pdl\drivers\peripheral\gpio/cy_gpio.h **** /**
 751:Generated_Source\PSoC6\pdl\drivers\peripheral\gpio/cy_gpio.h **** * \addtogroup group_gpio_functions_gpio
 752:Generated_Source\PSoC6\pdl\drivers\peripheral\gpio/cy_gpio.h **** * \{
 753:Generated_Source\PSoC6\pdl\drivers\peripheral\gpio/cy_gpio.h **** */
 754:Generated_Source\PSoC6\pdl\drivers\peripheral\gpio/cy_gpio.h **** 
 755:Generated_Source\PSoC6\pdl\drivers\peripheral\gpio/cy_gpio.h **** /*******************************************************************************
 756:Generated_Source\PSoC6\pdl\drivers\peripheral\gpio/cy_gpio.h **** * Function Name: Cy_GPIO_Read
 757:Generated_Source\PSoC6\pdl\drivers\peripheral\gpio/cy_gpio.h **** ****************************************************************************//**
 758:Generated_Source\PSoC6\pdl\drivers\peripheral\gpio/cy_gpio.h **** *
 759:Generated_Source\PSoC6\pdl\drivers\peripheral\gpio/cy_gpio.h **** * Reads the current logic level on the input buffer of the pin.
 760:Generated_Source\PSoC6\pdl\drivers\peripheral\gpio/cy_gpio.h **** *
 761:Generated_Source\PSoC6\pdl\drivers\peripheral\gpio/cy_gpio.h **** * \param base
 762:Generated_Source\PSoC6\pdl\drivers\peripheral\gpio/cy_gpio.h **** * Pointer to the pin's port register base address
 763:Generated_Source\PSoC6\pdl\drivers\peripheral\gpio/cy_gpio.h **** *
 764:Generated_Source\PSoC6\pdl\drivers\peripheral\gpio/cy_gpio.h **** * \param pinNum
 765:Generated_Source\PSoC6\pdl\drivers\peripheral\gpio/cy_gpio.h **** * Position of the pin bit-field within the port register.
 766:Generated_Source\PSoC6\pdl\drivers\peripheral\gpio/cy_gpio.h **** * Bit position 8 is the routed pin through the port glitch filter.
 767:Generated_Source\PSoC6\pdl\drivers\peripheral\gpio/cy_gpio.h **** *
 768:Generated_Source\PSoC6\pdl\drivers\peripheral\gpio/cy_gpio.h **** * \return
 769:Generated_Source\PSoC6\pdl\drivers\peripheral\gpio/cy_gpio.h **** * Logic level present on the pin
 770:Generated_Source\PSoC6\pdl\drivers\peripheral\gpio/cy_gpio.h **** *
 771:Generated_Source\PSoC6\pdl\drivers\peripheral\gpio/cy_gpio.h **** * \funcusage
 772:Generated_Source\PSoC6\pdl\drivers\peripheral\gpio/cy_gpio.h **** * \snippet gpio/gpio_v1_10_sut_01.cydsn/main_cm4.c snippet_Cy_GPIO_Read
 773:Generated_Source\PSoC6\pdl\drivers\peripheral\gpio/cy_gpio.h **** *
 774:Generated_Source\PSoC6\pdl\drivers\peripheral\gpio/cy_gpio.h **** *******************************************************************************/
 775:Generated_Source\PSoC6\pdl\drivers\peripheral\gpio/cy_gpio.h **** __STATIC_INLINE uint32_t Cy_GPIO_Read(GPIO_PRT_Type* base, uint32_t pinNum)
 776:Generated_Source\PSoC6\pdl\drivers\peripheral\gpio/cy_gpio.h **** {
 777:Generated_Source\PSoC6\pdl\drivers\peripheral\gpio/cy_gpio.h ****     CY_ASSERT_L2(CY_GPIO_IS_FILTER_PIN_VALID(pinNum));
 778:Generated_Source\PSoC6\pdl\drivers\peripheral\gpio/cy_gpio.h ****     
 779:Generated_Source\PSoC6\pdl\drivers\peripheral\gpio/cy_gpio.h ****     return (GPIO_PRT_IN(base) >> (pinNum)) & CY_GPIO_IN_MASK;
 780:Generated_Source\PSoC6\pdl\drivers\peripheral\gpio/cy_gpio.h **** }
 781:Generated_Source\PSoC6\pdl\drivers\peripheral\gpio/cy_gpio.h **** 
 782:Generated_Source\PSoC6\pdl\drivers\peripheral\gpio/cy_gpio.h **** 
 783:Generated_Source\PSoC6\pdl\drivers\peripheral\gpio/cy_gpio.h **** /*******************************************************************************
 784:Generated_Source\PSoC6\pdl\drivers\peripheral\gpio/cy_gpio.h **** * Function Name: Cy_GPIO_Write
 785:Generated_Source\PSoC6\pdl\drivers\peripheral\gpio/cy_gpio.h **** ****************************************************************************//**
 786:Generated_Source\PSoC6\pdl\drivers\peripheral\gpio/cy_gpio.h **** *
 787:Generated_Source\PSoC6\pdl\drivers\peripheral\gpio/cy_gpio.h **** * Write a logic 0 or logic 1 state to the output driver.
 788:Generated_Source\PSoC6\pdl\drivers\peripheral\gpio/cy_gpio.h **** *
 789:Generated_Source\PSoC6\pdl\drivers\peripheral\gpio/cy_gpio.h **** * This function should be used only for software driven pins. It does not have
 790:Generated_Source\PSoC6\pdl\drivers\peripheral\gpio/cy_gpio.h **** * any effect on peripheral driven pins.
 791:Generated_Source\PSoC6\pdl\drivers\peripheral\gpio/cy_gpio.h **** *
 792:Generated_Source\PSoC6\pdl\drivers\peripheral\gpio/cy_gpio.h **** * \param base
 793:Generated_Source\PSoC6\pdl\drivers\peripheral\gpio/cy_gpio.h **** * Pointer to the pin's port register base address
 794:Generated_Source\PSoC6\pdl\drivers\peripheral\gpio/cy_gpio.h **** *
 795:Generated_Source\PSoC6\pdl\drivers\peripheral\gpio/cy_gpio.h **** * \param pinNum
 796:Generated_Source\PSoC6\pdl\drivers\peripheral\gpio/cy_gpio.h **** * Position of the pin bit-field within the port register
 797:Generated_Source\PSoC6\pdl\drivers\peripheral\gpio/cy_gpio.h **** *
 798:Generated_Source\PSoC6\pdl\drivers\peripheral\gpio/cy_gpio.h **** * \param value
 799:Generated_Source\PSoC6\pdl\drivers\peripheral\gpio/cy_gpio.h **** * Logic level to drive out on the pin
ARM GAS  C:\Users\cmila\AppData\Local\Temp\ccUkpexV.s 			page 20


 800:Generated_Source\PSoC6\pdl\drivers\peripheral\gpio/cy_gpio.h **** *
 801:Generated_Source\PSoC6\pdl\drivers\peripheral\gpio/cy_gpio.h **** * \funcusage
 802:Generated_Source\PSoC6\pdl\drivers\peripheral\gpio/cy_gpio.h **** * \snippet gpio/gpio_v1_10_sut_01.cydsn/main_cm4.c snippet_Cy_GPIO_Write
 803:Generated_Source\PSoC6\pdl\drivers\peripheral\gpio/cy_gpio.h **** *
 804:Generated_Source\PSoC6\pdl\drivers\peripheral\gpio/cy_gpio.h **** *******************************************************************************/
 805:Generated_Source\PSoC6\pdl\drivers\peripheral\gpio/cy_gpio.h **** __STATIC_INLINE void Cy_GPIO_Write(GPIO_PRT_Type* base, uint32_t pinNum, uint32_t value)
 806:Generated_Source\PSoC6\pdl\drivers\peripheral\gpio/cy_gpio.h **** {
 807:Generated_Source\PSoC6\pdl\drivers\peripheral\gpio/cy_gpio.h ****     CY_ASSERT_L2(CY_GPIO_IS_PIN_VALID(pinNum));
 200              		.loc 2 807 0
 201 00dc 072D     		cmp	r5, #7
 202 00de 04D9     		bls	.L17
 203 00e0 40F22731 		movw	r1, #807
 204 00e4 8248     		ldr	r0, .L36+4
 205 00e6 FFF7FEFF 		bl	Cy_SysLib_AssertFailed
 206              	.LVL18:
 207              	.L17:
 808:Generated_Source\PSoC6\pdl\drivers\peripheral\gpio/cy_gpio.h ****     CY_ASSERT_L2(CY_GPIO_IS_VALUE_VALID(value));
 208              		.loc 2 808 0
 209 00ea 012F     		cmp	r7, #1
 210 00ec 04D9     		bls	.L18
 211 00ee 4FF44A71 		mov	r1, #808
 212 00f2 7F48     		ldr	r0, .L36+4
 213 00f4 FFF7FEFF 		bl	Cy_SysLib_AssertFailed
 214              	.LVL19:
 215              	.L18:
 809:Generated_Source\PSoC6\pdl\drivers\peripheral\gpio/cy_gpio.h **** 
 810:Generated_Source\PSoC6\pdl\drivers\peripheral\gpio/cy_gpio.h ****     /* Thread-safe: Directly access the pin registers instead of base->OUT */
 811:Generated_Source\PSoC6\pdl\drivers\peripheral\gpio/cy_gpio.h ****     if(0UL == value)
 216              		.loc 2 811 0
 217 00f8 1FB9     		cbnz	r7, .L19
 812:Generated_Source\PSoC6\pdl\drivers\peripheral\gpio/cy_gpio.h ****     {
 813:Generated_Source\PSoC6\pdl\drivers\peripheral\gpio/cy_gpio.h ****         GPIO_PRT_OUT_CLR(base) = CY_GPIO_OUT_MASK << pinNum;
 218              		.loc 2 813 0
 219 00fa 0123     		movs	r3, #1
 220 00fc AB40     		lsls	r3, r3, r5
 221 00fe 7360     		str	r3, [r6, #4]
 222 0100 02E0     		b	.L20
 223              	.L19:
 814:Generated_Source\PSoC6\pdl\drivers\peripheral\gpio/cy_gpio.h ****     }
 815:Generated_Source\PSoC6\pdl\drivers\peripheral\gpio/cy_gpio.h ****     else
 816:Generated_Source\PSoC6\pdl\drivers\peripheral\gpio/cy_gpio.h ****     {
 817:Generated_Source\PSoC6\pdl\drivers\peripheral\gpio/cy_gpio.h ****         GPIO_PRT_OUT_SET(base) = CY_GPIO_OUT_MASK << pinNum;
 224              		.loc 2 817 0
 225 0102 0123     		movs	r3, #1
 226 0104 AB40     		lsls	r3, r3, r5
 227 0106 B360     		str	r3, [r6, #8]
 228              	.L20:
 229              	.LVL20:
 230              	.LBE17:
 231              	.LBE16:
  85:Generated_Source\PSoC6\pdl\drivers\peripheral\gpio/cy_gpio.c ****         Cy_GPIO_SetDrivemode(base, pinNum, config->driveMode);
 232              		.loc 1 85 0
 233 0108 6768     		ldr	r7, [r4, #4]
 234              	.LVL21:
 235              	.LBB18:
 236              	.LBB19:
 818:Generated_Source\PSoC6\pdl\drivers\peripheral\gpio/cy_gpio.h ****     }
ARM GAS  C:\Users\cmila\AppData\Local\Temp\ccUkpexV.s 			page 21


 819:Generated_Source\PSoC6\pdl\drivers\peripheral\gpio/cy_gpio.h **** }
 820:Generated_Source\PSoC6\pdl\drivers\peripheral\gpio/cy_gpio.h **** 
 821:Generated_Source\PSoC6\pdl\drivers\peripheral\gpio/cy_gpio.h **** 
 822:Generated_Source\PSoC6\pdl\drivers\peripheral\gpio/cy_gpio.h **** /*******************************************************************************
 823:Generated_Source\PSoC6\pdl\drivers\peripheral\gpio/cy_gpio.h **** * Function Name: Cy_GPIO_ReadOut
 824:Generated_Source\PSoC6\pdl\drivers\peripheral\gpio/cy_gpio.h **** ****************************************************************************//**
 825:Generated_Source\PSoC6\pdl\drivers\peripheral\gpio/cy_gpio.h **** *
 826:Generated_Source\PSoC6\pdl\drivers\peripheral\gpio/cy_gpio.h **** * Reads the current logic level on the pin output driver.
 827:Generated_Source\PSoC6\pdl\drivers\peripheral\gpio/cy_gpio.h **** *
 828:Generated_Source\PSoC6\pdl\drivers\peripheral\gpio/cy_gpio.h **** * \param base
 829:Generated_Source\PSoC6\pdl\drivers\peripheral\gpio/cy_gpio.h **** * Pointer to the pin's port register base address
 830:Generated_Source\PSoC6\pdl\drivers\peripheral\gpio/cy_gpio.h **** *
 831:Generated_Source\PSoC6\pdl\drivers\peripheral\gpio/cy_gpio.h **** * \param pinNum
 832:Generated_Source\PSoC6\pdl\drivers\peripheral\gpio/cy_gpio.h **** * Position of the pin bit-field within the port register
 833:Generated_Source\PSoC6\pdl\drivers\peripheral\gpio/cy_gpio.h **** *
 834:Generated_Source\PSoC6\pdl\drivers\peripheral\gpio/cy_gpio.h **** * \return
 835:Generated_Source\PSoC6\pdl\drivers\peripheral\gpio/cy_gpio.h **** * Logic level on the pin output driver
 836:Generated_Source\PSoC6\pdl\drivers\peripheral\gpio/cy_gpio.h **** *
 837:Generated_Source\PSoC6\pdl\drivers\peripheral\gpio/cy_gpio.h **** * \funcusage
 838:Generated_Source\PSoC6\pdl\drivers\peripheral\gpio/cy_gpio.h **** * \snippet gpio/gpio_v1_10_sut_01.cydsn/main_cm4.c snippet_Cy_GPIO_ReadOut
 839:Generated_Source\PSoC6\pdl\drivers\peripheral\gpio/cy_gpio.h **** *
 840:Generated_Source\PSoC6\pdl\drivers\peripheral\gpio/cy_gpio.h **** *******************************************************************************/
 841:Generated_Source\PSoC6\pdl\drivers\peripheral\gpio/cy_gpio.h **** __STATIC_INLINE uint32_t Cy_GPIO_ReadOut(GPIO_PRT_Type* base, uint32_t pinNum)
 842:Generated_Source\PSoC6\pdl\drivers\peripheral\gpio/cy_gpio.h **** {
 843:Generated_Source\PSoC6\pdl\drivers\peripheral\gpio/cy_gpio.h ****     CY_ASSERT_L2(CY_GPIO_IS_PIN_VALID(pinNum));
 844:Generated_Source\PSoC6\pdl\drivers\peripheral\gpio/cy_gpio.h **** 
 845:Generated_Source\PSoC6\pdl\drivers\peripheral\gpio/cy_gpio.h ****     return (GPIO_PRT_OUT(base) >> pinNum) & CY_GPIO_OUT_MASK;
 846:Generated_Source\PSoC6\pdl\drivers\peripheral\gpio/cy_gpio.h **** }
 847:Generated_Source\PSoC6\pdl\drivers\peripheral\gpio/cy_gpio.h **** 
 848:Generated_Source\PSoC6\pdl\drivers\peripheral\gpio/cy_gpio.h **** 
 849:Generated_Source\PSoC6\pdl\drivers\peripheral\gpio/cy_gpio.h **** /*******************************************************************************
 850:Generated_Source\PSoC6\pdl\drivers\peripheral\gpio/cy_gpio.h **** * Function Name: Cy_GPIO_Set
 851:Generated_Source\PSoC6\pdl\drivers\peripheral\gpio/cy_gpio.h **** ****************************************************************************//**
 852:Generated_Source\PSoC6\pdl\drivers\peripheral\gpio/cy_gpio.h **** *
 853:Generated_Source\PSoC6\pdl\drivers\peripheral\gpio/cy_gpio.h **** * Set a pin output to logic state high.
 854:Generated_Source\PSoC6\pdl\drivers\peripheral\gpio/cy_gpio.h **** *
 855:Generated_Source\PSoC6\pdl\drivers\peripheral\gpio/cy_gpio.h **** * This function should be used only for software driven pins. It does not have
 856:Generated_Source\PSoC6\pdl\drivers\peripheral\gpio/cy_gpio.h **** * any effect on peripheral driven pins.
 857:Generated_Source\PSoC6\pdl\drivers\peripheral\gpio/cy_gpio.h **** *
 858:Generated_Source\PSoC6\pdl\drivers\peripheral\gpio/cy_gpio.h **** * \param base
 859:Generated_Source\PSoC6\pdl\drivers\peripheral\gpio/cy_gpio.h **** * Pointer to the pin's port register base address
 860:Generated_Source\PSoC6\pdl\drivers\peripheral\gpio/cy_gpio.h **** *
 861:Generated_Source\PSoC6\pdl\drivers\peripheral\gpio/cy_gpio.h **** * \param pinNum
 862:Generated_Source\PSoC6\pdl\drivers\peripheral\gpio/cy_gpio.h **** * Position of the pin bit-field within the port register
 863:Generated_Source\PSoC6\pdl\drivers\peripheral\gpio/cy_gpio.h **** *
 864:Generated_Source\PSoC6\pdl\drivers\peripheral\gpio/cy_gpio.h **** * \funcusage
 865:Generated_Source\PSoC6\pdl\drivers\peripheral\gpio/cy_gpio.h **** * \snippet gpio/gpio_v1_10_sut_01.cydsn/main_cm4.c snippet_Cy_GPIO_Set
 866:Generated_Source\PSoC6\pdl\drivers\peripheral\gpio/cy_gpio.h **** *
 867:Generated_Source\PSoC6\pdl\drivers\peripheral\gpio/cy_gpio.h **** *******************************************************************************/
 868:Generated_Source\PSoC6\pdl\drivers\peripheral\gpio/cy_gpio.h **** __STATIC_INLINE void Cy_GPIO_Set(GPIO_PRT_Type* base, uint32_t pinNum)
 869:Generated_Source\PSoC6\pdl\drivers\peripheral\gpio/cy_gpio.h **** {
 870:Generated_Source\PSoC6\pdl\drivers\peripheral\gpio/cy_gpio.h ****     CY_ASSERT_L2(CY_GPIO_IS_PIN_VALID(pinNum));
 871:Generated_Source\PSoC6\pdl\drivers\peripheral\gpio/cy_gpio.h ****     
 872:Generated_Source\PSoC6\pdl\drivers\peripheral\gpio/cy_gpio.h ****     GPIO_PRT_OUT_SET(base) = CY_GPIO_OUT_MASK << pinNum;
 873:Generated_Source\PSoC6\pdl\drivers\peripheral\gpio/cy_gpio.h **** }
 874:Generated_Source\PSoC6\pdl\drivers\peripheral\gpio/cy_gpio.h **** 
 875:Generated_Source\PSoC6\pdl\drivers\peripheral\gpio/cy_gpio.h **** 
ARM GAS  C:\Users\cmila\AppData\Local\Temp\ccUkpexV.s 			page 22


 876:Generated_Source\PSoC6\pdl\drivers\peripheral\gpio/cy_gpio.h **** /*******************************************************************************
 877:Generated_Source\PSoC6\pdl\drivers\peripheral\gpio/cy_gpio.h **** * Function Name: Cy_GPIO_Clr
 878:Generated_Source\PSoC6\pdl\drivers\peripheral\gpio/cy_gpio.h **** ****************************************************************************//**
 879:Generated_Source\PSoC6\pdl\drivers\peripheral\gpio/cy_gpio.h **** *
 880:Generated_Source\PSoC6\pdl\drivers\peripheral\gpio/cy_gpio.h **** * Set a pin output to logic state Low.
 881:Generated_Source\PSoC6\pdl\drivers\peripheral\gpio/cy_gpio.h **** *
 882:Generated_Source\PSoC6\pdl\drivers\peripheral\gpio/cy_gpio.h **** * This function should be used only for software driven pins. It does not have
 883:Generated_Source\PSoC6\pdl\drivers\peripheral\gpio/cy_gpio.h **** * any effect on peripheral driven pins.
 884:Generated_Source\PSoC6\pdl\drivers\peripheral\gpio/cy_gpio.h **** *
 885:Generated_Source\PSoC6\pdl\drivers\peripheral\gpio/cy_gpio.h **** * \param base
 886:Generated_Source\PSoC6\pdl\drivers\peripheral\gpio/cy_gpio.h **** * Pointer to the pin's port register base address
 887:Generated_Source\PSoC6\pdl\drivers\peripheral\gpio/cy_gpio.h **** *
 888:Generated_Source\PSoC6\pdl\drivers\peripheral\gpio/cy_gpio.h **** * \param pinNum
 889:Generated_Source\PSoC6\pdl\drivers\peripheral\gpio/cy_gpio.h **** * Position of the pin bit-field within the port register
 890:Generated_Source\PSoC6\pdl\drivers\peripheral\gpio/cy_gpio.h **** *
 891:Generated_Source\PSoC6\pdl\drivers\peripheral\gpio/cy_gpio.h **** * \funcusage
 892:Generated_Source\PSoC6\pdl\drivers\peripheral\gpio/cy_gpio.h **** * \snippet gpio/gpio_v1_10_sut_01.cydsn/main_cm4.c snippet_Cy_GPIO_Clr
 893:Generated_Source\PSoC6\pdl\drivers\peripheral\gpio/cy_gpio.h **** *
 894:Generated_Source\PSoC6\pdl\drivers\peripheral\gpio/cy_gpio.h **** *******************************************************************************/
 895:Generated_Source\PSoC6\pdl\drivers\peripheral\gpio/cy_gpio.h **** __STATIC_INLINE void Cy_GPIO_Clr(GPIO_PRT_Type* base, uint32_t pinNum)
 896:Generated_Source\PSoC6\pdl\drivers\peripheral\gpio/cy_gpio.h **** {
 897:Generated_Source\PSoC6\pdl\drivers\peripheral\gpio/cy_gpio.h ****     CY_ASSERT_L2(CY_GPIO_IS_PIN_VALID(pinNum));
 898:Generated_Source\PSoC6\pdl\drivers\peripheral\gpio/cy_gpio.h ****     
 899:Generated_Source\PSoC6\pdl\drivers\peripheral\gpio/cy_gpio.h ****     GPIO_PRT_OUT_CLR(base) = CY_GPIO_OUT_MASK << pinNum;
 900:Generated_Source\PSoC6\pdl\drivers\peripheral\gpio/cy_gpio.h **** }
 901:Generated_Source\PSoC6\pdl\drivers\peripheral\gpio/cy_gpio.h **** 
 902:Generated_Source\PSoC6\pdl\drivers\peripheral\gpio/cy_gpio.h **** 
 903:Generated_Source\PSoC6\pdl\drivers\peripheral\gpio/cy_gpio.h **** /*******************************************************************************
 904:Generated_Source\PSoC6\pdl\drivers\peripheral\gpio/cy_gpio.h **** * Function Name: Cy_GPIO_Inv
 905:Generated_Source\PSoC6\pdl\drivers\peripheral\gpio/cy_gpio.h **** ****************************************************************************//**
 906:Generated_Source\PSoC6\pdl\drivers\peripheral\gpio/cy_gpio.h **** *
 907:Generated_Source\PSoC6\pdl\drivers\peripheral\gpio/cy_gpio.h **** * Set a pin output logic state to the inverse of the current output
 908:Generated_Source\PSoC6\pdl\drivers\peripheral\gpio/cy_gpio.h **** * logic state.
 909:Generated_Source\PSoC6\pdl\drivers\peripheral\gpio/cy_gpio.h **** *
 910:Generated_Source\PSoC6\pdl\drivers\peripheral\gpio/cy_gpio.h **** * This function should be used only for software driven pins. It does not have
 911:Generated_Source\PSoC6\pdl\drivers\peripheral\gpio/cy_gpio.h **** * any effect on peripheral driven pins.
 912:Generated_Source\PSoC6\pdl\drivers\peripheral\gpio/cy_gpio.h **** *
 913:Generated_Source\PSoC6\pdl\drivers\peripheral\gpio/cy_gpio.h **** * \param base
 914:Generated_Source\PSoC6\pdl\drivers\peripheral\gpio/cy_gpio.h **** * Pointer to the pin's port register base address
 915:Generated_Source\PSoC6\pdl\drivers\peripheral\gpio/cy_gpio.h **** *
 916:Generated_Source\PSoC6\pdl\drivers\peripheral\gpio/cy_gpio.h **** * \param pinNum
 917:Generated_Source\PSoC6\pdl\drivers\peripheral\gpio/cy_gpio.h **** * Position of the pin bit-field within the port register
 918:Generated_Source\PSoC6\pdl\drivers\peripheral\gpio/cy_gpio.h **** *
 919:Generated_Source\PSoC6\pdl\drivers\peripheral\gpio/cy_gpio.h **** * \funcusage
 920:Generated_Source\PSoC6\pdl\drivers\peripheral\gpio/cy_gpio.h **** * \snippet gpio/gpio_v1_10_sut_01.cydsn/main_cm4.c snippet_Cy_GPIO_Inv
 921:Generated_Source\PSoC6\pdl\drivers\peripheral\gpio/cy_gpio.h **** *
 922:Generated_Source\PSoC6\pdl\drivers\peripheral\gpio/cy_gpio.h **** *******************************************************************************/
 923:Generated_Source\PSoC6\pdl\drivers\peripheral\gpio/cy_gpio.h **** __STATIC_INLINE void Cy_GPIO_Inv(GPIO_PRT_Type* base, uint32_t pinNum)
 924:Generated_Source\PSoC6\pdl\drivers\peripheral\gpio/cy_gpio.h **** {
 925:Generated_Source\PSoC6\pdl\drivers\peripheral\gpio/cy_gpio.h ****     CY_ASSERT_L2(CY_GPIO_IS_PIN_VALID(pinNum));
 926:Generated_Source\PSoC6\pdl\drivers\peripheral\gpio/cy_gpio.h ****     
 927:Generated_Source\PSoC6\pdl\drivers\peripheral\gpio/cy_gpio.h ****     GPIO_PRT_OUT_INV(base) = CY_GPIO_OUT_MASK << pinNum;
 928:Generated_Source\PSoC6\pdl\drivers\peripheral\gpio/cy_gpio.h **** }
 929:Generated_Source\PSoC6\pdl\drivers\peripheral\gpio/cy_gpio.h **** 
 930:Generated_Source\PSoC6\pdl\drivers\peripheral\gpio/cy_gpio.h **** 
 931:Generated_Source\PSoC6\pdl\drivers\peripheral\gpio/cy_gpio.h **** /*******************************************************************************
 932:Generated_Source\PSoC6\pdl\drivers\peripheral\gpio/cy_gpio.h **** * Function Name: Cy_GPIO_SetDrivemode
ARM GAS  C:\Users\cmila\AppData\Local\Temp\ccUkpexV.s 			page 23


 933:Generated_Source\PSoC6\pdl\drivers\peripheral\gpio/cy_gpio.h **** ****************************************************************************//**
 934:Generated_Source\PSoC6\pdl\drivers\peripheral\gpio/cy_gpio.h **** *
 935:Generated_Source\PSoC6\pdl\drivers\peripheral\gpio/cy_gpio.h **** * Configures the pin output buffer drive mode and input buffer enable.
 936:Generated_Source\PSoC6\pdl\drivers\peripheral\gpio/cy_gpio.h **** *
 937:Generated_Source\PSoC6\pdl\drivers\peripheral\gpio/cy_gpio.h **** * The output buffer drive mode and input buffer enable are combined into a single
 938:Generated_Source\PSoC6\pdl\drivers\peripheral\gpio/cy_gpio.h **** * parameter. The drive mode controls the behavior of the pin in general.
 939:Generated_Source\PSoC6\pdl\drivers\peripheral\gpio/cy_gpio.h **** * Enabling the input buffer allows the digital pin state to be read but also
 940:Generated_Source\PSoC6\pdl\drivers\peripheral\gpio/cy_gpio.h **** * contributes to extra current consumption.
 941:Generated_Source\PSoC6\pdl\drivers\peripheral\gpio/cy_gpio.h **** *
 942:Generated_Source\PSoC6\pdl\drivers\peripheral\gpio/cy_gpio.h **** * \param base
 943:Generated_Source\PSoC6\pdl\drivers\peripheral\gpio/cy_gpio.h **** * Pointer to the pin's port register base address
 944:Generated_Source\PSoC6\pdl\drivers\peripheral\gpio/cy_gpio.h **** *
 945:Generated_Source\PSoC6\pdl\drivers\peripheral\gpio/cy_gpio.h **** * \param pinNum
 946:Generated_Source\PSoC6\pdl\drivers\peripheral\gpio/cy_gpio.h **** * Position of the pin bit-field within the port register
 947:Generated_Source\PSoC6\pdl\drivers\peripheral\gpio/cy_gpio.h **** *
 948:Generated_Source\PSoC6\pdl\drivers\peripheral\gpio/cy_gpio.h **** * \param value
 949:Generated_Source\PSoC6\pdl\drivers\peripheral\gpio/cy_gpio.h **** * Pin drive mode. Options are detailed in \ref group_gpio_driveModes macros
 950:Generated_Source\PSoC6\pdl\drivers\peripheral\gpio/cy_gpio.h **** *
 951:Generated_Source\PSoC6\pdl\drivers\peripheral\gpio/cy_gpio.h **** * \note 
 952:Generated_Source\PSoC6\pdl\drivers\peripheral\gpio/cy_gpio.h **** * This function modifies a port register in a read-modify-write operation. It is
 953:Generated_Source\PSoC6\pdl\drivers\peripheral\gpio/cy_gpio.h **** * not thread safe as the resource is shared among multiple pins on a port.
 954:Generated_Source\PSoC6\pdl\drivers\peripheral\gpio/cy_gpio.h **** *
 955:Generated_Source\PSoC6\pdl\drivers\peripheral\gpio/cy_gpio.h **** * \funcusage
 956:Generated_Source\PSoC6\pdl\drivers\peripheral\gpio/cy_gpio.h **** * \snippet gpio/gpio_v1_10_sut_01.cydsn/main_cm4.c snippet_Cy_GPIO_SetDrivemode
 957:Generated_Source\PSoC6\pdl\drivers\peripheral\gpio/cy_gpio.h **** *
 958:Generated_Source\PSoC6\pdl\drivers\peripheral\gpio/cy_gpio.h **** *******************************************************************************/
 959:Generated_Source\PSoC6\pdl\drivers\peripheral\gpio/cy_gpio.h **** __STATIC_INLINE void Cy_GPIO_SetDrivemode(GPIO_PRT_Type* base, uint32_t pinNum, uint32_t value)
 960:Generated_Source\PSoC6\pdl\drivers\peripheral\gpio/cy_gpio.h **** {
 961:Generated_Source\PSoC6\pdl\drivers\peripheral\gpio/cy_gpio.h ****     uint32_t tempReg;
 962:Generated_Source\PSoC6\pdl\drivers\peripheral\gpio/cy_gpio.h ****     uint32_t pinLoc;
 963:Generated_Source\PSoC6\pdl\drivers\peripheral\gpio/cy_gpio.h **** 
 964:Generated_Source\PSoC6\pdl\drivers\peripheral\gpio/cy_gpio.h ****     CY_ASSERT_L2(CY_GPIO_IS_PIN_VALID(pinNum));
 237              		.loc 2 964 0
 238 010a 072D     		cmp	r5, #7
 239 010c 04D9     		bls	.L21
 240 010e 4FF47171 		mov	r1, #964
 241 0112 7748     		ldr	r0, .L36+4
 242 0114 FFF7FEFF 		bl	Cy_SysLib_AssertFailed
 243              	.LVL22:
 244              	.L21:
 965:Generated_Source\PSoC6\pdl\drivers\peripheral\gpio/cy_gpio.h ****     CY_ASSERT_L2(CY_GPIO_IS_DM_VALID(value));
 245              		.loc 2 965 0
 246 0118 37F00F03 		bics	r3, r7, #15
 247 011c 04D0     		beq	.L22
 248 011e 40F2C531 		movw	r1, #965
 249 0122 7348     		ldr	r0, .L36+4
 250 0124 FFF7FEFF 		bl	Cy_SysLib_AssertFailed
 251              	.LVL23:
 252              	.L22:
 966:Generated_Source\PSoC6\pdl\drivers\peripheral\gpio/cy_gpio.h **** 
 967:Generated_Source\PSoC6\pdl\drivers\peripheral\gpio/cy_gpio.h ****     pinLoc = pinNum << CY_GPIO_DRIVE_MODE_OFFSET;
 253              		.loc 2 967 0
 254 0128 A800     		lsls	r0, r5, #2
 255              	.LVL24:
 968:Generated_Source\PSoC6\pdl\drivers\peripheral\gpio/cy_gpio.h ****     tempReg = (GPIO_PRT_CFG(base) & ~(CY_GPIO_CFG_DM_MASK << pinLoc));
 256              		.loc 2 968 0
 257 012a 724B     		ldr	r3, .L36+8
ARM GAS  C:\Users\cmila\AppData\Local\Temp\ccUkpexV.s 			page 24


 258 012c 1B68     		ldr	r3, [r3]
 259 012e 93F87D10 		ldrb	r1, [r3, #125]	@ zero_extendqisi2
 260 0132 8B59     		ldr	r3, [r1, r6]
 261 0134 0F22     		movs	r2, #15
 262 0136 8240     		lsls	r2, r2, r0
 263 0138 23EA0202 		bic	r2, r3, r2
 264              	.LVL25:
 969:Generated_Source\PSoC6\pdl\drivers\peripheral\gpio/cy_gpio.h ****     GPIO_PRT_CFG(base) = tempReg | ((value & CY_GPIO_CFG_DM_MASK) << pinLoc);
 265              		.loc 2 969 0
 266 013c 07F00F03 		and	r3, r7, #15
 267 0140 03FA00F7 		lsl	r7, r3, r0
 268              	.LVL26:
 269 0144 1743     		orrs	r7, r7, r2
 270 0146 8F51     		str	r7, [r1, r6]
 271              	.LVL27:
 272              	.LBE19:
 273              	.LBE18:
  86:Generated_Source\PSoC6\pdl\drivers\peripheral\gpio/cy_gpio.c ****         Cy_GPIO_SetHSIOM(base, pinNum, config->hsiom);
 274              		.loc 1 86 0
 275 0148 277A     		ldrb	r7, [r4, #8]	@ zero_extendqisi2
 276              	.LVL28:
 277              	.LBB20:
 278              	.LBB21:
 648:Generated_Source\PSoC6\pdl\drivers\peripheral\gpio/cy_gpio.h ****     CY_ASSERT_L2(CY_GPIO_IS_HSIOM_VALID(value));
 279              		.loc 2 648 0
 280 014a 072D     		cmp	r5, #7
 281 014c 04D9     		bls	.L23
 282 014e 4FF42271 		mov	r1, #648
 283 0152 6748     		ldr	r0, .L36+4
 284 0154 FFF7FEFF 		bl	Cy_SysLib_AssertFailed
 285              	.LVL29:
 286              	.L23:
 649:Generated_Source\PSoC6\pdl\drivers\peripheral\gpio/cy_gpio.h **** 
 287              		.loc 2 649 0
 288 0158 37F01F03 		bics	r3, r7, #31
 289 015c 04D0     		beq	.L24
 290 015e 40F28921 		movw	r1, #649
 291 0162 6348     		ldr	r0, .L36+4
 292 0164 FFF7FEFF 		bl	Cy_SysLib_AssertFailed
 293              	.LVL30:
 294              	.L24:
 651:Generated_Source\PSoC6\pdl\drivers\peripheral\gpio/cy_gpio.h ****     portAddrHSIOM = (HSIOM_PRT_V1_Type*)(CY_HSIOM_BASE + (HSIOM_PRT_SECTION_SIZE * portNum));
 295              		.loc 2 651 0
 296 0168 624B     		ldr	r3, .L36+8
 297 016a 1A68     		ldr	r2, [r3]
 298 016c 9369     		ldr	r3, [r2, #24]
 299 016e F31A     		subs	r3, r6, r3
 300 0170 DB09     		lsrs	r3, r3, #7
 301              	.LVL31:
 652:Generated_Source\PSoC6\pdl\drivers\peripheral\gpio/cy_gpio.h **** 
 302              		.loc 2 652 0
 303 0172 5269     		ldr	r2, [r2, #20]
 304 0174 1B01     		lsls	r3, r3, #4
 305              	.LVL32:
 306 0176 D018     		adds	r0, r2, r3
 307              	.LVL33:
 654:Generated_Source\PSoC6\pdl\drivers\peripheral\gpio/cy_gpio.h ****     {
ARM GAS  C:\Users\cmila\AppData\Local\Temp\ccUkpexV.s 			page 25


 308              		.loc 2 654 0
 309 0178 032D     		cmp	r5, #3
 310 017a 0ED8     		bhi	.L25
 656:Generated_Source\PSoC6\pdl\drivers\peripheral\gpio/cy_gpio.h ****         HSIOM_PRT_PORT_SEL0(portAddrHSIOM) = tempReg | ((value & CY_GPIO_HSIOM_MASK) << (pinNum << 
 311              		.loc 2 656 0
 312 017c D158     		ldr	r1, [r2, r3]
 313 017e 4FEAC50E 		lsl	lr, r5, #3
 314 0182 1F20     		movs	r0, #31
 315              	.LVL34:
 316 0184 00FA0EF0 		lsl	r0, r0, lr
 317 0188 21EA0000 		bic	r0, r1, r0
 318              	.LVL35:
 657:Generated_Source\PSoC6\pdl\drivers\peripheral\gpio/cy_gpio.h ****     }
 319              		.loc 2 657 0
 320 018c 07F01F01 		and	r1, r7, #31
 321 0190 01FA0EF7 		lsl	r7, r1, lr
 322              	.LVL36:
 323 0194 0743     		orrs	r7, r7, r0
 324 0196 D750     		str	r7, [r2, r3]
 325              	.LVL37:
 326 0198 0CE0     		b	.L26
 327              	.LVL38:
 328              	.L25:
 661:Generated_Source\PSoC6\pdl\drivers\peripheral\gpio/cy_gpio.h ****         tempReg = HSIOM_PRT_PORT_SEL1(portAddrHSIOM) & ~(CY_GPIO_HSIOM_MASK << (pinNum << CY_GPIO_H
 329              		.loc 2 661 0
 330 019a 2A1F     		subs	r2, r5, #4
 331              	.LVL39:
 662:Generated_Source\PSoC6\pdl\drivers\peripheral\gpio/cy_gpio.h ****         HSIOM_PRT_PORT_SEL1(portAddrHSIOM) = tempReg | ((value & CY_GPIO_HSIOM_MASK) << (pinNum << 
 332              		.loc 2 662 0
 333 019c 4368     		ldr	r3, [r0, #4]
 334 019e D200     		lsls	r2, r2, #3
 335 01a0 1F21     		movs	r1, #31
 336 01a2 9140     		lsls	r1, r1, r2
 337 01a4 23EA0101 		bic	r1, r3, r1
 338              	.LVL40:
 663:Generated_Source\PSoC6\pdl\drivers\peripheral\gpio/cy_gpio.h ****     }
 339              		.loc 2 663 0
 340 01a8 07F01F03 		and	r3, r7, #31
 341 01ac 03FA02F7 		lsl	r7, r3, r2
 342              	.LVL41:
 343 01b0 0F43     		orrs	r7, r7, r1
 344 01b2 4760     		str	r7, [r0, #4]
 345              	.LVL42:
 346              	.L26:
 347              	.LBE21:
 348              	.LBE20:
  87:Generated_Source\PSoC6\pdl\drivers\peripheral\gpio/cy_gpio.c **** 
  88:Generated_Source\PSoC6\pdl\drivers\peripheral\gpio/cy_gpio.c ****         Cy_GPIO_SetInterruptEdge(base, pinNum, config->intEdge);
 349              		.loc 1 88 0
 350 01b4 E768     		ldr	r7, [r4, #12]
 351              	.LVL43:
 352              	.LBB22:
 353              	.LBB23:
 970:Generated_Source\PSoC6\pdl\drivers\peripheral\gpio/cy_gpio.h **** }
 971:Generated_Source\PSoC6\pdl\drivers\peripheral\gpio/cy_gpio.h **** 
 972:Generated_Source\PSoC6\pdl\drivers\peripheral\gpio/cy_gpio.h **** 
 973:Generated_Source\PSoC6\pdl\drivers\peripheral\gpio/cy_gpio.h **** /*******************************************************************************
ARM GAS  C:\Users\cmila\AppData\Local\Temp\ccUkpexV.s 			page 26


 974:Generated_Source\PSoC6\pdl\drivers\peripheral\gpio/cy_gpio.h **** * Function Name: Cy_GPIO_GetDrivemode
 975:Generated_Source\PSoC6\pdl\drivers\peripheral\gpio/cy_gpio.h **** ****************************************************************************//**
 976:Generated_Source\PSoC6\pdl\drivers\peripheral\gpio/cy_gpio.h **** *
 977:Generated_Source\PSoC6\pdl\drivers\peripheral\gpio/cy_gpio.h **** * Returns the pin output buffer drive mode and input buffer enable state.
 978:Generated_Source\PSoC6\pdl\drivers\peripheral\gpio/cy_gpio.h **** *
 979:Generated_Source\PSoC6\pdl\drivers\peripheral\gpio/cy_gpio.h **** * \param base
 980:Generated_Source\PSoC6\pdl\drivers\peripheral\gpio/cy_gpio.h **** * Pointer to the pin's port register base address
 981:Generated_Source\PSoC6\pdl\drivers\peripheral\gpio/cy_gpio.h **** *
 982:Generated_Source\PSoC6\pdl\drivers\peripheral\gpio/cy_gpio.h **** * \param pinNum
 983:Generated_Source\PSoC6\pdl\drivers\peripheral\gpio/cy_gpio.h **** * Position of the pin bit-field within the port register
 984:Generated_Source\PSoC6\pdl\drivers\peripheral\gpio/cy_gpio.h **** *
 985:Generated_Source\PSoC6\pdl\drivers\peripheral\gpio/cy_gpio.h **** * \return
 986:Generated_Source\PSoC6\pdl\drivers\peripheral\gpio/cy_gpio.h **** * Pin drive mode. Options are detailed in \ref group_gpio_driveModes macros
 987:Generated_Source\PSoC6\pdl\drivers\peripheral\gpio/cy_gpio.h **** *
 988:Generated_Source\PSoC6\pdl\drivers\peripheral\gpio/cy_gpio.h **** * \funcusage
 989:Generated_Source\PSoC6\pdl\drivers\peripheral\gpio/cy_gpio.h **** * \snippet gpio/gpio_v1_10_sut_01.cydsn/main_cm4.c snippet_Cy_GPIO_SetDrivemode
 990:Generated_Source\PSoC6\pdl\drivers\peripheral\gpio/cy_gpio.h **** *
 991:Generated_Source\PSoC6\pdl\drivers\peripheral\gpio/cy_gpio.h **** *******************************************************************************/
 992:Generated_Source\PSoC6\pdl\drivers\peripheral\gpio/cy_gpio.h **** __STATIC_INLINE uint32_t Cy_GPIO_GetDrivemode(GPIO_PRT_Type* base, uint32_t pinNum)
 993:Generated_Source\PSoC6\pdl\drivers\peripheral\gpio/cy_gpio.h **** {
 994:Generated_Source\PSoC6\pdl\drivers\peripheral\gpio/cy_gpio.h ****     CY_ASSERT_L2(CY_GPIO_IS_PIN_VALID(pinNum));
 995:Generated_Source\PSoC6\pdl\drivers\peripheral\gpio/cy_gpio.h ****     
 996:Generated_Source\PSoC6\pdl\drivers\peripheral\gpio/cy_gpio.h ****     return (GPIO_PRT_CFG(base) >> (pinNum << CY_GPIO_DRIVE_MODE_OFFSET)) & CY_GPIO_CFG_DM_MASK;
 997:Generated_Source\PSoC6\pdl\drivers\peripheral\gpio/cy_gpio.h **** }
 998:Generated_Source\PSoC6\pdl\drivers\peripheral\gpio/cy_gpio.h **** 
 999:Generated_Source\PSoC6\pdl\drivers\peripheral\gpio/cy_gpio.h **** 
1000:Generated_Source\PSoC6\pdl\drivers\peripheral\gpio/cy_gpio.h **** /*******************************************************************************
1001:Generated_Source\PSoC6\pdl\drivers\peripheral\gpio/cy_gpio.h **** * Function Name: Cy_GPIO_SetVtrip
1002:Generated_Source\PSoC6\pdl\drivers\peripheral\gpio/cy_gpio.h **** ****************************************************************************//**
1003:Generated_Source\PSoC6\pdl\drivers\peripheral\gpio/cy_gpio.h **** *
1004:Generated_Source\PSoC6\pdl\drivers\peripheral\gpio/cy_gpio.h **** * Configures the GPIO pin input buffer voltage threshold mode.
1005:Generated_Source\PSoC6\pdl\drivers\peripheral\gpio/cy_gpio.h **** *
1006:Generated_Source\PSoC6\pdl\drivers\peripheral\gpio/cy_gpio.h **** * \param base
1007:Generated_Source\PSoC6\pdl\drivers\peripheral\gpio/cy_gpio.h **** * Pointer to the pin's port register base address
1008:Generated_Source\PSoC6\pdl\drivers\peripheral\gpio/cy_gpio.h **** *
1009:Generated_Source\PSoC6\pdl\drivers\peripheral\gpio/cy_gpio.h **** * \param pinNum
1010:Generated_Source\PSoC6\pdl\drivers\peripheral\gpio/cy_gpio.h **** * Position of the pin bit-field within the port register
1011:Generated_Source\PSoC6\pdl\drivers\peripheral\gpio/cy_gpio.h **** *
1012:Generated_Source\PSoC6\pdl\drivers\peripheral\gpio/cy_gpio.h **** * \param value
1013:Generated_Source\PSoC6\pdl\drivers\peripheral\gpio/cy_gpio.h **** * Pin voltage threshold mode. Options are detailed in \ref group_gpio_vtrip macros
1014:Generated_Source\PSoC6\pdl\drivers\peripheral\gpio/cy_gpio.h **** *
1015:Generated_Source\PSoC6\pdl\drivers\peripheral\gpio/cy_gpio.h **** * \note 
1016:Generated_Source\PSoC6\pdl\drivers\peripheral\gpio/cy_gpio.h **** * This function modifies a port register in a read-modify-write operation. It is
1017:Generated_Source\PSoC6\pdl\drivers\peripheral\gpio/cy_gpio.h **** * not thread safe as the resource is shared among multiple pins on a port.
1018:Generated_Source\PSoC6\pdl\drivers\peripheral\gpio/cy_gpio.h **** *
1019:Generated_Source\PSoC6\pdl\drivers\peripheral\gpio/cy_gpio.h **** * \funcusage
1020:Generated_Source\PSoC6\pdl\drivers\peripheral\gpio/cy_gpio.h **** * \snippet gpio/gpio_v1_10_sut_01.cydsn/main_cm4.c snippet_Cy_GPIO_SetVtrip
1021:Generated_Source\PSoC6\pdl\drivers\peripheral\gpio/cy_gpio.h **** *
1022:Generated_Source\PSoC6\pdl\drivers\peripheral\gpio/cy_gpio.h **** *******************************************************************************/
1023:Generated_Source\PSoC6\pdl\drivers\peripheral\gpio/cy_gpio.h **** __STATIC_INLINE void Cy_GPIO_SetVtrip(GPIO_PRT_Type* base, uint32_t pinNum, uint32_t value)
1024:Generated_Source\PSoC6\pdl\drivers\peripheral\gpio/cy_gpio.h **** {
1025:Generated_Source\PSoC6\pdl\drivers\peripheral\gpio/cy_gpio.h ****     uint32_t tempReg;
1026:Generated_Source\PSoC6\pdl\drivers\peripheral\gpio/cy_gpio.h **** 
1027:Generated_Source\PSoC6\pdl\drivers\peripheral\gpio/cy_gpio.h ****     CY_ASSERT_L2(CY_GPIO_IS_PIN_VALID(pinNum));
1028:Generated_Source\PSoC6\pdl\drivers\peripheral\gpio/cy_gpio.h ****     CY_ASSERT_L2(CY_GPIO_IS_VALUE_VALID(value));
1029:Generated_Source\PSoC6\pdl\drivers\peripheral\gpio/cy_gpio.h **** 
1030:Generated_Source\PSoC6\pdl\drivers\peripheral\gpio/cy_gpio.h ****     tempReg = GPIO_PRT_CFG_IN(base) & ~(CY_GPIO_CFG_IN_VTRIP_SEL_MASK << pinNum);
ARM GAS  C:\Users\cmila\AppData\Local\Temp\ccUkpexV.s 			page 27


1031:Generated_Source\PSoC6\pdl\drivers\peripheral\gpio/cy_gpio.h ****     GPIO_PRT_CFG_IN(base) = tempReg | ((value & CY_GPIO_CFG_IN_VTRIP_SEL_MASK) << pinNum);
1032:Generated_Source\PSoC6\pdl\drivers\peripheral\gpio/cy_gpio.h **** }
1033:Generated_Source\PSoC6\pdl\drivers\peripheral\gpio/cy_gpio.h **** 
1034:Generated_Source\PSoC6\pdl\drivers\peripheral\gpio/cy_gpio.h **** 
1035:Generated_Source\PSoC6\pdl\drivers\peripheral\gpio/cy_gpio.h **** /*******************************************************************************
1036:Generated_Source\PSoC6\pdl\drivers\peripheral\gpio/cy_gpio.h **** * Function Name: Cy_GPIO_GetVtrip
1037:Generated_Source\PSoC6\pdl\drivers\peripheral\gpio/cy_gpio.h **** ****************************************************************************//**
1038:Generated_Source\PSoC6\pdl\drivers\peripheral\gpio/cy_gpio.h **** *
1039:Generated_Source\PSoC6\pdl\drivers\peripheral\gpio/cy_gpio.h **** * Returns the pin input buffer voltage threshold mode.
1040:Generated_Source\PSoC6\pdl\drivers\peripheral\gpio/cy_gpio.h **** *
1041:Generated_Source\PSoC6\pdl\drivers\peripheral\gpio/cy_gpio.h **** * \param base
1042:Generated_Source\PSoC6\pdl\drivers\peripheral\gpio/cy_gpio.h **** * Pointer to the pin's port register base address
1043:Generated_Source\PSoC6\pdl\drivers\peripheral\gpio/cy_gpio.h **** *
1044:Generated_Source\PSoC6\pdl\drivers\peripheral\gpio/cy_gpio.h **** * \param pinNum
1045:Generated_Source\PSoC6\pdl\drivers\peripheral\gpio/cy_gpio.h **** * Position of the pin bit-field within the port register
1046:Generated_Source\PSoC6\pdl\drivers\peripheral\gpio/cy_gpio.h **** *
1047:Generated_Source\PSoC6\pdl\drivers\peripheral\gpio/cy_gpio.h **** * \return
1048:Generated_Source\PSoC6\pdl\drivers\peripheral\gpio/cy_gpio.h **** * Pin voltage threshold mode. Options are detailed in \ref group_gpio_vtrip macros
1049:Generated_Source\PSoC6\pdl\drivers\peripheral\gpio/cy_gpio.h **** *
1050:Generated_Source\PSoC6\pdl\drivers\peripheral\gpio/cy_gpio.h **** * \funcusage
1051:Generated_Source\PSoC6\pdl\drivers\peripheral\gpio/cy_gpio.h **** * \snippet gpio/gpio_v1_10_sut_01.cydsn/main_cm4.c snippet_Cy_GPIO_SetVtrip
1052:Generated_Source\PSoC6\pdl\drivers\peripheral\gpio/cy_gpio.h **** *
1053:Generated_Source\PSoC6\pdl\drivers\peripheral\gpio/cy_gpio.h **** *******************************************************************************/
1054:Generated_Source\PSoC6\pdl\drivers\peripheral\gpio/cy_gpio.h **** __STATIC_INLINE uint32_t Cy_GPIO_GetVtrip(GPIO_PRT_Type* base, uint32_t pinNum)
1055:Generated_Source\PSoC6\pdl\drivers\peripheral\gpio/cy_gpio.h **** {
1056:Generated_Source\PSoC6\pdl\drivers\peripheral\gpio/cy_gpio.h ****     CY_ASSERT_L2(CY_GPIO_IS_PIN_VALID(pinNum));
1057:Generated_Source\PSoC6\pdl\drivers\peripheral\gpio/cy_gpio.h ****     
1058:Generated_Source\PSoC6\pdl\drivers\peripheral\gpio/cy_gpio.h ****     return (GPIO_PRT_CFG_IN(base) >> pinNum) & CY_GPIO_CFG_IN_VTRIP_SEL_MASK;
1059:Generated_Source\PSoC6\pdl\drivers\peripheral\gpio/cy_gpio.h **** }
1060:Generated_Source\PSoC6\pdl\drivers\peripheral\gpio/cy_gpio.h **** 
1061:Generated_Source\PSoC6\pdl\drivers\peripheral\gpio/cy_gpio.h **** 
1062:Generated_Source\PSoC6\pdl\drivers\peripheral\gpio/cy_gpio.h **** /*******************************************************************************
1063:Generated_Source\PSoC6\pdl\drivers\peripheral\gpio/cy_gpio.h **** * Function Name: Cy_GPIO_SetSlewRate
1064:Generated_Source\PSoC6\pdl\drivers\peripheral\gpio/cy_gpio.h **** ****************************************************************************//**
1065:Generated_Source\PSoC6\pdl\drivers\peripheral\gpio/cy_gpio.h **** *
1066:Generated_Source\PSoC6\pdl\drivers\peripheral\gpio/cy_gpio.h **** * Configures the pin output buffer slew rate.
1067:Generated_Source\PSoC6\pdl\drivers\peripheral\gpio/cy_gpio.h **** *
1068:Generated_Source\PSoC6\pdl\drivers\peripheral\gpio/cy_gpio.h **** * \note 
1069:Generated_Source\PSoC6\pdl\drivers\peripheral\gpio/cy_gpio.h **** * This function has no effect for the GPIO ports, where the slew rate
1070:Generated_Source\PSoC6\pdl\drivers\peripheral\gpio/cy_gpio.h **** * configuration is not available. Refer to device datasheet for details.
1071:Generated_Source\PSoC6\pdl\drivers\peripheral\gpio/cy_gpio.h **** *
1072:Generated_Source\PSoC6\pdl\drivers\peripheral\gpio/cy_gpio.h **** * \param base
1073:Generated_Source\PSoC6\pdl\drivers\peripheral\gpio/cy_gpio.h **** * Pointer to the pin's port register base address
1074:Generated_Source\PSoC6\pdl\drivers\peripheral\gpio/cy_gpio.h **** *
1075:Generated_Source\PSoC6\pdl\drivers\peripheral\gpio/cy_gpio.h **** * \param pinNum
1076:Generated_Source\PSoC6\pdl\drivers\peripheral\gpio/cy_gpio.h **** * Position of the pin bit-field within the port register
1077:Generated_Source\PSoC6\pdl\drivers\peripheral\gpio/cy_gpio.h **** *
1078:Generated_Source\PSoC6\pdl\drivers\peripheral\gpio/cy_gpio.h **** * \param value
1079:Generated_Source\PSoC6\pdl\drivers\peripheral\gpio/cy_gpio.h **** * Pin slew rate. Options are detailed in \ref group_gpio_slewRate macros
1080:Generated_Source\PSoC6\pdl\drivers\peripheral\gpio/cy_gpio.h **** *
1081:Generated_Source\PSoC6\pdl\drivers\peripheral\gpio/cy_gpio.h **** * \note 
1082:Generated_Source\PSoC6\pdl\drivers\peripheral\gpio/cy_gpio.h **** * This function modifies a port register in a read-modify-write operation. It is
1083:Generated_Source\PSoC6\pdl\drivers\peripheral\gpio/cy_gpio.h **** * not thread safe as the resource is shared among multiple pins on a port.
1084:Generated_Source\PSoC6\pdl\drivers\peripheral\gpio/cy_gpio.h **** *
1085:Generated_Source\PSoC6\pdl\drivers\peripheral\gpio/cy_gpio.h **** * \funcusage
1086:Generated_Source\PSoC6\pdl\drivers\peripheral\gpio/cy_gpio.h **** * \snippet gpio/gpio_v1_10_sut_01.cydsn/main_cm4.c snippet_Cy_GPIO_SetSlewRate
1087:Generated_Source\PSoC6\pdl\drivers\peripheral\gpio/cy_gpio.h **** *
ARM GAS  C:\Users\cmila\AppData\Local\Temp\ccUkpexV.s 			page 28


1088:Generated_Source\PSoC6\pdl\drivers\peripheral\gpio/cy_gpio.h **** *******************************************************************************/
1089:Generated_Source\PSoC6\pdl\drivers\peripheral\gpio/cy_gpio.h **** __STATIC_INLINE void Cy_GPIO_SetSlewRate(GPIO_PRT_Type* base, uint32_t pinNum, uint32_t value)
1090:Generated_Source\PSoC6\pdl\drivers\peripheral\gpio/cy_gpio.h **** {
1091:Generated_Source\PSoC6\pdl\drivers\peripheral\gpio/cy_gpio.h ****     uint32_t tempReg;
1092:Generated_Source\PSoC6\pdl\drivers\peripheral\gpio/cy_gpio.h **** 
1093:Generated_Source\PSoC6\pdl\drivers\peripheral\gpio/cy_gpio.h ****     CY_ASSERT_L2(CY_GPIO_IS_PIN_VALID(pinNum));
1094:Generated_Source\PSoC6\pdl\drivers\peripheral\gpio/cy_gpio.h ****     CY_ASSERT_L2(CY_GPIO_IS_VALUE_VALID(value));
1095:Generated_Source\PSoC6\pdl\drivers\peripheral\gpio/cy_gpio.h **** 
1096:Generated_Source\PSoC6\pdl\drivers\peripheral\gpio/cy_gpio.h ****     tempReg = GPIO_PRT_CFG_OUT(base) & ~(CY_GPIO_CFG_OUT_SLOW_MASK << pinNum);
1097:Generated_Source\PSoC6\pdl\drivers\peripheral\gpio/cy_gpio.h ****     GPIO_PRT_CFG_OUT(base) = tempReg | ((value & CY_GPIO_CFG_OUT_SLOW_MASK) << pinNum);
1098:Generated_Source\PSoC6\pdl\drivers\peripheral\gpio/cy_gpio.h **** }
1099:Generated_Source\PSoC6\pdl\drivers\peripheral\gpio/cy_gpio.h **** 
1100:Generated_Source\PSoC6\pdl\drivers\peripheral\gpio/cy_gpio.h **** 
1101:Generated_Source\PSoC6\pdl\drivers\peripheral\gpio/cy_gpio.h **** /*******************************************************************************
1102:Generated_Source\PSoC6\pdl\drivers\peripheral\gpio/cy_gpio.h **** * Function Name: Cy_GPIO_GetSlewRate
1103:Generated_Source\PSoC6\pdl\drivers\peripheral\gpio/cy_gpio.h **** ****************************************************************************//**
1104:Generated_Source\PSoC6\pdl\drivers\peripheral\gpio/cy_gpio.h **** *
1105:Generated_Source\PSoC6\pdl\drivers\peripheral\gpio/cy_gpio.h **** * Returns the pin output buffer slew rate.
1106:Generated_Source\PSoC6\pdl\drivers\peripheral\gpio/cy_gpio.h **** *
1107:Generated_Source\PSoC6\pdl\drivers\peripheral\gpio/cy_gpio.h **** * \param base
1108:Generated_Source\PSoC6\pdl\drivers\peripheral\gpio/cy_gpio.h **** * Pointer to the pin's port register base address
1109:Generated_Source\PSoC6\pdl\drivers\peripheral\gpio/cy_gpio.h **** *
1110:Generated_Source\PSoC6\pdl\drivers\peripheral\gpio/cy_gpio.h **** * \param pinNum
1111:Generated_Source\PSoC6\pdl\drivers\peripheral\gpio/cy_gpio.h **** * Position of the pin bit-field within the port register
1112:Generated_Source\PSoC6\pdl\drivers\peripheral\gpio/cy_gpio.h **** *
1113:Generated_Source\PSoC6\pdl\drivers\peripheral\gpio/cy_gpio.h **** * \return
1114:Generated_Source\PSoC6\pdl\drivers\peripheral\gpio/cy_gpio.h **** * Pin slew rate. Options are detailed in \ref group_gpio_slewRate macros
1115:Generated_Source\PSoC6\pdl\drivers\peripheral\gpio/cy_gpio.h **** *
1116:Generated_Source\PSoC6\pdl\drivers\peripheral\gpio/cy_gpio.h **** * \funcusage
1117:Generated_Source\PSoC6\pdl\drivers\peripheral\gpio/cy_gpio.h **** * \snippet gpio/gpio_v1_10_sut_01.cydsn/main_cm4.c snippet_Cy_GPIO_SetSlewRate
1118:Generated_Source\PSoC6\pdl\drivers\peripheral\gpio/cy_gpio.h **** *
1119:Generated_Source\PSoC6\pdl\drivers\peripheral\gpio/cy_gpio.h **** *******************************************************************************/
1120:Generated_Source\PSoC6\pdl\drivers\peripheral\gpio/cy_gpio.h **** __STATIC_INLINE uint32_t Cy_GPIO_GetSlewRate(GPIO_PRT_Type* base, uint32_t pinNum)
1121:Generated_Source\PSoC6\pdl\drivers\peripheral\gpio/cy_gpio.h **** {
1122:Generated_Source\PSoC6\pdl\drivers\peripheral\gpio/cy_gpio.h ****     CY_ASSERT_L2(CY_GPIO_IS_PIN_VALID(pinNum));
1123:Generated_Source\PSoC6\pdl\drivers\peripheral\gpio/cy_gpio.h **** 
1124:Generated_Source\PSoC6\pdl\drivers\peripheral\gpio/cy_gpio.h ****     return (GPIO_PRT_CFG_OUT(base) >> pinNum) & CY_GPIO_CFG_OUT_SLOW_MASK;
1125:Generated_Source\PSoC6\pdl\drivers\peripheral\gpio/cy_gpio.h **** }
1126:Generated_Source\PSoC6\pdl\drivers\peripheral\gpio/cy_gpio.h **** 
1127:Generated_Source\PSoC6\pdl\drivers\peripheral\gpio/cy_gpio.h **** 
1128:Generated_Source\PSoC6\pdl\drivers\peripheral\gpio/cy_gpio.h **** /*******************************************************************************
1129:Generated_Source\PSoC6\pdl\drivers\peripheral\gpio/cy_gpio.h **** * Function Name: Cy_GPIO_SetDriveSel
1130:Generated_Source\PSoC6\pdl\drivers\peripheral\gpio/cy_gpio.h **** ****************************************************************************//**
1131:Generated_Source\PSoC6\pdl\drivers\peripheral\gpio/cy_gpio.h **** *
1132:Generated_Source\PSoC6\pdl\drivers\peripheral\gpio/cy_gpio.h **** * Configures the pin output buffer drive strength.
1133:Generated_Source\PSoC6\pdl\drivers\peripheral\gpio/cy_gpio.h **** *
1134:Generated_Source\PSoC6\pdl\drivers\peripheral\gpio/cy_gpio.h **** * \param base
1135:Generated_Source\PSoC6\pdl\drivers\peripheral\gpio/cy_gpio.h **** * Pointer to the pin's port register base address
1136:Generated_Source\PSoC6\pdl\drivers\peripheral\gpio/cy_gpio.h **** *
1137:Generated_Source\PSoC6\pdl\drivers\peripheral\gpio/cy_gpio.h **** * \param pinNum
1138:Generated_Source\PSoC6\pdl\drivers\peripheral\gpio/cy_gpio.h **** * Position of the pin bit-field within the port register
1139:Generated_Source\PSoC6\pdl\drivers\peripheral\gpio/cy_gpio.h **** *
1140:Generated_Source\PSoC6\pdl\drivers\peripheral\gpio/cy_gpio.h **** * \param value
1141:Generated_Source\PSoC6\pdl\drivers\peripheral\gpio/cy_gpio.h **** * Pin drive strength. Options are detailed in \ref group_gpio_driveStrength macros
1142:Generated_Source\PSoC6\pdl\drivers\peripheral\gpio/cy_gpio.h **** *
1143:Generated_Source\PSoC6\pdl\drivers\peripheral\gpio/cy_gpio.h **** * \note 
1144:Generated_Source\PSoC6\pdl\drivers\peripheral\gpio/cy_gpio.h **** * This function modifies a port register in a read-modify-write operation. It is
ARM GAS  C:\Users\cmila\AppData\Local\Temp\ccUkpexV.s 			page 29


1145:Generated_Source\PSoC6\pdl\drivers\peripheral\gpio/cy_gpio.h **** * not thread safe as the resource is shared among multiple pins on a port.
1146:Generated_Source\PSoC6\pdl\drivers\peripheral\gpio/cy_gpio.h **** *
1147:Generated_Source\PSoC6\pdl\drivers\peripheral\gpio/cy_gpio.h **** * \funcusage
1148:Generated_Source\PSoC6\pdl\drivers\peripheral\gpio/cy_gpio.h **** * \snippet gpio/gpio_v1_10_sut_01.cydsn/main_cm4.c snippet_Cy_GPIO_SetDriveSel
1149:Generated_Source\PSoC6\pdl\drivers\peripheral\gpio/cy_gpio.h **** *
1150:Generated_Source\PSoC6\pdl\drivers\peripheral\gpio/cy_gpio.h **** *******************************************************************************/
1151:Generated_Source\PSoC6\pdl\drivers\peripheral\gpio/cy_gpio.h **** __STATIC_INLINE void Cy_GPIO_SetDriveSel(GPIO_PRT_Type* base, uint32_t pinNum, uint32_t value)
1152:Generated_Source\PSoC6\pdl\drivers\peripheral\gpio/cy_gpio.h **** {
1153:Generated_Source\PSoC6\pdl\drivers\peripheral\gpio/cy_gpio.h ****     uint32_t tempReg;
1154:Generated_Source\PSoC6\pdl\drivers\peripheral\gpio/cy_gpio.h ****     uint32_t pinLoc;
1155:Generated_Source\PSoC6\pdl\drivers\peripheral\gpio/cy_gpio.h **** 
1156:Generated_Source\PSoC6\pdl\drivers\peripheral\gpio/cy_gpio.h ****     CY_ASSERT_L2(CY_GPIO_IS_PIN_VALID(pinNum));
1157:Generated_Source\PSoC6\pdl\drivers\peripheral\gpio/cy_gpio.h ****     CY_ASSERT_L2(CY_GPIO_IS_DRIVE_SEL_VALID(value));
1158:Generated_Source\PSoC6\pdl\drivers\peripheral\gpio/cy_gpio.h ****     
1159:Generated_Source\PSoC6\pdl\drivers\peripheral\gpio/cy_gpio.h ****     pinLoc = (uint32_t)(pinNum << 1u) + CY_GPIO_CFG_OUT_DRIVE_OFFSET;
1160:Generated_Source\PSoC6\pdl\drivers\peripheral\gpio/cy_gpio.h ****     tempReg = GPIO_PRT_CFG_OUT(base) & ~(CY_GPIO_CFG_OUT_DRIVE_SEL_MASK << pinLoc);
1161:Generated_Source\PSoC6\pdl\drivers\peripheral\gpio/cy_gpio.h ****     GPIO_PRT_CFG_OUT(base) = tempReg | ((value & CY_GPIO_CFG_OUT_DRIVE_SEL_MASK) << pinLoc);
1162:Generated_Source\PSoC6\pdl\drivers\peripheral\gpio/cy_gpio.h **** }
1163:Generated_Source\PSoC6\pdl\drivers\peripheral\gpio/cy_gpio.h **** 
1164:Generated_Source\PSoC6\pdl\drivers\peripheral\gpio/cy_gpio.h **** 
1165:Generated_Source\PSoC6\pdl\drivers\peripheral\gpio/cy_gpio.h **** /*******************************************************************************
1166:Generated_Source\PSoC6\pdl\drivers\peripheral\gpio/cy_gpio.h **** * Function Name: Cy_GPIO_GetDriveSel
1167:Generated_Source\PSoC6\pdl\drivers\peripheral\gpio/cy_gpio.h **** ****************************************************************************//**
1168:Generated_Source\PSoC6\pdl\drivers\peripheral\gpio/cy_gpio.h **** *
1169:Generated_Source\PSoC6\pdl\drivers\peripheral\gpio/cy_gpio.h **** * Returns the pin output buffer drive strength.
1170:Generated_Source\PSoC6\pdl\drivers\peripheral\gpio/cy_gpio.h **** *
1171:Generated_Source\PSoC6\pdl\drivers\peripheral\gpio/cy_gpio.h **** * \param base
1172:Generated_Source\PSoC6\pdl\drivers\peripheral\gpio/cy_gpio.h **** * Pointer to the pin's port register base address
1173:Generated_Source\PSoC6\pdl\drivers\peripheral\gpio/cy_gpio.h **** *
1174:Generated_Source\PSoC6\pdl\drivers\peripheral\gpio/cy_gpio.h **** * \param pinNum
1175:Generated_Source\PSoC6\pdl\drivers\peripheral\gpio/cy_gpio.h **** * Position of the pin bit-field within the port register
1176:Generated_Source\PSoC6\pdl\drivers\peripheral\gpio/cy_gpio.h **** *
1177:Generated_Source\PSoC6\pdl\drivers\peripheral\gpio/cy_gpio.h **** * \return
1178:Generated_Source\PSoC6\pdl\drivers\peripheral\gpio/cy_gpio.h **** * Pin drive strength. Options are detailed in \ref group_gpio_driveStrength macros
1179:Generated_Source\PSoC6\pdl\drivers\peripheral\gpio/cy_gpio.h **** *
1180:Generated_Source\PSoC6\pdl\drivers\peripheral\gpio/cy_gpio.h **** * \funcusage
1181:Generated_Source\PSoC6\pdl\drivers\peripheral\gpio/cy_gpio.h **** * \snippet gpio/gpio_v1_10_sut_01.cydsn/main_cm4.c snippet_Cy_GPIO_SetDriveSel
1182:Generated_Source\PSoC6\pdl\drivers\peripheral\gpio/cy_gpio.h **** *
1183:Generated_Source\PSoC6\pdl\drivers\peripheral\gpio/cy_gpio.h **** *******************************************************************************/
1184:Generated_Source\PSoC6\pdl\drivers\peripheral\gpio/cy_gpio.h **** __STATIC_INLINE uint32_t Cy_GPIO_GetDriveSel(GPIO_PRT_Type* base, uint32_t pinNum)
1185:Generated_Source\PSoC6\pdl\drivers\peripheral\gpio/cy_gpio.h **** {
1186:Generated_Source\PSoC6\pdl\drivers\peripheral\gpio/cy_gpio.h ****     CY_ASSERT_L2(CY_GPIO_IS_PIN_VALID(pinNum));
1187:Generated_Source\PSoC6\pdl\drivers\peripheral\gpio/cy_gpio.h **** 
1188:Generated_Source\PSoC6\pdl\drivers\peripheral\gpio/cy_gpio.h ****     return ((GPIO_PRT_CFG_OUT(base) >> ((uint32_t)(pinNum << 1u) + CY_GPIO_CFG_OUT_DRIVE_OFFSET)) 
1189:Generated_Source\PSoC6\pdl\drivers\peripheral\gpio/cy_gpio.h ****             & CY_GPIO_CFG_OUT_DRIVE_SEL_MASK);
1190:Generated_Source\PSoC6\pdl\drivers\peripheral\gpio/cy_gpio.h **** }
1191:Generated_Source\PSoC6\pdl\drivers\peripheral\gpio/cy_gpio.h **** 
1192:Generated_Source\PSoC6\pdl\drivers\peripheral\gpio/cy_gpio.h **** /** \} group_gpio_functions_gpio */
1193:Generated_Source\PSoC6\pdl\drivers\peripheral\gpio/cy_gpio.h **** 
1194:Generated_Source\PSoC6\pdl\drivers\peripheral\gpio/cy_gpio.h **** /**
1195:Generated_Source\PSoC6\pdl\drivers\peripheral\gpio/cy_gpio.h **** * \addtogroup group_gpio_functions_sio
1196:Generated_Source\PSoC6\pdl\drivers\peripheral\gpio/cy_gpio.h **** * \{
1197:Generated_Source\PSoC6\pdl\drivers\peripheral\gpio/cy_gpio.h **** */
1198:Generated_Source\PSoC6\pdl\drivers\peripheral\gpio/cy_gpio.h **** 
1199:Generated_Source\PSoC6\pdl\drivers\peripheral\gpio/cy_gpio.h **** /*******************************************************************************
1200:Generated_Source\PSoC6\pdl\drivers\peripheral\gpio/cy_gpio.h **** * Function Name: Cy_GPIO_SetVregEn
1201:Generated_Source\PSoC6\pdl\drivers\peripheral\gpio/cy_gpio.h **** ****************************************************************************//**
ARM GAS  C:\Users\cmila\AppData\Local\Temp\ccUkpexV.s 			page 30


1202:Generated_Source\PSoC6\pdl\drivers\peripheral\gpio/cy_gpio.h **** *
1203:Generated_Source\PSoC6\pdl\drivers\peripheral\gpio/cy_gpio.h **** * Configures the SIO pin pair output buffer regulation mode.
1204:Generated_Source\PSoC6\pdl\drivers\peripheral\gpio/cy_gpio.h **** *
1205:Generated_Source\PSoC6\pdl\drivers\peripheral\gpio/cy_gpio.h **** * Note that this function has no effect on non-SIO pins.
1206:Generated_Source\PSoC6\pdl\drivers\peripheral\gpio/cy_gpio.h **** *
1207:Generated_Source\PSoC6\pdl\drivers\peripheral\gpio/cy_gpio.h **** * \param base
1208:Generated_Source\PSoC6\pdl\drivers\peripheral\gpio/cy_gpio.h **** * Pointer to the pin's port register base address
1209:Generated_Source\PSoC6\pdl\drivers\peripheral\gpio/cy_gpio.h **** *
1210:Generated_Source\PSoC6\pdl\drivers\peripheral\gpio/cy_gpio.h **** * \param pinNum
1211:Generated_Source\PSoC6\pdl\drivers\peripheral\gpio/cy_gpio.h **** * Position of the pin bit-field within the port register
1212:Generated_Source\PSoC6\pdl\drivers\peripheral\gpio/cy_gpio.h **** *
1213:Generated_Source\PSoC6\pdl\drivers\peripheral\gpio/cy_gpio.h **** * \param value
1214:Generated_Source\PSoC6\pdl\drivers\peripheral\gpio/cy_gpio.h **** * SIO pair output buffer regulator mode. Options are detailed in \ref group_gpio_sioVreg macros
1215:Generated_Source\PSoC6\pdl\drivers\peripheral\gpio/cy_gpio.h **** *
1216:Generated_Source\PSoC6\pdl\drivers\peripheral\gpio/cy_gpio.h **** * \note 
1217:Generated_Source\PSoC6\pdl\drivers\peripheral\gpio/cy_gpio.h **** * This function modifies a port register in a read-modify-write operation. It is
1218:Generated_Source\PSoC6\pdl\drivers\peripheral\gpio/cy_gpio.h **** * not thread safe as the resource is shared among multiple pins on a port.
1219:Generated_Source\PSoC6\pdl\drivers\peripheral\gpio/cy_gpio.h **** *
1220:Generated_Source\PSoC6\pdl\drivers\peripheral\gpio/cy_gpio.h **** * \funcusage
1221:Generated_Source\PSoC6\pdl\drivers\peripheral\gpio/cy_gpio.h **** * \snippet gpio/gpio_v1_10_sut_01.cydsn/main_cm4.c snippet_Cy_GPIO_SetVregEn
1222:Generated_Source\PSoC6\pdl\drivers\peripheral\gpio/cy_gpio.h **** *
1223:Generated_Source\PSoC6\pdl\drivers\peripheral\gpio/cy_gpio.h **** *******************************************************************************/
1224:Generated_Source\PSoC6\pdl\drivers\peripheral\gpio/cy_gpio.h **** __STATIC_INLINE void Cy_GPIO_SetVregEn(GPIO_PRT_Type* base, uint32_t pinNum, uint32_t value)
1225:Generated_Source\PSoC6\pdl\drivers\peripheral\gpio/cy_gpio.h **** {
1226:Generated_Source\PSoC6\pdl\drivers\peripheral\gpio/cy_gpio.h ****     uint32_t tempReg;
1227:Generated_Source\PSoC6\pdl\drivers\peripheral\gpio/cy_gpio.h ****     uint32_t pinLoc;
1228:Generated_Source\PSoC6\pdl\drivers\peripheral\gpio/cy_gpio.h **** 
1229:Generated_Source\PSoC6\pdl\drivers\peripheral\gpio/cy_gpio.h ****     CY_ASSERT_L2(CY_GPIO_IS_PIN_VALID(pinNum));
1230:Generated_Source\PSoC6\pdl\drivers\peripheral\gpio/cy_gpio.h ****     CY_ASSERT_L2(CY_GPIO_IS_VALUE_VALID(value));
1231:Generated_Source\PSoC6\pdl\drivers\peripheral\gpio/cy_gpio.h **** 
1232:Generated_Source\PSoC6\pdl\drivers\peripheral\gpio/cy_gpio.h ****     pinLoc = (pinNum & CY_GPIO_SIO_ODD_PIN_MASK) << CY_GPIO_CFG_SIO_OFFSET;
1233:Generated_Source\PSoC6\pdl\drivers\peripheral\gpio/cy_gpio.h ****     tempReg = GPIO_PRT_CFG_SIO(base) & ~(CY_GPIO_VREG_EN_MASK << pinLoc);
1234:Generated_Source\PSoC6\pdl\drivers\peripheral\gpio/cy_gpio.h ****     GPIO_PRT_CFG_SIO(base) = tempReg | ((value & CY_GPIO_VREG_EN_MASK) << pinLoc);
1235:Generated_Source\PSoC6\pdl\drivers\peripheral\gpio/cy_gpio.h **** }
1236:Generated_Source\PSoC6\pdl\drivers\peripheral\gpio/cy_gpio.h **** 
1237:Generated_Source\PSoC6\pdl\drivers\peripheral\gpio/cy_gpio.h **** 
1238:Generated_Source\PSoC6\pdl\drivers\peripheral\gpio/cy_gpio.h **** /*******************************************************************************
1239:Generated_Source\PSoC6\pdl\drivers\peripheral\gpio/cy_gpio.h **** * Function Name: Cy_GPIO_GetVregEn
1240:Generated_Source\PSoC6\pdl\drivers\peripheral\gpio/cy_gpio.h **** ****************************************************************************//**
1241:Generated_Source\PSoC6\pdl\drivers\peripheral\gpio/cy_gpio.h **** *
1242:Generated_Source\PSoC6\pdl\drivers\peripheral\gpio/cy_gpio.h **** * Returns the SIO pin pair output buffer regulation mode.
1243:Generated_Source\PSoC6\pdl\drivers\peripheral\gpio/cy_gpio.h **** *
1244:Generated_Source\PSoC6\pdl\drivers\peripheral\gpio/cy_gpio.h **** * Note that this function has no effect on non-SIO pins.
1245:Generated_Source\PSoC6\pdl\drivers\peripheral\gpio/cy_gpio.h **** *
1246:Generated_Source\PSoC6\pdl\drivers\peripheral\gpio/cy_gpio.h **** * \param base
1247:Generated_Source\PSoC6\pdl\drivers\peripheral\gpio/cy_gpio.h **** * Pointer to the pin's port register base address
1248:Generated_Source\PSoC6\pdl\drivers\peripheral\gpio/cy_gpio.h **** *
1249:Generated_Source\PSoC6\pdl\drivers\peripheral\gpio/cy_gpio.h **** * \param pinNum
1250:Generated_Source\PSoC6\pdl\drivers\peripheral\gpio/cy_gpio.h **** * Position of the pin bit-field within the port register
1251:Generated_Source\PSoC6\pdl\drivers\peripheral\gpio/cy_gpio.h **** *
1252:Generated_Source\PSoC6\pdl\drivers\peripheral\gpio/cy_gpio.h **** * \return
1253:Generated_Source\PSoC6\pdl\drivers\peripheral\gpio/cy_gpio.h **** * SIO pair output buffer regulator mode. Options are detailed in \ref group_gpio_sioVreg macros
1254:Generated_Source\PSoC6\pdl\drivers\peripheral\gpio/cy_gpio.h **** *
1255:Generated_Source\PSoC6\pdl\drivers\peripheral\gpio/cy_gpio.h **** * \funcusage
1256:Generated_Source\PSoC6\pdl\drivers\peripheral\gpio/cy_gpio.h **** * \snippet gpio/gpio_v1_10_sut_01.cydsn/main_cm4.c snippet_Cy_GPIO_SetVregEn
1257:Generated_Source\PSoC6\pdl\drivers\peripheral\gpio/cy_gpio.h **** *
1258:Generated_Source\PSoC6\pdl\drivers\peripheral\gpio/cy_gpio.h **** *******************************************************************************/
ARM GAS  C:\Users\cmila\AppData\Local\Temp\ccUkpexV.s 			page 31


1259:Generated_Source\PSoC6\pdl\drivers\peripheral\gpio/cy_gpio.h **** __STATIC_INLINE uint32_t Cy_GPIO_GetVregEn(GPIO_PRT_Type* base, uint32_t pinNum)
1260:Generated_Source\PSoC6\pdl\drivers\peripheral\gpio/cy_gpio.h **** {
1261:Generated_Source\PSoC6\pdl\drivers\peripheral\gpio/cy_gpio.h ****     CY_ASSERT_L2(CY_GPIO_IS_PIN_VALID(pinNum));
1262:Generated_Source\PSoC6\pdl\drivers\peripheral\gpio/cy_gpio.h ****     
1263:Generated_Source\PSoC6\pdl\drivers\peripheral\gpio/cy_gpio.h ****     return (GPIO_PRT_CFG_SIO(base) >> ((pinNum & CY_GPIO_SIO_ODD_PIN_MASK) << CY_GPIO_CFG_SIO_OFFSE
1264:Generated_Source\PSoC6\pdl\drivers\peripheral\gpio/cy_gpio.h **** }
1265:Generated_Source\PSoC6\pdl\drivers\peripheral\gpio/cy_gpio.h **** 
1266:Generated_Source\PSoC6\pdl\drivers\peripheral\gpio/cy_gpio.h **** 
1267:Generated_Source\PSoC6\pdl\drivers\peripheral\gpio/cy_gpio.h **** /*******************************************************************************
1268:Generated_Source\PSoC6\pdl\drivers\peripheral\gpio/cy_gpio.h **** * Function Name: Cy_GPIO_SetIbufMode
1269:Generated_Source\PSoC6\pdl\drivers\peripheral\gpio/cy_gpio.h **** ****************************************************************************//**
1270:Generated_Source\PSoC6\pdl\drivers\peripheral\gpio/cy_gpio.h **** *
1271:Generated_Source\PSoC6\pdl\drivers\peripheral\gpio/cy_gpio.h **** * Configures the SIO pin pair input buffer mode.
1272:Generated_Source\PSoC6\pdl\drivers\peripheral\gpio/cy_gpio.h **** *
1273:Generated_Source\PSoC6\pdl\drivers\peripheral\gpio/cy_gpio.h **** * Note that this function has no effect on non-SIO pins.
1274:Generated_Source\PSoC6\pdl\drivers\peripheral\gpio/cy_gpio.h **** *
1275:Generated_Source\PSoC6\pdl\drivers\peripheral\gpio/cy_gpio.h **** * \param base
1276:Generated_Source\PSoC6\pdl\drivers\peripheral\gpio/cy_gpio.h **** * Pointer to the pin's port register base address
1277:Generated_Source\PSoC6\pdl\drivers\peripheral\gpio/cy_gpio.h **** *
1278:Generated_Source\PSoC6\pdl\drivers\peripheral\gpio/cy_gpio.h **** * \param pinNum
1279:Generated_Source\PSoC6\pdl\drivers\peripheral\gpio/cy_gpio.h **** * Position of the pin bit-field within the port register
1280:Generated_Source\PSoC6\pdl\drivers\peripheral\gpio/cy_gpio.h **** *
1281:Generated_Source\PSoC6\pdl\drivers\peripheral\gpio/cy_gpio.h **** * \param value
1282:Generated_Source\PSoC6\pdl\drivers\peripheral\gpio/cy_gpio.h **** * SIO pair input buffer mode. Options are detailed in \ref group_gpio_sioIbuf macros
1283:Generated_Source\PSoC6\pdl\drivers\peripheral\gpio/cy_gpio.h **** *
1284:Generated_Source\PSoC6\pdl\drivers\peripheral\gpio/cy_gpio.h **** * \note 
1285:Generated_Source\PSoC6\pdl\drivers\peripheral\gpio/cy_gpio.h **** * This function modifies a port register in a read-modify-write operation. It is
1286:Generated_Source\PSoC6\pdl\drivers\peripheral\gpio/cy_gpio.h **** * not thread safe as the resource is shared among multiple pins on a port.
1287:Generated_Source\PSoC6\pdl\drivers\peripheral\gpio/cy_gpio.h **** *
1288:Generated_Source\PSoC6\pdl\drivers\peripheral\gpio/cy_gpio.h **** * \funcusage
1289:Generated_Source\PSoC6\pdl\drivers\peripheral\gpio/cy_gpio.h **** * \snippet gpio/gpio_v1_10_sut_01.cydsn/main_cm4.c snippet_Cy_GPIO_SetIbufMode
1290:Generated_Source\PSoC6\pdl\drivers\peripheral\gpio/cy_gpio.h **** *
1291:Generated_Source\PSoC6\pdl\drivers\peripheral\gpio/cy_gpio.h **** *******************************************************************************/
1292:Generated_Source\PSoC6\pdl\drivers\peripheral\gpio/cy_gpio.h **** __STATIC_INLINE void Cy_GPIO_SetIbufMode(GPIO_PRT_Type* base, uint32_t pinNum, uint32_t value)
1293:Generated_Source\PSoC6\pdl\drivers\peripheral\gpio/cy_gpio.h **** {
1294:Generated_Source\PSoC6\pdl\drivers\peripheral\gpio/cy_gpio.h ****     uint32_t tempReg;
1295:Generated_Source\PSoC6\pdl\drivers\peripheral\gpio/cy_gpio.h ****     uint32_t pinLoc;
1296:Generated_Source\PSoC6\pdl\drivers\peripheral\gpio/cy_gpio.h **** 
1297:Generated_Source\PSoC6\pdl\drivers\peripheral\gpio/cy_gpio.h ****     CY_ASSERT_L2(CY_GPIO_IS_PIN_VALID(pinNum));
1298:Generated_Source\PSoC6\pdl\drivers\peripheral\gpio/cy_gpio.h ****     CY_ASSERT_L2(CY_GPIO_IS_VALUE_VALID(value));
1299:Generated_Source\PSoC6\pdl\drivers\peripheral\gpio/cy_gpio.h **** 
1300:Generated_Source\PSoC6\pdl\drivers\peripheral\gpio/cy_gpio.h ****     pinLoc = ((pinNum & CY_GPIO_SIO_ODD_PIN_MASK) << CY_GPIO_CFG_SIO_OFFSET) + CY_GPIO_IBUF_SHIFT;
1301:Generated_Source\PSoC6\pdl\drivers\peripheral\gpio/cy_gpio.h ****     tempReg = (GPIO_PRT_CFG_SIO(base) & ~(CY_GPIO_IBUF_MASK << pinLoc));
1302:Generated_Source\PSoC6\pdl\drivers\peripheral\gpio/cy_gpio.h ****     GPIO_PRT_CFG_SIO(base) = tempReg | ((value & CY_GPIO_IBUF_MASK) << pinLoc);
1303:Generated_Source\PSoC6\pdl\drivers\peripheral\gpio/cy_gpio.h **** }
1304:Generated_Source\PSoC6\pdl\drivers\peripheral\gpio/cy_gpio.h **** 
1305:Generated_Source\PSoC6\pdl\drivers\peripheral\gpio/cy_gpio.h **** 
1306:Generated_Source\PSoC6\pdl\drivers\peripheral\gpio/cy_gpio.h **** /*******************************************************************************
1307:Generated_Source\PSoC6\pdl\drivers\peripheral\gpio/cy_gpio.h **** * Function Name: Cy_GPIO_GetIbufMode
1308:Generated_Source\PSoC6\pdl\drivers\peripheral\gpio/cy_gpio.h **** ****************************************************************************//**
1309:Generated_Source\PSoC6\pdl\drivers\peripheral\gpio/cy_gpio.h **** *
1310:Generated_Source\PSoC6\pdl\drivers\peripheral\gpio/cy_gpio.h **** * Returns the SIO pin pair input buffer mode.
1311:Generated_Source\PSoC6\pdl\drivers\peripheral\gpio/cy_gpio.h **** *
1312:Generated_Source\PSoC6\pdl\drivers\peripheral\gpio/cy_gpio.h **** * Note that this function has no effect on non-SIO pins.
1313:Generated_Source\PSoC6\pdl\drivers\peripheral\gpio/cy_gpio.h **** *
1314:Generated_Source\PSoC6\pdl\drivers\peripheral\gpio/cy_gpio.h **** * \param base
1315:Generated_Source\PSoC6\pdl\drivers\peripheral\gpio/cy_gpio.h **** * Pointer to the pin's port register base address
ARM GAS  C:\Users\cmila\AppData\Local\Temp\ccUkpexV.s 			page 32


1316:Generated_Source\PSoC6\pdl\drivers\peripheral\gpio/cy_gpio.h **** *
1317:Generated_Source\PSoC6\pdl\drivers\peripheral\gpio/cy_gpio.h **** * \param pinNum
1318:Generated_Source\PSoC6\pdl\drivers\peripheral\gpio/cy_gpio.h **** * Position of the pin bit-field within the port register
1319:Generated_Source\PSoC6\pdl\drivers\peripheral\gpio/cy_gpio.h **** *
1320:Generated_Source\PSoC6\pdl\drivers\peripheral\gpio/cy_gpio.h **** * \return
1321:Generated_Source\PSoC6\pdl\drivers\peripheral\gpio/cy_gpio.h **** * SIO pair input buffer mode. Options are detailed in \ref group_gpio_sioIbuf macros
1322:Generated_Source\PSoC6\pdl\drivers\peripheral\gpio/cy_gpio.h **** *
1323:Generated_Source\PSoC6\pdl\drivers\peripheral\gpio/cy_gpio.h **** * \funcusage
1324:Generated_Source\PSoC6\pdl\drivers\peripheral\gpio/cy_gpio.h **** * \snippet gpio/gpio_v1_10_sut_01.cydsn/main_cm4.c snippet_Cy_GPIO_SetIbufMode
1325:Generated_Source\PSoC6\pdl\drivers\peripheral\gpio/cy_gpio.h **** *
1326:Generated_Source\PSoC6\pdl\drivers\peripheral\gpio/cy_gpio.h **** *******************************************************************************/
1327:Generated_Source\PSoC6\pdl\drivers\peripheral\gpio/cy_gpio.h **** __STATIC_INLINE uint32_t Cy_GPIO_GetIbufMode(GPIO_PRT_Type* base, uint32_t pinNum)
1328:Generated_Source\PSoC6\pdl\drivers\peripheral\gpio/cy_gpio.h **** {
1329:Generated_Source\PSoC6\pdl\drivers\peripheral\gpio/cy_gpio.h ****     CY_ASSERT_L2(CY_GPIO_IS_PIN_VALID(pinNum));
1330:Generated_Source\PSoC6\pdl\drivers\peripheral\gpio/cy_gpio.h ****     
1331:Generated_Source\PSoC6\pdl\drivers\peripheral\gpio/cy_gpio.h ****     return (GPIO_PRT_CFG_SIO(base) >> (((pinNum & CY_GPIO_SIO_ODD_PIN_MASK) << CY_GPIO_CFG_SIO_OFFS
1332:Generated_Source\PSoC6\pdl\drivers\peripheral\gpio/cy_gpio.h **** }
1333:Generated_Source\PSoC6\pdl\drivers\peripheral\gpio/cy_gpio.h **** 
1334:Generated_Source\PSoC6\pdl\drivers\peripheral\gpio/cy_gpio.h **** 
1335:Generated_Source\PSoC6\pdl\drivers\peripheral\gpio/cy_gpio.h **** /*******************************************************************************
1336:Generated_Source\PSoC6\pdl\drivers\peripheral\gpio/cy_gpio.h **** * Function Name: Cy_GPIO_SetVtripSel
1337:Generated_Source\PSoC6\pdl\drivers\peripheral\gpio/cy_gpio.h **** ****************************************************************************//**
1338:Generated_Source\PSoC6\pdl\drivers\peripheral\gpio/cy_gpio.h **** *
1339:Generated_Source\PSoC6\pdl\drivers\peripheral\gpio/cy_gpio.h **** * Configures the SIO pin pair input buffer trip point.
1340:Generated_Source\PSoC6\pdl\drivers\peripheral\gpio/cy_gpio.h **** *
1341:Generated_Source\PSoC6\pdl\drivers\peripheral\gpio/cy_gpio.h **** * Note that this function has no effect on non-SIO pins.
1342:Generated_Source\PSoC6\pdl\drivers\peripheral\gpio/cy_gpio.h **** *
1343:Generated_Source\PSoC6\pdl\drivers\peripheral\gpio/cy_gpio.h **** * \param base
1344:Generated_Source\PSoC6\pdl\drivers\peripheral\gpio/cy_gpio.h **** * Pointer to the pin's port register base address
1345:Generated_Source\PSoC6\pdl\drivers\peripheral\gpio/cy_gpio.h **** *
1346:Generated_Source\PSoC6\pdl\drivers\peripheral\gpio/cy_gpio.h **** * \param pinNum
1347:Generated_Source\PSoC6\pdl\drivers\peripheral\gpio/cy_gpio.h **** * Position of the pin bit-field within the port register
1348:Generated_Source\PSoC6\pdl\drivers\peripheral\gpio/cy_gpio.h **** *
1349:Generated_Source\PSoC6\pdl\drivers\peripheral\gpio/cy_gpio.h **** * \param value
1350:Generated_Source\PSoC6\pdl\drivers\peripheral\gpio/cy_gpio.h **** * SIO pair input buffer trip point. Options are detailed in \ref group_gpio_sioVtrip macros
1351:Generated_Source\PSoC6\pdl\drivers\peripheral\gpio/cy_gpio.h **** *
1352:Generated_Source\PSoC6\pdl\drivers\peripheral\gpio/cy_gpio.h **** * \note 
1353:Generated_Source\PSoC6\pdl\drivers\peripheral\gpio/cy_gpio.h **** * This function modifies a port register in a read-modify-write operation. It is
1354:Generated_Source\PSoC6\pdl\drivers\peripheral\gpio/cy_gpio.h **** * not thread safe as the resource is shared among multiple pins on a port.
1355:Generated_Source\PSoC6\pdl\drivers\peripheral\gpio/cy_gpio.h **** *
1356:Generated_Source\PSoC6\pdl\drivers\peripheral\gpio/cy_gpio.h **** * \funcusage
1357:Generated_Source\PSoC6\pdl\drivers\peripheral\gpio/cy_gpio.h **** * \snippet gpio/gpio_v1_10_sut_01.cydsn/main_cm4.c snippet_Cy_GPIO_SetVtripSel
1358:Generated_Source\PSoC6\pdl\drivers\peripheral\gpio/cy_gpio.h **** *
1359:Generated_Source\PSoC6\pdl\drivers\peripheral\gpio/cy_gpio.h **** *******************************************************************************/
1360:Generated_Source\PSoC6\pdl\drivers\peripheral\gpio/cy_gpio.h **** __STATIC_INLINE void Cy_GPIO_SetVtripSel(GPIO_PRT_Type* base, uint32_t pinNum, uint32_t value)
1361:Generated_Source\PSoC6\pdl\drivers\peripheral\gpio/cy_gpio.h **** {
1362:Generated_Source\PSoC6\pdl\drivers\peripheral\gpio/cy_gpio.h ****     uint32_t tempReg;
1363:Generated_Source\PSoC6\pdl\drivers\peripheral\gpio/cy_gpio.h ****     uint32_t pinLoc;
1364:Generated_Source\PSoC6\pdl\drivers\peripheral\gpio/cy_gpio.h **** 
1365:Generated_Source\PSoC6\pdl\drivers\peripheral\gpio/cy_gpio.h ****     CY_ASSERT_L2(CY_GPIO_IS_PIN_VALID(pinNum));
1366:Generated_Source\PSoC6\pdl\drivers\peripheral\gpio/cy_gpio.h ****     CY_ASSERT_L2(CY_GPIO_IS_VALUE_VALID(value));
1367:Generated_Source\PSoC6\pdl\drivers\peripheral\gpio/cy_gpio.h **** 
1368:Generated_Source\PSoC6\pdl\drivers\peripheral\gpio/cy_gpio.h ****     pinLoc = ((pinNum & CY_GPIO_SIO_ODD_PIN_MASK) << CY_GPIO_CFG_SIO_OFFSET) + CY_GPIO_VTRIP_SEL_SH
1369:Generated_Source\PSoC6\pdl\drivers\peripheral\gpio/cy_gpio.h ****     tempReg = (GPIO_PRT_CFG_SIO(base) & ~(CY_GPIO_VTRIP_SEL_MASK << pinLoc));
1370:Generated_Source\PSoC6\pdl\drivers\peripheral\gpio/cy_gpio.h ****     GPIO_PRT_CFG_SIO(base) = tempReg | ((value & CY_GPIO_VTRIP_SEL_MASK) << pinLoc);
1371:Generated_Source\PSoC6\pdl\drivers\peripheral\gpio/cy_gpio.h **** }
1372:Generated_Source\PSoC6\pdl\drivers\peripheral\gpio/cy_gpio.h **** 
ARM GAS  C:\Users\cmila\AppData\Local\Temp\ccUkpexV.s 			page 33


1373:Generated_Source\PSoC6\pdl\drivers\peripheral\gpio/cy_gpio.h **** 
1374:Generated_Source\PSoC6\pdl\drivers\peripheral\gpio/cy_gpio.h **** /*******************************************************************************
1375:Generated_Source\PSoC6\pdl\drivers\peripheral\gpio/cy_gpio.h **** * Function Name: Cy_GPIO_GetVtripSel
1376:Generated_Source\PSoC6\pdl\drivers\peripheral\gpio/cy_gpio.h **** ****************************************************************************//**
1377:Generated_Source\PSoC6\pdl\drivers\peripheral\gpio/cy_gpio.h **** *
1378:Generated_Source\PSoC6\pdl\drivers\peripheral\gpio/cy_gpio.h **** * Returns the SIO pin pair input buffer trip point.
1379:Generated_Source\PSoC6\pdl\drivers\peripheral\gpio/cy_gpio.h **** *
1380:Generated_Source\PSoC6\pdl\drivers\peripheral\gpio/cy_gpio.h **** * Note that this function has no effect on non-SIO pins.
1381:Generated_Source\PSoC6\pdl\drivers\peripheral\gpio/cy_gpio.h **** *
1382:Generated_Source\PSoC6\pdl\drivers\peripheral\gpio/cy_gpio.h **** * \param base
1383:Generated_Source\PSoC6\pdl\drivers\peripheral\gpio/cy_gpio.h **** * Pointer to the pin's port register base address
1384:Generated_Source\PSoC6\pdl\drivers\peripheral\gpio/cy_gpio.h **** *
1385:Generated_Source\PSoC6\pdl\drivers\peripheral\gpio/cy_gpio.h **** * \param pinNum
1386:Generated_Source\PSoC6\pdl\drivers\peripheral\gpio/cy_gpio.h **** * Position of the pin bit-field within the port register
1387:Generated_Source\PSoC6\pdl\drivers\peripheral\gpio/cy_gpio.h **** *
1388:Generated_Source\PSoC6\pdl\drivers\peripheral\gpio/cy_gpio.h **** * \return
1389:Generated_Source\PSoC6\pdl\drivers\peripheral\gpio/cy_gpio.h **** * SIO pair input buffer trip point. Options are detailed in \ref group_gpio_sioVtrip macros
1390:Generated_Source\PSoC6\pdl\drivers\peripheral\gpio/cy_gpio.h **** *
1391:Generated_Source\PSoC6\pdl\drivers\peripheral\gpio/cy_gpio.h **** * \funcusage
1392:Generated_Source\PSoC6\pdl\drivers\peripheral\gpio/cy_gpio.h **** * \snippet gpio/gpio_v1_10_sut_01.cydsn/main_cm4.c snippet_Cy_GPIO_SetVtripSel
1393:Generated_Source\PSoC6\pdl\drivers\peripheral\gpio/cy_gpio.h **** *
1394:Generated_Source\PSoC6\pdl\drivers\peripheral\gpio/cy_gpio.h **** *******************************************************************************/
1395:Generated_Source\PSoC6\pdl\drivers\peripheral\gpio/cy_gpio.h **** __STATIC_INLINE uint32_t Cy_GPIO_GetVtripSel(GPIO_PRT_Type* base, uint32_t pinNum)
1396:Generated_Source\PSoC6\pdl\drivers\peripheral\gpio/cy_gpio.h **** {
1397:Generated_Source\PSoC6\pdl\drivers\peripheral\gpio/cy_gpio.h ****     CY_ASSERT_L2(CY_GPIO_IS_PIN_VALID(pinNum));
1398:Generated_Source\PSoC6\pdl\drivers\peripheral\gpio/cy_gpio.h **** 
1399:Generated_Source\PSoC6\pdl\drivers\peripheral\gpio/cy_gpio.h ****     return (GPIO_PRT_CFG_SIO(base) >> (((pinNum & CY_GPIO_SIO_ODD_PIN_MASK) << CY_GPIO_CFG_SIO_OFFS
1400:Generated_Source\PSoC6\pdl\drivers\peripheral\gpio/cy_gpio.h **** }
1401:Generated_Source\PSoC6\pdl\drivers\peripheral\gpio/cy_gpio.h **** 
1402:Generated_Source\PSoC6\pdl\drivers\peripheral\gpio/cy_gpio.h **** 
1403:Generated_Source\PSoC6\pdl\drivers\peripheral\gpio/cy_gpio.h **** /*******************************************************************************
1404:Generated_Source\PSoC6\pdl\drivers\peripheral\gpio/cy_gpio.h **** * Function Name: Cy_GPIO_SetVrefSel
1405:Generated_Source\PSoC6\pdl\drivers\peripheral\gpio/cy_gpio.h **** ****************************************************************************//**
1406:Generated_Source\PSoC6\pdl\drivers\peripheral\gpio/cy_gpio.h **** *
1407:Generated_Source\PSoC6\pdl\drivers\peripheral\gpio/cy_gpio.h **** * Configures the SIO reference voltage for the input buffer trip point.
1408:Generated_Source\PSoC6\pdl\drivers\peripheral\gpio/cy_gpio.h **** *
1409:Generated_Source\PSoC6\pdl\drivers\peripheral\gpio/cy_gpio.h **** * Note that this function has no effect on non-SIO pins.
1410:Generated_Source\PSoC6\pdl\drivers\peripheral\gpio/cy_gpio.h **** *
1411:Generated_Source\PSoC6\pdl\drivers\peripheral\gpio/cy_gpio.h **** * \param base
1412:Generated_Source\PSoC6\pdl\drivers\peripheral\gpio/cy_gpio.h **** * Pointer to the pin's port register base address
1413:Generated_Source\PSoC6\pdl\drivers\peripheral\gpio/cy_gpio.h **** *
1414:Generated_Source\PSoC6\pdl\drivers\peripheral\gpio/cy_gpio.h **** * \param pinNum
1415:Generated_Source\PSoC6\pdl\drivers\peripheral\gpio/cy_gpio.h **** * Position of the pin bit-field within the port register
1416:Generated_Source\PSoC6\pdl\drivers\peripheral\gpio/cy_gpio.h **** *
1417:Generated_Source\PSoC6\pdl\drivers\peripheral\gpio/cy_gpio.h **** * \param value
1418:Generated_Source\PSoC6\pdl\drivers\peripheral\gpio/cy_gpio.h **** * SIO pair reference voltage. Options are detailed in \ref group_gpio_sioVref macros
1419:Generated_Source\PSoC6\pdl\drivers\peripheral\gpio/cy_gpio.h **** *
1420:Generated_Source\PSoC6\pdl\drivers\peripheral\gpio/cy_gpio.h **** * \note 
1421:Generated_Source\PSoC6\pdl\drivers\peripheral\gpio/cy_gpio.h **** * This function modifies a port register in a read-modify-write operation. It is
1422:Generated_Source\PSoC6\pdl\drivers\peripheral\gpio/cy_gpio.h **** * not thread safe as the resource is shared among multiple pins on a port.
1423:Generated_Source\PSoC6\pdl\drivers\peripheral\gpio/cy_gpio.h **** *
1424:Generated_Source\PSoC6\pdl\drivers\peripheral\gpio/cy_gpio.h **** * \funcusage
1425:Generated_Source\PSoC6\pdl\drivers\peripheral\gpio/cy_gpio.h **** * \snippet gpio/gpio_v1_10_sut_01.cydsn/main_cm4.c snippet_Cy_GPIO_SetVrefSel
1426:Generated_Source\PSoC6\pdl\drivers\peripheral\gpio/cy_gpio.h **** *
1427:Generated_Source\PSoC6\pdl\drivers\peripheral\gpio/cy_gpio.h **** *******************************************************************************/
1428:Generated_Source\PSoC6\pdl\drivers\peripheral\gpio/cy_gpio.h **** __STATIC_INLINE void Cy_GPIO_SetVrefSel(GPIO_PRT_Type* base, uint32_t pinNum, uint32_t value)
1429:Generated_Source\PSoC6\pdl\drivers\peripheral\gpio/cy_gpio.h **** {
ARM GAS  C:\Users\cmila\AppData\Local\Temp\ccUkpexV.s 			page 34


1430:Generated_Source\PSoC6\pdl\drivers\peripheral\gpio/cy_gpio.h ****     uint32_t tempReg;
1431:Generated_Source\PSoC6\pdl\drivers\peripheral\gpio/cy_gpio.h ****     uint32_t pinLoc;
1432:Generated_Source\PSoC6\pdl\drivers\peripheral\gpio/cy_gpio.h **** 
1433:Generated_Source\PSoC6\pdl\drivers\peripheral\gpio/cy_gpio.h ****     CY_ASSERT_L2(CY_GPIO_IS_PIN_VALID(pinNum));
1434:Generated_Source\PSoC6\pdl\drivers\peripheral\gpio/cy_gpio.h ****     CY_ASSERT_L2(CY_GPIO_IS_VREF_SEL_VALID(value));
1435:Generated_Source\PSoC6\pdl\drivers\peripheral\gpio/cy_gpio.h ****     
1436:Generated_Source\PSoC6\pdl\drivers\peripheral\gpio/cy_gpio.h ****     pinLoc = ((pinNum & CY_GPIO_SIO_ODD_PIN_MASK) << CY_GPIO_CFG_SIO_OFFSET) + CY_GPIO_VREF_SEL_SHI
1437:Generated_Source\PSoC6\pdl\drivers\peripheral\gpio/cy_gpio.h ****     tempReg = (GPIO_PRT_CFG_SIO(base) & ~(CY_GPIO_VREF_SEL_MASK << pinLoc));
1438:Generated_Source\PSoC6\pdl\drivers\peripheral\gpio/cy_gpio.h ****     GPIO_PRT_CFG_SIO(base) = tempReg | ((value & CY_GPIO_VREF_SEL_MASK) << pinLoc);
1439:Generated_Source\PSoC6\pdl\drivers\peripheral\gpio/cy_gpio.h **** }
1440:Generated_Source\PSoC6\pdl\drivers\peripheral\gpio/cy_gpio.h **** 
1441:Generated_Source\PSoC6\pdl\drivers\peripheral\gpio/cy_gpio.h **** 
1442:Generated_Source\PSoC6\pdl\drivers\peripheral\gpio/cy_gpio.h **** /*******************************************************************************
1443:Generated_Source\PSoC6\pdl\drivers\peripheral\gpio/cy_gpio.h **** * Function Name: Cy_GPIO_GetVrefSel
1444:Generated_Source\PSoC6\pdl\drivers\peripheral\gpio/cy_gpio.h **** ****************************************************************************//**
1445:Generated_Source\PSoC6\pdl\drivers\peripheral\gpio/cy_gpio.h **** *
1446:Generated_Source\PSoC6\pdl\drivers\peripheral\gpio/cy_gpio.h **** * Returns the SIO reference voltage for the input buffer trip point.
1447:Generated_Source\PSoC6\pdl\drivers\peripheral\gpio/cy_gpio.h **** *
1448:Generated_Source\PSoC6\pdl\drivers\peripheral\gpio/cy_gpio.h **** * Note that this function has no effect on non-SIO pins.
1449:Generated_Source\PSoC6\pdl\drivers\peripheral\gpio/cy_gpio.h **** *
1450:Generated_Source\PSoC6\pdl\drivers\peripheral\gpio/cy_gpio.h **** * \param base
1451:Generated_Source\PSoC6\pdl\drivers\peripheral\gpio/cy_gpio.h **** * Pointer to the pin's port register base address
1452:Generated_Source\PSoC6\pdl\drivers\peripheral\gpio/cy_gpio.h **** *
1453:Generated_Source\PSoC6\pdl\drivers\peripheral\gpio/cy_gpio.h **** * \param pinNum
1454:Generated_Source\PSoC6\pdl\drivers\peripheral\gpio/cy_gpio.h **** * Position of the pin bit-field within the port register
1455:Generated_Source\PSoC6\pdl\drivers\peripheral\gpio/cy_gpio.h **** *
1456:Generated_Source\PSoC6\pdl\drivers\peripheral\gpio/cy_gpio.h **** * \return
1457:Generated_Source\PSoC6\pdl\drivers\peripheral\gpio/cy_gpio.h **** * SIO pair reference voltage. Options are detailed in \ref group_gpio_sioVref macros
1458:Generated_Source\PSoC6\pdl\drivers\peripheral\gpio/cy_gpio.h **** *
1459:Generated_Source\PSoC6\pdl\drivers\peripheral\gpio/cy_gpio.h **** * \funcusage
1460:Generated_Source\PSoC6\pdl\drivers\peripheral\gpio/cy_gpio.h **** * \snippet gpio/gpio_v1_10_sut_01.cydsn/main_cm4.c snippet_Cy_GPIO_SetVrefSel
1461:Generated_Source\PSoC6\pdl\drivers\peripheral\gpio/cy_gpio.h **** *
1462:Generated_Source\PSoC6\pdl\drivers\peripheral\gpio/cy_gpio.h **** *******************************************************************************/
1463:Generated_Source\PSoC6\pdl\drivers\peripheral\gpio/cy_gpio.h **** __STATIC_INLINE uint32_t Cy_GPIO_GetVrefSel(GPIO_PRT_Type* base, uint32_t pinNum)
1464:Generated_Source\PSoC6\pdl\drivers\peripheral\gpio/cy_gpio.h **** {
1465:Generated_Source\PSoC6\pdl\drivers\peripheral\gpio/cy_gpio.h ****     CY_ASSERT_L2(CY_GPIO_IS_PIN_VALID(pinNum));
1466:Generated_Source\PSoC6\pdl\drivers\peripheral\gpio/cy_gpio.h ****     
1467:Generated_Source\PSoC6\pdl\drivers\peripheral\gpio/cy_gpio.h ****     return (GPIO_PRT_CFG_SIO(base) >> (((pinNum & CY_GPIO_SIO_ODD_PIN_MASK) << CY_GPIO_CFG_SIO_OFFS
1468:Generated_Source\PSoC6\pdl\drivers\peripheral\gpio/cy_gpio.h **** }
1469:Generated_Source\PSoC6\pdl\drivers\peripheral\gpio/cy_gpio.h **** 
1470:Generated_Source\PSoC6\pdl\drivers\peripheral\gpio/cy_gpio.h **** 
1471:Generated_Source\PSoC6\pdl\drivers\peripheral\gpio/cy_gpio.h **** /*******************************************************************************
1472:Generated_Source\PSoC6\pdl\drivers\peripheral\gpio/cy_gpio.h **** * Function Name: Cy_GPIO_SetVohSel
1473:Generated_Source\PSoC6\pdl\drivers\peripheral\gpio/cy_gpio.h **** ****************************************************************************//**
1474:Generated_Source\PSoC6\pdl\drivers\peripheral\gpio/cy_gpio.h **** *
1475:Generated_Source\PSoC6\pdl\drivers\peripheral\gpio/cy_gpio.h **** * Configures the regulated output reference multiplier for the SIO pin pair.
1476:Generated_Source\PSoC6\pdl\drivers\peripheral\gpio/cy_gpio.h **** *
1477:Generated_Source\PSoC6\pdl\drivers\peripheral\gpio/cy_gpio.h **** * The regulated output reference controls both the output level of digital output
1478:Generated_Source\PSoC6\pdl\drivers\peripheral\gpio/cy_gpio.h **** * pin and the input trip point of digital input pin in the SIO pair.
1479:Generated_Source\PSoC6\pdl\drivers\peripheral\gpio/cy_gpio.h **** *
1480:Generated_Source\PSoC6\pdl\drivers\peripheral\gpio/cy_gpio.h **** * Note that this function has no effect on non-SIO pins.
1481:Generated_Source\PSoC6\pdl\drivers\peripheral\gpio/cy_gpio.h **** *
1482:Generated_Source\PSoC6\pdl\drivers\peripheral\gpio/cy_gpio.h **** * \param base
1483:Generated_Source\PSoC6\pdl\drivers\peripheral\gpio/cy_gpio.h **** * Pointer to the pin's port register base address
1484:Generated_Source\PSoC6\pdl\drivers\peripheral\gpio/cy_gpio.h **** *
1485:Generated_Source\PSoC6\pdl\drivers\peripheral\gpio/cy_gpio.h **** * \param pinNum
1486:Generated_Source\PSoC6\pdl\drivers\peripheral\gpio/cy_gpio.h **** * Position of the pin bit-field within the port register
ARM GAS  C:\Users\cmila\AppData\Local\Temp\ccUkpexV.s 			page 35


1487:Generated_Source\PSoC6\pdl\drivers\peripheral\gpio/cy_gpio.h **** *
1488:Generated_Source\PSoC6\pdl\drivers\peripheral\gpio/cy_gpio.h **** * \param value
1489:Generated_Source\PSoC6\pdl\drivers\peripheral\gpio/cy_gpio.h **** * SIO pair reference voltage. Options are detailed in \ref group_gpio_sioVoh macros
1490:Generated_Source\PSoC6\pdl\drivers\peripheral\gpio/cy_gpio.h **** *
1491:Generated_Source\PSoC6\pdl\drivers\peripheral\gpio/cy_gpio.h **** * \note 
1492:Generated_Source\PSoC6\pdl\drivers\peripheral\gpio/cy_gpio.h **** * This function modifies a port register in a read-modify-write operation. It is
1493:Generated_Source\PSoC6\pdl\drivers\peripheral\gpio/cy_gpio.h **** * not thread safe as the resource is shared among multiple pins on a port.
1494:Generated_Source\PSoC6\pdl\drivers\peripheral\gpio/cy_gpio.h **** *
1495:Generated_Source\PSoC6\pdl\drivers\peripheral\gpio/cy_gpio.h **** * \funcusage
1496:Generated_Source\PSoC6\pdl\drivers\peripheral\gpio/cy_gpio.h **** * \snippet gpio/gpio_v1_10_sut_01.cydsn/main_cm4.c snippet_Cy_GPIO_SetVohSel
1497:Generated_Source\PSoC6\pdl\drivers\peripheral\gpio/cy_gpio.h **** *
1498:Generated_Source\PSoC6\pdl\drivers\peripheral\gpio/cy_gpio.h **** *******************************************************************************/
1499:Generated_Source\PSoC6\pdl\drivers\peripheral\gpio/cy_gpio.h **** __STATIC_INLINE void Cy_GPIO_SetVohSel(GPIO_PRT_Type* base, uint32_t pinNum, uint32_t value)
1500:Generated_Source\PSoC6\pdl\drivers\peripheral\gpio/cy_gpio.h **** {
1501:Generated_Source\PSoC6\pdl\drivers\peripheral\gpio/cy_gpio.h ****     uint32_t tempReg;
1502:Generated_Source\PSoC6\pdl\drivers\peripheral\gpio/cy_gpio.h ****     uint32_t pinLoc;
1503:Generated_Source\PSoC6\pdl\drivers\peripheral\gpio/cy_gpio.h **** 
1504:Generated_Source\PSoC6\pdl\drivers\peripheral\gpio/cy_gpio.h ****     CY_ASSERT_L2(CY_GPIO_IS_PIN_VALID(pinNum));
1505:Generated_Source\PSoC6\pdl\drivers\peripheral\gpio/cy_gpio.h ****     CY_ASSERT_L2(CY_GPIO_IS_VOH_SEL_VALID(value));
1506:Generated_Source\PSoC6\pdl\drivers\peripheral\gpio/cy_gpio.h **** 
1507:Generated_Source\PSoC6\pdl\drivers\peripheral\gpio/cy_gpio.h ****     pinLoc = ((pinNum & CY_GPIO_SIO_ODD_PIN_MASK) << CY_GPIO_CFG_SIO_OFFSET) + CY_GPIO_VOH_SEL_SHIF
1508:Generated_Source\PSoC6\pdl\drivers\peripheral\gpio/cy_gpio.h ****     tempReg = (GPIO_PRT_CFG_SIO(base) & ~(CY_GPIO_VOH_SEL_MASK << pinLoc));
1509:Generated_Source\PSoC6\pdl\drivers\peripheral\gpio/cy_gpio.h ****     GPIO_PRT_CFG_SIO(base) = tempReg | ((value & CY_GPIO_VOH_SEL_MASK) << pinLoc);
1510:Generated_Source\PSoC6\pdl\drivers\peripheral\gpio/cy_gpio.h **** }
1511:Generated_Source\PSoC6\pdl\drivers\peripheral\gpio/cy_gpio.h **** 
1512:Generated_Source\PSoC6\pdl\drivers\peripheral\gpio/cy_gpio.h **** 
1513:Generated_Source\PSoC6\pdl\drivers\peripheral\gpio/cy_gpio.h **** /*******************************************************************************
1514:Generated_Source\PSoC6\pdl\drivers\peripheral\gpio/cy_gpio.h **** * Function Name: Cy_GPIO_GetVohSel
1515:Generated_Source\PSoC6\pdl\drivers\peripheral\gpio/cy_gpio.h **** ****************************************************************************//**
1516:Generated_Source\PSoC6\pdl\drivers\peripheral\gpio/cy_gpio.h **** *
1517:Generated_Source\PSoC6\pdl\drivers\peripheral\gpio/cy_gpio.h **** * Returns the regulated output reference multiplier for the SIO pin pair.
1518:Generated_Source\PSoC6\pdl\drivers\peripheral\gpio/cy_gpio.h **** *
1519:Generated_Source\PSoC6\pdl\drivers\peripheral\gpio/cy_gpio.h **** * Note that this function has no effect on non-SIO pins.
1520:Generated_Source\PSoC6\pdl\drivers\peripheral\gpio/cy_gpio.h **** *
1521:Generated_Source\PSoC6\pdl\drivers\peripheral\gpio/cy_gpio.h **** * \param base
1522:Generated_Source\PSoC6\pdl\drivers\peripheral\gpio/cy_gpio.h **** * Pointer to the pin's port register base address
1523:Generated_Source\PSoC6\pdl\drivers\peripheral\gpio/cy_gpio.h **** *
1524:Generated_Source\PSoC6\pdl\drivers\peripheral\gpio/cy_gpio.h **** * \param pinNum
1525:Generated_Source\PSoC6\pdl\drivers\peripheral\gpio/cy_gpio.h **** * Position of the pin bit-field within the port register
1526:Generated_Source\PSoC6\pdl\drivers\peripheral\gpio/cy_gpio.h **** *
1527:Generated_Source\PSoC6\pdl\drivers\peripheral\gpio/cy_gpio.h **** * \return
1528:Generated_Source\PSoC6\pdl\drivers\peripheral\gpio/cy_gpio.h **** * SIO pair reference voltage. Options are detailed in \ref group_gpio_sioVoh macros
1529:Generated_Source\PSoC6\pdl\drivers\peripheral\gpio/cy_gpio.h **** *
1530:Generated_Source\PSoC6\pdl\drivers\peripheral\gpio/cy_gpio.h **** * \funcusage
1531:Generated_Source\PSoC6\pdl\drivers\peripheral\gpio/cy_gpio.h **** * \snippet gpio/gpio_v1_10_sut_01.cydsn/main_cm4.c snippet_Cy_GPIO_SetVohSel
1532:Generated_Source\PSoC6\pdl\drivers\peripheral\gpio/cy_gpio.h **** *
1533:Generated_Source\PSoC6\pdl\drivers\peripheral\gpio/cy_gpio.h **** *******************************************************************************/
1534:Generated_Source\PSoC6\pdl\drivers\peripheral\gpio/cy_gpio.h **** __STATIC_INLINE uint32_t Cy_GPIO_GetVohSel(GPIO_PRT_Type* base, uint32_t pinNum)
1535:Generated_Source\PSoC6\pdl\drivers\peripheral\gpio/cy_gpio.h **** {
1536:Generated_Source\PSoC6\pdl\drivers\peripheral\gpio/cy_gpio.h ****     CY_ASSERT_L2(CY_GPIO_IS_PIN_VALID(pinNum));
1537:Generated_Source\PSoC6\pdl\drivers\peripheral\gpio/cy_gpio.h ****     
1538:Generated_Source\PSoC6\pdl\drivers\peripheral\gpio/cy_gpio.h ****     return (GPIO_PRT_CFG_SIO(base) >> (((pinNum & CY_GPIO_SIO_ODD_PIN_MASK) << CY_GPIO_CFG_SIO_OFFS
1539:Generated_Source\PSoC6\pdl\drivers\peripheral\gpio/cy_gpio.h **** }
1540:Generated_Source\PSoC6\pdl\drivers\peripheral\gpio/cy_gpio.h **** 
1541:Generated_Source\PSoC6\pdl\drivers\peripheral\gpio/cy_gpio.h **** /** \} group_gpio_functions_sio */
1542:Generated_Source\PSoC6\pdl\drivers\peripheral\gpio/cy_gpio.h **** 
1543:Generated_Source\PSoC6\pdl\drivers\peripheral\gpio/cy_gpio.h **** /**
ARM GAS  C:\Users\cmila\AppData\Local\Temp\ccUkpexV.s 			page 36


1544:Generated_Source\PSoC6\pdl\drivers\peripheral\gpio/cy_gpio.h **** * \addtogroup group_gpio_functions_interrupt
1545:Generated_Source\PSoC6\pdl\drivers\peripheral\gpio/cy_gpio.h **** * \{
1546:Generated_Source\PSoC6\pdl\drivers\peripheral\gpio/cy_gpio.h **** */
1547:Generated_Source\PSoC6\pdl\drivers\peripheral\gpio/cy_gpio.h **** 
1548:Generated_Source\PSoC6\pdl\drivers\peripheral\gpio/cy_gpio.h **** /*******************************************************************************
1549:Generated_Source\PSoC6\pdl\drivers\peripheral\gpio/cy_gpio.h **** * Function Name: Cy_GPIO_GetInterruptStatus
1550:Generated_Source\PSoC6\pdl\drivers\peripheral\gpio/cy_gpio.h **** ****************************************************************************//**
1551:Generated_Source\PSoC6\pdl\drivers\peripheral\gpio/cy_gpio.h **** *
1552:Generated_Source\PSoC6\pdl\drivers\peripheral\gpio/cy_gpio.h **** * Returns the current unmasked interrupt state of the pin.
1553:Generated_Source\PSoC6\pdl\drivers\peripheral\gpio/cy_gpio.h **** *
1554:Generated_Source\PSoC6\pdl\drivers\peripheral\gpio/cy_gpio.h **** * The core processor's NVIC is triggered by the masked interrupt bits. This 
1555:Generated_Source\PSoC6\pdl\drivers\peripheral\gpio/cy_gpio.h **** * function allows reading the unmasked interrupt state. Whether the bit
1556:Generated_Source\PSoC6\pdl\drivers\peripheral\gpio/cy_gpio.h **** * positions actually trigger the interrupt are defined by the interrupt mask bits.
1557:Generated_Source\PSoC6\pdl\drivers\peripheral\gpio/cy_gpio.h **** *
1558:Generated_Source\PSoC6\pdl\drivers\peripheral\gpio/cy_gpio.h **** * \param base
1559:Generated_Source\PSoC6\pdl\drivers\peripheral\gpio/cy_gpio.h **** * Pointer to the pin's port register base address
1560:Generated_Source\PSoC6\pdl\drivers\peripheral\gpio/cy_gpio.h **** *
1561:Generated_Source\PSoC6\pdl\drivers\peripheral\gpio/cy_gpio.h **** * \param pinNum
1562:Generated_Source\PSoC6\pdl\drivers\peripheral\gpio/cy_gpio.h **** * Position of the pin bit-field within the port register
1563:Generated_Source\PSoC6\pdl\drivers\peripheral\gpio/cy_gpio.h **** * Bit position 8 is the routed pin through the port glitch filter.
1564:Generated_Source\PSoC6\pdl\drivers\peripheral\gpio/cy_gpio.h **** *
1565:Generated_Source\PSoC6\pdl\drivers\peripheral\gpio/cy_gpio.h **** * \return
1566:Generated_Source\PSoC6\pdl\drivers\peripheral\gpio/cy_gpio.h **** * 0 = Pin interrupt condition not detected
1567:Generated_Source\PSoC6\pdl\drivers\peripheral\gpio/cy_gpio.h **** * 1 = Pin interrupt condition detected
1568:Generated_Source\PSoC6\pdl\drivers\peripheral\gpio/cy_gpio.h **** *
1569:Generated_Source\PSoC6\pdl\drivers\peripheral\gpio/cy_gpio.h **** * \funcusage
1570:Generated_Source\PSoC6\pdl\drivers\peripheral\gpio/cy_gpio.h **** * \snippet gpio/gpio_v1_10_sut_01.cydsn/main_cm4.c snippet_Cy_GPIO_GetInterruptStatus
1571:Generated_Source\PSoC6\pdl\drivers\peripheral\gpio/cy_gpio.h **** *
1572:Generated_Source\PSoC6\pdl\drivers\peripheral\gpio/cy_gpio.h **** *******************************************************************************/
1573:Generated_Source\PSoC6\pdl\drivers\peripheral\gpio/cy_gpio.h **** __STATIC_INLINE uint32_t Cy_GPIO_GetInterruptStatus(GPIO_PRT_Type* base, uint32_t pinNum)
1574:Generated_Source\PSoC6\pdl\drivers\peripheral\gpio/cy_gpio.h **** {
1575:Generated_Source\PSoC6\pdl\drivers\peripheral\gpio/cy_gpio.h ****     CY_ASSERT_L2(CY_GPIO_IS_FILTER_PIN_VALID(pinNum));
1576:Generated_Source\PSoC6\pdl\drivers\peripheral\gpio/cy_gpio.h ****     
1577:Generated_Source\PSoC6\pdl\drivers\peripheral\gpio/cy_gpio.h ****     return (GPIO_PRT_INTR(base) >> pinNum) & CY_GPIO_INTR_STATUS_MASK;
1578:Generated_Source\PSoC6\pdl\drivers\peripheral\gpio/cy_gpio.h **** }
1579:Generated_Source\PSoC6\pdl\drivers\peripheral\gpio/cy_gpio.h **** 
1580:Generated_Source\PSoC6\pdl\drivers\peripheral\gpio/cy_gpio.h **** 
1581:Generated_Source\PSoC6\pdl\drivers\peripheral\gpio/cy_gpio.h **** /*******************************************************************************
1582:Generated_Source\PSoC6\pdl\drivers\peripheral\gpio/cy_gpio.h **** * Function Name: Cy_GPIO_ClearInterrupt
1583:Generated_Source\PSoC6\pdl\drivers\peripheral\gpio/cy_gpio.h **** ****************************************************************************//**
1584:Generated_Source\PSoC6\pdl\drivers\peripheral\gpio/cy_gpio.h **** *
1585:Generated_Source\PSoC6\pdl\drivers\peripheral\gpio/cy_gpio.h **** * Clears the triggered pin interrupt.
1586:Generated_Source\PSoC6\pdl\drivers\peripheral\gpio/cy_gpio.h **** *
1587:Generated_Source\PSoC6\pdl\drivers\peripheral\gpio/cy_gpio.h **** * \param base
1588:Generated_Source\PSoC6\pdl\drivers\peripheral\gpio/cy_gpio.h **** * Pointer to the pin's port register base address
1589:Generated_Source\PSoC6\pdl\drivers\peripheral\gpio/cy_gpio.h **** *
1590:Generated_Source\PSoC6\pdl\drivers\peripheral\gpio/cy_gpio.h **** * \param pinNum
1591:Generated_Source\PSoC6\pdl\drivers\peripheral\gpio/cy_gpio.h **** * Position of the pin bit-field within the port register
1592:Generated_Source\PSoC6\pdl\drivers\peripheral\gpio/cy_gpio.h **** * Bit position 8 is the routed pin through the port glitch filter.
1593:Generated_Source\PSoC6\pdl\drivers\peripheral\gpio/cy_gpio.h **** *
1594:Generated_Source\PSoC6\pdl\drivers\peripheral\gpio/cy_gpio.h **** * \funcusage
1595:Generated_Source\PSoC6\pdl\drivers\peripheral\gpio/cy_gpio.h **** * \snippet gpio/gpio_v1_10_sut_01.cydsn/main_cm4.c snippet_Cy_GPIO_ClearInterrupt
1596:Generated_Source\PSoC6\pdl\drivers\peripheral\gpio/cy_gpio.h **** *
1597:Generated_Source\PSoC6\pdl\drivers\peripheral\gpio/cy_gpio.h **** *******************************************************************************/
1598:Generated_Source\PSoC6\pdl\drivers\peripheral\gpio/cy_gpio.h **** __STATIC_INLINE void Cy_GPIO_ClearInterrupt(GPIO_PRT_Type* base, uint32_t pinNum)
1599:Generated_Source\PSoC6\pdl\drivers\peripheral\gpio/cy_gpio.h **** {
1600:Generated_Source\PSoC6\pdl\drivers\peripheral\gpio/cy_gpio.h ****     CY_ASSERT_L2(CY_GPIO_IS_FILTER_PIN_VALID(pinNum));
ARM GAS  C:\Users\cmila\AppData\Local\Temp\ccUkpexV.s 			page 37


1601:Generated_Source\PSoC6\pdl\drivers\peripheral\gpio/cy_gpio.h ****     
1602:Generated_Source\PSoC6\pdl\drivers\peripheral\gpio/cy_gpio.h ****     /* Any INTR MMIO registers AHB clearing must be preceded with an AHB read access */
1603:Generated_Source\PSoC6\pdl\drivers\peripheral\gpio/cy_gpio.h ****     (void)GPIO_PRT_INTR(base);
1604:Generated_Source\PSoC6\pdl\drivers\peripheral\gpio/cy_gpio.h **** 
1605:Generated_Source\PSoC6\pdl\drivers\peripheral\gpio/cy_gpio.h ****     GPIO_PRT_INTR(base) = CY_GPIO_INTR_STATUS_MASK << pinNum;
1606:Generated_Source\PSoC6\pdl\drivers\peripheral\gpio/cy_gpio.h **** 
1607:Generated_Source\PSoC6\pdl\drivers\peripheral\gpio/cy_gpio.h ****     /* This read ensures that the initial write has been flushed out to the hardware */
1608:Generated_Source\PSoC6\pdl\drivers\peripheral\gpio/cy_gpio.h ****     (void)GPIO_PRT_INTR(base);
1609:Generated_Source\PSoC6\pdl\drivers\peripheral\gpio/cy_gpio.h **** }
1610:Generated_Source\PSoC6\pdl\drivers\peripheral\gpio/cy_gpio.h **** 
1611:Generated_Source\PSoC6\pdl\drivers\peripheral\gpio/cy_gpio.h **** 
1612:Generated_Source\PSoC6\pdl\drivers\peripheral\gpio/cy_gpio.h **** /*******************************************************************************
1613:Generated_Source\PSoC6\pdl\drivers\peripheral\gpio/cy_gpio.h **** * Function Name: Cy_GPIO_SetInterruptMask
1614:Generated_Source\PSoC6\pdl\drivers\peripheral\gpio/cy_gpio.h **** ****************************************************************************//**
1615:Generated_Source\PSoC6\pdl\drivers\peripheral\gpio/cy_gpio.h **** *
1616:Generated_Source\PSoC6\pdl\drivers\peripheral\gpio/cy_gpio.h **** * Configures the pin interrupt to be forwarded to the CPU NVIC.
1617:Generated_Source\PSoC6\pdl\drivers\peripheral\gpio/cy_gpio.h **** *
1618:Generated_Source\PSoC6\pdl\drivers\peripheral\gpio/cy_gpio.h **** * \param base
1619:Generated_Source\PSoC6\pdl\drivers\peripheral\gpio/cy_gpio.h **** * Pointer to the pin's port register base address
1620:Generated_Source\PSoC6\pdl\drivers\peripheral\gpio/cy_gpio.h **** *
1621:Generated_Source\PSoC6\pdl\drivers\peripheral\gpio/cy_gpio.h **** * \param pinNum
1622:Generated_Source\PSoC6\pdl\drivers\peripheral\gpio/cy_gpio.h **** * Position of the pin bit-field within the port register.
1623:Generated_Source\PSoC6\pdl\drivers\peripheral\gpio/cy_gpio.h **** * Bit position 8 is the routed pin through the port glitch filter.
1624:Generated_Source\PSoC6\pdl\drivers\peripheral\gpio/cy_gpio.h **** *
1625:Generated_Source\PSoC6\pdl\drivers\peripheral\gpio/cy_gpio.h **** * \param value
1626:Generated_Source\PSoC6\pdl\drivers\peripheral\gpio/cy_gpio.h **** * 0 = Pin interrupt not forwarded to CPU interrupt controller
1627:Generated_Source\PSoC6\pdl\drivers\peripheral\gpio/cy_gpio.h **** * 1 = Pin interrupt masked and forwarded to CPU interrupt controller
1628:Generated_Source\PSoC6\pdl\drivers\peripheral\gpio/cy_gpio.h **** *
1629:Generated_Source\PSoC6\pdl\drivers\peripheral\gpio/cy_gpio.h **** * \note 
1630:Generated_Source\PSoC6\pdl\drivers\peripheral\gpio/cy_gpio.h **** * This function modifies a port register in a read-modify-write operation. It is
1631:Generated_Source\PSoC6\pdl\drivers\peripheral\gpio/cy_gpio.h **** * not thread safe as the resource is shared among multiple pins on a port.
1632:Generated_Source\PSoC6\pdl\drivers\peripheral\gpio/cy_gpio.h **** *
1633:Generated_Source\PSoC6\pdl\drivers\peripheral\gpio/cy_gpio.h **** * \funcusage
1634:Generated_Source\PSoC6\pdl\drivers\peripheral\gpio/cy_gpio.h **** * \snippet gpio/gpio_v1_10_sut_01.cydsn/main_cm4.c snippet_Cy_GPIO_SetInterruptMask
1635:Generated_Source\PSoC6\pdl\drivers\peripheral\gpio/cy_gpio.h **** *
1636:Generated_Source\PSoC6\pdl\drivers\peripheral\gpio/cy_gpio.h **** *******************************************************************************/
1637:Generated_Source\PSoC6\pdl\drivers\peripheral\gpio/cy_gpio.h **** __STATIC_INLINE void Cy_GPIO_SetInterruptMask(GPIO_PRT_Type* base, uint32_t pinNum, uint32_t value)
1638:Generated_Source\PSoC6\pdl\drivers\peripheral\gpio/cy_gpio.h **** {
1639:Generated_Source\PSoC6\pdl\drivers\peripheral\gpio/cy_gpio.h ****     uint32_t tempReg;
1640:Generated_Source\PSoC6\pdl\drivers\peripheral\gpio/cy_gpio.h **** 
1641:Generated_Source\PSoC6\pdl\drivers\peripheral\gpio/cy_gpio.h ****     CY_ASSERT_L2(CY_GPIO_IS_FILTER_PIN_VALID(pinNum));
1642:Generated_Source\PSoC6\pdl\drivers\peripheral\gpio/cy_gpio.h ****     CY_ASSERT_L2(CY_GPIO_IS_VALUE_VALID(value));
1643:Generated_Source\PSoC6\pdl\drivers\peripheral\gpio/cy_gpio.h **** 
1644:Generated_Source\PSoC6\pdl\drivers\peripheral\gpio/cy_gpio.h ****     tempReg= GPIO_PRT_INTR_MASK(base) & ~(CY_GPIO_INTR_EN_MASK << pinNum);
1645:Generated_Source\PSoC6\pdl\drivers\peripheral\gpio/cy_gpio.h ****     GPIO_PRT_INTR_MASK(base) = tempReg | ((value & CY_GPIO_INTR_EN_MASK) << pinNum);
1646:Generated_Source\PSoC6\pdl\drivers\peripheral\gpio/cy_gpio.h **** }
1647:Generated_Source\PSoC6\pdl\drivers\peripheral\gpio/cy_gpio.h **** 
1648:Generated_Source\PSoC6\pdl\drivers\peripheral\gpio/cy_gpio.h **** 
1649:Generated_Source\PSoC6\pdl\drivers\peripheral\gpio/cy_gpio.h **** /*******************************************************************************
1650:Generated_Source\PSoC6\pdl\drivers\peripheral\gpio/cy_gpio.h **** * Function Name: Cy_GPIO_GetInterruptMask
1651:Generated_Source\PSoC6\pdl\drivers\peripheral\gpio/cy_gpio.h **** ****************************************************************************//**
1652:Generated_Source\PSoC6\pdl\drivers\peripheral\gpio/cy_gpio.h **** *
1653:Generated_Source\PSoC6\pdl\drivers\peripheral\gpio/cy_gpio.h **** * Returns the state of the pin interrupt mask.
1654:Generated_Source\PSoC6\pdl\drivers\peripheral\gpio/cy_gpio.h **** *
1655:Generated_Source\PSoC6\pdl\drivers\peripheral\gpio/cy_gpio.h **** * This mask is used to determine whether the pin is configured to be forwarded
1656:Generated_Source\PSoC6\pdl\drivers\peripheral\gpio/cy_gpio.h **** * to the CPU NVIC.
1657:Generated_Source\PSoC6\pdl\drivers\peripheral\gpio/cy_gpio.h **** *
ARM GAS  C:\Users\cmila\AppData\Local\Temp\ccUkpexV.s 			page 38


1658:Generated_Source\PSoC6\pdl\drivers\peripheral\gpio/cy_gpio.h **** * \param base
1659:Generated_Source\PSoC6\pdl\drivers\peripheral\gpio/cy_gpio.h **** * Pointer to the pin's port register base address
1660:Generated_Source\PSoC6\pdl\drivers\peripheral\gpio/cy_gpio.h **** *
1661:Generated_Source\PSoC6\pdl\drivers\peripheral\gpio/cy_gpio.h **** * \param pinNum
1662:Generated_Source\PSoC6\pdl\drivers\peripheral\gpio/cy_gpio.h **** * Position of the pin bit-field within the port register.
1663:Generated_Source\PSoC6\pdl\drivers\peripheral\gpio/cy_gpio.h **** * Bit position 8 is the routed pin through the port glitch filter.
1664:Generated_Source\PSoC6\pdl\drivers\peripheral\gpio/cy_gpio.h **** *
1665:Generated_Source\PSoC6\pdl\drivers\peripheral\gpio/cy_gpio.h **** * \return
1666:Generated_Source\PSoC6\pdl\drivers\peripheral\gpio/cy_gpio.h **** * 0 = Pin interrupt not forwarded to CPU interrupt controller
1667:Generated_Source\PSoC6\pdl\drivers\peripheral\gpio/cy_gpio.h **** * 1 = Pin interrupt masked and forwarded to CPU interrupt controller
1668:Generated_Source\PSoC6\pdl\drivers\peripheral\gpio/cy_gpio.h **** *
1669:Generated_Source\PSoC6\pdl\drivers\peripheral\gpio/cy_gpio.h **** * \funcusage
1670:Generated_Source\PSoC6\pdl\drivers\peripheral\gpio/cy_gpio.h **** * \snippet gpio/gpio_v1_10_sut_01.cydsn/main_cm4.c snippet_Cy_GPIO_SetInterruptMask
1671:Generated_Source\PSoC6\pdl\drivers\peripheral\gpio/cy_gpio.h **** *
1672:Generated_Source\PSoC6\pdl\drivers\peripheral\gpio/cy_gpio.h **** *******************************************************************************/
1673:Generated_Source\PSoC6\pdl\drivers\peripheral\gpio/cy_gpio.h **** __STATIC_INLINE uint32_t Cy_GPIO_GetInterruptMask(GPIO_PRT_Type* base, uint32_t pinNum)
1674:Generated_Source\PSoC6\pdl\drivers\peripheral\gpio/cy_gpio.h **** {
1675:Generated_Source\PSoC6\pdl\drivers\peripheral\gpio/cy_gpio.h ****     CY_ASSERT_L2(CY_GPIO_IS_FILTER_PIN_VALID(pinNum));
1676:Generated_Source\PSoC6\pdl\drivers\peripheral\gpio/cy_gpio.h ****     
1677:Generated_Source\PSoC6\pdl\drivers\peripheral\gpio/cy_gpio.h ****     return (GPIO_PRT_INTR_MASK(base) >> pinNum) & CY_GPIO_INTR_EN_MASK;
1678:Generated_Source\PSoC6\pdl\drivers\peripheral\gpio/cy_gpio.h **** }
1679:Generated_Source\PSoC6\pdl\drivers\peripheral\gpio/cy_gpio.h **** 
1680:Generated_Source\PSoC6\pdl\drivers\peripheral\gpio/cy_gpio.h **** 
1681:Generated_Source\PSoC6\pdl\drivers\peripheral\gpio/cy_gpio.h **** /*******************************************************************************
1682:Generated_Source\PSoC6\pdl\drivers\peripheral\gpio/cy_gpio.h **** * Function Name: Cy_GPIO_GetInterruptStatusMasked
1683:Generated_Source\PSoC6\pdl\drivers\peripheral\gpio/cy_gpio.h **** ****************************************************************************//**
1684:Generated_Source\PSoC6\pdl\drivers\peripheral\gpio/cy_gpio.h **** *
1685:Generated_Source\PSoC6\pdl\drivers\peripheral\gpio/cy_gpio.h **** * Return the pin's current interrupt state after being masked.
1686:Generated_Source\PSoC6\pdl\drivers\peripheral\gpio/cy_gpio.h **** *
1687:Generated_Source\PSoC6\pdl\drivers\peripheral\gpio/cy_gpio.h **** * The core processor's NVIC is triggered by the masked interrupt bits. This 
1688:Generated_Source\PSoC6\pdl\drivers\peripheral\gpio/cy_gpio.h **** * function allows reading this masked interrupt state. Note that the bits that
1689:Generated_Source\PSoC6\pdl\drivers\peripheral\gpio/cy_gpio.h **** * are not masked will not be forwarded to the NVIC.
1690:Generated_Source\PSoC6\pdl\drivers\peripheral\gpio/cy_gpio.h **** *
1691:Generated_Source\PSoC6\pdl\drivers\peripheral\gpio/cy_gpio.h **** * \param base
1692:Generated_Source\PSoC6\pdl\drivers\peripheral\gpio/cy_gpio.h **** * Pointer to the pin's port register base address
1693:Generated_Source\PSoC6\pdl\drivers\peripheral\gpio/cy_gpio.h **** *
1694:Generated_Source\PSoC6\pdl\drivers\peripheral\gpio/cy_gpio.h **** * \param pinNum
1695:Generated_Source\PSoC6\pdl\drivers\peripheral\gpio/cy_gpio.h **** * Position of the pin bit-field within the port register.
1696:Generated_Source\PSoC6\pdl\drivers\peripheral\gpio/cy_gpio.h **** * Bit position 8 is the routed pin through the port glitch filter.
1697:Generated_Source\PSoC6\pdl\drivers\peripheral\gpio/cy_gpio.h **** *
1698:Generated_Source\PSoC6\pdl\drivers\peripheral\gpio/cy_gpio.h **** * \return
1699:Generated_Source\PSoC6\pdl\drivers\peripheral\gpio/cy_gpio.h **** * 0 = Pin interrupt not detected or not forwarded to CPU interrupt controller
1700:Generated_Source\PSoC6\pdl\drivers\peripheral\gpio/cy_gpio.h **** * 1 = Pin interrupt detected and forwarded to CPU interrupt controller
1701:Generated_Source\PSoC6\pdl\drivers\peripheral\gpio/cy_gpio.h **** *
1702:Generated_Source\PSoC6\pdl\drivers\peripheral\gpio/cy_gpio.h **** * \funcusage
1703:Generated_Source\PSoC6\pdl\drivers\peripheral\gpio/cy_gpio.h **** * \snippet gpio/gpio_v1_10_sut_01.cydsn/main_cm4.c snippet_Cy_GPIO_GetInterruptStatusMasked
1704:Generated_Source\PSoC6\pdl\drivers\peripheral\gpio/cy_gpio.h **** *
1705:Generated_Source\PSoC6\pdl\drivers\peripheral\gpio/cy_gpio.h **** *******************************************************************************/
1706:Generated_Source\PSoC6\pdl\drivers\peripheral\gpio/cy_gpio.h **** __STATIC_INLINE uint32_t Cy_GPIO_GetInterruptStatusMasked(GPIO_PRT_Type* base, uint32_t pinNum)
1707:Generated_Source\PSoC6\pdl\drivers\peripheral\gpio/cy_gpio.h **** {
1708:Generated_Source\PSoC6\pdl\drivers\peripheral\gpio/cy_gpio.h ****     CY_ASSERT_L2(CY_GPIO_IS_FILTER_PIN_VALID(pinNum));
1709:Generated_Source\PSoC6\pdl\drivers\peripheral\gpio/cy_gpio.h ****     
1710:Generated_Source\PSoC6\pdl\drivers\peripheral\gpio/cy_gpio.h ****     return (GPIO_PRT_INTR_MASKED(base) >> pinNum) & CY_GPIO_INTR_MASKED_MASK;
1711:Generated_Source\PSoC6\pdl\drivers\peripheral\gpio/cy_gpio.h **** }
1712:Generated_Source\PSoC6\pdl\drivers\peripheral\gpio/cy_gpio.h **** 
1713:Generated_Source\PSoC6\pdl\drivers\peripheral\gpio/cy_gpio.h **** 
1714:Generated_Source\PSoC6\pdl\drivers\peripheral\gpio/cy_gpio.h **** /*******************************************************************************
ARM GAS  C:\Users\cmila\AppData\Local\Temp\ccUkpexV.s 			page 39


1715:Generated_Source\PSoC6\pdl\drivers\peripheral\gpio/cy_gpio.h **** * Function Name: Cy_GPIO_SetSwInterrupt
1716:Generated_Source\PSoC6\pdl\drivers\peripheral\gpio/cy_gpio.h **** ****************************************************************************//**
1717:Generated_Source\PSoC6\pdl\drivers\peripheral\gpio/cy_gpio.h **** *
1718:Generated_Source\PSoC6\pdl\drivers\peripheral\gpio/cy_gpio.h **** * Force a pin interrupt to trigger.
1719:Generated_Source\PSoC6\pdl\drivers\peripheral\gpio/cy_gpio.h **** *
1720:Generated_Source\PSoC6\pdl\drivers\peripheral\gpio/cy_gpio.h **** * \param base
1721:Generated_Source\PSoC6\pdl\drivers\peripheral\gpio/cy_gpio.h **** * Pointer to the pin's port register base address
1722:Generated_Source\PSoC6\pdl\drivers\peripheral\gpio/cy_gpio.h **** *
1723:Generated_Source\PSoC6\pdl\drivers\peripheral\gpio/cy_gpio.h **** * \param pinNum
1724:Generated_Source\PSoC6\pdl\drivers\peripheral\gpio/cy_gpio.h **** * Position of the pin bit-field within the port register.
1725:Generated_Source\PSoC6\pdl\drivers\peripheral\gpio/cy_gpio.h **** * Bit position 8 is the routed pin through the port glitch filter.
1726:Generated_Source\PSoC6\pdl\drivers\peripheral\gpio/cy_gpio.h **** *
1727:Generated_Source\PSoC6\pdl\drivers\peripheral\gpio/cy_gpio.h **** * \funcusage
1728:Generated_Source\PSoC6\pdl\drivers\peripheral\gpio/cy_gpio.h **** * \snippet gpio/gpio_v1_10_sut_01.cydsn/main_cm4.c snippet_Cy_GPIO_SetSwInterrupt
1729:Generated_Source\PSoC6\pdl\drivers\peripheral\gpio/cy_gpio.h **** *
1730:Generated_Source\PSoC6\pdl\drivers\peripheral\gpio/cy_gpio.h **** *******************************************************************************/
1731:Generated_Source\PSoC6\pdl\drivers\peripheral\gpio/cy_gpio.h **** __STATIC_INLINE void Cy_GPIO_SetSwInterrupt(GPIO_PRT_Type* base, uint32_t pinNum)
1732:Generated_Source\PSoC6\pdl\drivers\peripheral\gpio/cy_gpio.h **** {
1733:Generated_Source\PSoC6\pdl\drivers\peripheral\gpio/cy_gpio.h ****     CY_ASSERT_L2(CY_GPIO_IS_FILTER_PIN_VALID(pinNum));
1734:Generated_Source\PSoC6\pdl\drivers\peripheral\gpio/cy_gpio.h ****     
1735:Generated_Source\PSoC6\pdl\drivers\peripheral\gpio/cy_gpio.h ****     GPIO_PRT_INTR_SET(base) = CY_GPIO_INTR_SET_MASK << pinNum;
1736:Generated_Source\PSoC6\pdl\drivers\peripheral\gpio/cy_gpio.h **** }
1737:Generated_Source\PSoC6\pdl\drivers\peripheral\gpio/cy_gpio.h **** 
1738:Generated_Source\PSoC6\pdl\drivers\peripheral\gpio/cy_gpio.h **** 
1739:Generated_Source\PSoC6\pdl\drivers\peripheral\gpio/cy_gpio.h **** /*******************************************************************************
1740:Generated_Source\PSoC6\pdl\drivers\peripheral\gpio/cy_gpio.h **** * Function Name: Cy_GPIO_SetInterruptEdge
1741:Generated_Source\PSoC6\pdl\drivers\peripheral\gpio/cy_gpio.h **** ****************************************************************************//**
1742:Generated_Source\PSoC6\pdl\drivers\peripheral\gpio/cy_gpio.h **** *
1743:Generated_Source\PSoC6\pdl\drivers\peripheral\gpio/cy_gpio.h **** * Configures the type of edge that will trigger a pin interrupt.
1744:Generated_Source\PSoC6\pdl\drivers\peripheral\gpio/cy_gpio.h **** *
1745:Generated_Source\PSoC6\pdl\drivers\peripheral\gpio/cy_gpio.h **** * \param base
1746:Generated_Source\PSoC6\pdl\drivers\peripheral\gpio/cy_gpio.h **** * Pointer to the pin's port register base address
1747:Generated_Source\PSoC6\pdl\drivers\peripheral\gpio/cy_gpio.h **** *
1748:Generated_Source\PSoC6\pdl\drivers\peripheral\gpio/cy_gpio.h **** * \param pinNum
1749:Generated_Source\PSoC6\pdl\drivers\peripheral\gpio/cy_gpio.h **** * Position of the pin bit-field within the port register.
1750:Generated_Source\PSoC6\pdl\drivers\peripheral\gpio/cy_gpio.h **** * Bit position 8 is the routed pin through the port glitch filter.
1751:Generated_Source\PSoC6\pdl\drivers\peripheral\gpio/cy_gpio.h **** *
1752:Generated_Source\PSoC6\pdl\drivers\peripheral\gpio/cy_gpio.h **** * \param value
1753:Generated_Source\PSoC6\pdl\drivers\peripheral\gpio/cy_gpio.h **** * Pin interrupt mode. Options are detailed in \ref group_gpio_interruptTrigger macros
1754:Generated_Source\PSoC6\pdl\drivers\peripheral\gpio/cy_gpio.h **** *
1755:Generated_Source\PSoC6\pdl\drivers\peripheral\gpio/cy_gpio.h **** * \note 
1756:Generated_Source\PSoC6\pdl\drivers\peripheral\gpio/cy_gpio.h **** * This function modifies a port register in a read-modify-write operation. It is
1757:Generated_Source\PSoC6\pdl\drivers\peripheral\gpio/cy_gpio.h **** * not thread safe as the resource is shared among multiple pins on a port.
1758:Generated_Source\PSoC6\pdl\drivers\peripheral\gpio/cy_gpio.h **** *
1759:Generated_Source\PSoC6\pdl\drivers\peripheral\gpio/cy_gpio.h **** * \funcusage
1760:Generated_Source\PSoC6\pdl\drivers\peripheral\gpio/cy_gpio.h **** * \snippet gpio/gpio_v1_10_sut_01.cydsn/main_cm4.c snippet_Cy_GPIO_SetInterruptEdge
1761:Generated_Source\PSoC6\pdl\drivers\peripheral\gpio/cy_gpio.h **** *
1762:Generated_Source\PSoC6\pdl\drivers\peripheral\gpio/cy_gpio.h **** *******************************************************************************/
1763:Generated_Source\PSoC6\pdl\drivers\peripheral\gpio/cy_gpio.h **** __STATIC_INLINE void Cy_GPIO_SetInterruptEdge(GPIO_PRT_Type* base, uint32_t pinNum, uint32_t value)
1764:Generated_Source\PSoC6\pdl\drivers\peripheral\gpio/cy_gpio.h **** {
1765:Generated_Source\PSoC6\pdl\drivers\peripheral\gpio/cy_gpio.h ****     uint32_t tempReg;
1766:Generated_Source\PSoC6\pdl\drivers\peripheral\gpio/cy_gpio.h ****     uint32_t pinLoc;
1767:Generated_Source\PSoC6\pdl\drivers\peripheral\gpio/cy_gpio.h **** 
1768:Generated_Source\PSoC6\pdl\drivers\peripheral\gpio/cy_gpio.h ****     CY_ASSERT_L2(CY_GPIO_IS_FILTER_PIN_VALID(pinNum));
 354              		.loc 2 1768 0
 355 01b6 082D     		cmp	r5, #8
 356 01b8 04D9     		bls	.L27
ARM GAS  C:\Users\cmila\AppData\Local\Temp\ccUkpexV.s 			page 40


 357 01ba 4FF4DD61 		mov	r1, #1768
 358 01be 4C48     		ldr	r0, .L36+4
 359 01c0 FFF7FEFF 		bl	Cy_SysLib_AssertFailed
 360              	.LVL44:
 361              	.L27:
1769:Generated_Source\PSoC6\pdl\drivers\peripheral\gpio/cy_gpio.h ****     CY_ASSERT_L2(CY_GPIO_IS_INT_EDGE_VALID(value));
 362              		.loc 2 1769 0
 363 01c4 032F     		cmp	r7, #3
 364 01c6 04D9     		bls	.L28
 365 01c8 40F2E961 		movw	r1, #1769
 366 01cc 4848     		ldr	r0, .L36+4
 367 01ce FFF7FEFF 		bl	Cy_SysLib_AssertFailed
 368              	.LVL45:
 369              	.L28:
1770:Generated_Source\PSoC6\pdl\drivers\peripheral\gpio/cy_gpio.h **** 
1771:Generated_Source\PSoC6\pdl\drivers\peripheral\gpio/cy_gpio.h ****     pinLoc = pinNum << CY_GPIO_INTR_CFG_OFFSET;
 370              		.loc 2 1771 0
 371 01d2 6800     		lsls	r0, r5, #1
 372              	.LVL46:
1772:Generated_Source\PSoC6\pdl\drivers\peripheral\gpio/cy_gpio.h ****     tempReg = GPIO_PRT_INTR_CFG(base) & ~(CY_GPIO_INTR_EDGE_MASK << pinLoc);
 373              		.loc 2 1772 0
 374 01d4 474B     		ldr	r3, .L36+8
 375 01d6 1B68     		ldr	r3, [r3]
 376 01d8 93F87C10 		ldrb	r1, [r3, #124]	@ zero_extendqisi2
 377 01dc 8B59     		ldr	r3, [r1, r6]
 378 01de 0322     		movs	r2, #3
 379 01e0 8240     		lsls	r2, r2, r0
 380 01e2 23EA0202 		bic	r2, r3, r2
 381              	.LVL47:
1773:Generated_Source\PSoC6\pdl\drivers\peripheral\gpio/cy_gpio.h ****     GPIO_PRT_INTR_CFG(base) = tempReg | ((value & CY_GPIO_INTR_EDGE_MASK) << pinLoc);
 382              		.loc 2 1773 0
 383 01e6 07F00303 		and	r3, r7, #3
 384 01ea 03FA00F7 		lsl	r7, r3, r0
 385              	.LVL48:
 386 01ee 1743     		orrs	r7, r7, r2
 387 01f0 8F51     		str	r7, [r1, r6]
 388              	.LVL49:
 389              	.LBE23:
 390              	.LBE22:
  89:Generated_Source\PSoC6\pdl\drivers\peripheral\gpio/cy_gpio.c ****         Cy_GPIO_SetInterruptMask(base, pinNum, config->intMask);
 391              		.loc 1 89 0
 392 01f2 2769     		ldr	r7, [r4, #16]
 393              	.LVL50:
 394              	.LBB24:
 395              	.LBB25:
1641:Generated_Source\PSoC6\pdl\drivers\peripheral\gpio/cy_gpio.h ****     CY_ASSERT_L2(CY_GPIO_IS_VALUE_VALID(value));
 396              		.loc 2 1641 0
 397 01f4 082D     		cmp	r5, #8
 398 01f6 04D9     		bls	.L29
 399 01f8 40F26961 		movw	r1, #1641
 400 01fc 3C48     		ldr	r0, .L36+4
 401 01fe FFF7FEFF 		bl	Cy_SysLib_AssertFailed
 402              	.LVL51:
 403              	.L29:
1642:Generated_Source\PSoC6\pdl\drivers\peripheral\gpio/cy_gpio.h **** 
 404              		.loc 2 1642 0
 405 0202 012F     		cmp	r7, #1
ARM GAS  C:\Users\cmila\AppData\Local\Temp\ccUkpexV.s 			page 41


 406 0204 04D9     		bls	.L30
 407 0206 40F26A61 		movw	r1, #1642
 408 020a 3948     		ldr	r0, .L36+4
 409 020c FFF7FEFF 		bl	Cy_SysLib_AssertFailed
 410              	.LVL52:
 411              	.L30:
1644:Generated_Source\PSoC6\pdl\drivers\peripheral\gpio/cy_gpio.h ****     GPIO_PRT_INTR_MASK(base) = tempReg | ((value & CY_GPIO_INTR_EN_MASK) << pinNum);
 412              		.loc 2 1644 0
 413 0210 B269     		ldr	r2, [r6, #24]
 414 0212 0123     		movs	r3, #1
 415 0214 AB40     		lsls	r3, r3, r5
 416 0216 22EA0303 		bic	r3, r2, r3
 417              	.LVL53:
1645:Generated_Source\PSoC6\pdl\drivers\peripheral\gpio/cy_gpio.h **** }
 418              		.loc 2 1645 0
 419 021a 07F00107 		and	r7, r7, #1
 420              	.LVL54:
 421 021e AF40     		lsls	r7, r7, r5
 422 0220 1F43     		orrs	r7, r7, r3
 423 0222 B761     		str	r7, [r6, #24]
 424              	.LVL55:
 425              	.LBE25:
 426              	.LBE24:
  90:Generated_Source\PSoC6\pdl\drivers\peripheral\gpio/cy_gpio.c ****         Cy_GPIO_SetVtrip(base, pinNum, config->vtrip);
 427              		.loc 1 90 0
 428 0224 6769     		ldr	r7, [r4, #20]
 429              	.LVL56:
 430              	.LBB26:
 431              	.LBB27:
1027:Generated_Source\PSoC6\pdl\drivers\peripheral\gpio/cy_gpio.h ****     CY_ASSERT_L2(CY_GPIO_IS_VALUE_VALID(value));
 432              		.loc 2 1027 0
 433 0226 072D     		cmp	r5, #7
 434 0228 04D9     		bls	.L31
 435 022a 40F20341 		movw	r1, #1027
 436 022e 3048     		ldr	r0, .L36+4
 437 0230 FFF7FEFF 		bl	Cy_SysLib_AssertFailed
 438              	.LVL57:
 439              	.L31:
1028:Generated_Source\PSoC6\pdl\drivers\peripheral\gpio/cy_gpio.h **** 
 440              		.loc 2 1028 0
 441 0234 012F     		cmp	r7, #1
 442 0236 04D9     		bls	.L32
 443 0238 40F20441 		movw	r1, #1028
 444 023c 2C48     		ldr	r0, .L36+4
 445 023e FFF7FEFF 		bl	Cy_SysLib_AssertFailed
 446              	.LVL58:
 447              	.L32:
1030:Generated_Source\PSoC6\pdl\drivers\peripheral\gpio/cy_gpio.h ****     GPIO_PRT_CFG_IN(base) = tempReg | ((value & CY_GPIO_CFG_IN_VTRIP_SEL_MASK) << pinNum);
 448              		.loc 2 1030 0
 449 0242 2C48     		ldr	r0, .L36+8
 450 0244 0368     		ldr	r3, [r0]
 451 0246 93F87EE0 		ldrb	lr, [r3, #126]	@ zero_extendqisi2
 452 024a 5EF80630 		ldr	r3, [lr, r6]
 453 024e 0122     		movs	r2, #1
 454 0250 02FA05F1 		lsl	r1, r2, r5
 455 0254 23EA0103 		bic	r3, r3, r1
 456              	.LVL59:
ARM GAS  C:\Users\cmila\AppData\Local\Temp\ccUkpexV.s 			page 42


1031:Generated_Source\PSoC6\pdl\drivers\peripheral\gpio/cy_gpio.h **** }
 457              		.loc 2 1031 0
 458 0258 1740     		ands	r7, r7, r2
 459              	.LVL60:
 460 025a AF40     		lsls	r7, r7, r5
 461 025c 1F43     		orrs	r7, r7, r3
 462 025e 4EF80670 		str	r7, [lr, r6]
 463              	.LVL61:
 464              	.LBE27:
 465              	.LBE26:
  91:Generated_Source\PSoC6\pdl\drivers\peripheral\gpio/cy_gpio.c **** 
  92:Generated_Source\PSoC6\pdl\drivers\peripheral\gpio/cy_gpio.c ****         /* Slew rate and Driver strength */
  93:Generated_Source\PSoC6\pdl\drivers\peripheral\gpio/cy_gpio.c ****         maskCfgOut = (CY_GPIO_CFG_OUT_SLOW_MASK << pinNum) 
  94:Generated_Source\PSoC6\pdl\drivers\peripheral\gpio/cy_gpio.c ****                      | (CY_GPIO_CFG_OUT_DRIVE_SEL_MASK << ((uint32_t)(pinNum << 1U) + CY_GPIO_CFG_O
 466              		.loc 1 94 0
 467 0262 05FA02F3 		lsl	r3, r5, r2
 468 0266 03F1100E 		add	lr, r3, #16
 469 026a 0322     		movs	r2, #3
 470 026c 02FA0EF2 		lsl	r2, r2, lr
  93:Generated_Source\PSoC6\pdl\drivers\peripheral\gpio/cy_gpio.c ****                      | (CY_GPIO_CFG_OUT_DRIVE_SEL_MASK << ((uint32_t)(pinNum << 1U) + CY_GPIO_CFG_O
 471              		.loc 1 93 0
 472 0270 0A43     		orrs	r2, r2, r1
 473              	.LVL62:
  95:Generated_Source\PSoC6\pdl\drivers\peripheral\gpio/cy_gpio.c ****         tempReg = GPIO_PRT_CFG_OUT(base) & ~(maskCfgOut);
 474              		.loc 1 95 0
 475 0272 0368     		ldr	r3, [r0]
 476 0274 93F87F70 		ldrb	r7, [r3, #127]	@ zero_extendqisi2
 477 0278 BB59     		ldr	r3, [r7, r6]
 478 027a 23EA0203 		bic	r3, r3, r2
 479              	.LVL63:
  96:Generated_Source\PSoC6\pdl\drivers\peripheral\gpio/cy_gpio.c ****         
  97:Generated_Source\PSoC6\pdl\drivers\peripheral\gpio/cy_gpio.c ****         GPIO_PRT_CFG_OUT(base) = tempReg | ((config->slewRate & CY_GPIO_CFG_OUT_SLOW_MASK) << pinNu
 480              		.loc 1 97 0
 481 027e A269     		ldr	r2, [r4, #24]
 482              	.LVL64:
 483 0280 02F00102 		and	r2, r2, #1
 484 0284 AA40     		lsls	r2, r2, r5
 485 0286 43EA0201 		orr	r1, r3, r2
 486              	.LVL65:
  98:Generated_Source\PSoC6\pdl\drivers\peripheral\gpio/cy_gpio.c ****                             | ((config->driveSel & CY_GPIO_CFG_OUT_DRIVE_SEL_MASK) << ((uint32_t)(p
 487              		.loc 1 98 0
 488 028a E369     		ldr	r3, [r4, #28]
 489              	.LVL66:
 490 028c 03F00302 		and	r2, r3, #3
 491 0290 02FA0EF3 		lsl	r3, r2, lr
 492 0294 0B43     		orrs	r3, r3, r1
  97:Generated_Source\PSoC6\pdl\drivers\peripheral\gpio/cy_gpio.c ****                             | ((config->driveSel & CY_GPIO_CFG_OUT_DRIVE_SEL_MASK) << ((uint32_t)(p
 493              		.loc 1 97 0
 494 0296 BB51     		str	r3, [r7, r6]
  99:Generated_Source\PSoC6\pdl\drivers\peripheral\gpio/cy_gpio.c **** 
 100:Generated_Source\PSoC6\pdl\drivers\peripheral\gpio/cy_gpio.c ****         /* SIO specific configuration */
 101:Generated_Source\PSoC6\pdl\drivers\peripheral\gpio/cy_gpio.c ****         tempReg = GPIO_PRT_CFG_SIO(base) & ~(CY_GPIO_SIO_PIN_MASK);
 495              		.loc 1 101 0
 496 0298 0368     		ldr	r3, [r0]
 497 029a 93F88010 		ldrb	r1, [r3, #128]	@ zero_extendqisi2
 498 029e 7058     		ldr	r0, [r6, r1]
 499 02a0 20F0FF00 		bic	r0, r0, #255
ARM GAS  C:\Users\cmila\AppData\Local\Temp\ccUkpexV.s 			page 43


 500              	.LVL67:
 102:Generated_Source\PSoC6\pdl\drivers\peripheral\gpio/cy_gpio.c ****         GPIO_PRT_CFG_SIO(base) = tempReg | (((config->vregEn & CY_GPIO_VREG_EN_MASK)
 501              		.loc 1 102 0
 502 02a4 236A     		ldr	r3, [r4, #32]
 503 02a6 03F00102 		and	r2, r3, #1
 103:Generated_Source\PSoC6\pdl\drivers\peripheral\gpio/cy_gpio.c ****                                          | ((config->ibufMode & CY_GPIO_IBUF_MASK) << CY_GPIO_IBUF_
 504              		.loc 1 103 0
 505 02aa 636A     		ldr	r3, [r4, #36]
 506 02ac 5B00     		lsls	r3, r3, #1
 507 02ae 03F00203 		and	r3, r3, #2
 508 02b2 1343     		orrs	r3, r3, r2
 104:Generated_Source\PSoC6\pdl\drivers\peripheral\gpio/cy_gpio.c ****                                          | ((config->vtripSel & CY_GPIO_VTRIP_SEL_MASK) << CY_GPIO_
 509              		.loc 1 104 0
 510 02b4 A76A     		ldr	r7, [r4, #40]
 511 02b6 BF00     		lsls	r7, r7, #2
 512 02b8 07F00407 		and	r7, r7, #4
 513 02bc 3B43     		orrs	r3, r3, r7
 105:Generated_Source\PSoC6\pdl\drivers\peripheral\gpio/cy_gpio.c ****                                          | ((config->vrefSel & CY_GPIO_VREF_SEL_MASK)  << CY_GPIO_V
 514              		.loc 1 105 0
 515 02be E26A     		ldr	r2, [r4, #44]
 516 02c0 D200     		lsls	r2, r2, #3
 517 02c2 02F01802 		and	r2, r2, #24
 518 02c6 1A43     		orrs	r2, r2, r3
 106:Generated_Source\PSoC6\pdl\drivers\peripheral\gpio/cy_gpio.c ****                                          | ((config->vohSel & CY_GPIO_VOH_SEL_MASK) << CY_GPIO_VOH_
 519              		.loc 1 106 0
 520 02c8 236B     		ldr	r3, [r4, #48]
 521 02ca 5B01     		lsls	r3, r3, #5
 522 02cc DBB2     		uxtb	r3, r3
 523 02ce 1343     		orrs	r3, r3, r2
 107:Generated_Source\PSoC6\pdl\drivers\peripheral\gpio/cy_gpio.c ****                                            << ((pinNum & CY_GPIO_SIO_ODD_PIN_MASK) << CY_GPIO_CFG_S
 524              		.loc 1 107 0
 525 02d0 AD00     		lsls	r5, r5, #2
 526              	.LVL68:
 527 02d2 05F47E75 		and	r5, r5, #1016
 528 02d6 03FA05F5 		lsl	r5, r3, r5
 102:Generated_Source\PSoC6\pdl\drivers\peripheral\gpio/cy_gpio.c ****                                          | ((config->ibufMode & CY_GPIO_IBUF_MASK) << CY_GPIO_IBUF_
 529              		.loc 1 102 0
 530 02da 0543     		orrs	r5, r5, r0
 531 02dc 7550     		str	r5, [r6, r1]
 532              	.LVL69:
 108:Generated_Source\PSoC6\pdl\drivers\peripheral\gpio/cy_gpio.c **** 
 109:Generated_Source\PSoC6\pdl\drivers\peripheral\gpio/cy_gpio.c ****         status = CY_GPIO_SUCCESS;
 533              		.loc 1 109 0
 534 02de 0020     		movs	r0, #0
 535              	.LVL70:
 536 02e0 F8BD     		pop	{r3, r4, r5, r6, r7, pc}
 537              	.LVL71:
 538              	.L33:
 539              		.cfi_def_cfa_offset 0
 540              		.cfi_restore 3
 541              		.cfi_restore 4
 542              		.cfi_restore 5
 543              		.cfi_restore 6
 544              		.cfi_restore 7
 545              		.cfi_restore 14
 546              	.LBE15:
  62:Generated_Source\PSoC6\pdl\drivers\peripheral\gpio/cy_gpio.c **** 
ARM GAS  C:\Users\cmila\AppData\Local\Temp\ccUkpexV.s 			page 44


 547              		.loc 1 62 0
 548 02e2 0548     		ldr	r0, .L36+12
 549              	.LVL72:
 110:Generated_Source\PSoC6\pdl\drivers\peripheral\gpio/cy_gpio.c ****     }
 111:Generated_Source\PSoC6\pdl\drivers\peripheral\gpio/cy_gpio.c **** 
 112:Generated_Source\PSoC6\pdl\drivers\peripheral\gpio/cy_gpio.c ****     return(status);
 113:Generated_Source\PSoC6\pdl\drivers\peripheral\gpio/cy_gpio.c **** }
 550              		.loc 1 113 0
 551 02e4 7047     		bx	lr
 552              	.LVL73:
 553              	.L34:
 554              		.cfi_def_cfa_offset 24
 555              		.cfi_offset 3, -24
 556              		.cfi_offset 4, -20
 557              		.cfi_offset 5, -16
 558              		.cfi_offset 6, -12
 559              		.cfi_offset 7, -8
 560              		.cfi_offset 14, -4
  62:Generated_Source\PSoC6\pdl\drivers\peripheral\gpio/cy_gpio.c **** 
 561              		.loc 1 62 0
 562 02e6 0448     		ldr	r0, .L36+12
 563              	.LVL74:
 564              		.loc 1 113 0
 565 02e8 F8BD     		pop	{r3, r4, r5, r6, r7, pc}
 566              	.LVL75:
 567              	.L37:
 568 02ea 00BF     		.align	2
 569              	.L36:
 570 02ec 00000000 		.word	.LC0
 571 02f0 40000000 		.word	.LC1
 572 02f4 00000000 		.word	cy_device
 573 02f8 01005A00 		.word	5898241
 574              		.cfi_endproc
 575              	.LFE173:
 576              		.size	Cy_GPIO_Pin_Init, .-Cy_GPIO_Pin_Init
 577              		.section	.text.Cy_GPIO_Port_Init,"ax",%progbits
 578              		.align	2
 579              		.global	Cy_GPIO_Port_Init
 580              		.thumb
 581              		.thumb_func
 582              		.type	Cy_GPIO_Port_Init, %function
 583              	Cy_GPIO_Port_Init:
 584              	.LFB174:
 114:Generated_Source\PSoC6\pdl\drivers\peripheral\gpio/cy_gpio.c **** 
 115:Generated_Source\PSoC6\pdl\drivers\peripheral\gpio/cy_gpio.c **** 
 116:Generated_Source\PSoC6\pdl\drivers\peripheral\gpio/cy_gpio.c **** /*******************************************************************************
 117:Generated_Source\PSoC6\pdl\drivers\peripheral\gpio/cy_gpio.c **** * Function Name: Cy_GPIO_Port_Init
 118:Generated_Source\PSoC6\pdl\drivers\peripheral\gpio/cy_gpio.c **** ****************************************************************************//**
 119:Generated_Source\PSoC6\pdl\drivers\peripheral\gpio/cy_gpio.c **** *
 120:Generated_Source\PSoC6\pdl\drivers\peripheral\gpio/cy_gpio.c **** * Initialize a complete port of pins from a single init structure.
 121:Generated_Source\PSoC6\pdl\drivers\peripheral\gpio/cy_gpio.c **** *
 122:Generated_Source\PSoC6\pdl\drivers\peripheral\gpio/cy_gpio.c **** * The configuration structure used in this function has a 1:1 mapping to the
 123:Generated_Source\PSoC6\pdl\drivers\peripheral\gpio/cy_gpio.c **** * GPIO and HSIOM registers. Refer to the device Technical Reference Manual (TRM)
 124:Generated_Source\PSoC6\pdl\drivers\peripheral\gpio/cy_gpio.c **** * for the register details on how to populate them.
 125:Generated_Source\PSoC6\pdl\drivers\peripheral\gpio/cy_gpio.c **** *
 126:Generated_Source\PSoC6\pdl\drivers\peripheral\gpio/cy_gpio.c **** * \param base
 127:Generated_Source\PSoC6\pdl\drivers\peripheral\gpio/cy_gpio.c **** * Pointer to the pin's port register base address
ARM GAS  C:\Users\cmila\AppData\Local\Temp\ccUkpexV.s 			page 45


 128:Generated_Source\PSoC6\pdl\drivers\peripheral\gpio/cy_gpio.c **** *
 129:Generated_Source\PSoC6\pdl\drivers\peripheral\gpio/cy_gpio.c **** * \param config
 130:Generated_Source\PSoC6\pdl\drivers\peripheral\gpio/cy_gpio.c **** * Pointer to the pin config structure base address
 131:Generated_Source\PSoC6\pdl\drivers\peripheral\gpio/cy_gpio.c **** *
 132:Generated_Source\PSoC6\pdl\drivers\peripheral\gpio/cy_gpio.c **** * \return
 133:Generated_Source\PSoC6\pdl\drivers\peripheral\gpio/cy_gpio.c **** * Initialization status
 134:Generated_Source\PSoC6\pdl\drivers\peripheral\gpio/cy_gpio.c **** *
 135:Generated_Source\PSoC6\pdl\drivers\peripheral\gpio/cy_gpio.c **** * \note 
 136:Generated_Source\PSoC6\pdl\drivers\peripheral\gpio/cy_gpio.c **** * If using the PSoC Creator IDE, there is no need to initialize the pins when 
 137:Generated_Source\PSoC6\pdl\drivers\peripheral\gpio/cy_gpio.c **** * using the GPIO component on the schematic. Ports are configured in 
 138:Generated_Source\PSoC6\pdl\drivers\peripheral\gpio/cy_gpio.c **** * Cy_SystemInit() before main() entry.
 139:Generated_Source\PSoC6\pdl\drivers\peripheral\gpio/cy_gpio.c **** *
 140:Generated_Source\PSoC6\pdl\drivers\peripheral\gpio/cy_gpio.c **** * \funcusage
 141:Generated_Source\PSoC6\pdl\drivers\peripheral\gpio/cy_gpio.c **** * \snippet gpio/gpio_v1_10_sut_01.cydsn/main_cm4.c snippet_Cy_GPIO_Port_Init
 142:Generated_Source\PSoC6\pdl\drivers\peripheral\gpio/cy_gpio.c **** *
 143:Generated_Source\PSoC6\pdl\drivers\peripheral\gpio/cy_gpio.c **** *******************************************************************************/
 144:Generated_Source\PSoC6\pdl\drivers\peripheral\gpio/cy_gpio.c **** cy_en_gpio_status_t Cy_GPIO_Port_Init(GPIO_PRT_Type* base, const cy_stc_gpio_prt_config_t *config)
 145:Generated_Source\PSoC6\pdl\drivers\peripheral\gpio/cy_gpio.c **** {
 585              		.loc 1 145 0
 586              		.cfi_startproc
 587              		@ args = 0, pretend = 0, frame = 0
 588              		@ frame_needed = 0, uses_anonymous_args = 0
 589              	.LVL76:
 146:Generated_Source\PSoC6\pdl\drivers\peripheral\gpio/cy_gpio.c ****     cy_en_gpio_status_t status = CY_GPIO_BAD_PARAM;
 147:Generated_Source\PSoC6\pdl\drivers\peripheral\gpio/cy_gpio.c **** 
 148:Generated_Source\PSoC6\pdl\drivers\peripheral\gpio/cy_gpio.c ****     if ((NULL != base) && (NULL != config))
 590              		.loc 1 148 0
 591 0000 0028     		cmp	r0, #0
 592 0002 61D0     		beq	.L46
 145:Generated_Source\PSoC6\pdl\drivers\peripheral\gpio/cy_gpio.c ****     cy_en_gpio_status_t status = CY_GPIO_BAD_PARAM;
 593              		.loc 1 145 0 discriminator 1
 594 0004 F8B5     		push	{r3, r4, r5, r6, r7, lr}
 595              		.cfi_def_cfa_offset 24
 596              		.cfi_offset 3, -24
 597              		.cfi_offset 4, -20
 598              		.cfi_offset 5, -16
 599              		.cfi_offset 6, -12
 600              		.cfi_offset 7, -8
 601              		.cfi_offset 14, -4
 602 0006 0546     		mov	r5, r0
 603              		.loc 1 148 0 discriminator 1
 604 0008 0029     		cmp	r1, #0
 605 000a 5FD0     		beq	.L47
 606 000c 0C46     		mov	r4, r1
 607              	.LBB28:
 149:Generated_Source\PSoC6\pdl\drivers\peripheral\gpio/cy_gpio.c ****     {
 150:Generated_Source\PSoC6\pdl\drivers\peripheral\gpio/cy_gpio.c ****         uint32_t portNum;
 151:Generated_Source\PSoC6\pdl\drivers\peripheral\gpio/cy_gpio.c ****         HSIOM_PRT_V1_Type* baseHSIOM;
 152:Generated_Source\PSoC6\pdl\drivers\peripheral\gpio/cy_gpio.c ****         
 153:Generated_Source\PSoC6\pdl\drivers\peripheral\gpio/cy_gpio.c ****         CY_ASSERT_L2(CY_GPIO_IS_PIN_BIT_VALID(config->out));
 608              		.loc 1 153 0
 609 000e 0B68     		ldr	r3, [r1]
 610 0010 33F0FF03 		bics	r3, r3, #255
 611 0014 03D0     		beq	.L40
 612              		.loc 1 153 0 is_stmt 0 discriminator 1
 613 0016 9921     		movs	r1, #153
 614              	.LVL77:
ARM GAS  C:\Users\cmila\AppData\Local\Temp\ccUkpexV.s 			page 46


 615 0018 2D48     		ldr	r0, .L49
 616              	.LVL78:
 617 001a FFF7FEFF 		bl	Cy_SysLib_AssertFailed
 618              	.LVL79:
 619              	.L40:
 154:Generated_Source\PSoC6\pdl\drivers\peripheral\gpio/cy_gpio.c ****         CY_ASSERT_L2(CY_GPIO_IS_PIN_BIT_VALID(config->cfgIn));
 620              		.loc 1 154 0 is_stmt 1
 621 001e 2369     		ldr	r3, [r4, #16]
 622 0020 33F0FF03 		bics	r3, r3, #255
 623 0024 03D0     		beq	.L41
 624              		.loc 1 154 0 is_stmt 0 discriminator 1
 625 0026 9A21     		movs	r1, #154
 626 0028 2948     		ldr	r0, .L49
 627 002a FFF7FEFF 		bl	Cy_SysLib_AssertFailed
 628              	.LVL80:
 629              	.L41:
 155:Generated_Source\PSoC6\pdl\drivers\peripheral\gpio/cy_gpio.c ****         CY_ASSERT_L2(CY_GPIO_IS_INTR_CFG_VALID(config->intrCfg));
 630              		.loc 1 155 0 is_stmt 1
 631 002e A368     		ldr	r3, [r4, #8]
 632 0030 5B0D     		lsrs	r3, r3, #21
 633 0032 5B05     		lsls	r3, r3, #21
 634 0034 1BB1     		cbz	r3, .L42
 635              		.loc 1 155 0 is_stmt 0 discriminator 1
 636 0036 9B21     		movs	r1, #155
 637 0038 2548     		ldr	r0, .L49
 638 003a FFF7FEFF 		bl	Cy_SysLib_AssertFailed
 639              	.LVL81:
 640              	.L42:
 156:Generated_Source\PSoC6\pdl\drivers\peripheral\gpio/cy_gpio.c ****         CY_ASSERT_L2(CY_GPIO_IS_INTR_MASK_VALID(config->intrMask));
 641              		.loc 1 156 0 is_stmt 1
 642 003e 6368     		ldr	r3, [r4, #4]
 643 0040 23F4FF73 		bic	r3, r3, #510
 644 0044 23F00103 		bic	r3, r3, #1
 645 0048 1BB1     		cbz	r3, .L43
 646              		.loc 1 156 0 is_stmt 0 discriminator 1
 647 004a 9C21     		movs	r1, #156
 648 004c 2048     		ldr	r0, .L49
 649 004e FFF7FEFF 		bl	Cy_SysLib_AssertFailed
 650              	.LVL82:
 651              	.L43:
 157:Generated_Source\PSoC6\pdl\drivers\peripheral\gpio/cy_gpio.c ****         CY_ASSERT_L2(CY_GPIO_IS_SEL_ACT_VALID(config->sel0Active));
 652              		.loc 1 157 0 is_stmt 1
 653 0052 E369     		ldr	r3, [r4, #28]
 654 0054 13F0604F 		tst	r3, #-536870912
 655 0058 03D0     		beq	.L44
 656              		.loc 1 157 0 is_stmt 0 discriminator 1
 657 005a 9D21     		movs	r1, #157
 658 005c 1C48     		ldr	r0, .L49
 659 005e FFF7FEFF 		bl	Cy_SysLib_AssertFailed
 660              	.LVL83:
 661              	.L44:
 158:Generated_Source\PSoC6\pdl\drivers\peripheral\gpio/cy_gpio.c ****         CY_ASSERT_L2(CY_GPIO_IS_SEL_ACT_VALID(config->sel1Active));
 662              		.loc 1 158 0 is_stmt 1
 663 0062 236A     		ldr	r3, [r4, #32]
 664 0064 13F0604F 		tst	r3, #-536870912
 665 0068 03D0     		beq	.L45
 666              		.loc 1 158 0 is_stmt 0 discriminator 1
ARM GAS  C:\Users\cmila\AppData\Local\Temp\ccUkpexV.s 			page 47


 667 006a 9E21     		movs	r1, #158
 668 006c 1848     		ldr	r0, .L49
 669 006e FFF7FEFF 		bl	Cy_SysLib_AssertFailed
 670              	.LVL84:
 671              	.L45:
 159:Generated_Source\PSoC6\pdl\drivers\peripheral\gpio/cy_gpio.c ****     
 160:Generated_Source\PSoC6\pdl\drivers\peripheral\gpio/cy_gpio.c ****         portNum = ((uint32_t)(base) - CY_GPIO_BASE) / GPIO_PRT_SECTION_SIZE;
 672              		.loc 1 160 0 is_stmt 1
 673 0072 184A     		ldr	r2, .L49+4
 674 0074 1168     		ldr	r1, [r2]
 675 0076 8B69     		ldr	r3, [r1, #24]
 676 0078 EB1A     		subs	r3, r5, r3
 677 007a DB09     		lsrs	r3, r3, #7
 678              	.LVL85:
 161:Generated_Source\PSoC6\pdl\drivers\peripheral\gpio/cy_gpio.c ****         baseHSIOM = (HSIOM_PRT_V1_Type*)(CY_HSIOM_BASE + (HSIOM_PRT_SECTION_SIZE * portNum));
 679              		.loc 1 161 0
 680 007c 4969     		ldr	r1, [r1, #20]
 681 007e 1B01     		lsls	r3, r3, #4
 682              	.LVL86:
 683 0080 C818     		adds	r0, r1, r3
 684              	.LVL87:
 162:Generated_Source\PSoC6\pdl\drivers\peripheral\gpio/cy_gpio.c **** 
 163:Generated_Source\PSoC6\pdl\drivers\peripheral\gpio/cy_gpio.c ****         GPIO_PRT_OUT(base)             = config->out;
 685              		.loc 1 163 0
 686 0082 2668     		ldr	r6, [r4]
 687 0084 2E60     		str	r6, [r5]
 688              	.LVL88:
 164:Generated_Source\PSoC6\pdl\drivers\peripheral\gpio/cy_gpio.c ****         GPIO_PRT_CFG(base)             = config->cfg;
 689              		.loc 1 164 0
 690 0086 1668     		ldr	r6, [r2]
 691 0088 96F87D60 		ldrb	r6, [r6, #125]	@ zero_extendqisi2
 692 008c E768     		ldr	r7, [r4, #12]
 693 008e AF51     		str	r7, [r5, r6]
 165:Generated_Source\PSoC6\pdl\drivers\peripheral\gpio/cy_gpio.c ****         GPIO_PRT_CFG_IN(base)          = config->cfgIn;
 694              		.loc 1 165 0
 695 0090 1668     		ldr	r6, [r2]
 696 0092 96F87E60 		ldrb	r6, [r6, #126]	@ zero_extendqisi2
 697 0096 2769     		ldr	r7, [r4, #16]
 698 0098 AF51     		str	r7, [r5, r6]
 166:Generated_Source\PSoC6\pdl\drivers\peripheral\gpio/cy_gpio.c ****         GPIO_PRT_CFG_OUT(base)         = config->cfgOut;
 699              		.loc 1 166 0
 700 009a 1668     		ldr	r6, [r2]
 701 009c 96F87F60 		ldrb	r6, [r6, #127]	@ zero_extendqisi2
 702 00a0 6769     		ldr	r7, [r4, #20]
 703 00a2 AF51     		str	r7, [r5, r6]
 167:Generated_Source\PSoC6\pdl\drivers\peripheral\gpio/cy_gpio.c ****         GPIO_PRT_INTR_CFG(base)        = config->intrCfg;
 704              		.loc 1 167 0
 705 00a4 1668     		ldr	r6, [r2]
 706 00a6 96F87C60 		ldrb	r6, [r6, #124]	@ zero_extendqisi2
 707 00aa A768     		ldr	r7, [r4, #8]
 708 00ac AF51     		str	r7, [r5, r6]
 168:Generated_Source\PSoC6\pdl\drivers\peripheral\gpio/cy_gpio.c ****         GPIO_PRT_INTR_MASK(base)       = config->intrMask;
 709              		.loc 1 168 0
 710 00ae 6668     		ldr	r6, [r4, #4]
 711 00b0 AE61     		str	r6, [r5, #24]
 169:Generated_Source\PSoC6\pdl\drivers\peripheral\gpio/cy_gpio.c ****         GPIO_PRT_CFG_SIO(base)         = config->cfgSIO;
 712              		.loc 1 169 0
ARM GAS  C:\Users\cmila\AppData\Local\Temp\ccUkpexV.s 			page 48


 713 00b2 1268     		ldr	r2, [r2]
 714 00b4 92F88020 		ldrb	r2, [r2, #128]	@ zero_extendqisi2
 715 00b8 A669     		ldr	r6, [r4, #24]
 716 00ba AE50     		str	r6, [r5, r2]
 170:Generated_Source\PSoC6\pdl\drivers\peripheral\gpio/cy_gpio.c ****         HSIOM_PRT_PORT_SEL0(baseHSIOM) = config->sel0Active;
 717              		.loc 1 170 0
 718 00bc E269     		ldr	r2, [r4, #28]
 719 00be CA50     		str	r2, [r1, r3]
 171:Generated_Source\PSoC6\pdl\drivers\peripheral\gpio/cy_gpio.c ****         HSIOM_PRT_PORT_SEL1(baseHSIOM) = config->sel1Active;
 720              		.loc 1 171 0
 721 00c0 236A     		ldr	r3, [r4, #32]
 722 00c2 4360     		str	r3, [r0, #4]
 723              	.LVL89:
 172:Generated_Source\PSoC6\pdl\drivers\peripheral\gpio/cy_gpio.c ****         
 173:Generated_Source\PSoC6\pdl\drivers\peripheral\gpio/cy_gpio.c ****         status = CY_GPIO_SUCCESS;
 724              		.loc 1 173 0
 725 00c4 0020     		movs	r0, #0
 726              	.LVL90:
 727 00c6 F8BD     		pop	{r3, r4, r5, r6, r7, pc}
 728              	.LVL91:
 729              	.L46:
 730              		.cfi_def_cfa_offset 0
 731              		.cfi_restore 3
 732              		.cfi_restore 4
 733              		.cfi_restore 5
 734              		.cfi_restore 6
 735              		.cfi_restore 7
 736              		.cfi_restore 14
 737              	.LBE28:
 146:Generated_Source\PSoC6\pdl\drivers\peripheral\gpio/cy_gpio.c **** 
 738              		.loc 1 146 0
 739 00c8 0348     		ldr	r0, .L49+8
 740              	.LVL92:
 174:Generated_Source\PSoC6\pdl\drivers\peripheral\gpio/cy_gpio.c ****     }
 175:Generated_Source\PSoC6\pdl\drivers\peripheral\gpio/cy_gpio.c ****     
 176:Generated_Source\PSoC6\pdl\drivers\peripheral\gpio/cy_gpio.c ****     return (status);
 177:Generated_Source\PSoC6\pdl\drivers\peripheral\gpio/cy_gpio.c **** }
 741              		.loc 1 177 0
 742 00ca 7047     		bx	lr
 743              	.LVL93:
 744              	.L47:
 745              		.cfi_def_cfa_offset 24
 746              		.cfi_offset 3, -24
 747              		.cfi_offset 4, -20
 748              		.cfi_offset 5, -16
 749              		.cfi_offset 6, -12
 750              		.cfi_offset 7, -8
 751              		.cfi_offset 14, -4
 146:Generated_Source\PSoC6\pdl\drivers\peripheral\gpio/cy_gpio.c **** 
 752              		.loc 1 146 0
 753 00cc 0248     		ldr	r0, .L49+8
 754              	.LVL94:
 755              		.loc 1 177 0
 756 00ce F8BD     		pop	{r3, r4, r5, r6, r7, pc}
 757              	.LVL95:
 758              	.L50:
 759              		.align	2
ARM GAS  C:\Users\cmila\AppData\Local\Temp\ccUkpexV.s 			page 49


 760              	.L49:
 761 00d0 00000000 		.word	.LC0
 762 00d4 00000000 		.word	cy_device
 763 00d8 01005A00 		.word	5898241
 764              		.cfi_endproc
 765              	.LFE174:
 766              		.size	Cy_GPIO_Port_Init, .-Cy_GPIO_Port_Init
 767              		.section	.text.Cy_GPIO_Pin_FastInit,"ax",%progbits
 768              		.align	2
 769              		.global	Cy_GPIO_Pin_FastInit
 770              		.thumb
 771              		.thumb_func
 772              		.type	Cy_GPIO_Pin_FastInit, %function
 773              	Cy_GPIO_Pin_FastInit:
 774              	.LFB175:
 178:Generated_Source\PSoC6\pdl\drivers\peripheral\gpio/cy_gpio.c **** 
 179:Generated_Source\PSoC6\pdl\drivers\peripheral\gpio/cy_gpio.c **** 
 180:Generated_Source\PSoC6\pdl\drivers\peripheral\gpio/cy_gpio.c **** /*******************************************************************************
 181:Generated_Source\PSoC6\pdl\drivers\peripheral\gpio/cy_gpio.c **** * Function Name: Cy_GPIO_Pin_FastInit
 182:Generated_Source\PSoC6\pdl\drivers\peripheral\gpio/cy_gpio.c **** ****************************************************************************//**
 183:Generated_Source\PSoC6\pdl\drivers\peripheral\gpio/cy_gpio.c **** *
 184:Generated_Source\PSoC6\pdl\drivers\peripheral\gpio/cy_gpio.c **** * Initialize the most common configuration settings for all pin types.
 185:Generated_Source\PSoC6\pdl\drivers\peripheral\gpio/cy_gpio.c **** *
 186:Generated_Source\PSoC6\pdl\drivers\peripheral\gpio/cy_gpio.c **** * These include, drive mode, initial output value, and HSIOM connection.
