ARM GAS  C:\Users\cmila\AppData\Local\Temp\cc5cF3CF.s 			page 1


   1              		.syntax unified
   2              		.cpu cortex-m4
   3              		.eabi_attribute 27, 1
   4              		.fpu fpv4-sp-d16
   5              		.eabi_attribute 20, 1
   6              		.eabi_attribute 21, 1
   7              		.eabi_attribute 23, 3
   8              		.eabi_attribute 24, 1
   9              		.eabi_attribute 25, 1
  10              		.eabi_attribute 26, 1
  11              		.eabi_attribute 30, 4
  12              		.eabi_attribute 34, 1
  13              		.eabi_attribute 18, 4
  14              		.thumb
  15              		.syntax unified
  16              		.file	"command_queue.c"
  17              		.text
  18              	.Ltext0:
  19              		.cfi_sections	.debug_frame
  20              		.section	.text.InitQueue,"ax",%progbits
  21              		.align	1
  22              		.global	InitQueue
  23              		.thumb
  24              		.thumb_func
  25              		.type	InitQueue, %function
  26              	InitQueue:
  27              	.LFB1:
  28              		.file 1 "command_queue.c"
   1:command_queue.c **** /* ========================================
   2:command_queue.c ****  *
   3:command_queue.c ****  * Copyright YOUR COMPANY, THE YEAR
   4:command_queue.c ****  * All Rights Reserved
   5:command_queue.c ****  * UNPUBLISHED, LICENSED SOFTWARE.
   6:command_queue.c ****  *
   7:command_queue.c ****  * CONFIDENTIAL AND PROPRIETARY INFORMATION
   8:command_queue.c ****  * WHICH IS THE PROPERTY OF your company.
   9:command_queue.c ****  *
  10:command_queue.c ****  * ========================================
  11:command_queue.c **** */
  12:command_queue.c **** 
  13:command_queue.c **** #include "command_queue.h"
  14:command_queue.c **** 
  15:command_queue.c **** void InitQueue(PQueue queue){
  29              		.loc 1 15 0
  30              		.cfi_startproc
  31              		@ args = 0, pretend = 0, frame = 0
  32              		@ frame_needed = 0, uses_anonymous_args = 0
  33              	.LVL0:
  34 0000 10B5     		push	{r4, lr}
  35              		.cfi_def_cfa_offset 8
  36              		.cfi_offset 4, -8
  37              		.cfi_offset 14, -4
  38              		.loc 1 15 0
  39 0002 0446     		mov	r4, r0
  16:command_queue.c **** 	queue->Front = queue->Rear = (PNODE)malloc(sizeof(NODE));
  40              		.loc 1 16 0
  41 0004 4420     		movs	r0, #68
ARM GAS  C:\Users\cmila\AppData\Local\Temp\cc5cF3CF.s 			page 2


  42              	.LVL1:
  43 0006 FFF7FEFF 		bl	malloc
  44              	.LVL2:
  45 000a 6060     		str	r0, [r4, #4]
  46 000c 2060     		str	r0, [r4]
  17:command_queue.c **** 	if (queue->Front != NULL) {
  47              		.loc 1 17 0
  48 000e 08B1     		cbz	r0, .L1
  18:command_queue.c **** 		queue->Front->Next = NULL;
  49              		.loc 1 18 0
  50 0010 0023     		movs	r3, #0
  51 0012 0364     		str	r3, [r0, #64]
  52              	.L1:
  53 0014 10BD     		pop	{r4, pc}
  54              		.cfi_endproc
  55              	.LFE1:
  56              		.size	InitQueue, .-InitQueue
  57              		.section	.text.IsEmptyQueue,"ax",%progbits
  58              		.align	1
  59              		.global	IsEmptyQueue
  60              		.thumb
  61              		.thumb_func
  62              		.type	IsEmptyQueue, %function
  63              	IsEmptyQueue:
  64              	.LFB2:
  19:command_queue.c **** 	}else{
  20:command_queue.c **** 		//should reboot here
  21:command_queue.c **** 		
  22:command_queue.c **** 	}
  23:command_queue.c **** }
  24:command_queue.c **** 
  25:command_queue.c **** uint8_t IsEmptyQueue(PQueue queue) {
  65              		.loc 1 25 0
  66              		.cfi_startproc
  67              		@ args = 0, pretend = 0, frame = 0
  68              		@ frame_needed = 0, uses_anonymous_args = 0
  69              		@ link register save eliminated.
  70              	.LVL3:
  71 0000 0268     		ldr	r2, [r0]
  72 0002 4068     		ldr	r0, [r0, #4]
  73              	.LVL4:
  26:command_queue.c ****     if (queue->Front == queue->Rear) {
  27:command_queue.c ****         return 1;
  28:command_queue.c ****     }
  29:command_queue.c ****     else {
  30:command_queue.c ****         return 0;
  31:command_queue.c ****     }
  32:command_queue.c **** }
  74              		.loc 1 32 0
  75 0004 131A     		subs	r3, r2, r0
  76 0006 5842     		rsbs	r0, r3, #0
  77 0008 5841     		adcs	r0, r0, r3
  78 000a 7047     		bx	lr
  79              		.cfi_endproc
  80              	.LFE2:
  81              		.size	IsEmptyQueue, .-IsEmptyQueue
  82              		.section	.text.EnQueue,"ax",%progbits
ARM GAS  C:\Users\cmila\AppData\Local\Temp\cc5cF3CF.s 			page 3


  83              		.align	1
  84              		.global	EnQueue
  85              		.thumb
  86              		.thumb_func
  87              		.type	EnQueue, %function
  88              	EnQueue:
  89              	.LFB3:
  33:command_queue.c **** 
  34:command_queue.c **** void EnQueue(PQueue queue, uint8_t *commands,uint8_t commands_len) {
  90              		.loc 1 34 0
  91              		.cfi_startproc
  92              		@ args = 0, pretend = 0, frame = 0
  93              		@ frame_needed = 0, uses_anonymous_args = 0
  94              	.LVL5:
  95 0000 F8B5     		push	{r3, r4, r5, r6, r7, lr}
  96              		.cfi_def_cfa_offset 24
  97              		.cfi_offset 3, -24
  98              		.cfi_offset 4, -20
  99              		.cfi_offset 5, -16
 100              		.cfi_offset 6, -12
 101              		.cfi_offset 7, -8
 102              		.cfi_offset 14, -4
 103              		.loc 1 34 0
 104 0002 0546     		mov	r5, r0
 105 0004 0E46     		mov	r6, r1
  35:command_queue.c ****     PNODE P = (PNODE)calloc(1,sizeof(NODE));
 106              		.loc 1 35 0
 107 0006 0120     		movs	r0, #1
 108              	.LVL6:
 109 0008 4421     		movs	r1, #68
 110              	.LVL7:
  34:command_queue.c ****     PNODE P = (PNODE)calloc(1,sizeof(NODE));
 111              		.loc 1 34 0
 112 000a 1746     		mov	r7, r2
 113              		.loc 1 35 0
 114 000c FFF7FEFF 		bl	calloc
 115              	.LVL8:
  36:command_queue.c ****     if (P != NULL) {
 116              		.loc 1 36 0
 117 0010 0446     		mov	r4, r0
 118 0012 40B1     		cbz	r0, .L8
  37:command_queue.c ****     	memcpy(P->command,commands,commands_len);
 119              		.loc 1 37 0
 120 0014 3A46     		mov	r2, r7
 121 0016 3146     		mov	r1, r6
 122 0018 FFF7FEFF 		bl	memcpy
 123              	.LVL9:
  38:command_queue.c **** 		P->Next = NULL;
 124              		.loc 1 38 0
 125 001c 0023     		movs	r3, #0
 126 001e 2364     		str	r3, [r4, #64]
  39:command_queue.c **** 		queue->Rear->Next = P;
 127              		.loc 1 39 0
 128 0020 6B68     		ldr	r3, [r5, #4]
 129 0022 1C64     		str	r4, [r3, #64]
  40:command_queue.c **** 		queue->Rear = P;
 130              		.loc 1 40 0
ARM GAS  C:\Users\cmila\AppData\Local\Temp\cc5cF3CF.s 			page 4


 131 0024 6C60     		str	r4, [r5, #4]
 132              	.L8:
 133 0026 F8BD     		pop	{r3, r4, r5, r6, r7, pc}
 134              		.cfi_endproc
 135              	.LFE3:
 136              		.size	EnQueue, .-EnQueue
 137              		.section	.text.DeQueue,"ax",%progbits
 138              		.align	1
 139              		.global	DeQueue
 140              		.thumb
 141              		.thumb_func
 142              		.type	DeQueue, %function
 143              	DeQueue:
 144              	.LFB4:
  41:command_queue.c ****     }
  42:command_queue.c **** }
  43:command_queue.c **** 
  44:command_queue.c **** void DeQueue(PQueue queue,uint8_t *commands) {
 145              		.loc 1 44 0
 146              		.cfi_startproc
 147              		@ args = 0, pretend = 0, frame = 0
 148              		@ frame_needed = 0, uses_anonymous_args = 0
 149              		@ link register save eliminated.
 150              	.LVL10:
 151              	.LBB5:
 152              	.LBB6:
  26:command_queue.c ****         return 1;
 153              		.loc 1 26 0
 154 0000 0368     		ldr	r3, [r0]
 155 0002 4268     		ldr	r2, [r0, #4]
 156 0004 9342     		cmp	r3, r2
 157 0006 00D1     		bne	.L18
 158 0008 7047     		bx	lr
 159              	.L18:
 160              	.LVL11:
 161              	.LBE6:
 162              	.LBE5:
 163              	.LBB7:
  45:command_queue.c ****     if (IsEmptyQueue(queue)!=1) {
  46:command_queue.c ****     	PNODE  P= queue->Front->Next;
 164              		.loc 1 46 0
 165 000a 1B6C     		ldr	r3, [r3, #64]
 166              	.LVL12:
  47:command_queue.c ****     	memcpy(commands,P->command,5);
 167              		.loc 1 47 0
 168 000c 1A68     		ldr	r2, [r3]	@ unaligned
 169 000e 0A60     		str	r2, [r1]	@ unaligned
 170 0010 1A79     		ldrb	r2, [r3, #4]	@ zero_extendqisi2
 171 0012 0A71     		strb	r2, [r1, #4]
  48:command_queue.c **** 		queue->Front->Next = P->Next;
 172              		.loc 1 48 0
 173 0014 0268     		ldr	r2, [r0]
 174 0016 196C     		ldr	r1, [r3, #64]
 175              	.LVL13:
 176 0018 1164     		str	r1, [r2, #64]
  49:command_queue.c **** 		if (queue->Rear==P)
 177              		.loc 1 49 0
ARM GAS  C:\Users\cmila\AppData\Local\Temp\cc5cF3CF.s 			page 5


 178 001a 4168     		ldr	r1, [r0, #4]
 179 001c 8B42     		cmp	r3, r1
 180 001e 00D1     		bne	.L17
  50:command_queue.c **** 			queue->Rear = queue->Front;
 181              		.loc 1 50 0
 182 0020 4260     		str	r2, [r0, #4]
 183              	.L17:
  51:command_queue.c **** 		free(P);
 184              		.loc 1 51 0
 185 0022 1846     		mov	r0, r3
 186              	.LVL14:
 187 0024 FFF7FEBF 		b	free
 188              	.LVL15:
 189              	.LBE7:
 190              		.cfi_endproc
 191              	.LFE4:
 192              		.size	DeQueue, .-DeQueue
 193              		.section	.text.DestroyQueue,"ax",%progbits
 194              		.align	1
 195              		.global	DestroyQueue
 196              		.thumb
 197              		.thumb_func
 198              		.type	DestroyQueue, %function
 199              	DestroyQueue:
 200              	.LFB5:
  52:command_queue.c **** 		P = NULL;
  53:command_queue.c ****     }
  54:command_queue.c **** }
  55:command_queue.c **** 
  56:command_queue.c **** void DestroyQueue(PQueue queue) {
 201              		.loc 1 56 0
 202              		.cfi_startproc
 203              		@ args = 0, pretend = 0, frame = 0
 204              		@ frame_needed = 0, uses_anonymous_args = 0
 205              	.LVL16:
 206 0000 10B5     		push	{r4, lr}
 207              		.cfi_def_cfa_offset 8
 208              		.cfi_offset 4, -8
 209              		.cfi_offset 14, -4
 210 0002 0446     		mov	r4, r0
 211              	.LVL17:
 212              	.L20:
  57:command_queue.c ****     while (queue->Front != NULL) {
 213              		.loc 1 57 0
 214 0004 2068     		ldr	r0, [r4]
 215 0006 30B1     		cbz	r0, .L22
  58:command_queue.c ****         queue->Rear = queue->Front->Next;
 216              		.loc 1 58 0
 217 0008 036C     		ldr	r3, [r0, #64]
 218 000a 6360     		str	r3, [r4, #4]
  59:command_queue.c ****         free(queue->Front);
 219              		.loc 1 59 0
 220 000c FFF7FEFF 		bl	free
 221              	.LVL18:
  60:command_queue.c ****         queue->Front = queue->Rear;
 222              		.loc 1 60 0
 223 0010 6368     		ldr	r3, [r4, #4]
ARM GAS  C:\Users\cmila\AppData\Local\Temp\cc5cF3CF.s 			page 6


 224 0012 2360     		str	r3, [r4]
 225 0014 F6E7     		b	.L20
 226              	.L22:
  61:command_queue.c ****     }
  62:command_queue.c **** }
 227              		.loc 1 62 0
 228 0016 10BD     		pop	{r4, pc}
 229              		.cfi_endproc
 230              	.LFE5:
 231              		.size	DestroyQueue, .-DestroyQueue
 232              		.text
 233              	.Letext0:
 234              		.file 2 "c:\\program files (x86)\\cypress\\psoc creator\\4.4\\psoc creator\\import\\gnu\\arm\\5.4.
 235              		.file 3 "c:\\program files (x86)\\cypress\\psoc creator\\4.4\\psoc creator\\import\\gnu\\arm\\5.4.
 236              		.file 4 "command_queue.h"
 237              		.file 5 "c:\\program files (x86)\\cypress\\psoc creator\\4.4\\psoc creator\\import\\gnu\\arm\\5.4.