ARM GAS  C:\Users\cmila\AppData\Local\Temp\ccgUIjp6.s 			page 1


   1              		.syntax unified
   2              		.cpu cortex-m4
   3              		.eabi_attribute 27, 1
   4              		.fpu fpv4-sp-d16
   5              		.eabi_attribute 20, 1
   6              		.eabi_attribute 21, 1
   7              		.eabi_attribute 23, 3
   8              		.eabi_attribute 24, 1
   9              		.eabi_attribute 25, 1
  10              		.eabi_attribute 26, 1
  11              		.eabi_attribute 30, 4
  12              		.eabi_attribute 34, 1
  13              		.eabi_attribute 18, 4
  14              		.thumb
  15              		.syntax unified
  16              		.file	"cy_gpio.c"
  17              		.text
  18              	.Ltext0:
  19              		.cfi_sections	.debug_frame
  20              		.section	.text.Cy_GPIO_SetHSIOM,"ax",%progbits
  21              		.align	1
  22              		.thumb
  23              		.thumb_func
  24              		.type	Cy_GPIO_SetHSIOM, %function
  25              	Cy_GPIO_SetHSIOM:
  26              	.LFB132:
  27              		.file 1 "Generated_Source\\PSoC6\\pdl\\drivers\\peripheral\\gpio\\cy_gpio.h"
   1:Generated_Source\PSoC6\pdl\drivers\peripheral\gpio/cy_gpio.h **** /***************************************************************************//**
   2:Generated_Source\PSoC6\pdl\drivers\peripheral\gpio/cy_gpio.h **** * \file cy_gpio.h
   3:Generated_Source\PSoC6\pdl\drivers\peripheral\gpio/cy_gpio.h **** * \version 1.20
   4:Generated_Source\PSoC6\pdl\drivers\peripheral\gpio/cy_gpio.h **** *
   5:Generated_Source\PSoC6\pdl\drivers\peripheral\gpio/cy_gpio.h **** * Provides an API declaration of the GPIO driver
   6:Generated_Source\PSoC6\pdl\drivers\peripheral\gpio/cy_gpio.h **** *
   7:Generated_Source\PSoC6\pdl\drivers\peripheral\gpio/cy_gpio.h **** ********************************************************************************
   8:Generated_Source\PSoC6\pdl\drivers\peripheral\gpio/cy_gpio.h **** * \copyright
   9:Generated_Source\PSoC6\pdl\drivers\peripheral\gpio/cy_gpio.h **** * Copyright 2016-2018, Cypress Semiconductor Corporation. All rights reserved.
  10:Generated_Source\PSoC6\pdl\drivers\peripheral\gpio/cy_gpio.h **** * You may use this file only in accordance with the license, terms, conditions,
  11:Generated_Source\PSoC6\pdl\drivers\peripheral\gpio/cy_gpio.h **** * disclaimers, and limitations in the end user license agreement accompanying
  12:Generated_Source\PSoC6\pdl\drivers\peripheral\gpio/cy_gpio.h **** * the software package with which this file was provided.
  13:Generated_Source\PSoC6\pdl\drivers\peripheral\gpio/cy_gpio.h **** *******************************************************************************/
  14:Generated_Source\PSoC6\pdl\drivers\peripheral\gpio/cy_gpio.h **** 
  15:Generated_Source\PSoC6\pdl\drivers\peripheral\gpio/cy_gpio.h **** /**
  16:Generated_Source\PSoC6\pdl\drivers\peripheral\gpio/cy_gpio.h **** * \addtogroup group_gpio
  17:Generated_Source\PSoC6\pdl\drivers\peripheral\gpio/cy_gpio.h **** * \{
  18:Generated_Source\PSoC6\pdl\drivers\peripheral\gpio/cy_gpio.h **** * The GPIO driver provides an API to configure and access device Input/Output pins.
  19:Generated_Source\PSoC6\pdl\drivers\peripheral\gpio/cy_gpio.h **** *
  20:Generated_Source\PSoC6\pdl\drivers\peripheral\gpio/cy_gpio.h **** * The functions and other declarations used in this driver are in cy_gpio.h. 
  21:Generated_Source\PSoC6\pdl\drivers\peripheral\gpio/cy_gpio.h **** * You can include cy_pdl.h (ModusToolbox only) to get access to all functions 
  22:Generated_Source\PSoC6\pdl\drivers\peripheral\gpio/cy_gpio.h **** * and declarations in the PDL.
  23:Generated_Source\PSoC6\pdl\drivers\peripheral\gpio/cy_gpio.h **** *
  24:Generated_Source\PSoC6\pdl\drivers\peripheral\gpio/cy_gpio.h **** * IO pins include all general purpose types such as GPIO, SIO, HSIO, AUXIO, and
  25:Generated_Source\PSoC6\pdl\drivers\peripheral\gpio/cy_gpio.h **** * their variants.
  26:Generated_Source\PSoC6\pdl\drivers\peripheral\gpio/cy_gpio.h **** *
  27:Generated_Source\PSoC6\pdl\drivers\peripheral\gpio/cy_gpio.h **** * Initialization can be performed either at the port level or by configuring the
  28:Generated_Source\PSoC6\pdl\drivers\peripheral\gpio/cy_gpio.h **** * individual pins. For efficient use of code space, port
  29:Generated_Source\PSoC6\pdl\drivers\peripheral\gpio/cy_gpio.h **** * configuration should be used in the field. Refer to the product device header files 
  30:Generated_Source\PSoC6\pdl\drivers\peripheral\gpio/cy_gpio.h **** * for the list of supported ports and pins.
ARM GAS  C:\Users\cmila\AppData\Local\Temp\ccgUIjp6.s 			page 2


  31:Generated_Source\PSoC6\pdl\drivers\peripheral\gpio/cy_gpio.h **** * 
  32:Generated_Source\PSoC6\pdl\drivers\peripheral\gpio/cy_gpio.h **** * - Single pin configuration is performed by using \ref Cy_GPIO_Pin_FastInit 
  33:Generated_Source\PSoC6\pdl\drivers\peripheral\gpio/cy_gpio.h **** *   (provide specific values) or \ref Cy_GPIO_Pin_Init (provide a filled
  34:Generated_Source\PSoC6\pdl\drivers\peripheral\gpio/cy_gpio.h **** *   cy_stc_gpio_pin_config_t structure).
  35:Generated_Source\PSoC6\pdl\drivers\peripheral\gpio/cy_gpio.h **** * - An entire port can be configured using \ref Cy_GPIO_Port_Init. Provide a filled 
  36:Generated_Source\PSoC6\pdl\drivers\peripheral\gpio/cy_gpio.h **** *   cy_stc_gpio_prt_config_t structure. The values in the structure are 
  37:Generated_Source\PSoC6\pdl\drivers\peripheral\gpio/cy_gpio.h **** *   bitfields representing the desired value for each pin in the port.
  38:Generated_Source\PSoC6\pdl\drivers\peripheral\gpio/cy_gpio.h **** * - Pin configuration and management is based on the port address and pin number.
  39:Generated_Source\PSoC6\pdl\drivers\peripheral\gpio/cy_gpio.h **** *   \ref Cy_GPIO_PortToAddr function can optionally be used to calculate the port
  40:Generated_Source\PSoC6\pdl\drivers\peripheral\gpio/cy_gpio.h **** *   address from the port number at run-time.
  41:Generated_Source\PSoC6\pdl\drivers\peripheral\gpio/cy_gpio.h **** *
  42:Generated_Source\PSoC6\pdl\drivers\peripheral\gpio/cy_gpio.h **** * Once the pin/port initialization is complete, each pin can be accessed by 
  43:Generated_Source\PSoC6\pdl\drivers\peripheral\gpio/cy_gpio.h **** * specifying the port (GPIO_PRT_Type) and the pin (0-7) in the provided API 
  44:Generated_Source\PSoC6\pdl\drivers\peripheral\gpio/cy_gpio.h **** * functions.
  45:Generated_Source\PSoC6\pdl\drivers\peripheral\gpio/cy_gpio.h **** *
  46:Generated_Source\PSoC6\pdl\drivers\peripheral\gpio/cy_gpio.h **** * \section group_gpio_configuration Configuration Considerations
  47:Generated_Source\PSoC6\pdl\drivers\peripheral\gpio/cy_gpio.h **** *
  48:Generated_Source\PSoC6\pdl\drivers\peripheral\gpio/cy_gpio.h **** * 1. Pin multiplexing is controlled through the High-Speed IO Matrix (HSIOM) selection.
  49:Generated_Source\PSoC6\pdl\drivers\peripheral\gpio/cy_gpio.h **** *    This allows the pin to connect to signal sources/sinks throughout the device,
  50:Generated_Source\PSoC6\pdl\drivers\peripheral\gpio/cy_gpio.h **** *    as defined by the pin HSIOM selection options (en_hsiom_sel_t).
  51:Generated_Source\PSoC6\pdl\drivers\peripheral\gpio/cy_gpio.h **** * 2. All pins are initialized to High-Z drive mode with HSIOM connected to CPU (SW
  52:Generated_Source\PSoC6\pdl\drivers\peripheral\gpio/cy_gpio.h **** *    control digital pin only) at Power-On-Reset(POR).
  53:Generated_Source\PSoC6\pdl\drivers\peripheral\gpio/cy_gpio.h **** * 3. Some API functions perform read-modify-write operations on shared port
  54:Generated_Source\PSoC6\pdl\drivers\peripheral\gpio/cy_gpio.h **** *    registers. These functions are not thread safe and care must be taken when
  55:Generated_Source\PSoC6\pdl\drivers\peripheral\gpio/cy_gpio.h **** *    called by the application.
  56:Generated_Source\PSoC6\pdl\drivers\peripheral\gpio/cy_gpio.h **** * 4. Digital input buffer provides a high-impedance buffer for the external 
  57:Generated_Source\PSoC6\pdl\drivers\peripheral\gpio/cy_gpio.h **** *    digital input. The input buffer is connected to the HSIOM for routing to 
  58:Generated_Source\PSoC6\pdl\drivers\peripheral\gpio/cy_gpio.h **** *    the CPU port registers and selected peripheral. Enabling the input 
  59:Generated_Source\PSoC6\pdl\drivers\peripheral\gpio/cy_gpio.h **** *    buffer provides possibility to read the pin state via the CPU.
  60:Generated_Source\PSoC6\pdl\drivers\peripheral\gpio/cy_gpio.h **** *    If pin is connected to an analog signal, the input buffer should be 
  61:Generated_Source\PSoC6\pdl\drivers\peripheral\gpio/cy_gpio.h **** *    disabled to avoid crowbar currents. For more information refer to device 
  62:Generated_Source\PSoC6\pdl\drivers\peripheral\gpio/cy_gpio.h **** *    TRM and the device datasheet.
  63:Generated_Source\PSoC6\pdl\drivers\peripheral\gpio/cy_gpio.h **** *
  64:Generated_Source\PSoC6\pdl\drivers\peripheral\gpio/cy_gpio.h **** * Multiple pins on a port can be updated using direct port register writes with an
  65:Generated_Source\PSoC6\pdl\drivers\peripheral\gpio/cy_gpio.h **** * appropriate port mask. An example is shown below, highlighting the different ways of 
  66:Generated_Source\PSoC6\pdl\drivers\peripheral\gpio/cy_gpio.h **** * configuring Port 1 pins using:
  67:Generated_Source\PSoC6\pdl\drivers\peripheral\gpio/cy_gpio.h **** * 
  68:Generated_Source\PSoC6\pdl\drivers\peripheral\gpio/cy_gpio.h **** * - Port output data register
  69:Generated_Source\PSoC6\pdl\drivers\peripheral\gpio/cy_gpio.h **** * - Port output data set register
  70:Generated_Source\PSoC6\pdl\drivers\peripheral\gpio/cy_gpio.h **** * - Port output data clear register
  71:Generated_Source\PSoC6\pdl\drivers\peripheral\gpio/cy_gpio.h **** *
  72:Generated_Source\PSoC6\pdl\drivers\peripheral\gpio/cy_gpio.h **** * \snippet gpio/gpio_v1_10_sut_01.cydsn/main_cm4.c Cy_GPIO_Snippet
  73:Generated_Source\PSoC6\pdl\drivers\peripheral\gpio/cy_gpio.h **** *
  74:Generated_Source\PSoC6\pdl\drivers\peripheral\gpio/cy_gpio.h **** * \section group_gpio_more_information More Information
  75:Generated_Source\PSoC6\pdl\drivers\peripheral\gpio/cy_gpio.h **** *
  76:Generated_Source\PSoC6\pdl\drivers\peripheral\gpio/cy_gpio.h **** * Refer to the technical reference manual (TRM) and the device datasheet.
  77:Generated_Source\PSoC6\pdl\drivers\peripheral\gpio/cy_gpio.h **** *
  78:Generated_Source\PSoC6\pdl\drivers\peripheral\gpio/cy_gpio.h **** * \section group_gpio_MISRA MISRA-C Compliance
  79:Generated_Source\PSoC6\pdl\drivers\peripheral\gpio/cy_gpio.h **** * The GPIO driver has the following specific deviations:
  80:Generated_Source\PSoC6\pdl\drivers\peripheral\gpio/cy_gpio.h **** *
  81:Generated_Source\PSoC6\pdl\drivers\peripheral\gpio/cy_gpio.h **** * <table class="doxtable">
  82:Generated_Source\PSoC6\pdl\drivers\peripheral\gpio/cy_gpio.h **** *   <tr>
  83:Generated_Source\PSoC6\pdl\drivers\peripheral\gpio/cy_gpio.h **** *     <th>MISRA Rule</th>
  84:Generated_Source\PSoC6\pdl\drivers\peripheral\gpio/cy_gpio.h **** *     <th>Rule Class (Required/Advisory)</th>
  85:Generated_Source\PSoC6\pdl\drivers\peripheral\gpio/cy_gpio.h **** *     <th>Rule Description</th>
  86:Generated_Source\PSoC6\pdl\drivers\peripheral\gpio/cy_gpio.h **** *     <th>Description of Deviation(s)</th>
  87:Generated_Source\PSoC6\pdl\drivers\peripheral\gpio/cy_gpio.h **** *   </tr>
ARM GAS  C:\Users\cmila\AppData\Local\Temp\ccgUIjp6.s 			page 3


  88:Generated_Source\PSoC6\pdl\drivers\peripheral\gpio/cy_gpio.h **** *   <tr>
  89:Generated_Source\PSoC6\pdl\drivers\peripheral\gpio/cy_gpio.h **** *     <td>11.4</td>
  90:Generated_Source\PSoC6\pdl\drivers\peripheral\gpio/cy_gpio.h **** *     <td>A</td>
  91:Generated_Source\PSoC6\pdl\drivers\peripheral\gpio/cy_gpio.h **** *     <td>A cast should not be performed between a pointer to object type and
  92:Generated_Source\PSoC6\pdl\drivers\peripheral\gpio/cy_gpio.h **** *         a different pointer to object type.</td>
  93:Generated_Source\PSoC6\pdl\drivers\peripheral\gpio/cy_gpio.h **** *     <td> This code is safe because the elements of both GPIO_PRT_V1_Type and GPIO_PRT_V2_Type 
  94:Generated_Source\PSoC6\pdl\drivers\peripheral\gpio/cy_gpio.h **** *          types have identical alignment.</td>
  95:Generated_Source\PSoC6\pdl\drivers\peripheral\gpio/cy_gpio.h **** *   </tr>
  96:Generated_Source\PSoC6\pdl\drivers\peripheral\gpio/cy_gpio.h **** *   <tr>
  97:Generated_Source\PSoC6\pdl\drivers\peripheral\gpio/cy_gpio.h **** *     <td>16.7</td>
  98:Generated_Source\PSoC6\pdl\drivers\peripheral\gpio/cy_gpio.h **** *     <td>A</td>
  99:Generated_Source\PSoC6\pdl\drivers\peripheral\gpio/cy_gpio.h **** *     <td>A pointer parameter in a function prototype should be declared as pointer 
 100:Generated_Source\PSoC6\pdl\drivers\peripheral\gpio/cy_gpio.h **** *         to const if the pointer is not used to modify the addressed object.</td>
 101:Generated_Source\PSoC6\pdl\drivers\peripheral\gpio/cy_gpio.h **** *     <td>The objects pointed to by the base addresses of the GPIO port are not always modified.
 102:Generated_Source\PSoC6\pdl\drivers\peripheral\gpio/cy_gpio.h **** *         While a const qualifier can be used in select scenarios, it brings little benefit
 103:Generated_Source\PSoC6\pdl\drivers\peripheral\gpio/cy_gpio.h **** *         in adding this to the affected functions. </td>
 104:Generated_Source\PSoC6\pdl\drivers\peripheral\gpio/cy_gpio.h **** *   </tr>
 105:Generated_Source\PSoC6\pdl\drivers\peripheral\gpio/cy_gpio.h **** * </table>
 106:Generated_Source\PSoC6\pdl\drivers\peripheral\gpio/cy_gpio.h **** *
 107:Generated_Source\PSoC6\pdl\drivers\peripheral\gpio/cy_gpio.h **** * \section group_gpio_changelog Changelog
 108:Generated_Source\PSoC6\pdl\drivers\peripheral\gpio/cy_gpio.h **** * <table class="doxtable">
 109:Generated_Source\PSoC6\pdl\drivers\peripheral\gpio/cy_gpio.h **** *   <tr><th>Version</th><th>Changes</th><th>Reason for Change</th></tr>
 110:Generated_Source\PSoC6\pdl\drivers\peripheral\gpio/cy_gpio.h **** *   <tr>
 111:Generated_Source\PSoC6\pdl\drivers\peripheral\gpio/cy_gpio.h **** *     <td rowspan="3">1.20</td>
 112:Generated_Source\PSoC6\pdl\drivers\peripheral\gpio/cy_gpio.h **** *     <td>Flattened the organization of the driver source code into the single source directory and
 113:Generated_Source\PSoC6\pdl\drivers\peripheral\gpio/cy_gpio.h **** *     <td>Driver library directory-structure simplification.</td>
 114:Generated_Source\PSoC6\pdl\drivers\peripheral\gpio/cy_gpio.h **** *   </tr>
 115:Generated_Source\PSoC6\pdl\drivers\peripheral\gpio/cy_gpio.h **** *   <tr>
 116:Generated_Source\PSoC6\pdl\drivers\peripheral\gpio/cy_gpio.h **** *     <td>Added the functions for configuring the AMux bus splitter switch cells:
 117:Generated_Source\PSoC6\pdl\drivers\peripheral\gpio/cy_gpio.h **** *     - \ref Cy_GPIO_SetAmuxSplit
 118:Generated_Source\PSoC6\pdl\drivers\peripheral\gpio/cy_gpio.h **** *     - \ref Cy_GPIO_GetAmuxSplit
 119:Generated_Source\PSoC6\pdl\drivers\peripheral\gpio/cy_gpio.h **** *     </td>
 120:Generated_Source\PSoC6\pdl\drivers\peripheral\gpio/cy_gpio.h **** *     <td>Added a new functionality related to AMux bus.</td>
 121:Generated_Source\PSoC6\pdl\drivers\peripheral\gpio/cy_gpio.h **** *   </tr>
 122:Generated_Source\PSoC6\pdl\drivers\peripheral\gpio/cy_gpio.h **** *   <tr>
 123:Generated_Source\PSoC6\pdl\drivers\peripheral\gpio/cy_gpio.h **** *     <td>Added register access layer. Use register access macros instead
 124:Generated_Source\PSoC6\pdl\drivers\peripheral\gpio/cy_gpio.h **** *         of direct register access using dereferenced pointers.</td>
 125:Generated_Source\PSoC6\pdl\drivers\peripheral\gpio/cy_gpio.h **** *     <td>Makes register access device-independent, so that the PDL does 
 126:Generated_Source\PSoC6\pdl\drivers\peripheral\gpio/cy_gpio.h **** *         not need to be recompiled for each supported part number.</td>
 127:Generated_Source\PSoC6\pdl\drivers\peripheral\gpio/cy_gpio.h **** *   </tr>
 128:Generated_Source\PSoC6\pdl\drivers\peripheral\gpio/cy_gpio.h **** *   <tr>
 129:Generated_Source\PSoC6\pdl\drivers\peripheral\gpio/cy_gpio.h **** *     <td>1.10.1</td>
 130:Generated_Source\PSoC6\pdl\drivers\peripheral\gpio/cy_gpio.h **** *     <td>Updated description for the functions: \ref Cy_GPIO_GetInterruptStatus, 
 131:Generated_Source\PSoC6\pdl\drivers\peripheral\gpio/cy_gpio.h **** *         \ref Cy_GPIO_GetInterruptMask, \ref Cy_GPIO_GetInterruptStatusMasked.
 132:Generated_Source\PSoC6\pdl\drivers\peripheral\gpio/cy_gpio.h **** *
 133:Generated_Source\PSoC6\pdl\drivers\peripheral\gpio/cy_gpio.h **** *         Minor documentation edits.
 134:Generated_Source\PSoC6\pdl\drivers\peripheral\gpio/cy_gpio.h **** *     </td>
 135:Generated_Source\PSoC6\pdl\drivers\peripheral\gpio/cy_gpio.h **** *     <td>Documentation update and clarification</td>
 136:Generated_Source\PSoC6\pdl\drivers\peripheral\gpio/cy_gpio.h **** *   </tr>
 137:Generated_Source\PSoC6\pdl\drivers\peripheral\gpio/cy_gpio.h **** *   <tr>
 138:Generated_Source\PSoC6\pdl\drivers\peripheral\gpio/cy_gpio.h **** *     <td>1.10</td>
 139:Generated_Source\PSoC6\pdl\drivers\peripheral\gpio/cy_gpio.h **** *     <td>Added input parameter validation to the API functions</td>
 140:Generated_Source\PSoC6\pdl\drivers\peripheral\gpio/cy_gpio.h **** *     <td></td>
 141:Generated_Source\PSoC6\pdl\drivers\peripheral\gpio/cy_gpio.h **** *   </tr>
 142:Generated_Source\PSoC6\pdl\drivers\peripheral\gpio/cy_gpio.h **** *   <tr>
 143:Generated_Source\PSoC6\pdl\drivers\peripheral\gpio/cy_gpio.h **** *     <td>1.0</td>
 144:Generated_Source\PSoC6\pdl\drivers\peripheral\gpio/cy_gpio.h **** *     <td>Initial version</td>
ARM GAS  C:\Users\cmila\AppData\Local\Temp\ccgUIjp6.s 			page 4


 145:Generated_Source\PSoC6\pdl\drivers\peripheral\gpio/cy_gpio.h **** *     <td></td>
 146:Generated_Source\PSoC6\pdl\drivers\peripheral\gpio/cy_gpio.h **** *   </tr>
 147:Generated_Source\PSoC6\pdl\drivers\peripheral\gpio/cy_gpio.h **** * </table>
 148:Generated_Source\PSoC6\pdl\drivers\peripheral\gpio/cy_gpio.h **** *
 149:Generated_Source\PSoC6\pdl\drivers\peripheral\gpio/cy_gpio.h **** * \defgroup group_gpio_macros Macros
 150:Generated_Source\PSoC6\pdl\drivers\peripheral\gpio/cy_gpio.h **** * \defgroup group_gpio_functions Functions
 151:Generated_Source\PSoC6\pdl\drivers\peripheral\gpio/cy_gpio.h **** * \{
 152:Generated_Source\PSoC6\pdl\drivers\peripheral\gpio/cy_gpio.h **** *   \defgroup group_gpio_functions_init       Initialization Functions
 153:Generated_Source\PSoC6\pdl\drivers\peripheral\gpio/cy_gpio.h **** *   \defgroup group_gpio_functions_gpio       GPIO Functions
 154:Generated_Source\PSoC6\pdl\drivers\peripheral\gpio/cy_gpio.h **** *   \defgroup group_gpio_functions_sio        SIO Functions
 155:Generated_Source\PSoC6\pdl\drivers\peripheral\gpio/cy_gpio.h **** *   \defgroup group_gpio_functions_interrupt  Port Interrupt Functions
 156:Generated_Source\PSoC6\pdl\drivers\peripheral\gpio/cy_gpio.h **** * \}
 157:Generated_Source\PSoC6\pdl\drivers\peripheral\gpio/cy_gpio.h **** * \defgroup group_gpio_data_structures Data Structures
 158:Generated_Source\PSoC6\pdl\drivers\peripheral\gpio/cy_gpio.h **** * \defgroup group_gpio_enums Enumerated Types
 159:Generated_Source\PSoC6\pdl\drivers\peripheral\gpio/cy_gpio.h **** */
 160:Generated_Source\PSoC6\pdl\drivers\peripheral\gpio/cy_gpio.h **** 
 161:Generated_Source\PSoC6\pdl\drivers\peripheral\gpio/cy_gpio.h **** #if !defined(CY_GPIO_H)
 162:Generated_Source\PSoC6\pdl\drivers\peripheral\gpio/cy_gpio.h **** #define CY_GPIO_H
 163:Generated_Source\PSoC6\pdl\drivers\peripheral\gpio/cy_gpio.h **** 
 164:Generated_Source\PSoC6\pdl\drivers\peripheral\gpio/cy_gpio.h **** #include <stddef.h>
 165:Generated_Source\PSoC6\pdl\drivers\peripheral\gpio/cy_gpio.h **** #include "cy_device.h"
 166:Generated_Source\PSoC6\pdl\drivers\peripheral\gpio/cy_gpio.h **** #include "cy_device_headers.h"
 167:Generated_Source\PSoC6\pdl\drivers\peripheral\gpio/cy_gpio.h **** #include "cy_syslib.h"
 168:Generated_Source\PSoC6\pdl\drivers\peripheral\gpio/cy_gpio.h **** 
 169:Generated_Source\PSoC6\pdl\drivers\peripheral\gpio/cy_gpio.h **** #if defined(__cplusplus)
 170:Generated_Source\PSoC6\pdl\drivers\peripheral\gpio/cy_gpio.h **** extern "C" {
 171:Generated_Source\PSoC6\pdl\drivers\peripheral\gpio/cy_gpio.h **** #endif
 172:Generated_Source\PSoC6\pdl\drivers\peripheral\gpio/cy_gpio.h **** 
 173:Generated_Source\PSoC6\pdl\drivers\peripheral\gpio/cy_gpio.h **** /** \addtogroup group_gpio_macros
 174:Generated_Source\PSoC6\pdl\drivers\peripheral\gpio/cy_gpio.h **** * \{
 175:Generated_Source\PSoC6\pdl\drivers\peripheral\gpio/cy_gpio.h **** */
 176:Generated_Source\PSoC6\pdl\drivers\peripheral\gpio/cy_gpio.h **** 
 177:Generated_Source\PSoC6\pdl\drivers\peripheral\gpio/cy_gpio.h **** /** Driver major version */
 178:Generated_Source\PSoC6\pdl\drivers\peripheral\gpio/cy_gpio.h **** #define CY_GPIO_DRV_VERSION_MAJOR       1
 179:Generated_Source\PSoC6\pdl\drivers\peripheral\gpio/cy_gpio.h **** 
 180:Generated_Source\PSoC6\pdl\drivers\peripheral\gpio/cy_gpio.h **** /** Driver minor version */
 181:Generated_Source\PSoC6\pdl\drivers\peripheral\gpio/cy_gpio.h **** #define CY_GPIO_DRV_VERSION_MINOR       20
 182:Generated_Source\PSoC6\pdl\drivers\peripheral\gpio/cy_gpio.h **** 
 183:Generated_Source\PSoC6\pdl\drivers\peripheral\gpio/cy_gpio.h **** /** GPIO driver ID */
 184:Generated_Source\PSoC6\pdl\drivers\peripheral\gpio/cy_gpio.h **** #define CY_GPIO_ID CY_PDL_DRV_ID(0x16U)
 185:Generated_Source\PSoC6\pdl\drivers\peripheral\gpio/cy_gpio.h **** 
 186:Generated_Source\PSoC6\pdl\drivers\peripheral\gpio/cy_gpio.h **** /** \} group_gpio_macros */
 187:Generated_Source\PSoC6\pdl\drivers\peripheral\gpio/cy_gpio.h **** 
 188:Generated_Source\PSoC6\pdl\drivers\peripheral\gpio/cy_gpio.h **** 
 189:Generated_Source\PSoC6\pdl\drivers\peripheral\gpio/cy_gpio.h **** /***************************************
 190:Generated_Source\PSoC6\pdl\drivers\peripheral\gpio/cy_gpio.h **** *       Enumerations
 191:Generated_Source\PSoC6\pdl\drivers\peripheral\gpio/cy_gpio.h **** ***************************************/
 192:Generated_Source\PSoC6\pdl\drivers\peripheral\gpio/cy_gpio.h **** /**
 193:Generated_Source\PSoC6\pdl\drivers\peripheral\gpio/cy_gpio.h **** * \addtogroup group_gpio_enums
 194:Generated_Source\PSoC6\pdl\drivers\peripheral\gpio/cy_gpio.h **** * \{
 195:Generated_Source\PSoC6\pdl\drivers\peripheral\gpio/cy_gpio.h **** */
 196:Generated_Source\PSoC6\pdl\drivers\peripheral\gpio/cy_gpio.h **** 
 197:Generated_Source\PSoC6\pdl\drivers\peripheral\gpio/cy_gpio.h **** /** GPIO Driver error codes */
 198:Generated_Source\PSoC6\pdl\drivers\peripheral\gpio/cy_gpio.h **** typedef enum 
 199:Generated_Source\PSoC6\pdl\drivers\peripheral\gpio/cy_gpio.h **** {
 200:Generated_Source\PSoC6\pdl\drivers\peripheral\gpio/cy_gpio.h ****     CY_GPIO_SUCCESS   = 0x00U,                                    /**< Returned successful */
 201:Generated_Source\PSoC6\pdl\drivers\peripheral\gpio/cy_gpio.h ****     CY_GPIO_BAD_PARAM = CY_GPIO_ID | CY_PDL_STATUS_ERROR | 0x01U, /**< Bad parameter was passed */
ARM GAS  C:\Users\cmila\AppData\Local\Temp\ccgUIjp6.s 			page 5


 202:Generated_Source\PSoC6\pdl\drivers\peripheral\gpio/cy_gpio.h **** } cy_en_gpio_status_t;
 203:Generated_Source\PSoC6\pdl\drivers\peripheral\gpio/cy_gpio.h **** 
 204:Generated_Source\PSoC6\pdl\drivers\peripheral\gpio/cy_gpio.h **** /** AMux switch open/close config */
 205:Generated_Source\PSoC6\pdl\drivers\peripheral\gpio/cy_gpio.h **** typedef enum
 206:Generated_Source\PSoC6\pdl\drivers\peripheral\gpio/cy_gpio.h **** {
 207:Generated_Source\PSoC6\pdl\drivers\peripheral\gpio/cy_gpio.h ****     CY_GPIO_AMUX_OPENALL,   /**< Open ground switch. Open right switch. Open left switch */
 208:Generated_Source\PSoC6\pdl\drivers\peripheral\gpio/cy_gpio.h ****     CY_GPIO_AMUX_L,         /**< Open ground switch. Open right switch. Close left switch */
 209:Generated_Source\PSoC6\pdl\drivers\peripheral\gpio/cy_gpio.h ****     CY_GPIO_AMUX_R,         /**< Open ground switch. Close right switch. Open left switch */
 210:Generated_Source\PSoC6\pdl\drivers\peripheral\gpio/cy_gpio.h ****     CY_GPIO_AMUX_LR,        /**< Open ground switch. Close right switch. Close left switch */
 211:Generated_Source\PSoC6\pdl\drivers\peripheral\gpio/cy_gpio.h ****     CY_GPIO_AMUX_G,         /**< Close ground switch. Open right switch. Open left switch */
 212:Generated_Source\PSoC6\pdl\drivers\peripheral\gpio/cy_gpio.h ****     CY_GPIO_AMUX_GL,        /**< Close ground switch. Open right switch. Close left switch */
 213:Generated_Source\PSoC6\pdl\drivers\peripheral\gpio/cy_gpio.h ****     CY_GPIO_AMUX_GR,        /**< Close ground switch. Close right switch. Open left switch */
 214:Generated_Source\PSoC6\pdl\drivers\peripheral\gpio/cy_gpio.h ****     CY_GPIO_AMUX_GLR,       /**< Close ground switch. Close right switch. Close left switch */
 215:Generated_Source\PSoC6\pdl\drivers\peripheral\gpio/cy_gpio.h **** }cy_en_gpio_amuxconnect_t;
 216:Generated_Source\PSoC6\pdl\drivers\peripheral\gpio/cy_gpio.h **** 
 217:Generated_Source\PSoC6\pdl\drivers\peripheral\gpio/cy_gpio.h **** /**
 218:Generated_Source\PSoC6\pdl\drivers\peripheral\gpio/cy_gpio.h **** * AMux Bus selection
 219:Generated_Source\PSoC6\pdl\drivers\peripheral\gpio/cy_gpio.h **** */
 220:Generated_Source\PSoC6\pdl\drivers\peripheral\gpio/cy_gpio.h **** typedef enum
 221:Generated_Source\PSoC6\pdl\drivers\peripheral\gpio/cy_gpio.h **** {
 222:Generated_Source\PSoC6\pdl\drivers\peripheral\gpio/cy_gpio.h ****     CY_GPIO_AMUXBUSA,       /**< AMuxBus A */
 223:Generated_Source\PSoC6\pdl\drivers\peripheral\gpio/cy_gpio.h ****     CY_GPIO_AMUXBUSB        /**< AMuxBus B */
 224:Generated_Source\PSoC6\pdl\drivers\peripheral\gpio/cy_gpio.h **** }cy_en_gpio_amuxselect_t;
 225:Generated_Source\PSoC6\pdl\drivers\peripheral\gpio/cy_gpio.h **** 
 226:Generated_Source\PSoC6\pdl\drivers\peripheral\gpio/cy_gpio.h **** /** \} group_gpio_enums */
 227:Generated_Source\PSoC6\pdl\drivers\peripheral\gpio/cy_gpio.h **** 
 228:Generated_Source\PSoC6\pdl\drivers\peripheral\gpio/cy_gpio.h **** 
 229:Generated_Source\PSoC6\pdl\drivers\peripheral\gpio/cy_gpio.h **** /***************************************
 230:Generated_Source\PSoC6\pdl\drivers\peripheral\gpio/cy_gpio.h **** *       Configuration Structures
 231:Generated_Source\PSoC6\pdl\drivers\peripheral\gpio/cy_gpio.h **** ***************************************/
 232:Generated_Source\PSoC6\pdl\drivers\peripheral\gpio/cy_gpio.h **** 
 233:Generated_Source\PSoC6\pdl\drivers\peripheral\gpio/cy_gpio.h **** /**
 234:Generated_Source\PSoC6\pdl\drivers\peripheral\gpio/cy_gpio.h **** * \addtogroup group_gpio_data_structures
 235:Generated_Source\PSoC6\pdl\drivers\peripheral\gpio/cy_gpio.h **** * \{
 236:Generated_Source\PSoC6\pdl\drivers\peripheral\gpio/cy_gpio.h **** */
 237:Generated_Source\PSoC6\pdl\drivers\peripheral\gpio/cy_gpio.h **** 
 238:Generated_Source\PSoC6\pdl\drivers\peripheral\gpio/cy_gpio.h **** /** This structure is used to initialize a port of GPIO pins */
 239:Generated_Source\PSoC6\pdl\drivers\peripheral\gpio/cy_gpio.h **** typedef struct 
 240:Generated_Source\PSoC6\pdl\drivers\peripheral\gpio/cy_gpio.h **** {
 241:Generated_Source\PSoC6\pdl\drivers\peripheral\gpio/cy_gpio.h ****     uint32_t out;           /**< Initial output data for the IO pins in the port */
 242:Generated_Source\PSoC6\pdl\drivers\peripheral\gpio/cy_gpio.h ****     uint32_t intrMask;      /**< Interrupt enable mask for the port interrupt */
 243:Generated_Source\PSoC6\pdl\drivers\peripheral\gpio/cy_gpio.h ****     uint32_t intrCfg;       /**< Port pin interrupt edge detection configuration */
 244:Generated_Source\PSoC6\pdl\drivers\peripheral\gpio/cy_gpio.h ****     uint32_t cfg;           /**< Port pin drive modes and input buffer enable configuration */
 245:Generated_Source\PSoC6\pdl\drivers\peripheral\gpio/cy_gpio.h ****     uint32_t cfgIn;         /**< Port pin input buffer configuration */
 246:Generated_Source\PSoC6\pdl\drivers\peripheral\gpio/cy_gpio.h ****     uint32_t cfgOut;        /**< Port pin output buffer configuration */
 247:Generated_Source\PSoC6\pdl\drivers\peripheral\gpio/cy_gpio.h ****     uint32_t cfgSIO;        /**< Port SIO pins configuration */
 248:Generated_Source\PSoC6\pdl\drivers\peripheral\gpio/cy_gpio.h ****     uint32_t sel0Active;    /**< HSIOM selection for port pins 0,1,2,3 */
 249:Generated_Source\PSoC6\pdl\drivers\peripheral\gpio/cy_gpio.h ****     uint32_t sel1Active;    /**< HSIOM selection for port pins 4,5,6,7 */
 250:Generated_Source\PSoC6\pdl\drivers\peripheral\gpio/cy_gpio.h **** } cy_stc_gpio_prt_config_t;
 251:Generated_Source\PSoC6\pdl\drivers\peripheral\gpio/cy_gpio.h **** 
 252:Generated_Source\PSoC6\pdl\drivers\peripheral\gpio/cy_gpio.h **** /** This structure is used to initialize a single GPIO pin */
 253:Generated_Source\PSoC6\pdl\drivers\peripheral\gpio/cy_gpio.h **** typedef struct
 254:Generated_Source\PSoC6\pdl\drivers\peripheral\gpio/cy_gpio.h **** {
 255:Generated_Source\PSoC6\pdl\drivers\peripheral\gpio/cy_gpio.h ****     uint32_t outVal;         /**< Pin output state */
 256:Generated_Source\PSoC6\pdl\drivers\peripheral\gpio/cy_gpio.h ****     uint32_t driveMode;      /**< Drive mode */
 257:Generated_Source\PSoC6\pdl\drivers\peripheral\gpio/cy_gpio.h ****     en_hsiom_sel_t hsiom;    /**< HSIOM selection */
 258:Generated_Source\PSoC6\pdl\drivers\peripheral\gpio/cy_gpio.h ****     uint32_t intEdge;        /**< Interrupt Edge type */
ARM GAS  C:\Users\cmila\AppData\Local\Temp\ccgUIjp6.s 			page 6


 259:Generated_Source\PSoC6\pdl\drivers\peripheral\gpio/cy_gpio.h ****     uint32_t intMask;        /**< Interrupt enable mask */
 260:Generated_Source\PSoC6\pdl\drivers\peripheral\gpio/cy_gpio.h ****     uint32_t vtrip;          /**< Input buffer voltage trip type */
 261:Generated_Source\PSoC6\pdl\drivers\peripheral\gpio/cy_gpio.h ****     uint32_t slewRate;       /**< Output buffer slew rate */
 262:Generated_Source\PSoC6\pdl\drivers\peripheral\gpio/cy_gpio.h ****     uint32_t driveSel;       /**< Drive strength */
 263:Generated_Source\PSoC6\pdl\drivers\peripheral\gpio/cy_gpio.h ****     uint32_t vregEn;         /**< SIO pair output buffer mode */
 264:Generated_Source\PSoC6\pdl\drivers\peripheral\gpio/cy_gpio.h ****     uint32_t ibufMode;       /**< SIO pair input buffer mode */
 265:Generated_Source\PSoC6\pdl\drivers\peripheral\gpio/cy_gpio.h ****     uint32_t vtripSel;       /**< SIO pair input buffer trip point */
 266:Generated_Source\PSoC6\pdl\drivers\peripheral\gpio/cy_gpio.h ****     uint32_t vrefSel;        /**< SIO pair reference voltage for input buffer trip point */
 267:Generated_Source\PSoC6\pdl\drivers\peripheral\gpio/cy_gpio.h ****     uint32_t vohSel;         /**< SIO pair regulated voltage output level */
 268:Generated_Source\PSoC6\pdl\drivers\peripheral\gpio/cy_gpio.h **** } cy_stc_gpio_pin_config_t;
 269:Generated_Source\PSoC6\pdl\drivers\peripheral\gpio/cy_gpio.h **** 
 270:Generated_Source\PSoC6\pdl\drivers\peripheral\gpio/cy_gpio.h **** /** \} group_gpio_data_structures */
 271:Generated_Source\PSoC6\pdl\drivers\peripheral\gpio/cy_gpio.h **** 
 272:Generated_Source\PSoC6\pdl\drivers\peripheral\gpio/cy_gpio.h **** /***************************************
 273:Generated_Source\PSoC6\pdl\drivers\peripheral\gpio/cy_gpio.h **** *        Constants
 274:Generated_Source\PSoC6\pdl\drivers\peripheral\gpio/cy_gpio.h **** ***************************************/
 275:Generated_Source\PSoC6\pdl\drivers\peripheral\gpio/cy_gpio.h **** 
 276:Generated_Source\PSoC6\pdl\drivers\peripheral\gpio/cy_gpio.h **** /** \cond INTERNAL */
 277:Generated_Source\PSoC6\pdl\drivers\peripheral\gpio/cy_gpio.h **** 
 278:Generated_Source\PSoC6\pdl\drivers\peripheral\gpio/cy_gpio.h **** /* General Constants */
 279:Generated_Source\PSoC6\pdl\drivers\peripheral\gpio/cy_gpio.h **** #define CY_GPIO_PRT_HALF                       (4UL)      /**< Half-way point of a GPIO port */
 280:Generated_Source\PSoC6\pdl\drivers\peripheral\gpio/cy_gpio.h **** #define CY_GPIO_PRT_DEINIT                     (0UL)      /**< De-init value for port registers */
 281:Generated_Source\PSoC6\pdl\drivers\peripheral\gpio/cy_gpio.h **** 
 282:Generated_Source\PSoC6\pdl\drivers\peripheral\gpio/cy_gpio.h **** /* GPIO Masks */
 283:Generated_Source\PSoC6\pdl\drivers\peripheral\gpio/cy_gpio.h **** #define CY_GPIO_HSIOM_MASK                     (0x1FUL)   /**< HSIOM selection mask */
 284:Generated_Source\PSoC6\pdl\drivers\peripheral\gpio/cy_gpio.h **** #define CY_GPIO_OUT_MASK                       (0x01UL)   /**< Single pin mask for OUT register */
 285:Generated_Source\PSoC6\pdl\drivers\peripheral\gpio/cy_gpio.h **** #define CY_GPIO_IN_MASK                        (0x01UL)   /**< Single pin mask for IN register */
 286:Generated_Source\PSoC6\pdl\drivers\peripheral\gpio/cy_gpio.h **** #define CY_GPIO_CFG_DM_MASK                    (0x0FUL)   /**< Single pin mask for drive mode in CF
 287:Generated_Source\PSoC6\pdl\drivers\peripheral\gpio/cy_gpio.h **** #define CY_GPIO_CFG_IN_VTRIP_SEL_MASK          (0x01UL)   /**< Single pin mask for VTRIP selection 
 288:Generated_Source\PSoC6\pdl\drivers\peripheral\gpio/cy_gpio.h **** #define CY_GPIO_CFG_OUT_SLOW_MASK              (0x01UL)   /**< Single pin mask for slew rate in CFG
 289:Generated_Source\PSoC6\pdl\drivers\peripheral\gpio/cy_gpio.h **** #define CY_GPIO_CFG_OUT_DRIVE_SEL_MASK         (0x03UL)   /**< Single pin mask for drive strength i
 290:Generated_Source\PSoC6\pdl\drivers\peripheral\gpio/cy_gpio.h **** #define CY_GPIO_INTR_STATUS_MASK               (0x01UL)   /**< Single pin mask for interrupt status
 291:Generated_Source\PSoC6\pdl\drivers\peripheral\gpio/cy_gpio.h **** #define CY_GPIO_INTR_EN_MASK                   (0x01UL)   /**< Single pin mask for interrupt status
 292:Generated_Source\PSoC6\pdl\drivers\peripheral\gpio/cy_gpio.h **** #define CY_GPIO_INTR_MASKED_MASK               (0x01UL)   /**< Single pin mask for masked interrupt
 293:Generated_Source\PSoC6\pdl\drivers\peripheral\gpio/cy_gpio.h **** #define CY_GPIO_INTR_SET_MASK                  (0x01UL)   /**< Single pin mask for setting the inte
 294:Generated_Source\PSoC6\pdl\drivers\peripheral\gpio/cy_gpio.h **** #define CY_GPIO_INTR_EDGE_MASK                 (0x03UL)   /**< Single pin mask for interrupt edge t
 295:Generated_Source\PSoC6\pdl\drivers\peripheral\gpio/cy_gpio.h **** #define CY_GPIO_INTR_FLT_EDGE_MASK             (0x07UL)   /**< Single pin mask for setting filtered
 296:Generated_Source\PSoC6\pdl\drivers\peripheral\gpio/cy_gpio.h **** 
 297:Generated_Source\PSoC6\pdl\drivers\peripheral\gpio/cy_gpio.h **** /* SIO Masks */
 298:Generated_Source\PSoC6\pdl\drivers\peripheral\gpio/cy_gpio.h **** #define CY_GPIO_VREG_EN_MASK                   (0x01UL)   /**< Single SIO pin mask for voltage regu
 299:Generated_Source\PSoC6\pdl\drivers\peripheral\gpio/cy_gpio.h **** #define CY_GPIO_IBUF_MASK                      (0x01UL)   /**< Single SIO pin mask for input buffer
 300:Generated_Source\PSoC6\pdl\drivers\peripheral\gpio/cy_gpio.h **** #define CY_GPIO_IBUF_SHIFT                     (0x01UL)   /**< Single SIO pin shift for input buffe
 301:Generated_Source\PSoC6\pdl\drivers\peripheral\gpio/cy_gpio.h **** #define CY_GPIO_VTRIP_SEL_MASK                 (0x01UL)   /**< Single SIO pin mask for the input bu
 302:Generated_Source\PSoC6\pdl\drivers\peripheral\gpio/cy_gpio.h **** #define CY_GPIO_VTRIP_SEL_SHIFT                (0x02UL)   /**< Single SIO pin shift for the input b
 303:Generated_Source\PSoC6\pdl\drivers\peripheral\gpio/cy_gpio.h **** #define CY_GPIO_VREF_SEL_MASK                  (0x03UL)   /**< Single SIO pin mask for voltage refe
 304:Generated_Source\PSoC6\pdl\drivers\peripheral\gpio/cy_gpio.h **** #define CY_GPIO_VREF_SEL_SHIFT                 (0x03UL)   /**< Single SIO pin shift for voltage ref
 305:Generated_Source\PSoC6\pdl\drivers\peripheral\gpio/cy_gpio.h **** #define CY_GPIO_VOH_SEL_MASK                   (0x07UL)   /**< Single SIO pin mask for VOH */
 306:Generated_Source\PSoC6\pdl\drivers\peripheral\gpio/cy_gpio.h **** #define CY_GPIO_VOH_SEL_SHIFT                  (0x05UL)   /**< Single SIO pin shift for VOH */
 307:Generated_Source\PSoC6\pdl\drivers\peripheral\gpio/cy_gpio.h **** 
 308:Generated_Source\PSoC6\pdl\drivers\peripheral\gpio/cy_gpio.h **** /* Special mask for SIO pin pair setting */
 309:Generated_Source\PSoC6\pdl\drivers\peripheral\gpio/cy_gpio.h **** #define CY_GPIO_SIO_ODD_PIN_MASK               (0x00FEUL) /**< SIO pin pair selection mask */
 310:Generated_Source\PSoC6\pdl\drivers\peripheral\gpio/cy_gpio.h **** #define CY_GPIO_SIO_PIN_MASK                   (0x00FFUL) /**< SIO pin pair mask */
 311:Generated_Source\PSoC6\pdl\drivers\peripheral\gpio/cy_gpio.h **** 
 312:Generated_Source\PSoC6\pdl\drivers\peripheral\gpio/cy_gpio.h **** /* Offsets */
 313:Generated_Source\PSoC6\pdl\drivers\peripheral\gpio/cy_gpio.h **** #define CY_GPIO_HSIOM_OFFSET                   (3UL)      /**< Offset for HSIOM */
 314:Generated_Source\PSoC6\pdl\drivers\peripheral\gpio/cy_gpio.h **** #define CY_GPIO_DRIVE_MODE_OFFSET              (2UL)      /**< Offset for Drive mode */
 315:Generated_Source\PSoC6\pdl\drivers\peripheral\gpio/cy_gpio.h **** #define CY_GPIO_INBUF_OFFSET                   (3UL)      /**< Offset for input buffer */
ARM GAS  C:\Users\cmila\AppData\Local\Temp\ccgUIjp6.s 			page 7


 316:Generated_Source\PSoC6\pdl\drivers\peripheral\gpio/cy_gpio.h **** #define CY_GPIO_CFG_OUT_DRIVE_OFFSET           (16UL)     /**< Offset for drive strength */
 317:Generated_Source\PSoC6\pdl\drivers\peripheral\gpio/cy_gpio.h **** #define CY_GPIO_INTR_CFG_OFFSET                (1UL)      /**< Offset for interrupt config */
 318:Generated_Source\PSoC6\pdl\drivers\peripheral\gpio/cy_gpio.h **** #define CY_GPIO_INTR_FILT_OFFSET               (18UL)     /**< Offset for filtered interrupt config
 319:Generated_Source\PSoC6\pdl\drivers\peripheral\gpio/cy_gpio.h **** #define CY_GPIO_CFG_SIO_OFFSET                 (2UL)      /**< Offset for SIO config */
 320:Generated_Source\PSoC6\pdl\drivers\peripheral\gpio/cy_gpio.h **** 
 321:Generated_Source\PSoC6\pdl\drivers\peripheral\gpio/cy_gpio.h **** /* Parameter validation constants */
 322:Generated_Source\PSoC6\pdl\drivers\peripheral\gpio/cy_gpio.h **** #define CY_GPIO_PINS_MAX                       (8UL)      /**< Number of pins in the port */
 323:Generated_Source\PSoC6\pdl\drivers\peripheral\gpio/cy_gpio.h **** #define CY_GPIO_PRT_PINS_MASK                  (0x0000000FFUL)
 324:Generated_Source\PSoC6\pdl\drivers\peripheral\gpio/cy_gpio.h **** #define CY_GPIO_PRT_INTR_CFG_EDGE_SEL_MASK     (GPIO_PRT_INTR_CFG_EDGE0_SEL_Msk | \
 325:Generated_Source\PSoC6\pdl\drivers\peripheral\gpio/cy_gpio.h ****                                                 GPIO_PRT_INTR_CFG_EDGE1_SEL_Msk | \
 326:Generated_Source\PSoC6\pdl\drivers\peripheral\gpio/cy_gpio.h ****                                                 GPIO_PRT_INTR_CFG_EDGE2_SEL_Msk | \
 327:Generated_Source\PSoC6\pdl\drivers\peripheral\gpio/cy_gpio.h ****                                                 GPIO_PRT_INTR_CFG_EDGE3_SEL_Msk | \
 328:Generated_Source\PSoC6\pdl\drivers\peripheral\gpio/cy_gpio.h ****                                                 GPIO_PRT_INTR_CFG_EDGE4_SEL_Msk | \
 329:Generated_Source\PSoC6\pdl\drivers\peripheral\gpio/cy_gpio.h ****                                                 GPIO_PRT_INTR_CFG_EDGE5_SEL_Msk | \
 330:Generated_Source\PSoC6\pdl\drivers\peripheral\gpio/cy_gpio.h ****                                                 GPIO_PRT_INTR_CFG_EDGE6_SEL_Msk | \
 331:Generated_Source\PSoC6\pdl\drivers\peripheral\gpio/cy_gpio.h ****                                                 GPIO_PRT_INTR_CFG_EDGE7_SEL_Msk)
 332:Generated_Source\PSoC6\pdl\drivers\peripheral\gpio/cy_gpio.h **** #define CY_GPIO_PRT_INTR_CFG_RANGE_MASK        (CY_GPIO_PRT_INTR_CFG_EDGE_SEL_MASK | \
 333:Generated_Source\PSoC6\pdl\drivers\peripheral\gpio/cy_gpio.h ****                                                 GPIO_PRT_INTR_CFG_FLT_EDGE_SEL_Msk | \
 334:Generated_Source\PSoC6\pdl\drivers\peripheral\gpio/cy_gpio.h ****                                                 GPIO_PRT_INTR_CFG_FLT_SEL_Msk)
 335:Generated_Source\PSoC6\pdl\drivers\peripheral\gpio/cy_gpio.h **** #define CY_GPIO_PRT_INT_MASK_MASK              (0x0000001FFUL)
 336:Generated_Source\PSoC6\pdl\drivers\peripheral\gpio/cy_gpio.h **** #define CY_GPIO_PRT_SEL_ACTIVE_MASK            (0x1FFFFFFFUL)
 337:Generated_Source\PSoC6\pdl\drivers\peripheral\gpio/cy_gpio.h **** 
 338:Generated_Source\PSoC6\pdl\drivers\peripheral\gpio/cy_gpio.h **** #define GPIO_MAX_SPLIT_CELL_SEGMENTS           (9U)
 339:Generated_Source\PSoC6\pdl\drivers\peripheral\gpio/cy_gpio.h **** 
 340:Generated_Source\PSoC6\pdl\drivers\peripheral\gpio/cy_gpio.h **** /* Parameter validation macros */
 341:Generated_Source\PSoC6\pdl\drivers\peripheral\gpio/cy_gpio.h **** #define CY_GPIO_IS_PIN_VALID(pinNum)           (CY_GPIO_PINS_MAX > (pinNum))
 342:Generated_Source\PSoC6\pdl\drivers\peripheral\gpio/cy_gpio.h **** #define CY_GPIO_IS_FILTER_PIN_VALID(pinNum)    (CY_GPIO_PINS_MAX >= (pinNum))
 343:Generated_Source\PSoC6\pdl\drivers\peripheral\gpio/cy_gpio.h **** #define CY_GPIO_IS_VALUE_VALID(outVal)         (1UL >= (outVal))
 344:Generated_Source\PSoC6\pdl\drivers\peripheral\gpio/cy_gpio.h **** #define CY_GPIO_IS_DM_VALID(driveMode)         (0U == ((driveMode) & (uint32_t)~CY_GPIO_CFG_DM_MASK
 345:Generated_Source\PSoC6\pdl\drivers\peripheral\gpio/cy_gpio.h **** 
 346:Generated_Source\PSoC6\pdl\drivers\peripheral\gpio/cy_gpio.h **** #define CY_GPIO_IS_HSIOM_VALID(hsiom)          (0U == ((hsiom) & (uint32_t)~CY_GPIO_HSIOM_MASK))
 347:Generated_Source\PSoC6\pdl\drivers\peripheral\gpio/cy_gpio.h **** 
 348:Generated_Source\PSoC6\pdl\drivers\peripheral\gpio/cy_gpio.h **** #define CY_GPIO_IS_INT_EDGE_VALID(intEdge)     ((CY_GPIO_INTR_DISABLE  == (intEdge)) || \
 349:Generated_Source\PSoC6\pdl\drivers\peripheral\gpio/cy_gpio.h ****                                                 (CY_GPIO_INTR_RISING   == (intEdge)) || \
 350:Generated_Source\PSoC6\pdl\drivers\peripheral\gpio/cy_gpio.h ****                                                 (CY_GPIO_INTR_FALLING  == (intEdge)) || \
 351:Generated_Source\PSoC6\pdl\drivers\peripheral\gpio/cy_gpio.h ****                                                 (CY_GPIO_INTR_BOTH     == (intEdge)))
 352:Generated_Source\PSoC6\pdl\drivers\peripheral\gpio/cy_gpio.h **** 
 353:Generated_Source\PSoC6\pdl\drivers\peripheral\gpio/cy_gpio.h **** #define CY_GPIO_IS_DRIVE_SEL_VALID(driveSel)   ((CY_GPIO_DRIVE_FULL    == (driveSel)) || \
 354:Generated_Source\PSoC6\pdl\drivers\peripheral\gpio/cy_gpio.h ****                                                 (CY_GPIO_DRIVE_1_2     == (driveSel)) || \
 355:Generated_Source\PSoC6\pdl\drivers\peripheral\gpio/cy_gpio.h ****                                                 (CY_GPIO_DRIVE_1_4     == (driveSel)) || \
 356:Generated_Source\PSoC6\pdl\drivers\peripheral\gpio/cy_gpio.h ****                                                 (CY_GPIO_DRIVE_1_8     == (driveSel)))
 357:Generated_Source\PSoC6\pdl\drivers\peripheral\gpio/cy_gpio.h **** 
 358:Generated_Source\PSoC6\pdl\drivers\peripheral\gpio/cy_gpio.h **** #define CY_GPIO_IS_VREF_SEL_VALID(vrefSel)     ((CY_SIO_VREF_PINREF    == (vrefSel)) || \
 359:Generated_Source\PSoC6\pdl\drivers\peripheral\gpio/cy_gpio.h ****                                                 (CY_SIO_VREF_1_2V      == (vrefSel)) || \
 360:Generated_Source\PSoC6\pdl\drivers\peripheral\gpio/cy_gpio.h ****                                                 (CY_SIO_VREF_AMUX_A    == (vrefSel)) || \
 361:Generated_Source\PSoC6\pdl\drivers\peripheral\gpio/cy_gpio.h ****                                                 (CY_SIO_VREF_AMUX_B    == (vrefSel)))
 362:Generated_Source\PSoC6\pdl\drivers\peripheral\gpio/cy_gpio.h **** 
 363:Generated_Source\PSoC6\pdl\drivers\peripheral\gpio/cy_gpio.h **** #define CY_GPIO_IS_VOH_SEL_VALID(vrefSel)      ((CY_SIO_VOH_1_00       == (vrefSel)) || \
 364:Generated_Source\PSoC6\pdl\drivers\peripheral\gpio/cy_gpio.h ****                                                 (CY_SIO_VOH_1_25       == (vrefSel)) || \
 365:Generated_Source\PSoC6\pdl\drivers\peripheral\gpio/cy_gpio.h ****                                                 (CY_SIO_VOH_1_49       == (vrefSel)) || \
 366:Generated_Source\PSoC6\pdl\drivers\peripheral\gpio/cy_gpio.h ****                                                 (CY_SIO_VOH_1_67       == (vrefSel)) || \
 367:Generated_Source\PSoC6\pdl\drivers\peripheral\gpio/cy_gpio.h ****                                                 (CY_SIO_VOH_2_08       == (vrefSel)) || \
 368:Generated_Source\PSoC6\pdl\drivers\peripheral\gpio/cy_gpio.h ****                                                 (CY_SIO_VOH_2_50       == (vrefSel)) || \
 369:Generated_Source\PSoC6\pdl\drivers\peripheral\gpio/cy_gpio.h ****                                                 (CY_SIO_VOH_2_78       == (vrefSel)) || \
 370:Generated_Source\PSoC6\pdl\drivers\peripheral\gpio/cy_gpio.h ****                                                 (CY_SIO_VOH_4_16       == (vrefSel)))
 371:Generated_Source\PSoC6\pdl\drivers\peripheral\gpio/cy_gpio.h ****                    
 372:Generated_Source\PSoC6\pdl\drivers\peripheral\gpio/cy_gpio.h **** #define CY_GPIO_IS_PIN_BIT_VALID(pinBit)       (0U == ((pinBit) & (uint32_t)~CY_GPIO_PRT_PINS_MASK)
ARM GAS  C:\Users\cmila\AppData\Local\Temp\ccgUIjp6.s 			page 8


 373:Generated_Source\PSoC6\pdl\drivers\peripheral\gpio/cy_gpio.h **** #define CY_GPIO_IS_INTR_CFG_VALID(intrCfg)     (0U == ((intrCfg) & (uint32_t)~CY_GPIO_PRT_INTR_CFG_
 374:Generated_Source\PSoC6\pdl\drivers\peripheral\gpio/cy_gpio.h **** #define CY_GPIO_IS_INTR_MASK_VALID(intrMask)   (0U == ((intrMask) & (uint32_t)~CY_GPIO_PRT_INT_MASK
 375:Generated_Source\PSoC6\pdl\drivers\peripheral\gpio/cy_gpio.h **** #define CY_GPIO_IS_SEL_ACT_VALID(selActive)    (0U == ((selActive) & (uint32_t)~CY_GPIO_PRT_SEL_ACT
 376:Generated_Source\PSoC6\pdl\drivers\peripheral\gpio/cy_gpio.h **** 
 377:Generated_Source\PSoC6\pdl\drivers\peripheral\gpio/cy_gpio.h **** #define CY_GPIO_IS_AMUX_SPLIT_VALID(switchCtrl)       (((uint32_t) (switchCtrl)) < GPIO_MAX_SPLIT_C
 378:Generated_Source\PSoC6\pdl\drivers\peripheral\gpio/cy_gpio.h **** 
 379:Generated_Source\PSoC6\pdl\drivers\peripheral\gpio/cy_gpio.h **** #define CY_GPIO_IS_AMUX_CONNECT_VALID(amuxConnect)    ((CY_GPIO_AMUX_OPENALL == (amuxConnect)) || \
 380:Generated_Source\PSoC6\pdl\drivers\peripheral\gpio/cy_gpio.h ****                                                        (CY_GPIO_AMUX_L       == (amuxConnect)) || \
 381:Generated_Source\PSoC6\pdl\drivers\peripheral\gpio/cy_gpio.h ****                                                        (CY_GPIO_AMUX_R       == (amuxConnect)) || \
 382:Generated_Source\PSoC6\pdl\drivers\peripheral\gpio/cy_gpio.h ****                                                        (CY_GPIO_AMUX_LR      == (amuxConnect)) || \
 383:Generated_Source\PSoC6\pdl\drivers\peripheral\gpio/cy_gpio.h ****                                                        (CY_GPIO_AMUX_G       == (amuxConnect)) || \
 384:Generated_Source\PSoC6\pdl\drivers\peripheral\gpio/cy_gpio.h ****                                                        (CY_GPIO_AMUX_GL      == (amuxConnect)) || \
 385:Generated_Source\PSoC6\pdl\drivers\peripheral\gpio/cy_gpio.h ****                                                        (CY_GPIO_AMUX_GR      == (amuxConnect)) || \
 386:Generated_Source\PSoC6\pdl\drivers\peripheral\gpio/cy_gpio.h ****                                                        (CY_GPIO_AMUX_GLR     == (amuxConnect)))
 387:Generated_Source\PSoC6\pdl\drivers\peripheral\gpio/cy_gpio.h **** 
 388:Generated_Source\PSoC6\pdl\drivers\peripheral\gpio/cy_gpio.h **** #define CY_GPIO_IS_AMUX_SELECT_VALID(amuxBus)       ((CY_GPIO_AMUXBUSA       == (amuxBus)) || \
 389:Generated_Source\PSoC6\pdl\drivers\peripheral\gpio/cy_gpio.h ****                                                      (CY_GPIO_AMUXBUSB       == (amuxBus)))
 390:Generated_Source\PSoC6\pdl\drivers\peripheral\gpio/cy_gpio.h **** /** \endcond */
 391:Generated_Source\PSoC6\pdl\drivers\peripheral\gpio/cy_gpio.h **** 
 392:Generated_Source\PSoC6\pdl\drivers\peripheral\gpio/cy_gpio.h **** 
 393:Generated_Source\PSoC6\pdl\drivers\peripheral\gpio/cy_gpio.h **** /***************************************
 394:Generated_Source\PSoC6\pdl\drivers\peripheral\gpio/cy_gpio.h **** *        Function Constants
 395:Generated_Source\PSoC6\pdl\drivers\peripheral\gpio/cy_gpio.h **** ***************************************/
 396:Generated_Source\PSoC6\pdl\drivers\peripheral\gpio/cy_gpio.h **** 
 397:Generated_Source\PSoC6\pdl\drivers\peripheral\gpio/cy_gpio.h **** /**
 398:Generated_Source\PSoC6\pdl\drivers\peripheral\gpio/cy_gpio.h **** * \addtogroup group_gpio_macros
 399:Generated_Source\PSoC6\pdl\drivers\peripheral\gpio/cy_gpio.h **** * \{
 400:Generated_Source\PSoC6\pdl\drivers\peripheral\gpio/cy_gpio.h **** */
 401:Generated_Source\PSoC6\pdl\drivers\peripheral\gpio/cy_gpio.h **** 
 402:Generated_Source\PSoC6\pdl\drivers\peripheral\gpio/cy_gpio.h **** /**
 403:Generated_Source\PSoC6\pdl\drivers\peripheral\gpio/cy_gpio.h **** * \defgroup group_gpio_driveModes Pin drive mode
 404:Generated_Source\PSoC6\pdl\drivers\peripheral\gpio/cy_gpio.h **** * \{
 405:Generated_Source\PSoC6\pdl\drivers\peripheral\gpio/cy_gpio.h **** * Constants to be used for setting the drive mode of the pin.
 406:Generated_Source\PSoC6\pdl\drivers\peripheral\gpio/cy_gpio.h **** */
 407:Generated_Source\PSoC6\pdl\drivers\peripheral\gpio/cy_gpio.h **** #define CY_GPIO_DM_ANALOG                      (0x00UL) /**< Analog High-Z. Input buffer off */
 408:Generated_Source\PSoC6\pdl\drivers\peripheral\gpio/cy_gpio.h **** #define CY_GPIO_DM_PULLUP_IN_OFF               (0x02UL) /**< Resistive Pull-Up. Input buffer off */
 409:Generated_Source\PSoC6\pdl\drivers\peripheral\gpio/cy_gpio.h **** #define CY_GPIO_DM_PULLDOWN_IN_OFF             (0x03UL) /**< Resistive Pull-Down. Input buffer off 
 410:Generated_Source\PSoC6\pdl\drivers\peripheral\gpio/cy_gpio.h **** #define CY_GPIO_DM_OD_DRIVESLOW_IN_OFF         (0x04UL) /**< Open Drain, Drives Low. Input buffer o
 411:Generated_Source\PSoC6\pdl\drivers\peripheral\gpio/cy_gpio.h **** #define CY_GPIO_DM_OD_DRIVESHIGH_IN_OFF        (0x05UL) /**< Open Drain, Drives High. Input buffer 
 412:Generated_Source\PSoC6\pdl\drivers\peripheral\gpio/cy_gpio.h **** #define CY_GPIO_DM_STRONG_IN_OFF               (0x06UL) /**< Strong Drive. Input buffer off */
 413:Generated_Source\PSoC6\pdl\drivers\peripheral\gpio/cy_gpio.h **** #define CY_GPIO_DM_PULLUP_DOWN_IN_OFF          (0x07UL) /**< Resistive Pull-Up/Down. Input buffer o
 414:Generated_Source\PSoC6\pdl\drivers\peripheral\gpio/cy_gpio.h **** #define CY_GPIO_DM_HIGHZ                       (0x08UL) /**< Digital High-Z. Input buffer on */
 415:Generated_Source\PSoC6\pdl\drivers\peripheral\gpio/cy_gpio.h **** #define CY_GPIO_DM_PULLUP                      (0x0AUL) /**< Resistive Pull-Up. Input buffer on */
 416:Generated_Source\PSoC6\pdl\drivers\peripheral\gpio/cy_gpio.h **** #define CY_GPIO_DM_PULLDOWN                    (0x0BUL) /**< Resistive Pull-Down. Input buffer on *
 417:Generated_Source\PSoC6\pdl\drivers\peripheral\gpio/cy_gpio.h **** #define CY_GPIO_DM_OD_DRIVESLOW                (0x0CUL) /**< Open Drain, Drives Low. Input buffer o
 418:Generated_Source\PSoC6\pdl\drivers\peripheral\gpio/cy_gpio.h **** #define CY_GPIO_DM_OD_DRIVESHIGH               (0x0DUL) /**< Open Drain, Drives High. Input buffer 
 419:Generated_Source\PSoC6\pdl\drivers\peripheral\gpio/cy_gpio.h **** #define CY_GPIO_DM_STRONG                      (0x0EUL) /**< Strong Drive. Input buffer on */
 420:Generated_Source\PSoC6\pdl\drivers\peripheral\gpio/cy_gpio.h **** #define CY_GPIO_DM_PULLUP_DOWN                 (0x0FUL) /**< Resistive Pull-Up/Down. Input buffer o
 421:Generated_Source\PSoC6\pdl\drivers\peripheral\gpio/cy_gpio.h **** /** \} */
 422:Generated_Source\PSoC6\pdl\drivers\peripheral\gpio/cy_gpio.h **** 
 423:Generated_Source\PSoC6\pdl\drivers\peripheral\gpio/cy_gpio.h **** /**
 424:Generated_Source\PSoC6\pdl\drivers\peripheral\gpio/cy_gpio.h **** * \defgroup group_gpio_vtrip Voltage trip mode
 425:Generated_Source\PSoC6\pdl\drivers\peripheral\gpio/cy_gpio.h **** * \{
 426:Generated_Source\PSoC6\pdl\drivers\peripheral\gpio/cy_gpio.h **** * Constants to be used for setting the voltage trip type on the pin.
 427:Generated_Source\PSoC6\pdl\drivers\peripheral\gpio/cy_gpio.h **** */
 428:Generated_Source\PSoC6\pdl\drivers\peripheral\gpio/cy_gpio.h **** #define CY_GPIO_VTRIP_CMOS                     (0x00UL) /**< Input buffer compatible with CMOS and 
 429:Generated_Source\PSoC6\pdl\drivers\peripheral\gpio/cy_gpio.h **** #define CY_GPIO_VTRIP_TTL                      (0x01UL) /**< Input buffer compatible with TTL and M
ARM GAS  C:\Users\cmila\AppData\Local\Temp\ccgUIjp6.s 			page 9


 430:Generated_Source\PSoC6\pdl\drivers\peripheral\gpio/cy_gpio.h **** /** \} */
 431:Generated_Source\PSoC6\pdl\drivers\peripheral\gpio/cy_gpio.h **** 
 432:Generated_Source\PSoC6\pdl\drivers\peripheral\gpio/cy_gpio.h **** /**
 433:Generated_Source\PSoC6\pdl\drivers\peripheral\gpio/cy_gpio.h **** * \defgroup group_gpio_slewRate Slew Rate Mode
 434:Generated_Source\PSoC6\pdl\drivers\peripheral\gpio/cy_gpio.h **** * \{
 435:Generated_Source\PSoC6\pdl\drivers\peripheral\gpio/cy_gpio.h **** * Constants to be used for setting the slew rate of the pin.
 436:Generated_Source\PSoC6\pdl\drivers\peripheral\gpio/cy_gpio.h **** */
 437:Generated_Source\PSoC6\pdl\drivers\peripheral\gpio/cy_gpio.h **** #define CY_GPIO_SLEW_FAST                      (0x00UL) /**< Fast slew rate */
 438:Generated_Source\PSoC6\pdl\drivers\peripheral\gpio/cy_gpio.h **** #define CY_GPIO_SLEW_SLOW                      (0x01UL) /**< Slow slew rate */
 439:Generated_Source\PSoC6\pdl\drivers\peripheral\gpio/cy_gpio.h **** /** \} */
 440:Generated_Source\PSoC6\pdl\drivers\peripheral\gpio/cy_gpio.h **** 
 441:Generated_Source\PSoC6\pdl\drivers\peripheral\gpio/cy_gpio.h **** /**
 442:Generated_Source\PSoC6\pdl\drivers\peripheral\gpio/cy_gpio.h **** * \defgroup group_gpio_driveStrength Pin drive strength
 443:Generated_Source\PSoC6\pdl\drivers\peripheral\gpio/cy_gpio.h **** * \{
 444:Generated_Source\PSoC6\pdl\drivers\peripheral\gpio/cy_gpio.h **** * Constants to be used for setting the drive strength of the pin.
 445:Generated_Source\PSoC6\pdl\drivers\peripheral\gpio/cy_gpio.h **** */
 446:Generated_Source\PSoC6\pdl\drivers\peripheral\gpio/cy_gpio.h **** #define CY_GPIO_DRIVE_FULL                     (0x00UL) /**< Full drive strength: Max drive current
 447:Generated_Source\PSoC6\pdl\drivers\peripheral\gpio/cy_gpio.h **** #define CY_GPIO_DRIVE_1_2                      (0x01UL) /**< 1/2 drive strength: 1/2 drive current 
 448:Generated_Source\PSoC6\pdl\drivers\peripheral\gpio/cy_gpio.h **** #define CY_GPIO_DRIVE_1_4                      (0x02UL) /**< 1/4 drive strength: 1/4 drive current 
 449:Generated_Source\PSoC6\pdl\drivers\peripheral\gpio/cy_gpio.h **** #define CY_GPIO_DRIVE_1_8                      (0x03UL) /**< 1/8 drive strength: 1/8 drive current 
 450:Generated_Source\PSoC6\pdl\drivers\peripheral\gpio/cy_gpio.h **** /** \} */
 451:Generated_Source\PSoC6\pdl\drivers\peripheral\gpio/cy_gpio.h **** 
 452:Generated_Source\PSoC6\pdl\drivers\peripheral\gpio/cy_gpio.h **** /**
 453:Generated_Source\PSoC6\pdl\drivers\peripheral\gpio/cy_gpio.h **** * \defgroup group_gpio_interruptTrigger Interrupt trigger type
 454:Generated_Source\PSoC6\pdl\drivers\peripheral\gpio/cy_gpio.h **** * \{
 455:Generated_Source\PSoC6\pdl\drivers\peripheral\gpio/cy_gpio.h **** * Constants to be used for setting the interrupt trigger type on the pin.
 456:Generated_Source\PSoC6\pdl\drivers\peripheral\gpio/cy_gpio.h **** */
 457:Generated_Source\PSoC6\pdl\drivers\peripheral\gpio/cy_gpio.h **** #define CY_GPIO_INTR_DISABLE                   (0x00UL) /**< Disable the pin interrupt generation *
 458:Generated_Source\PSoC6\pdl\drivers\peripheral\gpio/cy_gpio.h **** #define CY_GPIO_INTR_RISING                    (0x01UL) /**< Rising-Edge interrupt */
 459:Generated_Source\PSoC6\pdl\drivers\peripheral\gpio/cy_gpio.h **** #define CY_GPIO_INTR_FALLING                   (0x02UL) /**< Falling-Edge interrupt */
 460:Generated_Source\PSoC6\pdl\drivers\peripheral\gpio/cy_gpio.h **** #define CY_GPIO_INTR_BOTH                      (0x03UL) /**< Both-Edge interrupt */
 461:Generated_Source\PSoC6\pdl\drivers\peripheral\gpio/cy_gpio.h **** /** \} */
 462:Generated_Source\PSoC6\pdl\drivers\peripheral\gpio/cy_gpio.h **** 
 463:Generated_Source\PSoC6\pdl\drivers\peripheral\gpio/cy_gpio.h **** /**
 464:Generated_Source\PSoC6\pdl\drivers\peripheral\gpio/cy_gpio.h **** * \defgroup group_gpio_sioVreg SIO output buffer mode
 465:Generated_Source\PSoC6\pdl\drivers\peripheral\gpio/cy_gpio.h **** * \{
 466:Generated_Source\PSoC6\pdl\drivers\peripheral\gpio/cy_gpio.h **** * Constants to be used for setting the SIO output buffer mode on the pin.
 467:Generated_Source\PSoC6\pdl\drivers\peripheral\gpio/cy_gpio.h **** */
 468:Generated_Source\PSoC6\pdl\drivers\peripheral\gpio/cy_gpio.h **** #define CY_SIO_VREG_UNREGULATED                (0x00UL) /**< Unregulated output buffer */
 469:Generated_Source\PSoC6\pdl\drivers\peripheral\gpio/cy_gpio.h **** #define CY_SIO_VREG_REGULATED                  (0x01UL) /**< Regulated output buffer */
 470:Generated_Source\PSoC6\pdl\drivers\peripheral\gpio/cy_gpio.h **** /** \} */
 471:Generated_Source\PSoC6\pdl\drivers\peripheral\gpio/cy_gpio.h **** 
 472:Generated_Source\PSoC6\pdl\drivers\peripheral\gpio/cy_gpio.h **** /**
 473:Generated_Source\PSoC6\pdl\drivers\peripheral\gpio/cy_gpio.h **** * \defgroup group_gpio_sioIbuf SIO input buffer mode
 474:Generated_Source\PSoC6\pdl\drivers\peripheral\gpio/cy_gpio.h **** * \{
 475:Generated_Source\PSoC6\pdl\drivers\peripheral\gpio/cy_gpio.h **** * Constants to be used for setting the SIO input buffer mode on the pin.
 476:Generated_Source\PSoC6\pdl\drivers\peripheral\gpio/cy_gpio.h **** */
 477:Generated_Source\PSoC6\pdl\drivers\peripheral\gpio/cy_gpio.h **** #define CY_SIO_IBUF_SINGLEENDED                (0x00UL) /**< Single ended input buffer */
 478:Generated_Source\PSoC6\pdl\drivers\peripheral\gpio/cy_gpio.h **** #define CY_SIO_IBUF_DIFFERENTIAL               (0x01UL) /**< Differential input buffer */
 479:Generated_Source\PSoC6\pdl\drivers\peripheral\gpio/cy_gpio.h **** /** \} */
 480:Generated_Source\PSoC6\pdl\drivers\peripheral\gpio/cy_gpio.h **** 
 481:Generated_Source\PSoC6\pdl\drivers\peripheral\gpio/cy_gpio.h **** /**
 482:Generated_Source\PSoC6\pdl\drivers\peripheral\gpio/cy_gpio.h **** * \defgroup group_gpio_sioVtrip SIO input buffer trip-point
 483:Generated_Source\PSoC6\pdl\drivers\peripheral\gpio/cy_gpio.h **** * \{
 484:Generated_Source\PSoC6\pdl\drivers\peripheral\gpio/cy_gpio.h **** * Constants to be used for setting the SIO input buffer trip-point of the pin.
 485:Generated_Source\PSoC6\pdl\drivers\peripheral\gpio/cy_gpio.h **** */
 486:Generated_Source\PSoC6\pdl\drivers\peripheral\gpio/cy_gpio.h **** #define CY_SIO_VTRIP_CMOS                      (0x00UL) /**< CMOS input buffer (single-ended) */
ARM GAS  C:\Users\cmila\AppData\Local\Temp\ccgUIjp6.s 			page 10


 487:Generated_Source\PSoC6\pdl\drivers\peripheral\gpio/cy_gpio.h **** #define CY_SIO_VTRIP_TTL                       (0x01UL) /**< TTL input buffer (single-ended) */
 488:Generated_Source\PSoC6\pdl\drivers\peripheral\gpio/cy_gpio.h **** #define CY_SIO_VTRIP_0_5VDDIO_0_5VOH           (0x00UL) /**< 0.5xVddio or 0.5xVoh (differential) */
 489:Generated_Source\PSoC6\pdl\drivers\peripheral\gpio/cy_gpio.h **** #define CY_SIO_VTRIP_0_4VDDIO_1_0VREF          (0x01UL) /**< 0.4xVddio or 0.4xVoh (differential) */
 490:Generated_Source\PSoC6\pdl\drivers\peripheral\gpio/cy_gpio.h **** /** \} */
 491:Generated_Source\PSoC6\pdl\drivers\peripheral\gpio/cy_gpio.h **** 
 492:Generated_Source\PSoC6\pdl\drivers\peripheral\gpio/cy_gpio.h **** /**
 493:Generated_Source\PSoC6\pdl\drivers\peripheral\gpio/cy_gpio.h **** * \defgroup group_gpio_sioVref SIO reference voltage for input buffer trip-point
 494:Generated_Source\PSoC6\pdl\drivers\peripheral\gpio/cy_gpio.h **** * \{
 495:Generated_Source\PSoC6\pdl\drivers\peripheral\gpio/cy_gpio.h **** * Constants to be used for setting the reference voltage of SIO input buffer trip-point.
 496:Generated_Source\PSoC6\pdl\drivers\peripheral\gpio/cy_gpio.h **** */
 497:Generated_Source\PSoC6\pdl\drivers\peripheral\gpio/cy_gpio.h **** #define CY_SIO_VREF_PINREF                     (0x00UL) /**< Vref from analog pin */
 498:Generated_Source\PSoC6\pdl\drivers\peripheral\gpio/cy_gpio.h **** #define CY_SIO_VREF_1_2V                       (0x01UL) /**< Vref from internal 1.2V reference */
 499:Generated_Source\PSoC6\pdl\drivers\peripheral\gpio/cy_gpio.h **** #define CY_SIO_VREF_AMUX_A                     (0x02UL) /**< Vref from AMUXBUS_A */
 500:Generated_Source\PSoC6\pdl\drivers\peripheral\gpio/cy_gpio.h **** #define CY_SIO_VREF_AMUX_B                     (0x03UL) /**< Vref from AMUXBUS_B */
 501:Generated_Source\PSoC6\pdl\drivers\peripheral\gpio/cy_gpio.h **** /** \} */
 502:Generated_Source\PSoC6\pdl\drivers\peripheral\gpio/cy_gpio.h **** 
 503:Generated_Source\PSoC6\pdl\drivers\peripheral\gpio/cy_gpio.h **** /**
 504:Generated_Source\PSoC6\pdl\drivers\peripheral\gpio/cy_gpio.h **** * \defgroup group_gpio_sioVoh Regulated output voltage level (Voh) and input buffer trip-point of a
 505:Generated_Source\PSoC6\pdl\drivers\peripheral\gpio/cy_gpio.h **** * \{
 506:Generated_Source\PSoC6\pdl\drivers\peripheral\gpio/cy_gpio.h **** * Constants to be used for setting the Voh and input buffer trip-point of an SIO pair
 507:Generated_Source\PSoC6\pdl\drivers\peripheral\gpio/cy_gpio.h **** */
 508:Generated_Source\PSoC6\pdl\drivers\peripheral\gpio/cy_gpio.h **** #define CY_SIO_VOH_1_00                        (0x00UL) /**< Voh = 1 x Reference */
 509:Generated_Source\PSoC6\pdl\drivers\peripheral\gpio/cy_gpio.h **** #define CY_SIO_VOH_1_25                        (0x01UL) /**< Voh = 1.25 x Reference */
 510:Generated_Source\PSoC6\pdl\drivers\peripheral\gpio/cy_gpio.h **** #define CY_SIO_VOH_1_49                        (0x02UL) /**< Voh = 1.49 x Reference */
 511:Generated_Source\PSoC6\pdl\drivers\peripheral\gpio/cy_gpio.h **** #define CY_SIO_VOH_1_67                        (0x03UL) /**< Voh = 1.67 x Reference */
 512:Generated_Source\PSoC6\pdl\drivers\peripheral\gpio/cy_gpio.h **** #define CY_SIO_VOH_2_08                        (0x04UL) /**< Voh = 2.08 x Reference */
 513:Generated_Source\PSoC6\pdl\drivers\peripheral\gpio/cy_gpio.h **** #define CY_SIO_VOH_2_50                        (0x05UL) /**< Voh = 2.50 x Reference */
 514:Generated_Source\PSoC6\pdl\drivers\peripheral\gpio/cy_gpio.h **** #define CY_SIO_VOH_2_78                        (0x06UL) /**< Voh = 2.78 x Reference */
 515:Generated_Source\PSoC6\pdl\drivers\peripheral\gpio/cy_gpio.h **** #define CY_SIO_VOH_4_16                        (0x07UL) /**< Voh = 4.16 x Reference */
 516:Generated_Source\PSoC6\pdl\drivers\peripheral\gpio/cy_gpio.h **** /** \} */
 517:Generated_Source\PSoC6\pdl\drivers\peripheral\gpio/cy_gpio.h **** 
 518:Generated_Source\PSoC6\pdl\drivers\peripheral\gpio/cy_gpio.h **** /** \} group_gpio_macros */
 519:Generated_Source\PSoC6\pdl\drivers\peripheral\gpio/cy_gpio.h **** 
 520:Generated_Source\PSoC6\pdl\drivers\peripheral\gpio/cy_gpio.h **** /***************************************
 521:Generated_Source\PSoC6\pdl\drivers\peripheral\gpio/cy_gpio.h **** *        Function Prototypes
 522:Generated_Source\PSoC6\pdl\drivers\peripheral\gpio/cy_gpio.h **** ***************************************/
 523:Generated_Source\PSoC6\pdl\drivers\peripheral\gpio/cy_gpio.h **** 
 524:Generated_Source\PSoC6\pdl\drivers\peripheral\gpio/cy_gpio.h **** /**
 525:Generated_Source\PSoC6\pdl\drivers\peripheral\gpio/cy_gpio.h **** * \addtogroup group_gpio_functions
 526:Generated_Source\PSoC6\pdl\drivers\peripheral\gpio/cy_gpio.h **** * \{
 527:Generated_Source\PSoC6\pdl\drivers\peripheral\gpio/cy_gpio.h **** */
 528:Generated_Source\PSoC6\pdl\drivers\peripheral\gpio/cy_gpio.h **** 
 529:Generated_Source\PSoC6\pdl\drivers\peripheral\gpio/cy_gpio.h **** /**
 530:Generated_Source\PSoC6\pdl\drivers\peripheral\gpio/cy_gpio.h **** * \addtogroup group_gpio_functions_init
 531:Generated_Source\PSoC6\pdl\drivers\peripheral\gpio/cy_gpio.h **** * \{
 532:Generated_Source\PSoC6\pdl\drivers\peripheral\gpio/cy_gpio.h **** */
 533:Generated_Source\PSoC6\pdl\drivers\peripheral\gpio/cy_gpio.h **** 
 534:Generated_Source\PSoC6\pdl\drivers\peripheral\gpio/cy_gpio.h **** cy_en_gpio_status_t Cy_GPIO_Pin_Init(GPIO_PRT_Type* base, uint32_t pinNum, const cy_stc_gpio_pin_co
 535:Generated_Source\PSoC6\pdl\drivers\peripheral\gpio/cy_gpio.h **** cy_en_gpio_status_t Cy_GPIO_Port_Init(GPIO_PRT_Type* base, const cy_stc_gpio_prt_config_t *config);
 536:Generated_Source\PSoC6\pdl\drivers\peripheral\gpio/cy_gpio.h **** void Cy_GPIO_Pin_FastInit(GPIO_PRT_Type* base, uint32_t pinNum, uint32_t driveMode, uint32_t outVal
 537:Generated_Source\PSoC6\pdl\drivers\peripheral\gpio/cy_gpio.h **** void Cy_GPIO_Port_Deinit(GPIO_PRT_Type* base);
 538:Generated_Source\PSoC6\pdl\drivers\peripheral\gpio/cy_gpio.h **** __STATIC_INLINE void Cy_GPIO_SetHSIOM(GPIO_PRT_Type* base, uint32_t pinNum, en_hsiom_sel_t value);
 539:Generated_Source\PSoC6\pdl\drivers\peripheral\gpio/cy_gpio.h **** __STATIC_INLINE en_hsiom_sel_t Cy_GPIO_GetHSIOM(GPIO_PRT_Type* base, uint32_t pinNum);
 540:Generated_Source\PSoC6\pdl\drivers\peripheral\gpio/cy_gpio.h **** __STATIC_INLINE GPIO_PRT_Type* Cy_GPIO_PortToAddr(uint32_t portNum);
 541:Generated_Source\PSoC6\pdl\drivers\peripheral\gpio/cy_gpio.h **** 
 542:Generated_Source\PSoC6\pdl\drivers\peripheral\gpio/cy_gpio.h **** /** \} group_gpio_functions_init */
 543:Generated_Source\PSoC6\pdl\drivers\peripheral\gpio/cy_gpio.h **** 
ARM GAS  C:\Users\cmila\AppData\Local\Temp\ccgUIjp6.s 			page 11


 544:Generated_Source\PSoC6\pdl\drivers\peripheral\gpio/cy_gpio.h **** /**
 545:Generated_Source\PSoC6\pdl\drivers\peripheral\gpio/cy_gpio.h **** * \addtogroup group_gpio_functions_gpio
 546:Generated_Source\PSoC6\pdl\drivers\peripheral\gpio/cy_gpio.h **** * \{
 547:Generated_Source\PSoC6\pdl\drivers\peripheral\gpio/cy_gpio.h **** */
 548:Generated_Source\PSoC6\pdl\drivers\peripheral\gpio/cy_gpio.h **** 
 549:Generated_Source\PSoC6\pdl\drivers\peripheral\gpio/cy_gpio.h **** void Cy_GPIO_SetAmuxSplit(cy_en_amux_split_t switchCtrl, cy_en_gpio_amuxconnect_t amuxConnect, cy_e
 550:Generated_Source\PSoC6\pdl\drivers\peripheral\gpio/cy_gpio.h **** cy_en_gpio_amuxconnect_t Cy_GPIO_GetAmuxSplit(cy_en_amux_split_t switchCtrl, cy_en_gpio_amuxselect_
 551:Generated_Source\PSoC6\pdl\drivers\peripheral\gpio/cy_gpio.h **** 
 552:Generated_Source\PSoC6\pdl\drivers\peripheral\gpio/cy_gpio.h **** __STATIC_INLINE uint32_t Cy_GPIO_Read(GPIO_PRT_Type* base, uint32_t pinNum);
 553:Generated_Source\PSoC6\pdl\drivers\peripheral\gpio/cy_gpio.h **** __STATIC_INLINE void Cy_GPIO_Write(GPIO_PRT_Type* base, uint32_t pinNum, uint32_t value);
 554:Generated_Source\PSoC6\pdl\drivers\peripheral\gpio/cy_gpio.h **** __STATIC_INLINE uint32_t Cy_GPIO_ReadOut(GPIO_PRT_Type* base, uint32_t pinNum);
 555:Generated_Source\PSoC6\pdl\drivers\peripheral\gpio/cy_gpio.h **** __STATIC_INLINE void Cy_GPIO_Set(GPIO_PRT_Type* base, uint32_t pinNum);
 556:Generated_Source\PSoC6\pdl\drivers\peripheral\gpio/cy_gpio.h **** __STATIC_INLINE void Cy_GPIO_Clr(GPIO_PRT_Type* base, uint32_t pinNum);
 557:Generated_Source\PSoC6\pdl\drivers\peripheral\gpio/cy_gpio.h **** __STATIC_INLINE void Cy_GPIO_Inv(GPIO_PRT_Type* base, uint32_t pinNum);
 558:Generated_Source\PSoC6\pdl\drivers\peripheral\gpio/cy_gpio.h **** __STATIC_INLINE void Cy_GPIO_SetDrivemode(GPIO_PRT_Type* base, uint32_t pinNum, uint32_t value);
 559:Generated_Source\PSoC6\pdl\drivers\peripheral\gpio/cy_gpio.h **** __STATIC_INLINE uint32_t Cy_GPIO_GetDrivemode(GPIO_PRT_Type* base, uint32_t pinNum);
 560:Generated_Source\PSoC6\pdl\drivers\peripheral\gpio/cy_gpio.h **** __STATIC_INLINE void Cy_GPIO_SetVtrip(GPIO_PRT_Type* base, uint32_t pinNum, uint32_t value);
 561:Generated_Source\PSoC6\pdl\drivers\peripheral\gpio/cy_gpio.h **** __STATIC_INLINE uint32_t Cy_GPIO_GetVtrip(GPIO_PRT_Type* base, uint32_t pinNum);
 562:Generated_Source\PSoC6\pdl\drivers\peripheral\gpio/cy_gpio.h **** __STATIC_INLINE void Cy_GPIO_SetSlewRate(GPIO_PRT_Type* base, uint32_t pinNum, uint32_t value);
 563:Generated_Source\PSoC6\pdl\drivers\peripheral\gpio/cy_gpio.h **** __STATIC_INLINE uint32_t Cy_GPIO_GetSlewRate(GPIO_PRT_Type* base, uint32_t pinNum);
 564:Generated_Source\PSoC6\pdl\drivers\peripheral\gpio/cy_gpio.h **** __STATIC_INLINE void Cy_GPIO_SetDriveSel(GPIO_PRT_Type* base, uint32_t pinNum, uint32_t value);
 565:Generated_Source\PSoC6\pdl\drivers\peripheral\gpio/cy_gpio.h **** __STATIC_INLINE uint32_t Cy_GPIO_GetDriveSel(GPIO_PRT_Type* base, uint32_t pinNum);
 566:Generated_Source\PSoC6\pdl\drivers\peripheral\gpio/cy_gpio.h **** 
 567:Generated_Source\PSoC6\pdl\drivers\peripheral\gpio/cy_gpio.h **** /** \} group_gpio_functions_gpio */
 568:Generated_Source\PSoC6\pdl\drivers\peripheral\gpio/cy_gpio.h **** 
 569:Generated_Source\PSoC6\pdl\drivers\peripheral\gpio/cy_gpio.h **** /**
 570:Generated_Source\PSoC6\pdl\drivers\peripheral\gpio/cy_gpio.h **** * \addtogroup group_gpio_functions_sio
 571:Generated_Source\PSoC6\pdl\drivers\peripheral\gpio/cy_gpio.h **** * \{
 572:Generated_Source\PSoC6\pdl\drivers\peripheral\gpio/cy_gpio.h **** */
 573:Generated_Source\PSoC6\pdl\drivers\peripheral\gpio/cy_gpio.h **** 
 574:Generated_Source\PSoC6\pdl\drivers\peripheral\gpio/cy_gpio.h **** __STATIC_INLINE void Cy_GPIO_SetVregEn(GPIO_PRT_Type* base, uint32_t pinNum, uint32_t value);
 575:Generated_Source\PSoC6\pdl\drivers\peripheral\gpio/cy_gpio.h **** __STATIC_INLINE uint32_t Cy_GPIO_GetVregEn(GPIO_PRT_Type* base, uint32_t pinNum);
 576:Generated_Source\PSoC6\pdl\drivers\peripheral\gpio/cy_gpio.h **** __STATIC_INLINE void Cy_GPIO_SetIbufMode(GPIO_PRT_Type* base, uint32_t pinNum, uint32_t value);
 577:Generated_Source\PSoC6\pdl\drivers\peripheral\gpio/cy_gpio.h **** __STATIC_INLINE uint32_t Cy_GPIO_GetIbufMode(GPIO_PRT_Type* base, uint32_t pinNum);
 578:Generated_Source\PSoC6\pdl\drivers\peripheral\gpio/cy_gpio.h **** __STATIC_INLINE void Cy_GPIO_SetVtripSel(GPIO_PRT_Type* base, uint32_t pinNum, uint32_t value);
 579:Generated_Source\PSoC6\pdl\drivers\peripheral\gpio/cy_gpio.h **** __STATIC_INLINE uint32_t Cy_GPIO_GetVtripSel(GPIO_PRT_Type* base, uint32_t pinNum);
 580:Generated_Source\PSoC6\pdl\drivers\peripheral\gpio/cy_gpio.h **** __STATIC_INLINE void Cy_GPIO_SetVrefSel(GPIO_PRT_Type* base, uint32_t pinNum, uint32_t value);
 581:Generated_Source\PSoC6\pdl\drivers\peripheral\gpio/cy_gpio.h **** __STATIC_INLINE uint32_t Cy_GPIO_GetVrefSel(GPIO_PRT_Type* base, uint32_t pinNum);
 582:Generated_Source\PSoC6\pdl\drivers\peripheral\gpio/cy_gpio.h **** __STATIC_INLINE void Cy_GPIO_SetVohSel(GPIO_PRT_Type* base, uint32_t pinNum, uint32_t value);
 583:Generated_Source\PSoC6\pdl\drivers\peripheral\gpio/cy_gpio.h **** __STATIC_INLINE uint32_t Cy_GPIO_GetVohSel(GPIO_PRT_Type* base, uint32_t pinNum);
 584:Generated_Source\PSoC6\pdl\drivers\peripheral\gpio/cy_gpio.h **** 
 585:Generated_Source\PSoC6\pdl\drivers\peripheral\gpio/cy_gpio.h **** /** \} group_gpio_functions_sio */
 586:Generated_Source\PSoC6\pdl\drivers\peripheral\gpio/cy_gpio.h **** 
 587:Generated_Source\PSoC6\pdl\drivers\peripheral\gpio/cy_gpio.h **** /**
 588:Generated_Source\PSoC6\pdl\drivers\peripheral\gpio/cy_gpio.h **** * \addtogroup group_gpio_functions_interrupt
 589:Generated_Source\PSoC6\pdl\drivers\peripheral\gpio/cy_gpio.h **** * \{
 590:Generated_Source\PSoC6\pdl\drivers\peripheral\gpio/cy_gpio.h **** */
 591:Generated_Source\PSoC6\pdl\drivers\peripheral\gpio/cy_gpio.h **** 
 592:Generated_Source\PSoC6\pdl\drivers\peripheral\gpio/cy_gpio.h **** __STATIC_INLINE uint32_t Cy_GPIO_GetInterruptStatus(GPIO_PRT_Type* base, uint32_t pinNum);
 593:Generated_Source\PSoC6\pdl\drivers\peripheral\gpio/cy_gpio.h **** __STATIC_INLINE void Cy_GPIO_ClearInterrupt(GPIO_PRT_Type* base, uint32_t pinNum);
 594:Generated_Source\PSoC6\pdl\drivers\peripheral\gpio/cy_gpio.h **** __STATIC_INLINE void Cy_GPIO_SetInterruptMask(GPIO_PRT_Type* base, uint32_t pinNum, uint32_t value)
 595:Generated_Source\PSoC6\pdl\drivers\peripheral\gpio/cy_gpio.h **** __STATIC_INLINE uint32_t Cy_GPIO_GetInterruptMask(GPIO_PRT_Type* base, uint32_t pinNum);
 596:Generated_Source\PSoC6\pdl\drivers\peripheral\gpio/cy_gpio.h **** __STATIC_INLINE uint32_t Cy_GPIO_GetInterruptStatusMasked(GPIO_PRT_Type* base, uint32_t pinNum);
 597:Generated_Source\PSoC6\pdl\drivers\peripheral\gpio/cy_gpio.h **** __STATIC_INLINE void Cy_GPIO_SetSwInterrupt(GPIO_PRT_Type* base, uint32_t pinNum);
 598:Generated_Source\PSoC6\pdl\drivers\peripheral\gpio/cy_gpio.h **** __STATIC_INLINE void Cy_GPIO_SetInterruptEdge(GPIO_PRT_Type* base, uint32_t pinNum, uint32_t value)
 599:Generated_Source\PSoC6\pdl\drivers\peripheral\gpio/cy_gpio.h **** __STATIC_INLINE uint32_t Cy_GPIO_GetInterruptEdge(GPIO_PRT_Type* base, uint32_t pinNum);
 600:Generated_Source\PSoC6\pdl\drivers\peripheral\gpio/cy_gpio.h **** __STATIC_INLINE void Cy_GPIO_SetFilter(GPIO_PRT_Type* base, uint32_t value);
ARM GAS  C:\Users\cmila\AppData\Local\Temp\ccgUIjp6.s 			page 12


 601:Generated_Source\PSoC6\pdl\drivers\peripheral\gpio/cy_gpio.h **** __STATIC_INLINE uint32_t Cy_GPIO_GetFilter(GPIO_PRT_Type* base);
 602:Generated_Source\PSoC6\pdl\drivers\peripheral\gpio/cy_gpio.h **** 
 603:Generated_Source\PSoC6\pdl\drivers\peripheral\gpio/cy_gpio.h **** __STATIC_INLINE uint32_t Cy_GPIO_GetInterruptCause0(void);
 604:Generated_Source\PSoC6\pdl\drivers\peripheral\gpio/cy_gpio.h **** __STATIC_INLINE uint32_t Cy_GPIO_GetInterruptCause1(void);
 605:Generated_Source\PSoC6\pdl\drivers\peripheral\gpio/cy_gpio.h **** __STATIC_INLINE uint32_t Cy_GPIO_GetInterruptCause2(void);
 606:Generated_Source\PSoC6\pdl\drivers\peripheral\gpio/cy_gpio.h **** __STATIC_INLINE uint32_t Cy_GPIO_GetInterruptCause3(void);
 607:Generated_Source\PSoC6\pdl\drivers\peripheral\gpio/cy_gpio.h **** 
 608:Generated_Source\PSoC6\pdl\drivers\peripheral\gpio/cy_gpio.h **** /** \} group_gpio_functions_interrupt */
 609:Generated_Source\PSoC6\pdl\drivers\peripheral\gpio/cy_gpio.h **** 
 610:Generated_Source\PSoC6\pdl\drivers\peripheral\gpio/cy_gpio.h **** 
 611:Generated_Source\PSoC6\pdl\drivers\peripheral\gpio/cy_gpio.h **** /**
 612:Generated_Source\PSoC6\pdl\drivers\peripheral\gpio/cy_gpio.h **** * \addtogroup group_gpio_functions_init
 613:Generated_Source\PSoC6\pdl\drivers\peripheral\gpio/cy_gpio.h **** * \{
 614:Generated_Source\PSoC6\pdl\drivers\peripheral\gpio/cy_gpio.h **** */
 615:Generated_Source\PSoC6\pdl\drivers\peripheral\gpio/cy_gpio.h **** 
 616:Generated_Source\PSoC6\pdl\drivers\peripheral\gpio/cy_gpio.h **** /*******************************************************************************
 617:Generated_Source\PSoC6\pdl\drivers\peripheral\gpio/cy_gpio.h **** * Function Name: Cy_GPIO_SetHSIOM
 618:Generated_Source\PSoC6\pdl\drivers\peripheral\gpio/cy_gpio.h **** ****************************************************************************//**
 619:Generated_Source\PSoC6\pdl\drivers\peripheral\gpio/cy_gpio.h **** *
 620:Generated_Source\PSoC6\pdl\drivers\peripheral\gpio/cy_gpio.h **** * Configures the HSIOM connection to the pin.
 621:Generated_Source\PSoC6\pdl\drivers\peripheral\gpio/cy_gpio.h **** *
 622:Generated_Source\PSoC6\pdl\drivers\peripheral\gpio/cy_gpio.h **** * Connects the specified High-Speed Input Output Multiplexer (HSIOM) selection
 623:Generated_Source\PSoC6\pdl\drivers\peripheral\gpio/cy_gpio.h **** * to the pin.
 624:Generated_Source\PSoC6\pdl\drivers\peripheral\gpio/cy_gpio.h **** *
 625:Generated_Source\PSoC6\pdl\drivers\peripheral\gpio/cy_gpio.h **** * \param base
 626:Generated_Source\PSoC6\pdl\drivers\peripheral\gpio/cy_gpio.h **** * Pointer to the pin's port register base address
 627:Generated_Source\PSoC6\pdl\drivers\peripheral\gpio/cy_gpio.h **** *
 628:Generated_Source\PSoC6\pdl\drivers\peripheral\gpio/cy_gpio.h **** * \param pinNum
 629:Generated_Source\PSoC6\pdl\drivers\peripheral\gpio/cy_gpio.h **** * Position of the pin bit-field within the port register
 630:Generated_Source\PSoC6\pdl\drivers\peripheral\gpio/cy_gpio.h **** *
 631:Generated_Source\PSoC6\pdl\drivers\peripheral\gpio/cy_gpio.h **** * \param value
 632:Generated_Source\PSoC6\pdl\drivers\peripheral\gpio/cy_gpio.h **** * HSIOM input selection
 633:Generated_Source\PSoC6\pdl\drivers\peripheral\gpio/cy_gpio.h **** *
 634:Generated_Source\PSoC6\pdl\drivers\peripheral\gpio/cy_gpio.h **** * \note 
 635:Generated_Source\PSoC6\pdl\drivers\peripheral\gpio/cy_gpio.h **** * This function modifies a port register in a read-modify-write operation. It is
 636:Generated_Source\PSoC6\pdl\drivers\peripheral\gpio/cy_gpio.h **** * not thread safe as the resource is shared among multiple pins on a port.
 637:Generated_Source\PSoC6\pdl\drivers\peripheral\gpio/cy_gpio.h **** *
 638:Generated_Source\PSoC6\pdl\drivers\peripheral\gpio/cy_gpio.h **** * \funcusage
 639:Generated_Source\PSoC6\pdl\drivers\peripheral\gpio/cy_gpio.h **** * \snippet gpio/gpio_v1_10_sut_01.cydsn/main_cm4.c snippet_Cy_GPIO_SetHSIOM
 640:Generated_Source\PSoC6\pdl\drivers\peripheral\gpio/cy_gpio.h **** *
 641:Generated_Source\PSoC6\pdl\drivers\peripheral\gpio/cy_gpio.h **** *******************************************************************************/
 642:Generated_Source\PSoC6\pdl\drivers\peripheral\gpio/cy_gpio.h **** __STATIC_INLINE void Cy_GPIO_SetHSIOM(GPIO_PRT_Type* base, uint32_t pinNum, en_hsiom_sel_t value)
 643:Generated_Source\PSoC6\pdl\drivers\peripheral\gpio/cy_gpio.h **** {
  28              		.loc 1 643 0
  29              		.cfi_startproc
  30              		@ args = 0, pretend = 0, frame = 0
  31              		@ frame_needed = 0, uses_anonymous_args = 0
  32              	.LVL0:
 644:Generated_Source\PSoC6\pdl\drivers\peripheral\gpio/cy_gpio.h ****     uint32_t portNum;
 645:Generated_Source\PSoC6\pdl\drivers\peripheral\gpio/cy_gpio.h ****     uint32_t tempReg;
 646:Generated_Source\PSoC6\pdl\drivers\peripheral\gpio/cy_gpio.h ****     HSIOM_PRT_V1_Type* portAddrHSIOM;
 647:Generated_Source\PSoC6\pdl\drivers\peripheral\gpio/cy_gpio.h **** 
 648:Generated_Source\PSoC6\pdl\drivers\peripheral\gpio/cy_gpio.h ****     CY_ASSERT_L2(CY_GPIO_IS_PIN_VALID(pinNum));
 649:Generated_Source\PSoC6\pdl\drivers\peripheral\gpio/cy_gpio.h ****     CY_ASSERT_L2(CY_GPIO_IS_HSIOM_VALID(value));
 650:Generated_Source\PSoC6\pdl\drivers\peripheral\gpio/cy_gpio.h **** 
 651:Generated_Source\PSoC6\pdl\drivers\peripheral\gpio/cy_gpio.h ****     portNum = ((uint32_t)(base) - CY_GPIO_BASE) / GPIO_PRT_SECTION_SIZE;
  33              		.loc 1 651 0
ARM GAS  C:\Users\cmila\AppData\Local\Temp\ccgUIjp6.s 			page 13


  34 0000 114B     		ldr	r3, .L5
 643:Generated_Source\PSoC6\pdl\drivers\peripheral\gpio/cy_gpio.h ****     uint32_t portNum;
  35              		.loc 1 643 0
  36 0002 70B5     		push	{r4, r5, r6, lr}
  37              		.cfi_def_cfa_offset 16
  38              		.cfi_offset 4, -16
  39              		.cfi_offset 5, -12
  40              		.cfi_offset 6, -8
  41              		.cfi_offset 14, -4
  42              		.loc 1 651 0
  43 0004 1C68     		ldr	r4, [r3]
  44              	.LVL1:
 652:Generated_Source\PSoC6\pdl\drivers\peripheral\gpio/cy_gpio.h ****     portAddrHSIOM = (HSIOM_PRT_V1_Type*)(CY_HSIOM_BASE + (HSIOM_PRT_SECTION_SIZE * portNum));
  45              		.loc 1 652 0
  46 0006 A369     		ldr	r3, [r4, #24]
  47 0008 6569     		ldr	r5, [r4, #20]
  48 000a C01A     		subs	r0, r0, r3
  49              	.LVL2:
  50 000c C009     		lsrs	r0, r0, #7
  51              	.LVL3:
  52 000e 0001     		lsls	r0, r0, #4
  53              	.LVL4:
  54 0010 1F23     		movs	r3, #31
 653:Generated_Source\PSoC6\pdl\drivers\peripheral\gpio/cy_gpio.h **** 
 654:Generated_Source\PSoC6\pdl\drivers\peripheral\gpio/cy_gpio.h ****     if(pinNum < CY_GPIO_PRT_HALF)
  55              		.loc 1 654 0
  56 0012 0329     		cmp	r1, #3
 652:Generated_Source\PSoC6\pdl\drivers\peripheral\gpio/cy_gpio.h ****     portAddrHSIOM = (HSIOM_PRT_V1_Type*)(CY_HSIOM_BASE + (HSIOM_PRT_SECTION_SIZE * portNum));
  57              		.loc 1 652 0
  58 0014 00EB0504 		add	r4, r0, r5
  59              	.LVL5:
  60 0018 02EA0302 		and	r2, r2, r3
  61              	.LVL6:
  62              		.loc 1 654 0
  63 001c 09D8     		bhi	.L2
 655:Generated_Source\PSoC6\pdl\drivers\peripheral\gpio/cy_gpio.h ****     {
 656:Generated_Source\PSoC6\pdl\drivers\peripheral\gpio/cy_gpio.h ****         tempReg = HSIOM_PRT_PORT_SEL0(portAddrHSIOM) & ~(CY_GPIO_HSIOM_MASK << (pinNum << CY_GPIO_H
  64              		.loc 1 656 0
  65 001e 4659     		ldr	r6, [r0, r5]
  66 0020 CC00     		lsls	r4, r1, #3
  67              	.LVL7:
 657:Generated_Source\PSoC6\pdl\drivers\peripheral\gpio/cy_gpio.h ****         HSIOM_PRT_PORT_SEL0(portAddrHSIOM) = tempReg | ((value & CY_GPIO_HSIOM_MASK) << (pinNum << 
  68              		.loc 1 657 0
  69 0022 A340     		lsls	r3, r3, r4
  70 0024 26EA0303 		bic	r3, r6, r3
  71              	.LVL8:
  72 0028 02FA04F1 		lsl	r1, r2, r4
  73              	.LVL9:
  74 002c 0B43     		orrs	r3, r3, r1
  75              	.LVL10:
  76 002e 4351     		str	r3, [r0, r5]
  77              	.LVL11:
  78 0030 70BD     		pop	{r4, r5, r6, pc}
  79              	.LVL12:
  80              	.L2:
 658:Generated_Source\PSoC6\pdl\drivers\peripheral\gpio/cy_gpio.h ****     }
 659:Generated_Source\PSoC6\pdl\drivers\peripheral\gpio/cy_gpio.h ****     else
ARM GAS  C:\Users\cmila\AppData\Local\Temp\ccgUIjp6.s 			page 14


 660:Generated_Source\PSoC6\pdl\drivers\peripheral\gpio/cy_gpio.h ****     {
 661:Generated_Source\PSoC6\pdl\drivers\peripheral\gpio/cy_gpio.h ****         pinNum -= CY_GPIO_PRT_HALF;
 662:Generated_Source\PSoC6\pdl\drivers\peripheral\gpio/cy_gpio.h ****         tempReg = HSIOM_PRT_PORT_SEL1(portAddrHSIOM) & ~(CY_GPIO_HSIOM_MASK << (pinNum << CY_GPIO_H
  81              		.loc 1 662 0
  82 0032 0439     		subs	r1, r1, #4
  83              	.LVL13:
  84 0034 6068     		ldr	r0, [r4, #4]
  85 0036 C900     		lsls	r1, r1, #3
  86              	.LVL14:
 663:Generated_Source\PSoC6\pdl\drivers\peripheral\gpio/cy_gpio.h ****         HSIOM_PRT_PORT_SEL1(portAddrHSIOM) = tempReg | ((value & CY_GPIO_HSIOM_MASK) << (pinNum << 
  87              		.loc 1 663 0
  88 0038 8B40     		lsls	r3, r3, r1
  89 003a 20EA0303 		bic	r3, r0, r3
  90 003e 02FA01F1 		lsl	r1, r2, r1
  91              	.LVL15:
  92 0042 1943     		orrs	r1, r1, r3
  93 0044 6160     		str	r1, [r4, #4]
  94              	.LVL16:
  95 0046 70BD     		pop	{r4, r5, r6, pc}
  96              	.LVL17:
  97              	.L6:
  98              		.align	2
  99              	.L5:
 100 0048 00000000 		.word	cy_device
 101              		.cfi_endproc
 102              	.LFE132:
 103              		.size	Cy_GPIO_SetHSIOM, .-Cy_GPIO_SetHSIOM
 104              		.section	.text.Cy_GPIO_Pin_Init,"ax",%progbits
 105              		.align	1
 106              		.global	Cy_GPIO_Pin_Init
 107              		.thumb
 108              		.thumb_func
 109              		.type	Cy_GPIO_Pin_Init, %function
 110              	Cy_GPIO_Pin_Init:
 111              	.LFB173:
 112              		.file 2 "Generated_Source\\PSoC6\\pdl\\drivers\\peripheral\\gpio\\cy_gpio.c"
   1:Generated_Source\PSoC6\pdl\drivers\peripheral\gpio/cy_gpio.c **** /***************************************************************************//**
   2:Generated_Source\PSoC6\pdl\drivers\peripheral\gpio/cy_gpio.c **** * \file cy_gpio.c
   3:Generated_Source\PSoC6\pdl\drivers\peripheral\gpio/cy_gpio.c **** * \version 1.20
   4:Generated_Source\PSoC6\pdl\drivers\peripheral\gpio/cy_gpio.c **** *
   5:Generated_Source\PSoC6\pdl\drivers\peripheral\gpio/cy_gpio.c **** * Provides an API implementation of the GPIO driver
   6:Generated_Source\PSoC6\pdl\drivers\peripheral\gpio/cy_gpio.c **** *
   7:Generated_Source\PSoC6\pdl\drivers\peripheral\gpio/cy_gpio.c **** ********************************************************************************
   8:Generated_Source\PSoC6\pdl\drivers\peripheral\gpio/cy_gpio.c **** * \copyright
   9:Generated_Source\PSoC6\pdl\drivers\peripheral\gpio/cy_gpio.c **** * Copyright 2016-2018, Cypress Semiconductor Corporation. All rights reserved.
  10:Generated_Source\PSoC6\pdl\drivers\peripheral\gpio/cy_gpio.c **** * You may use this file only in accordance with the license, terms, conditions,
  11:Generated_Source\PSoC6\pdl\drivers\peripheral\gpio/cy_gpio.c **** * disclaimers, and limitations in the end user license agreement accompanying
  12:Generated_Source\PSoC6\pdl\drivers\peripheral\gpio/cy_gpio.c **** * the software package with which this file was provided.
  13:Generated_Source\PSoC6\pdl\drivers\peripheral\gpio/cy_gpio.c **** *******************************************************************************/
  14:Generated_Source\PSoC6\pdl\drivers\peripheral\gpio/cy_gpio.c **** 
  15:Generated_Source\PSoC6\pdl\drivers\peripheral\gpio/cy_gpio.c **** #include "cy_gpio.h"
  16:Generated_Source\PSoC6\pdl\drivers\peripheral\gpio/cy_gpio.c **** 
  17:Generated_Source\PSoC6\pdl\drivers\peripheral\gpio/cy_gpio.c **** #if defined(__cplusplus)
  18:Generated_Source\PSoC6\pdl\drivers\peripheral\gpio/cy_gpio.c **** extern "C" {
  19:Generated_Source\PSoC6\pdl\drivers\peripheral\gpio/cy_gpio.c **** #endif
  20:Generated_Source\PSoC6\pdl\drivers\peripheral\gpio/cy_gpio.c **** 
  21:Generated_Source\PSoC6\pdl\drivers\peripheral\gpio/cy_gpio.c **** 
ARM GAS  C:\Users\cmila\AppData\Local\Temp\ccgUIjp6.s 			page 15


  22:Generated_Source\PSoC6\pdl\drivers\peripheral\gpio/cy_gpio.c **** /* Define for AMUX A splitters */
  23:Generated_Source\PSoC6\pdl\drivers\peripheral\gpio/cy_gpio.c **** #define GPIO_AMUXA_SPLITTER_MASK     (uint32_t)(HSIOM_AMUX_SPLIT_CTL_SWITCH_AA_SL_Msk \
  24:Generated_Source\PSoC6\pdl\drivers\peripheral\gpio/cy_gpio.c ****                                               | HSIOM_AMUX_SPLIT_CTL_SWITCH_AA_SR_Msk \
  25:Generated_Source\PSoC6\pdl\drivers\peripheral\gpio/cy_gpio.c ****                                               | HSIOM_AMUX_SPLIT_CTL_SWITCH_AA_S0_Msk)
  26:Generated_Source\PSoC6\pdl\drivers\peripheral\gpio/cy_gpio.c **** 
  27:Generated_Source\PSoC6\pdl\drivers\peripheral\gpio/cy_gpio.c **** /* Define for AMUX B splitters */
  28:Generated_Source\PSoC6\pdl\drivers\peripheral\gpio/cy_gpio.c **** #define GPIO_AMUXB_SPLITTER_MASK     (uint32_t)(HSIOM_AMUX_SPLIT_CTL_SWITCH_BB_SL_Msk \
  29:Generated_Source\PSoC6\pdl\drivers\peripheral\gpio/cy_gpio.c ****                                               | HSIOM_AMUX_SPLIT_CTL_SWITCH_BB_SR_Msk \
  30:Generated_Source\PSoC6\pdl\drivers\peripheral\gpio/cy_gpio.c ****                                               | HSIOM_AMUX_SPLIT_CTL_SWITCH_BB_S0_Msk)
  31:Generated_Source\PSoC6\pdl\drivers\peripheral\gpio/cy_gpio.c **** 
  32:Generated_Source\PSoC6\pdl\drivers\peripheral\gpio/cy_gpio.c **** 
  33:Generated_Source\PSoC6\pdl\drivers\peripheral\gpio/cy_gpio.c **** 
  34:Generated_Source\PSoC6\pdl\drivers\peripheral\gpio/cy_gpio.c **** /*******************************************************************************
  35:Generated_Source\PSoC6\pdl\drivers\peripheral\gpio/cy_gpio.c **** * Function Name: Cy_GPIO_Pin_Init
  36:Generated_Source\PSoC6\pdl\drivers\peripheral\gpio/cy_gpio.c **** ****************************************************************************//**
  37:Generated_Source\PSoC6\pdl\drivers\peripheral\gpio/cy_gpio.c **** *
  38:Generated_Source\PSoC6\pdl\drivers\peripheral\gpio/cy_gpio.c **** * Initializes all pin configuration settings for the specified pin.
  39:Generated_Source\PSoC6\pdl\drivers\peripheral\gpio/cy_gpio.c **** *
  40:Generated_Source\PSoC6\pdl\drivers\peripheral\gpio/cy_gpio.c **** * \param base
  41:Generated_Source\PSoC6\pdl\drivers\peripheral\gpio/cy_gpio.c **** * Pointer to the pin's port register base address
  42:Generated_Source\PSoC6\pdl\drivers\peripheral\gpio/cy_gpio.c **** *
  43:Generated_Source\PSoC6\pdl\drivers\peripheral\gpio/cy_gpio.c **** * \param pinNum
  44:Generated_Source\PSoC6\pdl\drivers\peripheral\gpio/cy_gpio.c **** * Position of the pin bit-field within the port register
  45:Generated_Source\PSoC6\pdl\drivers\peripheral\gpio/cy_gpio.c **** *
  46:Generated_Source\PSoC6\pdl\drivers\peripheral\gpio/cy_gpio.c **** * \param config
  47:Generated_Source\PSoC6\pdl\drivers\peripheral\gpio/cy_gpio.c **** * Pointer to the pin config structure base address
  48:Generated_Source\PSoC6\pdl\drivers\peripheral\gpio/cy_gpio.c **** *
  49:Generated_Source\PSoC6\pdl\drivers\peripheral\gpio/cy_gpio.c **** * \return
  50:Generated_Source\PSoC6\pdl\drivers\peripheral\gpio/cy_gpio.c **** * Initialization status
  51:Generated_Source\PSoC6\pdl\drivers\peripheral\gpio/cy_gpio.c **** *
  52:Generated_Source\PSoC6\pdl\drivers\peripheral\gpio/cy_gpio.c **** * \note 
  53:Generated_Source\PSoC6\pdl\drivers\peripheral\gpio/cy_gpio.c **** * This function modifies port registers in read-modify-write operations. It is
  54:Generated_Source\PSoC6\pdl\drivers\peripheral\gpio/cy_gpio.c **** * not thread safe as the resource is shared among multiple pins on a port.
  55:Generated_Source\PSoC6\pdl\drivers\peripheral\gpio/cy_gpio.c **** *
  56:Generated_Source\PSoC6\pdl\drivers\peripheral\gpio/cy_gpio.c **** * \funcusage
  57:Generated_Source\PSoC6\pdl\drivers\peripheral\gpio/cy_gpio.c **** * \snippet gpio/gpio_v1_10_sut_01.cydsn/main_cm4.c snippet_Cy_GPIO_Pin_Init
  58:Generated_Source\PSoC6\pdl\drivers\peripheral\gpio/cy_gpio.c **** *
  59:Generated_Source\PSoC6\pdl\drivers\peripheral\gpio/cy_gpio.c **** *******************************************************************************/
  60:Generated_Source\PSoC6\pdl\drivers\peripheral\gpio/cy_gpio.c **** cy_en_gpio_status_t Cy_GPIO_Pin_Init(GPIO_PRT_Type *base, uint32_t pinNum, const cy_stc_gpio_pin_co
  61:Generated_Source\PSoC6\pdl\drivers\peripheral\gpio/cy_gpio.c **** {
 113              		.loc 2 61 0
 114              		.cfi_startproc
 115              		@ args = 0, pretend = 0, frame = 0
 116              		@ frame_needed = 0, uses_anonymous_args = 0
 117              	.LVL18:
 118 0000 2DE9F843 		push	{r3, r4, r5, r6, r7, r8, r9, lr}
 119              		.cfi_def_cfa_offset 32
 120              		.cfi_offset 3, -32
 121              		.cfi_offset 4, -28
 122              		.cfi_offset 5, -24
 123              		.cfi_offset 6, -20
 124              		.cfi_offset 7, -16
 125              		.cfi_offset 8, -12
 126              		.cfi_offset 9, -8
 127              		.cfi_offset 14, -4
 128              		.loc 2 61 0
 129 0004 0E46     		mov	r6, r1
ARM GAS  C:\Users\cmila\AppData\Local\Temp\ccgUIjp6.s 			page 16


 130 0006 1546     		mov	r5, r2
  62:Generated_Source\PSoC6\pdl\drivers\peripheral\gpio/cy_gpio.c ****     cy_en_gpio_status_t status = CY_GPIO_BAD_PARAM;
  63:Generated_Source\PSoC6\pdl\drivers\peripheral\gpio/cy_gpio.c **** 
  64:Generated_Source\PSoC6\pdl\drivers\peripheral\gpio/cy_gpio.c ****     if ((NULL != base) && (NULL != config))
 131              		.loc 2 64 0
 132 0008 0446     		mov	r4, r0
 133 000a 0028     		cmp	r0, #0
 134 000c 00F08A80 		beq	.L12
 135              		.loc 2 64 0 is_stmt 0 discriminator 1
 136 0010 002A     		cmp	r2, #0
 137 0012 00F08780 		beq	.L12
 138              	.LVL19:
 139              	.LBB13:
 140              	.LBB14:
 141              	.LBB15:
 664:Generated_Source\PSoC6\pdl\drivers\peripheral\gpio/cy_gpio.h ****     }
 665:Generated_Source\PSoC6\pdl\drivers\peripheral\gpio/cy_gpio.h **** }
 666:Generated_Source\PSoC6\pdl\drivers\peripheral\gpio/cy_gpio.h **** 
 667:Generated_Source\PSoC6\pdl\drivers\peripheral\gpio/cy_gpio.h **** 
 668:Generated_Source\PSoC6\pdl\drivers\peripheral\gpio/cy_gpio.h **** /*******************************************************************************
 669:Generated_Source\PSoC6\pdl\drivers\peripheral\gpio/cy_gpio.h **** * Function Name: Cy_GPIO_GetHSIOM
 670:Generated_Source\PSoC6\pdl\drivers\peripheral\gpio/cy_gpio.h **** ****************************************************************************//**
 671:Generated_Source\PSoC6\pdl\drivers\peripheral\gpio/cy_gpio.h **** *
 672:Generated_Source\PSoC6\pdl\drivers\peripheral\gpio/cy_gpio.h **** * Returns the current HSIOM multiplexer connection to the pin.
 673:Generated_Source\PSoC6\pdl\drivers\peripheral\gpio/cy_gpio.h **** *
 674:Generated_Source\PSoC6\pdl\drivers\peripheral\gpio/cy_gpio.h **** * \param base
 675:Generated_Source\PSoC6\pdl\drivers\peripheral\gpio/cy_gpio.h **** * Pointer to the pin's port register base address
 676:Generated_Source\PSoC6\pdl\drivers\peripheral\gpio/cy_gpio.h **** *
 677:Generated_Source\PSoC6\pdl\drivers\peripheral\gpio/cy_gpio.h **** * \param pinNum
 678:Generated_Source\PSoC6\pdl\drivers\peripheral\gpio/cy_gpio.h **** * Position of the pin bit-field within the port register
 679:Generated_Source\PSoC6\pdl\drivers\peripheral\gpio/cy_gpio.h **** *
 680:Generated_Source\PSoC6\pdl\drivers\peripheral\gpio/cy_gpio.h **** * \return
 681:Generated_Source\PSoC6\pdl\drivers\peripheral\gpio/cy_gpio.h **** * HSIOM input selection
 682:Generated_Source\PSoC6\pdl\drivers\peripheral\gpio/cy_gpio.h **** *
 683:Generated_Source\PSoC6\pdl\drivers\peripheral\gpio/cy_gpio.h **** * \funcusage
 684:Generated_Source\PSoC6\pdl\drivers\peripheral\gpio/cy_gpio.h **** * \snippet gpio/gpio_v1_10_sut_01.cydsn/main_cm4.c snippet_Cy_GPIO_SetHSIOM
 685:Generated_Source\PSoC6\pdl\drivers\peripheral\gpio/cy_gpio.h **** *
 686:Generated_Source\PSoC6\pdl\drivers\peripheral\gpio/cy_gpio.h **** *******************************************************************************/
 687:Generated_Source\PSoC6\pdl\drivers\peripheral\gpio/cy_gpio.h **** __STATIC_INLINE en_hsiom_sel_t Cy_GPIO_GetHSIOM(GPIO_PRT_Type* base, uint32_t pinNum)
 688:Generated_Source\PSoC6\pdl\drivers\peripheral\gpio/cy_gpio.h **** {
 689:Generated_Source\PSoC6\pdl\drivers\peripheral\gpio/cy_gpio.h ****     uint32_t returnValue;
 690:Generated_Source\PSoC6\pdl\drivers\peripheral\gpio/cy_gpio.h ****     uint32_t portNum;
 691:Generated_Source\PSoC6\pdl\drivers\peripheral\gpio/cy_gpio.h ****     HSIOM_PRT_V1_Type* portAddrHSIOM;
 692:Generated_Source\PSoC6\pdl\drivers\peripheral\gpio/cy_gpio.h ****     
 693:Generated_Source\PSoC6\pdl\drivers\peripheral\gpio/cy_gpio.h ****     CY_ASSERT_L2(CY_GPIO_IS_PIN_VALID(pinNum));
 694:Generated_Source\PSoC6\pdl\drivers\peripheral\gpio/cy_gpio.h **** 
 695:Generated_Source\PSoC6\pdl\drivers\peripheral\gpio/cy_gpio.h ****     portNum = ((uint32_t)(base) - CY_GPIO_BASE) / GPIO_PRT_SECTION_SIZE;
 696:Generated_Source\PSoC6\pdl\drivers\peripheral\gpio/cy_gpio.h ****     portAddrHSIOM = (HSIOM_PRT_V1_Type*)(CY_HSIOM_BASE + (HSIOM_PRT_SECTION_SIZE * portNum));
 697:Generated_Source\PSoC6\pdl\drivers\peripheral\gpio/cy_gpio.h **** 
 698:Generated_Source\PSoC6\pdl\drivers\peripheral\gpio/cy_gpio.h ****     if(pinNum < CY_GPIO_PRT_HALF)
 699:Generated_Source\PSoC6\pdl\drivers\peripheral\gpio/cy_gpio.h ****     {
 700:Generated_Source\PSoC6\pdl\drivers\peripheral\gpio/cy_gpio.h ****         returnValue = (HSIOM_PRT_PORT_SEL0(portAddrHSIOM) >> (pinNum << CY_GPIO_HSIOM_OFFSET)) & CY
 701:Generated_Source\PSoC6\pdl\drivers\peripheral\gpio/cy_gpio.h ****     }
 702:Generated_Source\PSoC6\pdl\drivers\peripheral\gpio/cy_gpio.h ****     else
 703:Generated_Source\PSoC6\pdl\drivers\peripheral\gpio/cy_gpio.h ****     {
 704:Generated_Source\PSoC6\pdl\drivers\peripheral\gpio/cy_gpio.h ****         pinNum -= CY_GPIO_PRT_HALF;
 705:Generated_Source\PSoC6\pdl\drivers\peripheral\gpio/cy_gpio.h ****         returnValue = (HSIOM_PRT_PORT_SEL1(portAddrHSIOM) >> (pinNum << CY_GPIO_HSIOM_OFFSET)) & CY
ARM GAS  C:\Users\cmila\AppData\Local\Temp\ccgUIjp6.s 			page 17


 706:Generated_Source\PSoC6\pdl\drivers\peripheral\gpio/cy_gpio.h ****     }
 707:Generated_Source\PSoC6\pdl\drivers\peripheral\gpio/cy_gpio.h **** 
 708:Generated_Source\PSoC6\pdl\drivers\peripheral\gpio/cy_gpio.h ****     return (en_hsiom_sel_t)returnValue;
 709:Generated_Source\PSoC6\pdl\drivers\peripheral\gpio/cy_gpio.h **** }
 710:Generated_Source\PSoC6\pdl\drivers\peripheral\gpio/cy_gpio.h **** 
 711:Generated_Source\PSoC6\pdl\drivers\peripheral\gpio/cy_gpio.h **** 
 712:Generated_Source\PSoC6\pdl\drivers\peripheral\gpio/cy_gpio.h **** /*******************************************************************************
 713:Generated_Source\PSoC6\pdl\drivers\peripheral\gpio/cy_gpio.h **** * Function Name: Cy_GPIO_PortToAddr
 714:Generated_Source\PSoC6\pdl\drivers\peripheral\gpio/cy_gpio.h **** ****************************************************************************//**
 715:Generated_Source\PSoC6\pdl\drivers\peripheral\gpio/cy_gpio.h **** *
 716:Generated_Source\PSoC6\pdl\drivers\peripheral\gpio/cy_gpio.h **** * Retrieves the port address based on the given port number.
 717:Generated_Source\PSoC6\pdl\drivers\peripheral\gpio/cy_gpio.h **** *
 718:Generated_Source\PSoC6\pdl\drivers\peripheral\gpio/cy_gpio.h **** * This is a helper function to calculate the port base address when given a port
 719:Generated_Source\PSoC6\pdl\drivers\peripheral\gpio/cy_gpio.h **** * number. It is to be used when pin access needs to be calculated at runtime.
 720:Generated_Source\PSoC6\pdl\drivers\peripheral\gpio/cy_gpio.h **** *
 721:Generated_Source\PSoC6\pdl\drivers\peripheral\gpio/cy_gpio.h **** * \param portNum
 722:Generated_Source\PSoC6\pdl\drivers\peripheral\gpio/cy_gpio.h **** * Port number
 723:Generated_Source\PSoC6\pdl\drivers\peripheral\gpio/cy_gpio.h **** *
 724:Generated_Source\PSoC6\pdl\drivers\peripheral\gpio/cy_gpio.h **** * \return
 725:Generated_Source\PSoC6\pdl\drivers\peripheral\gpio/cy_gpio.h **** * Base address of the port register structure
 726:Generated_Source\PSoC6\pdl\drivers\peripheral\gpio/cy_gpio.h **** *
 727:Generated_Source\PSoC6\pdl\drivers\peripheral\gpio/cy_gpio.h **** * \funcusage
 728:Generated_Source\PSoC6\pdl\drivers\peripheral\gpio/cy_gpio.h **** * \snippet gpio/gpio_v1_10_sut_01.cydsn/main_cm4.c snippet_Cy_GPIO_PortToAddr
 729:Generated_Source\PSoC6\pdl\drivers\peripheral\gpio/cy_gpio.h **** *
 730:Generated_Source\PSoC6\pdl\drivers\peripheral\gpio/cy_gpio.h **** *******************************************************************************/
 731:Generated_Source\PSoC6\pdl\drivers\peripheral\gpio/cy_gpio.h **** __STATIC_INLINE GPIO_PRT_Type* Cy_GPIO_PortToAddr(uint32_t portNum)
 732:Generated_Source\PSoC6\pdl\drivers\peripheral\gpio/cy_gpio.h **** {
 733:Generated_Source\PSoC6\pdl\drivers\peripheral\gpio/cy_gpio.h ****     GPIO_PRT_Type* portBase;
 734:Generated_Source\PSoC6\pdl\drivers\peripheral\gpio/cy_gpio.h ****     
 735:Generated_Source\PSoC6\pdl\drivers\peripheral\gpio/cy_gpio.h ****     if(portNum < (uint32_t)IOSS_GPIO_GPIO_PORT_NR)
 736:Generated_Source\PSoC6\pdl\drivers\peripheral\gpio/cy_gpio.h ****     {
 737:Generated_Source\PSoC6\pdl\drivers\peripheral\gpio/cy_gpio.h ****         portBase = (GPIO_PRT_Type *)(CY_GPIO_BASE + (GPIO_PRT_SECTION_SIZE * portNum));
 738:Generated_Source\PSoC6\pdl\drivers\peripheral\gpio/cy_gpio.h ****     }
 739:Generated_Source\PSoC6\pdl\drivers\peripheral\gpio/cy_gpio.h ****     else
 740:Generated_Source\PSoC6\pdl\drivers\peripheral\gpio/cy_gpio.h ****     {
 741:Generated_Source\PSoC6\pdl\drivers\peripheral\gpio/cy_gpio.h ****         /* Error: Return default base address */
 742:Generated_Source\PSoC6\pdl\drivers\peripheral\gpio/cy_gpio.h ****         portBase = (GPIO_PRT_Type *)(CY_GPIO_BASE);
 743:Generated_Source\PSoC6\pdl\drivers\peripheral\gpio/cy_gpio.h ****     }
 744:Generated_Source\PSoC6\pdl\drivers\peripheral\gpio/cy_gpio.h **** 
 745:Generated_Source\PSoC6\pdl\drivers\peripheral\gpio/cy_gpio.h ****     return (portBase);
 746:Generated_Source\PSoC6\pdl\drivers\peripheral\gpio/cy_gpio.h **** }
 747:Generated_Source\PSoC6\pdl\drivers\peripheral\gpio/cy_gpio.h **** 
 748:Generated_Source\PSoC6\pdl\drivers\peripheral\gpio/cy_gpio.h **** /** \} group_gpio_functions_init */
 749:Generated_Source\PSoC6\pdl\drivers\peripheral\gpio/cy_gpio.h **** 
 750:Generated_Source\PSoC6\pdl\drivers\peripheral\gpio/cy_gpio.h **** /**
 751:Generated_Source\PSoC6\pdl\drivers\peripheral\gpio/cy_gpio.h **** * \addtogroup group_gpio_functions_gpio
 752:Generated_Source\PSoC6\pdl\drivers\peripheral\gpio/cy_gpio.h **** * \{
 753:Generated_Source\PSoC6\pdl\drivers\peripheral\gpio/cy_gpio.h **** */
 754:Generated_Source\PSoC6\pdl\drivers\peripheral\gpio/cy_gpio.h **** 
 755:Generated_Source\PSoC6\pdl\drivers\peripheral\gpio/cy_gpio.h **** /*******************************************************************************
 756:Generated_Source\PSoC6\pdl\drivers\peripheral\gpio/cy_gpio.h **** * Function Name: Cy_GPIO_Read
 757:Generated_Source\PSoC6\pdl\drivers\peripheral\gpio/cy_gpio.h **** ****************************************************************************//**
 758:Generated_Source\PSoC6\pdl\drivers\peripheral\gpio/cy_gpio.h **** *
 759:Generated_Source\PSoC6\pdl\drivers\peripheral\gpio/cy_gpio.h **** * Reads the current logic level on the input buffer of the pin.
 760:Generated_Source\PSoC6\pdl\drivers\peripheral\gpio/cy_gpio.h **** *
 761:Generated_Source\PSoC6\pdl\drivers\peripheral\gpio/cy_gpio.h **** * \param base
 762:Generated_Source\PSoC6\pdl\drivers\peripheral\gpio/cy_gpio.h **** * Pointer to the pin's port register base address
ARM GAS  C:\Users\cmila\AppData\Local\Temp\ccgUIjp6.s 			page 18


 763:Generated_Source\PSoC6\pdl\drivers\peripheral\gpio/cy_gpio.h **** *
 764:Generated_Source\PSoC6\pdl\drivers\peripheral\gpio/cy_gpio.h **** * \param pinNum
 765:Generated_Source\PSoC6\pdl\drivers\peripheral\gpio/cy_gpio.h **** * Position of the pin bit-field within the port register.
 766:Generated_Source\PSoC6\pdl\drivers\peripheral\gpio/cy_gpio.h **** * Bit position 8 is the routed pin through the port glitch filter.
 767:Generated_Source\PSoC6\pdl\drivers\peripheral\gpio/cy_gpio.h **** *
 768:Generated_Source\PSoC6\pdl\drivers\peripheral\gpio/cy_gpio.h **** * \return
 769:Generated_Source\PSoC6\pdl\drivers\peripheral\gpio/cy_gpio.h **** * Logic level present on the pin
 770:Generated_Source\PSoC6\pdl\drivers\peripheral\gpio/cy_gpio.h **** *
 771:Generated_Source\PSoC6\pdl\drivers\peripheral\gpio/cy_gpio.h **** * \funcusage
 772:Generated_Source\PSoC6\pdl\drivers\peripheral\gpio/cy_gpio.h **** * \snippet gpio/gpio_v1_10_sut_01.cydsn/main_cm4.c snippet_Cy_GPIO_Read
 773:Generated_Source\PSoC6\pdl\drivers\peripheral\gpio/cy_gpio.h **** *
 774:Generated_Source\PSoC6\pdl\drivers\peripheral\gpio/cy_gpio.h **** *******************************************************************************/
 775:Generated_Source\PSoC6\pdl\drivers\peripheral\gpio/cy_gpio.h **** __STATIC_INLINE uint32_t Cy_GPIO_Read(GPIO_PRT_Type* base, uint32_t pinNum)
 776:Generated_Source\PSoC6\pdl\drivers\peripheral\gpio/cy_gpio.h **** {
 777:Generated_Source\PSoC6\pdl\drivers\peripheral\gpio/cy_gpio.h ****     CY_ASSERT_L2(CY_GPIO_IS_FILTER_PIN_VALID(pinNum));
 778:Generated_Source\PSoC6\pdl\drivers\peripheral\gpio/cy_gpio.h ****     
 779:Generated_Source\PSoC6\pdl\drivers\peripheral\gpio/cy_gpio.h ****     return (GPIO_PRT_IN(base) >> (pinNum)) & CY_GPIO_IN_MASK;
 780:Generated_Source\PSoC6\pdl\drivers\peripheral\gpio/cy_gpio.h **** }
 781:Generated_Source\PSoC6\pdl\drivers\peripheral\gpio/cy_gpio.h **** 
 782:Generated_Source\PSoC6\pdl\drivers\peripheral\gpio/cy_gpio.h **** 
 783:Generated_Source\PSoC6\pdl\drivers\peripheral\gpio/cy_gpio.h **** /*******************************************************************************
 784:Generated_Source\PSoC6\pdl\drivers\peripheral\gpio/cy_gpio.h **** * Function Name: Cy_GPIO_Write
 785:Generated_Source\PSoC6\pdl\drivers\peripheral\gpio/cy_gpio.h **** ****************************************************************************//**
 786:Generated_Source\PSoC6\pdl\drivers\peripheral\gpio/cy_gpio.h **** *
 787:Generated_Source\PSoC6\pdl\drivers\peripheral\gpio/cy_gpio.h **** * Write a logic 0 or logic 1 state to the output driver.
 788:Generated_Source\PSoC6\pdl\drivers\peripheral\gpio/cy_gpio.h **** *
 789:Generated_Source\PSoC6\pdl\drivers\peripheral\gpio/cy_gpio.h **** * This function should be used only for software driven pins. It does not have
 790:Generated_Source\PSoC6\pdl\drivers\peripheral\gpio/cy_gpio.h **** * any effect on peripheral driven pins.
 791:Generated_Source\PSoC6\pdl\drivers\peripheral\gpio/cy_gpio.h **** *
 792:Generated_Source\PSoC6\pdl\drivers\peripheral\gpio/cy_gpio.h **** * \param base
 793:Generated_Source\PSoC6\pdl\drivers\peripheral\gpio/cy_gpio.h **** * Pointer to the pin's port register base address
 794:Generated_Source\PSoC6\pdl\drivers\peripheral\gpio/cy_gpio.h **** *
 795:Generated_Source\PSoC6\pdl\drivers\peripheral\gpio/cy_gpio.h **** * \param pinNum
 796:Generated_Source\PSoC6\pdl\drivers\peripheral\gpio/cy_gpio.h **** * Position of the pin bit-field within the port register
 797:Generated_Source\PSoC6\pdl\drivers\peripheral\gpio/cy_gpio.h **** *
 798:Generated_Source\PSoC6\pdl\drivers\peripheral\gpio/cy_gpio.h **** * \param value
 799:Generated_Source\PSoC6\pdl\drivers\peripheral\gpio/cy_gpio.h **** * Logic level to drive out on the pin
 800:Generated_Source\PSoC6\pdl\drivers\peripheral\gpio/cy_gpio.h **** *
 801:Generated_Source\PSoC6\pdl\drivers\peripheral\gpio/cy_gpio.h **** * \funcusage
 802:Generated_Source\PSoC6\pdl\drivers\peripheral\gpio/cy_gpio.h **** * \snippet gpio/gpio_v1_10_sut_01.cydsn/main_cm4.c snippet_Cy_GPIO_Write
 803:Generated_Source\PSoC6\pdl\drivers\peripheral\gpio/cy_gpio.h **** *
 804:Generated_Source\PSoC6\pdl\drivers\peripheral\gpio/cy_gpio.h **** *******************************************************************************/
 805:Generated_Source\PSoC6\pdl\drivers\peripheral\gpio/cy_gpio.h **** __STATIC_INLINE void Cy_GPIO_Write(GPIO_PRT_Type* base, uint32_t pinNum, uint32_t value)
 806:Generated_Source\PSoC6\pdl\drivers\peripheral\gpio/cy_gpio.h **** {
 807:Generated_Source\PSoC6\pdl\drivers\peripheral\gpio/cy_gpio.h ****     CY_ASSERT_L2(CY_GPIO_IS_PIN_VALID(pinNum));
 808:Generated_Source\PSoC6\pdl\drivers\peripheral\gpio/cy_gpio.h ****     CY_ASSERT_L2(CY_GPIO_IS_VALUE_VALID(value));
 809:Generated_Source\PSoC6\pdl\drivers\peripheral\gpio/cy_gpio.h **** 
 810:Generated_Source\PSoC6\pdl\drivers\peripheral\gpio/cy_gpio.h ****     /* Thread-safe: Directly access the pin registers instead of base->OUT */
 811:Generated_Source\PSoC6\pdl\drivers\peripheral\gpio/cy_gpio.h ****     if(0UL == value)
 142              		.loc 1 811 0 is_stmt 1
 143 0016 1268     		ldr	r2, [r2]
 144              	.LVL20:
 145 0018 0123     		movs	r3, #1
 812:Generated_Source\PSoC6\pdl\drivers\peripheral\gpio/cy_gpio.h ****     {
 813:Generated_Source\PSoC6\pdl\drivers\peripheral\gpio/cy_gpio.h ****         GPIO_PRT_OUT_CLR(base) = CY_GPIO_OUT_MASK << pinNum;
 146              		.loc 1 813 0
 147 001a 8B40     		lsls	r3, r3, r1
ARM GAS  C:\Users\cmila\AppData\Local\Temp\ccgUIjp6.s 			page 19


 811:Generated_Source\PSoC6\pdl\drivers\peripheral\gpio/cy_gpio.h ****     {
 148              		.loc 1 811 0
 149 001c 0AB9     		cbnz	r2, .L9
 150              		.loc 1 813 0
 151 001e 4360     		str	r3, [r0, #4]
 152 0020 00E0     		b	.L10
 153              	.L9:
 814:Generated_Source\PSoC6\pdl\drivers\peripheral\gpio/cy_gpio.h ****     }
 815:Generated_Source\PSoC6\pdl\drivers\peripheral\gpio/cy_gpio.h ****     else
 816:Generated_Source\PSoC6\pdl\drivers\peripheral\gpio/cy_gpio.h ****     {
 817:Generated_Source\PSoC6\pdl\drivers\peripheral\gpio/cy_gpio.h ****         GPIO_PRT_OUT_SET(base) = CY_GPIO_OUT_MASK << pinNum;
 154              		.loc 1 817 0
 155 0022 8360     		str	r3, [r0, #8]
 156              	.L10:
 157              	.LVL21:
 158              	.LBE15:
 159              	.LBE14:
 160              	.LBB16:
 161              	.LBB17:
 818:Generated_Source\PSoC6\pdl\drivers\peripheral\gpio/cy_gpio.h ****     }
 819:Generated_Source\PSoC6\pdl\drivers\peripheral\gpio/cy_gpio.h **** }
 820:Generated_Source\PSoC6\pdl\drivers\peripheral\gpio/cy_gpio.h **** 
 821:Generated_Source\PSoC6\pdl\drivers\peripheral\gpio/cy_gpio.h **** 
 822:Generated_Source\PSoC6\pdl\drivers\peripheral\gpio/cy_gpio.h **** /*******************************************************************************
 823:Generated_Source\PSoC6\pdl\drivers\peripheral\gpio/cy_gpio.h **** * Function Name: Cy_GPIO_ReadOut
 824:Generated_Source\PSoC6\pdl\drivers\peripheral\gpio/cy_gpio.h **** ****************************************************************************//**
 825:Generated_Source\PSoC6\pdl\drivers\peripheral\gpio/cy_gpio.h **** *
 826:Generated_Source\PSoC6\pdl\drivers\peripheral\gpio/cy_gpio.h **** * Reads the current logic level on the pin output driver.
 827:Generated_Source\PSoC6\pdl\drivers\peripheral\gpio/cy_gpio.h **** *
 828:Generated_Source\PSoC6\pdl\drivers\peripheral\gpio/cy_gpio.h **** * \param base
 829:Generated_Source\PSoC6\pdl\drivers\peripheral\gpio/cy_gpio.h **** * Pointer to the pin's port register base address
 830:Generated_Source\PSoC6\pdl\drivers\peripheral\gpio/cy_gpio.h **** *
 831:Generated_Source\PSoC6\pdl\drivers\peripheral\gpio/cy_gpio.h **** * \param pinNum
 832:Generated_Source\PSoC6\pdl\drivers\peripheral\gpio/cy_gpio.h **** * Position of the pin bit-field within the port register
 833:Generated_Source\PSoC6\pdl\drivers\peripheral\gpio/cy_gpio.h **** *
 834:Generated_Source\PSoC6\pdl\drivers\peripheral\gpio/cy_gpio.h **** * \return
 835:Generated_Source\PSoC6\pdl\drivers\peripheral\gpio/cy_gpio.h **** * Logic level on the pin output driver
 836:Generated_Source\PSoC6\pdl\drivers\peripheral\gpio/cy_gpio.h **** *
 837:Generated_Source\PSoC6\pdl\drivers\peripheral\gpio/cy_gpio.h **** * \funcusage
 838:Generated_Source\PSoC6\pdl\drivers\peripheral\gpio/cy_gpio.h **** * \snippet gpio/gpio_v1_10_sut_01.cydsn/main_cm4.c snippet_Cy_GPIO_ReadOut
 839:Generated_Source\PSoC6\pdl\drivers\peripheral\gpio/cy_gpio.h **** *
 840:Generated_Source\PSoC6\pdl\drivers\peripheral\gpio/cy_gpio.h **** *******************************************************************************/
 841:Generated_Source\PSoC6\pdl\drivers\peripheral\gpio/cy_gpio.h **** __STATIC_INLINE uint32_t Cy_GPIO_ReadOut(GPIO_PRT_Type* base, uint32_t pinNum)
 842:Generated_Source\PSoC6\pdl\drivers\peripheral\gpio/cy_gpio.h **** {
 843:Generated_Source\PSoC6\pdl\drivers\peripheral\gpio/cy_gpio.h ****     CY_ASSERT_L2(CY_GPIO_IS_PIN_VALID(pinNum));
 844:Generated_Source\PSoC6\pdl\drivers\peripheral\gpio/cy_gpio.h **** 
 845:Generated_Source\PSoC6\pdl\drivers\peripheral\gpio/cy_gpio.h ****     return (GPIO_PRT_OUT(base) >> pinNum) & CY_GPIO_OUT_MASK;
 846:Generated_Source\PSoC6\pdl\drivers\peripheral\gpio/cy_gpio.h **** }
 847:Generated_Source\PSoC6\pdl\drivers\peripheral\gpio/cy_gpio.h **** 
 848:Generated_Source\PSoC6\pdl\drivers\peripheral\gpio/cy_gpio.h **** 
 849:Generated_Source\PSoC6\pdl\drivers\peripheral\gpio/cy_gpio.h **** /*******************************************************************************
 850:Generated_Source\PSoC6\pdl\drivers\peripheral\gpio/cy_gpio.h **** * Function Name: Cy_GPIO_Set
 851:Generated_Source\PSoC6\pdl\drivers\peripheral\gpio/cy_gpio.h **** ****************************************************************************//**
 852:Generated_Source\PSoC6\pdl\drivers\peripheral\gpio/cy_gpio.h **** *
 853:Generated_Source\PSoC6\pdl\drivers\peripheral\gpio/cy_gpio.h **** * Set a pin output to logic state high.
 854:Generated_Source\PSoC6\pdl\drivers\peripheral\gpio/cy_gpio.h **** *
 855:Generated_Source\PSoC6\pdl\drivers\peripheral\gpio/cy_gpio.h **** * This function should be used only for software driven pins. It does not have
ARM GAS  C:\Users\cmila\AppData\Local\Temp\ccgUIjp6.s 			page 20


 856:Generated_Source\PSoC6\pdl\drivers\peripheral\gpio/cy_gpio.h **** * any effect on peripheral driven pins.
 857:Generated_Source\PSoC6\pdl\drivers\peripheral\gpio/cy_gpio.h **** *
 858:Generated_Source\PSoC6\pdl\drivers\peripheral\gpio/cy_gpio.h **** * \param base
 859:Generated_Source\PSoC6\pdl\drivers\peripheral\gpio/cy_gpio.h **** * Pointer to the pin's port register base address
 860:Generated_Source\PSoC6\pdl\drivers\peripheral\gpio/cy_gpio.h **** *
 861:Generated_Source\PSoC6\pdl\drivers\peripheral\gpio/cy_gpio.h **** * \param pinNum
 862:Generated_Source\PSoC6\pdl\drivers\peripheral\gpio/cy_gpio.h **** * Position of the pin bit-field within the port register
 863:Generated_Source\PSoC6\pdl\drivers\peripheral\gpio/cy_gpio.h **** *
 864:Generated_Source\PSoC6\pdl\drivers\peripheral\gpio/cy_gpio.h **** * \funcusage
 865:Generated_Source\PSoC6\pdl\drivers\peripheral\gpio/cy_gpio.h **** * \snippet gpio/gpio_v1_10_sut_01.cydsn/main_cm4.c snippet_Cy_GPIO_Set
 866:Generated_Source\PSoC6\pdl\drivers\peripheral\gpio/cy_gpio.h **** *
 867:Generated_Source\PSoC6\pdl\drivers\peripheral\gpio/cy_gpio.h **** *******************************************************************************/
 868:Generated_Source\PSoC6\pdl\drivers\peripheral\gpio/cy_gpio.h **** __STATIC_INLINE void Cy_GPIO_Set(GPIO_PRT_Type* base, uint32_t pinNum)
 869:Generated_Source\PSoC6\pdl\drivers\peripheral\gpio/cy_gpio.h **** {
 870:Generated_Source\PSoC6\pdl\drivers\peripheral\gpio/cy_gpio.h ****     CY_ASSERT_L2(CY_GPIO_IS_PIN_VALID(pinNum));
 871:Generated_Source\PSoC6\pdl\drivers\peripheral\gpio/cy_gpio.h ****     
 872:Generated_Source\PSoC6\pdl\drivers\peripheral\gpio/cy_gpio.h ****     GPIO_PRT_OUT_SET(base) = CY_GPIO_OUT_MASK << pinNum;
 873:Generated_Source\PSoC6\pdl\drivers\peripheral\gpio/cy_gpio.h **** }
 874:Generated_Source\PSoC6\pdl\drivers\peripheral\gpio/cy_gpio.h **** 
 875:Generated_Source\PSoC6\pdl\drivers\peripheral\gpio/cy_gpio.h **** 
 876:Generated_Source\PSoC6\pdl\drivers\peripheral\gpio/cy_gpio.h **** /*******************************************************************************
 877:Generated_Source\PSoC6\pdl\drivers\peripheral\gpio/cy_gpio.h **** * Function Name: Cy_GPIO_Clr
 878:Generated_Source\PSoC6\pdl\drivers\peripheral\gpio/cy_gpio.h **** ****************************************************************************//**
 879:Generated_Source\PSoC6\pdl\drivers\peripheral\gpio/cy_gpio.h **** *
 880:Generated_Source\PSoC6\pdl\drivers\peripheral\gpio/cy_gpio.h **** * Set a pin output to logic state Low.
 881:Generated_Source\PSoC6\pdl\drivers\peripheral\gpio/cy_gpio.h **** *
 882:Generated_Source\PSoC6\pdl\drivers\peripheral\gpio/cy_gpio.h **** * This function should be used only for software driven pins. It does not have
 883:Generated_Source\PSoC6\pdl\drivers\peripheral\gpio/cy_gpio.h **** * any effect on peripheral driven pins.
 884:Generated_Source\PSoC6\pdl\drivers\peripheral\gpio/cy_gpio.h **** *
 885:Generated_Source\PSoC6\pdl\drivers\peripheral\gpio/cy_gpio.h **** * \param base
 886:Generated_Source\PSoC6\pdl\drivers\peripheral\gpio/cy_gpio.h **** * Pointer to the pin's port register base address
 887:Generated_Source\PSoC6\pdl\drivers\peripheral\gpio/cy_gpio.h **** *
 888:Generated_Source\PSoC6\pdl\drivers\peripheral\gpio/cy_gpio.h **** * \param pinNum
 889:Generated_Source\PSoC6\pdl\drivers\peripheral\gpio/cy_gpio.h **** * Position of the pin bit-field within the port register
 890:Generated_Source\PSoC6\pdl\drivers\peripheral\gpio/cy_gpio.h **** *
 891:Generated_Source\PSoC6\pdl\drivers\peripheral\gpio/cy_gpio.h **** * \funcusage
 892:Generated_Source\PSoC6\pdl\drivers\peripheral\gpio/cy_gpio.h **** * \snippet gpio/gpio_v1_10_sut_01.cydsn/main_cm4.c snippet_Cy_GPIO_Clr
 893:Generated_Source\PSoC6\pdl\drivers\peripheral\gpio/cy_gpio.h **** *
 894:Generated_Source\PSoC6\pdl\drivers\peripheral\gpio/cy_gpio.h **** *******************************************************************************/
 895:Generated_Source\PSoC6\pdl\drivers\peripheral\gpio/cy_gpio.h **** __STATIC_INLINE void Cy_GPIO_Clr(GPIO_PRT_Type* base, uint32_t pinNum)
 896:Generated_Source\PSoC6\pdl\drivers\peripheral\gpio/cy_gpio.h **** {
 897:Generated_Source\PSoC6\pdl\drivers\peripheral\gpio/cy_gpio.h ****     CY_ASSERT_L2(CY_GPIO_IS_PIN_VALID(pinNum));
 898:Generated_Source\PSoC6\pdl\drivers\peripheral\gpio/cy_gpio.h ****     
 899:Generated_Source\PSoC6\pdl\drivers\peripheral\gpio/cy_gpio.h ****     GPIO_PRT_OUT_CLR(base) = CY_GPIO_OUT_MASK << pinNum;
 900:Generated_Source\PSoC6\pdl\drivers\peripheral\gpio/cy_gpio.h **** }
 901:Generated_Source\PSoC6\pdl\drivers\peripheral\gpio/cy_gpio.h **** 
 902:Generated_Source\PSoC6\pdl\drivers\peripheral\gpio/cy_gpio.h **** 
 903:Generated_Source\PSoC6\pdl\drivers\peripheral\gpio/cy_gpio.h **** /*******************************************************************************
 904:Generated_Source\PSoC6\pdl\drivers\peripheral\gpio/cy_gpio.h **** * Function Name: Cy_GPIO_Inv
 905:Generated_Source\PSoC6\pdl\drivers\peripheral\gpio/cy_gpio.h **** ****************************************************************************//**
 906:Generated_Source\PSoC6\pdl\drivers\peripheral\gpio/cy_gpio.h **** *
 907:Generated_Source\PSoC6\pdl\drivers\peripheral\gpio/cy_gpio.h **** * Set a pin output logic state to the inverse of the current output
 908:Generated_Source\PSoC6\pdl\drivers\peripheral\gpio/cy_gpio.h **** * logic state.
 909:Generated_Source\PSoC6\pdl\drivers\peripheral\gpio/cy_gpio.h **** *
 910:Generated_Source\PSoC6\pdl\drivers\peripheral\gpio/cy_gpio.h **** * This function should be used only for software driven pins. It does not have
 911:Generated_Source\PSoC6\pdl\drivers\peripheral\gpio/cy_gpio.h **** * any effect on peripheral driven pins.
 912:Generated_Source\PSoC6\pdl\drivers\peripheral\gpio/cy_gpio.h **** *
ARM GAS  C:\Users\cmila\AppData\Local\Temp\ccgUIjp6.s 			page 21


 913:Generated_Source\PSoC6\pdl\drivers\peripheral\gpio/cy_gpio.h **** * \param base
 914:Generated_Source\PSoC6\pdl\drivers\peripheral\gpio/cy_gpio.h **** * Pointer to the pin's port register base address
 915:Generated_Source\PSoC6\pdl\drivers\peripheral\gpio/cy_gpio.h **** *
 916:Generated_Source\PSoC6\pdl\drivers\peripheral\gpio/cy_gpio.h **** * \param pinNum
 917:Generated_Source\PSoC6\pdl\drivers\peripheral\gpio/cy_gpio.h **** * Position of the pin bit-field within the port register
 918:Generated_Source\PSoC6\pdl\drivers\peripheral\gpio/cy_gpio.h **** *
 919:Generated_Source\PSoC6\pdl\drivers\peripheral\gpio/cy_gpio.h **** * \funcusage
 920:Generated_Source\PSoC6\pdl\drivers\peripheral\gpio/cy_gpio.h **** * \snippet gpio/gpio_v1_10_sut_01.cydsn/main_cm4.c snippet_Cy_GPIO_Inv
 921:Generated_Source\PSoC6\pdl\drivers\peripheral\gpio/cy_gpio.h **** *
 922:Generated_Source\PSoC6\pdl\drivers\peripheral\gpio/cy_gpio.h **** *******************************************************************************/
 923:Generated_Source\PSoC6\pdl\drivers\peripheral\gpio/cy_gpio.h **** __STATIC_INLINE void Cy_GPIO_Inv(GPIO_PRT_Type* base, uint32_t pinNum)
 924:Generated_Source\PSoC6\pdl\drivers\peripheral\gpio/cy_gpio.h **** {
 925:Generated_Source\PSoC6\pdl\drivers\peripheral\gpio/cy_gpio.h ****     CY_ASSERT_L2(CY_GPIO_IS_PIN_VALID(pinNum));
 926:Generated_Source\PSoC6\pdl\drivers\peripheral\gpio/cy_gpio.h ****     
 927:Generated_Source\PSoC6\pdl\drivers\peripheral\gpio/cy_gpio.h ****     GPIO_PRT_OUT_INV(base) = CY_GPIO_OUT_MASK << pinNum;
 928:Generated_Source\PSoC6\pdl\drivers\peripheral\gpio/cy_gpio.h **** }
 929:Generated_Source\PSoC6\pdl\drivers\peripheral\gpio/cy_gpio.h **** 
 930:Generated_Source\PSoC6\pdl\drivers\peripheral\gpio/cy_gpio.h **** 
 931:Generated_Source\PSoC6\pdl\drivers\peripheral\gpio/cy_gpio.h **** /*******************************************************************************
 932:Generated_Source\PSoC6\pdl\drivers\peripheral\gpio/cy_gpio.h **** * Function Name: Cy_GPIO_SetDrivemode
 933:Generated_Source\PSoC6\pdl\drivers\peripheral\gpio/cy_gpio.h **** ****************************************************************************//**
 934:Generated_Source\PSoC6\pdl\drivers\peripheral\gpio/cy_gpio.h **** *
 935:Generated_Source\PSoC6\pdl\drivers\peripheral\gpio/cy_gpio.h **** * Configures the pin output buffer drive mode and input buffer enable.
 936:Generated_Source\PSoC6\pdl\drivers\peripheral\gpio/cy_gpio.h **** *
 937:Generated_Source\PSoC6\pdl\drivers\peripheral\gpio/cy_gpio.h **** * The output buffer drive mode and input buffer enable are combined into a single
 938:Generated_Source\PSoC6\pdl\drivers\peripheral\gpio/cy_gpio.h **** * parameter. The drive mode controls the behavior of the pin in general.
 939:Generated_Source\PSoC6\pdl\drivers\peripheral\gpio/cy_gpio.h **** * Enabling the input buffer allows the digital pin state to be read but also
 940:Generated_Source\PSoC6\pdl\drivers\peripheral\gpio/cy_gpio.h **** * contributes to extra current consumption.
 941:Generated_Source\PSoC6\pdl\drivers\peripheral\gpio/cy_gpio.h **** *
 942:Generated_Source\PSoC6\pdl\drivers\peripheral\gpio/cy_gpio.h **** * \param base
 943:Generated_Source\PSoC6\pdl\drivers\peripheral\gpio/cy_gpio.h **** * Pointer to the pin's port register base address
 944:Generated_Source\PSoC6\pdl\drivers\peripheral\gpio/cy_gpio.h **** *
 945:Generated_Source\PSoC6\pdl\drivers\peripheral\gpio/cy_gpio.h **** * \param pinNum
 946:Generated_Source\PSoC6\pdl\drivers\peripheral\gpio/cy_gpio.h **** * Position of the pin bit-field within the port register
 947:Generated_Source\PSoC6\pdl\drivers\peripheral\gpio/cy_gpio.h **** *
 948:Generated_Source\PSoC6\pdl\drivers\peripheral\gpio/cy_gpio.h **** * \param value
 949:Generated_Source\PSoC6\pdl\drivers\peripheral\gpio/cy_gpio.h **** * Pin drive mode. Options are detailed in \ref group_gpio_driveModes macros
 950:Generated_Source\PSoC6\pdl\drivers\peripheral\gpio/cy_gpio.h **** *
 951:Generated_Source\PSoC6\pdl\drivers\peripheral\gpio/cy_gpio.h **** * \note 
 952:Generated_Source\PSoC6\pdl\drivers\peripheral\gpio/cy_gpio.h **** * This function modifies a port register in a read-modify-write operation. It is
 953:Generated_Source\PSoC6\pdl\drivers\peripheral\gpio/cy_gpio.h **** * not thread safe as the resource is shared among multiple pins on a port.
 954:Generated_Source\PSoC6\pdl\drivers\peripheral\gpio/cy_gpio.h **** *
 955:Generated_Source\PSoC6\pdl\drivers\peripheral\gpio/cy_gpio.h **** * \funcusage
 956:Generated_Source\PSoC6\pdl\drivers\peripheral\gpio/cy_gpio.h **** * \snippet gpio/gpio_v1_10_sut_01.cydsn/main_cm4.c snippet_Cy_GPIO_SetDrivemode
 957:Generated_Source\PSoC6\pdl\drivers\peripheral\gpio/cy_gpio.h **** *
 958:Generated_Source\PSoC6\pdl\drivers\peripheral\gpio/cy_gpio.h **** *******************************************************************************/
 959:Generated_Source\PSoC6\pdl\drivers\peripheral\gpio/cy_gpio.h **** __STATIC_INLINE void Cy_GPIO_SetDrivemode(GPIO_PRT_Type* base, uint32_t pinNum, uint32_t value)
 960:Generated_Source\PSoC6\pdl\drivers\peripheral\gpio/cy_gpio.h **** {
 961:Generated_Source\PSoC6\pdl\drivers\peripheral\gpio/cy_gpio.h ****     uint32_t tempReg;
 962:Generated_Source\PSoC6\pdl\drivers\peripheral\gpio/cy_gpio.h ****     uint32_t pinLoc;
 963:Generated_Source\PSoC6\pdl\drivers\peripheral\gpio/cy_gpio.h **** 
 964:Generated_Source\PSoC6\pdl\drivers\peripheral\gpio/cy_gpio.h ****     CY_ASSERT_L2(CY_GPIO_IS_PIN_VALID(pinNum));
 965:Generated_Source\PSoC6\pdl\drivers\peripheral\gpio/cy_gpio.h ****     CY_ASSERT_L2(CY_GPIO_IS_DM_VALID(value));
 966:Generated_Source\PSoC6\pdl\drivers\peripheral\gpio/cy_gpio.h **** 
 967:Generated_Source\PSoC6\pdl\drivers\peripheral\gpio/cy_gpio.h ****     pinLoc = pinNum << CY_GPIO_DRIVE_MODE_OFFSET;
 968:Generated_Source\PSoC6\pdl\drivers\peripheral\gpio/cy_gpio.h ****     tempReg = (GPIO_PRT_CFG(base) & ~(CY_GPIO_CFG_DM_MASK << pinLoc));
 162              		.loc 1 968 0
ARM GAS  C:\Users\cmila\AppData\Local\Temp\ccgUIjp6.s 			page 22


 163 0024 DFF80881 		ldr	r8, .L13+4
 164 0028 D8F80030 		ldr	r3, [r8]
 165 002c 93F87D00 		ldrb	r0, [r3, #125]	@ zero_extendqisi2
 166              	.LVL22:
 967:Generated_Source\PSoC6\pdl\drivers\peripheral\gpio/cy_gpio.h ****     tempReg = (GPIO_PRT_CFG(base) & ~(CY_GPIO_CFG_DM_MASK << pinLoc));
 167              		.loc 1 967 0
 168 0030 B700     		lsls	r7, r6, #2
 169              	.LVL23:
 170              		.loc 1 968 0
 171 0032 0159     		ldr	r1, [r0, r4]
 172              	.LVL24:
 969:Generated_Source\PSoC6\pdl\drivers\peripheral\gpio/cy_gpio.h ****     GPIO_PRT_CFG(base) = tempReg | ((value & CY_GPIO_CFG_DM_MASK) << pinLoc);
 173              		.loc 1 969 0
 174 0034 0F23     		movs	r3, #15
 175 0036 BB40     		lsls	r3, r3, r7
 176 0038 21EA0302 		bic	r2, r1, r3
 177              	.LVL25:
 178 003c 6B68     		ldr	r3, [r5, #4]
 179 003e 03F00F03 		and	r3, r3, #15
 180 0042 BB40     		lsls	r3, r3, r7
 181 0044 1343     		orrs	r3, r3, r2
 182 0046 0351     		str	r3, [r0, r4]
 183              	.LVL26:
 184              	.LBE17:
 185              	.LBE16:
  65:Generated_Source\PSoC6\pdl\drivers\peripheral\gpio/cy_gpio.c ****     {
  66:Generated_Source\PSoC6\pdl\drivers\peripheral\gpio/cy_gpio.c ****         uint32_t maskCfgOut;
  67:Generated_Source\PSoC6\pdl\drivers\peripheral\gpio/cy_gpio.c ****         uint32_t tempReg;
  68:Generated_Source\PSoC6\pdl\drivers\peripheral\gpio/cy_gpio.c ****         
  69:Generated_Source\PSoC6\pdl\drivers\peripheral\gpio/cy_gpio.c ****         CY_ASSERT_L2(CY_GPIO_IS_PIN_VALID(pinNum));
  70:Generated_Source\PSoC6\pdl\drivers\peripheral\gpio/cy_gpio.c ****         CY_ASSERT_L2(CY_GPIO_IS_VALUE_VALID(config->outVal));
  71:Generated_Source\PSoC6\pdl\drivers\peripheral\gpio/cy_gpio.c ****         CY_ASSERT_L2(CY_GPIO_IS_DM_VALID(config->driveMode));
  72:Generated_Source\PSoC6\pdl\drivers\peripheral\gpio/cy_gpio.c ****         CY_ASSERT_L2(CY_GPIO_IS_HSIOM_VALID(config->hsiom));  
  73:Generated_Source\PSoC6\pdl\drivers\peripheral\gpio/cy_gpio.c ****         CY_ASSERT_L2(CY_GPIO_IS_INT_EDGE_VALID(config->intEdge)); 
  74:Generated_Source\PSoC6\pdl\drivers\peripheral\gpio/cy_gpio.c ****         CY_ASSERT_L2(CY_GPIO_IS_VALUE_VALID(config->intMask));
  75:Generated_Source\PSoC6\pdl\drivers\peripheral\gpio/cy_gpio.c ****         CY_ASSERT_L2(CY_GPIO_IS_VALUE_VALID(config->vtrip));
  76:Generated_Source\PSoC6\pdl\drivers\peripheral\gpio/cy_gpio.c ****         CY_ASSERT_L2(CY_GPIO_IS_VALUE_VALID(config->slewRate));
  77:Generated_Source\PSoC6\pdl\drivers\peripheral\gpio/cy_gpio.c ****         CY_ASSERT_L2(CY_GPIO_IS_DRIVE_SEL_VALID(config->driveSel));
  78:Generated_Source\PSoC6\pdl\drivers\peripheral\gpio/cy_gpio.c ****         CY_ASSERT_L2(CY_GPIO_IS_VALUE_VALID(config->vregEn));
  79:Generated_Source\PSoC6\pdl\drivers\peripheral\gpio/cy_gpio.c ****         CY_ASSERT_L2(CY_GPIO_IS_VALUE_VALID(config->ibufMode));
  80:Generated_Source\PSoC6\pdl\drivers\peripheral\gpio/cy_gpio.c ****         CY_ASSERT_L2(CY_GPIO_IS_VALUE_VALID(config->vtripSel));
  81:Generated_Source\PSoC6\pdl\drivers\peripheral\gpio/cy_gpio.c ****         CY_ASSERT_L2(CY_GPIO_IS_VREF_SEL_VALID(config->vrefSel));
  82:Generated_Source\PSoC6\pdl\drivers\peripheral\gpio/cy_gpio.c ****         CY_ASSERT_L2(CY_GPIO_IS_VOH_SEL_VALID(config->vohSel));
  83:Generated_Source\PSoC6\pdl\drivers\peripheral\gpio/cy_gpio.c ****     
  84:Generated_Source\PSoC6\pdl\drivers\peripheral\gpio/cy_gpio.c ****         Cy_GPIO_Write(base, pinNum, config->outVal);
  85:Generated_Source\PSoC6\pdl\drivers\peripheral\gpio/cy_gpio.c ****         Cy_GPIO_SetDrivemode(base, pinNum, config->driveMode);
  86:Generated_Source\PSoC6\pdl\drivers\peripheral\gpio/cy_gpio.c ****         Cy_GPIO_SetHSIOM(base, pinNum, config->hsiom);
 186              		.loc 2 86 0
 187 0048 2A7A     		ldrb	r2, [r5, #8]	@ zero_extendqisi2
 188 004a 3146     		mov	r1, r6
 189 004c 2046     		mov	r0, r4
 190 004e FFF7FEFF 		bl	Cy_GPIO_SetHSIOM
 191              	.LVL27:
 192              	.LBB18:
 193              	.LBB19:
 970:Generated_Source\PSoC6\pdl\drivers\peripheral\gpio/cy_gpio.h **** }
 971:Generated_Source\PSoC6\pdl\drivers\peripheral\gpio/cy_gpio.h **** 
ARM GAS  C:\Users\cmila\AppData\Local\Temp\ccgUIjp6.s 			page 23


 972:Generated_Source\PSoC6\pdl\drivers\peripheral\gpio/cy_gpio.h **** 
 973:Generated_Source\PSoC6\pdl\drivers\peripheral\gpio/cy_gpio.h **** /*******************************************************************************
 974:Generated_Source\PSoC6\pdl\drivers\peripheral\gpio/cy_gpio.h **** * Function Name: Cy_GPIO_GetDrivemode
 975:Generated_Source\PSoC6\pdl\drivers\peripheral\gpio/cy_gpio.h **** ****************************************************************************//**
 976:Generated_Source\PSoC6\pdl\drivers\peripheral\gpio/cy_gpio.h **** *
 977:Generated_Source\PSoC6\pdl\drivers\peripheral\gpio/cy_gpio.h **** * Returns the pin output buffer drive mode and input buffer enable state.
 978:Generated_Source\PSoC6\pdl\drivers\peripheral\gpio/cy_gpio.h **** *
 979:Generated_Source\PSoC6\pdl\drivers\peripheral\gpio/cy_gpio.h **** * \param base
 980:Generated_Source\PSoC6\pdl\drivers\peripheral\gpio/cy_gpio.h **** * Pointer to the pin's port register base address
 981:Generated_Source\PSoC6\pdl\drivers\peripheral\gpio/cy_gpio.h **** *
 982:Generated_Source\PSoC6\pdl\drivers\peripheral\gpio/cy_gpio.h **** * \param pinNum
 983:Generated_Source\PSoC6\pdl\drivers\peripheral\gpio/cy_gpio.h **** * Position of the pin bit-field within the port register
 984:Generated_Source\PSoC6\pdl\drivers\peripheral\gpio/cy_gpio.h **** *
 985:Generated_Source\PSoC6\pdl\drivers\peripheral\gpio/cy_gpio.h **** * \return
 986:Generated_Source\PSoC6\pdl\drivers\peripheral\gpio/cy_gpio.h **** * Pin drive mode. Options are detailed in \ref group_gpio_driveModes macros
 987:Generated_Source\PSoC6\pdl\drivers\peripheral\gpio/cy_gpio.h **** *
 988:Generated_Source\PSoC6\pdl\drivers\peripheral\gpio/cy_gpio.h **** * \funcusage
 989:Generated_Source\PSoC6\pdl\drivers\peripheral\gpio/cy_gpio.h **** * \snippet gpio/gpio_v1_10_sut_01.cydsn/main_cm4.c snippet_Cy_GPIO_SetDrivemode
 990:Generated_Source\PSoC6\pdl\drivers\peripheral\gpio/cy_gpio.h **** *
 991:Generated_Source\PSoC6\pdl\drivers\peripheral\gpio/cy_gpio.h **** *******************************************************************************/
 992:Generated_Source\PSoC6\pdl\drivers\peripheral\gpio/cy_gpio.h **** __STATIC_INLINE uint32_t Cy_GPIO_GetDrivemode(GPIO_PRT_Type* base, uint32_t pinNum)
 993:Generated_Source\PSoC6\pdl\drivers\peripheral\gpio/cy_gpio.h **** {
 994:Generated_Source\PSoC6\pdl\drivers\peripheral\gpio/cy_gpio.h ****     CY_ASSERT_L2(CY_GPIO_IS_PIN_VALID(pinNum));
 995:Generated_Source\PSoC6\pdl\drivers\peripheral\gpio/cy_gpio.h ****     
 996:Generated_Source\PSoC6\pdl\drivers\peripheral\gpio/cy_gpio.h ****     return (GPIO_PRT_CFG(base) >> (pinNum << CY_GPIO_DRIVE_MODE_OFFSET)) & CY_GPIO_CFG_DM_MASK;
 997:Generated_Source\PSoC6\pdl\drivers\peripheral\gpio/cy_gpio.h **** }
 998:Generated_Source\PSoC6\pdl\drivers\peripheral\gpio/cy_gpio.h **** 
 999:Generated_Source\PSoC6\pdl\drivers\peripheral\gpio/cy_gpio.h **** 
1000:Generated_Source\PSoC6\pdl\drivers\peripheral\gpio/cy_gpio.h **** /*******************************************************************************
1001:Generated_Source\PSoC6\pdl\drivers\peripheral\gpio/cy_gpio.h **** * Function Name: Cy_GPIO_SetVtrip
1002:Generated_Source\PSoC6\pdl\drivers\peripheral\gpio/cy_gpio.h **** ****************************************************************************//**
1003:Generated_Source\PSoC6\pdl\drivers\peripheral\gpio/cy_gpio.h **** *
1004:Generated_Source\PSoC6\pdl\drivers\peripheral\gpio/cy_gpio.h **** * Configures the GPIO pin input buffer voltage threshold mode.
1005:Generated_Source\PSoC6\pdl\drivers\peripheral\gpio/cy_gpio.h **** *
1006:Generated_Source\PSoC6\pdl\drivers\peripheral\gpio/cy_gpio.h **** * \param base
1007:Generated_Source\PSoC6\pdl\drivers\peripheral\gpio/cy_gpio.h **** * Pointer to the pin's port register base address
1008:Generated_Source\PSoC6\pdl\drivers\peripheral\gpio/cy_gpio.h **** *
1009:Generated_Source\PSoC6\pdl\drivers\peripheral\gpio/cy_gpio.h **** * \param pinNum
1010:Generated_Source\PSoC6\pdl\drivers\peripheral\gpio/cy_gpio.h **** * Position of the pin bit-field within the port register
1011:Generated_Source\PSoC6\pdl\drivers\peripheral\gpio/cy_gpio.h **** *
1012:Generated_Source\PSoC6\pdl\drivers\peripheral\gpio/cy_gpio.h **** * \param value
1013:Generated_Source\PSoC6\pdl\drivers\peripheral\gpio/cy_gpio.h **** * Pin voltage threshold mode. Options are detailed in \ref group_gpio_vtrip macros
1014:Generated_Source\PSoC6\pdl\drivers\peripheral\gpio/cy_gpio.h **** *
1015:Generated_Source\PSoC6\pdl\drivers\peripheral\gpio/cy_gpio.h **** * \note 
1016:Generated_Source\PSoC6\pdl\drivers\peripheral\gpio/cy_gpio.h **** * This function modifies a port register in a read-modify-write operation. It is
1017:Generated_Source\PSoC6\pdl\drivers\peripheral\gpio/cy_gpio.h **** * not thread safe as the resource is shared among multiple pins on a port.
1018:Generated_Source\PSoC6\pdl\drivers\peripheral\gpio/cy_gpio.h **** *
1019:Generated_Source\PSoC6\pdl\drivers\peripheral\gpio/cy_gpio.h **** * \funcusage
1020:Generated_Source\PSoC6\pdl\drivers\peripheral\gpio/cy_gpio.h **** * \snippet gpio/gpio_v1_10_sut_01.cydsn/main_cm4.c snippet_Cy_GPIO_SetVtrip
1021:Generated_Source\PSoC6\pdl\drivers\peripheral\gpio/cy_gpio.h **** *
1022:Generated_Source\PSoC6\pdl\drivers\peripheral\gpio/cy_gpio.h **** *******************************************************************************/
1023:Generated_Source\PSoC6\pdl\drivers\peripheral\gpio/cy_gpio.h **** __STATIC_INLINE void Cy_GPIO_SetVtrip(GPIO_PRT_Type* base, uint32_t pinNum, uint32_t value)
1024:Generated_Source\PSoC6\pdl\drivers\peripheral\gpio/cy_gpio.h **** {
1025:Generated_Source\PSoC6\pdl\drivers\peripheral\gpio/cy_gpio.h ****     uint32_t tempReg;
1026:Generated_Source\PSoC6\pdl\drivers\peripheral\gpio/cy_gpio.h **** 
1027:Generated_Source\PSoC6\pdl\drivers\peripheral\gpio/cy_gpio.h ****     CY_ASSERT_L2(CY_GPIO_IS_PIN_VALID(pinNum));
1028:Generated_Source\PSoC6\pdl\drivers\peripheral\gpio/cy_gpio.h ****     CY_ASSERT_L2(CY_GPIO_IS_VALUE_VALID(value));
ARM GAS  C:\Users\cmila\AppData\Local\Temp\ccgUIjp6.s 			page 24


1029:Generated_Source\PSoC6\pdl\drivers\peripheral\gpio/cy_gpio.h **** 
1030:Generated_Source\PSoC6\pdl\drivers\peripheral\gpio/cy_gpio.h ****     tempReg = GPIO_PRT_CFG_IN(base) & ~(CY_GPIO_CFG_IN_VTRIP_SEL_MASK << pinNum);
1031:Generated_Source\PSoC6\pdl\drivers\peripheral\gpio/cy_gpio.h ****     GPIO_PRT_CFG_IN(base) = tempReg | ((value & CY_GPIO_CFG_IN_VTRIP_SEL_MASK) << pinNum);
1032:Generated_Source\PSoC6\pdl\drivers\peripheral\gpio/cy_gpio.h **** }
1033:Generated_Source\PSoC6\pdl\drivers\peripheral\gpio/cy_gpio.h **** 
1034:Generated_Source\PSoC6\pdl\drivers\peripheral\gpio/cy_gpio.h **** 
1035:Generated_Source\PSoC6\pdl\drivers\peripheral\gpio/cy_gpio.h **** /*******************************************************************************
1036:Generated_Source\PSoC6\pdl\drivers\peripheral\gpio/cy_gpio.h **** * Function Name: Cy_GPIO_GetVtrip
1037:Generated_Source\PSoC6\pdl\drivers\peripheral\gpio/cy_gpio.h **** ****************************************************************************//**
1038:Generated_Source\PSoC6\pdl\drivers\peripheral\gpio/cy_gpio.h **** *
1039:Generated_Source\PSoC6\pdl\drivers\peripheral\gpio/cy_gpio.h **** * Returns the pin input buffer voltage threshold mode.
1040:Generated_Source\PSoC6\pdl\drivers\peripheral\gpio/cy_gpio.h **** *
1041:Generated_Source\PSoC6\pdl\drivers\peripheral\gpio/cy_gpio.h **** * \param base
1042:Generated_Source\PSoC6\pdl\drivers\peripheral\gpio/cy_gpio.h **** * Pointer to the pin's port register base address
1043:Generated_Source\PSoC6\pdl\drivers\peripheral\gpio/cy_gpio.h **** *
1044:Generated_Source\PSoC6\pdl\drivers\peripheral\gpio/cy_gpio.h **** * \param pinNum
1045:Generated_Source\PSoC6\pdl\drivers\peripheral\gpio/cy_gpio.h **** * Position of the pin bit-field within the port register
1046:Generated_Source\PSoC6\pdl\drivers\peripheral\gpio/cy_gpio.h **** *
1047:Generated_Source\PSoC6\pdl\drivers\peripheral\gpio/cy_gpio.h **** * \return
1048:Generated_Source\PSoC6\pdl\drivers\peripheral\gpio/cy_gpio.h **** * Pin voltage threshold mode. Options are detailed in \ref group_gpio_vtrip macros
1049:Generated_Source\PSoC6\pdl\drivers\peripheral\gpio/cy_gpio.h **** *
1050:Generated_Source\PSoC6\pdl\drivers\peripheral\gpio/cy_gpio.h **** * \funcusage
1051:Generated_Source\PSoC6\pdl\drivers\peripheral\gpio/cy_gpio.h **** * \snippet gpio/gpio_v1_10_sut_01.cydsn/main_cm4.c snippet_Cy_GPIO_SetVtrip
1052:Generated_Source\PSoC6\pdl\drivers\peripheral\gpio/cy_gpio.h **** *
1053:Generated_Source\PSoC6\pdl\drivers\peripheral\gpio/cy_gpio.h **** *******************************************************************************/
1054:Generated_Source\PSoC6\pdl\drivers\peripheral\gpio/cy_gpio.h **** __STATIC_INLINE uint32_t Cy_GPIO_GetVtrip(GPIO_PRT_Type* base, uint32_t pinNum)
1055:Generated_Source\PSoC6\pdl\drivers\peripheral\gpio/cy_gpio.h **** {
1056:Generated_Source\PSoC6\pdl\drivers\peripheral\gpio/cy_gpio.h ****     CY_ASSERT_L2(CY_GPIO_IS_PIN_VALID(pinNum));
1057:Generated_Source\PSoC6\pdl\drivers\peripheral\gpio/cy_gpio.h ****     
1058:Generated_Source\PSoC6\pdl\drivers\peripheral\gpio/cy_gpio.h ****     return (GPIO_PRT_CFG_IN(base) >> pinNum) & CY_GPIO_CFG_IN_VTRIP_SEL_MASK;
1059:Generated_Source\PSoC6\pdl\drivers\peripheral\gpio/cy_gpio.h **** }
1060:Generated_Source\PSoC6\pdl\drivers\peripheral\gpio/cy_gpio.h **** 
1061:Generated_Source\PSoC6\pdl\drivers\peripheral\gpio/cy_gpio.h **** 
1062:Generated_Source\PSoC6\pdl\drivers\peripheral\gpio/cy_gpio.h **** /*******************************************************************************
1063:Generated_Source\PSoC6\pdl\drivers\peripheral\gpio/cy_gpio.h **** * Function Name: Cy_GPIO_SetSlewRate
1064:Generated_Source\PSoC6\pdl\drivers\peripheral\gpio/cy_gpio.h **** ****************************************************************************//**
1065:Generated_Source\PSoC6\pdl\drivers\peripheral\gpio/cy_gpio.h **** *
1066:Generated_Source\PSoC6\pdl\drivers\peripheral\gpio/cy_gpio.h **** * Configures the pin output buffer slew rate.
1067:Generated_Source\PSoC6\pdl\drivers\peripheral\gpio/cy_gpio.h **** *
1068:Generated_Source\PSoC6\pdl\drivers\peripheral\gpio/cy_gpio.h **** * \note 
1069:Generated_Source\PSoC6\pdl\drivers\peripheral\gpio/cy_gpio.h **** * This function has no effect for the GPIO ports, where the slew rate
1070:Generated_Source\PSoC6\pdl\drivers\peripheral\gpio/cy_gpio.h **** * configuration is not available. Refer to device datasheet for details.
1071:Generated_Source\PSoC6\pdl\drivers\peripheral\gpio/cy_gpio.h **** *
1072:Generated_Source\PSoC6\pdl\drivers\peripheral\gpio/cy_gpio.h **** * \param base
1073:Generated_Source\PSoC6\pdl\drivers\peripheral\gpio/cy_gpio.h **** * Pointer to the pin's port register base address
1074:Generated_Source\PSoC6\pdl\drivers\peripheral\gpio/cy_gpio.h **** *
1075:Generated_Source\PSoC6\pdl\drivers\peripheral\gpio/cy_gpio.h **** * \param pinNum
1076:Generated_Source\PSoC6\pdl\drivers\peripheral\gpio/cy_gpio.h **** * Position of the pin bit-field within the port register
1077:Generated_Source\PSoC6\pdl\drivers\peripheral\gpio/cy_gpio.h **** *
1078:Generated_Source\PSoC6\pdl\drivers\peripheral\gpio/cy_gpio.h **** * \param value
1079:Generated_Source\PSoC6\pdl\drivers\peripheral\gpio/cy_gpio.h **** * Pin slew rate. Options are detailed in \ref group_gpio_slewRate macros
1080:Generated_Source\PSoC6\pdl\drivers\peripheral\gpio/cy_gpio.h **** *
1081:Generated_Source\PSoC6\pdl\drivers\peripheral\gpio/cy_gpio.h **** * \note 
1082:Generated_Source\PSoC6\pdl\drivers\peripheral\gpio/cy_gpio.h **** * This function modifies a port register in a read-modify-write operation. It is
1083:Generated_Source\PSoC6\pdl\drivers\peripheral\gpio/cy_gpio.h **** * not thread safe as the resource is shared among multiple pins on a port.
1084:Generated_Source\PSoC6\pdl\drivers\peripheral\gpio/cy_gpio.h **** *
1085:Generated_Source\PSoC6\pdl\drivers\peripheral\gpio/cy_gpio.h **** * \funcusage
ARM GAS  C:\Users\cmila\AppData\Local\Temp\ccgUIjp6.s 			page 25


1086:Generated_Source\PSoC6\pdl\drivers\peripheral\gpio/cy_gpio.h **** * \snippet gpio/gpio_v1_10_sut_01.cydsn/main_cm4.c snippet_Cy_GPIO_SetSlewRate
1087:Generated_Source\PSoC6\pdl\drivers\peripheral\gpio/cy_gpio.h **** *
1088:Generated_Source\PSoC6\pdl\drivers\peripheral\gpio/cy_gpio.h **** *******************************************************************************/
1089:Generated_Source\PSoC6\pdl\drivers\peripheral\gpio/cy_gpio.h **** __STATIC_INLINE void Cy_GPIO_SetSlewRate(GPIO_PRT_Type* base, uint32_t pinNum, uint32_t value)
1090:Generated_Source\PSoC6\pdl\drivers\peripheral\gpio/cy_gpio.h **** {
1091:Generated_Source\PSoC6\pdl\drivers\peripheral\gpio/cy_gpio.h ****     uint32_t tempReg;
1092:Generated_Source\PSoC6\pdl\drivers\peripheral\gpio/cy_gpio.h **** 
1093:Generated_Source\PSoC6\pdl\drivers\peripheral\gpio/cy_gpio.h ****     CY_ASSERT_L2(CY_GPIO_IS_PIN_VALID(pinNum));
1094:Generated_Source\PSoC6\pdl\drivers\peripheral\gpio/cy_gpio.h ****     CY_ASSERT_L2(CY_GPIO_IS_VALUE_VALID(value));
1095:Generated_Source\PSoC6\pdl\drivers\peripheral\gpio/cy_gpio.h **** 
1096:Generated_Source\PSoC6\pdl\drivers\peripheral\gpio/cy_gpio.h ****     tempReg = GPIO_PRT_CFG_OUT(base) & ~(CY_GPIO_CFG_OUT_SLOW_MASK << pinNum);
1097:Generated_Source\PSoC6\pdl\drivers\peripheral\gpio/cy_gpio.h ****     GPIO_PRT_CFG_OUT(base) = tempReg | ((value & CY_GPIO_CFG_OUT_SLOW_MASK) << pinNum);
1098:Generated_Source\PSoC6\pdl\drivers\peripheral\gpio/cy_gpio.h **** }
1099:Generated_Source\PSoC6\pdl\drivers\peripheral\gpio/cy_gpio.h **** 
1100:Generated_Source\PSoC6\pdl\drivers\peripheral\gpio/cy_gpio.h **** 
1101:Generated_Source\PSoC6\pdl\drivers\peripheral\gpio/cy_gpio.h **** /*******************************************************************************
1102:Generated_Source\PSoC6\pdl\drivers\peripheral\gpio/cy_gpio.h **** * Function Name: Cy_GPIO_GetSlewRate
1103:Generated_Source\PSoC6\pdl\drivers\peripheral\gpio/cy_gpio.h **** ****************************************************************************//**
1104:Generated_Source\PSoC6\pdl\drivers\peripheral\gpio/cy_gpio.h **** *
1105:Generated_Source\PSoC6\pdl\drivers\peripheral\gpio/cy_gpio.h **** * Returns the pin output buffer slew rate.
1106:Generated_Source\PSoC6\pdl\drivers\peripheral\gpio/cy_gpio.h **** *
1107:Generated_Source\PSoC6\pdl\drivers\peripheral\gpio/cy_gpio.h **** * \param base
1108:Generated_Source\PSoC6\pdl\drivers\peripheral\gpio/cy_gpio.h **** * Pointer to the pin's port register base address
1109:Generated_Source\PSoC6\pdl\drivers\peripheral\gpio/cy_gpio.h **** *
1110:Generated_Source\PSoC6\pdl\drivers\peripheral\gpio/cy_gpio.h **** * \param pinNum
1111:Generated_Source\PSoC6\pdl\drivers\peripheral\gpio/cy_gpio.h **** * Position of the pin bit-field within the port register
1112:Generated_Source\PSoC6\pdl\drivers\peripheral\gpio/cy_gpio.h **** *
1113:Generated_Source\PSoC6\pdl\drivers\peripheral\gpio/cy_gpio.h **** * \return
1114:Generated_Source\PSoC6\pdl\drivers\peripheral\gpio/cy_gpio.h **** * Pin slew rate. Options are detailed in \ref group_gpio_slewRate macros
1115:Generated_Source\PSoC6\pdl\drivers\peripheral\gpio/cy_gpio.h **** *
1116:Generated_Source\PSoC6\pdl\drivers\peripheral\gpio/cy_gpio.h **** * \funcusage
1117:Generated_Source\PSoC6\pdl\drivers\peripheral\gpio/cy_gpio.h **** * \snippet gpio/gpio_v1_10_sut_01.cydsn/main_cm4.c snippet_Cy_GPIO_SetSlewRate
1118:Generated_Source\PSoC6\pdl\drivers\peripheral\gpio/cy_gpio.h **** *
1119:Generated_Source\PSoC6\pdl\drivers\peripheral\gpio/cy_gpio.h **** *******************************************************************************/
1120:Generated_Source\PSoC6\pdl\drivers\peripheral\gpio/cy_gpio.h **** __STATIC_INLINE uint32_t Cy_GPIO_GetSlewRate(GPIO_PRT_Type* base, uint32_t pinNum)
1121:Generated_Source\PSoC6\pdl\drivers\peripheral\gpio/cy_gpio.h **** {
1122:Generated_Source\PSoC6\pdl\drivers\peripheral\gpio/cy_gpio.h ****     CY_ASSERT_L2(CY_GPIO_IS_PIN_VALID(pinNum));
1123:Generated_Source\PSoC6\pdl\drivers\peripheral\gpio/cy_gpio.h **** 
1124:Generated_Source\PSoC6\pdl\drivers\peripheral\gpio/cy_gpio.h ****     return (GPIO_PRT_CFG_OUT(base) >> pinNum) & CY_GPIO_CFG_OUT_SLOW_MASK;
1125:Generated_Source\PSoC6\pdl\drivers\peripheral\gpio/cy_gpio.h **** }
1126:Generated_Source\PSoC6\pdl\drivers\peripheral\gpio/cy_gpio.h **** 
1127:Generated_Source\PSoC6\pdl\drivers\peripheral\gpio/cy_gpio.h **** 
1128:Generated_Source\PSoC6\pdl\drivers\peripheral\gpio/cy_gpio.h **** /*******************************************************************************
1129:Generated_Source\PSoC6\pdl\drivers\peripheral\gpio/cy_gpio.h **** * Function Name: Cy_GPIO_SetDriveSel
1130:Generated_Source\PSoC6\pdl\drivers\peripheral\gpio/cy_gpio.h **** ****************************************************************************//**
1131:Generated_Source\PSoC6\pdl\drivers\peripheral\gpio/cy_gpio.h **** *
1132:Generated_Source\PSoC6\pdl\drivers\peripheral\gpio/cy_gpio.h **** * Configures the pin output buffer drive strength.
1133:Generated_Source\PSoC6\pdl\drivers\peripheral\gpio/cy_gpio.h **** *
1134:Generated_Source\PSoC6\pdl\drivers\peripheral\gpio/cy_gpio.h **** * \param base
1135:Generated_Source\PSoC6\pdl\drivers\peripheral\gpio/cy_gpio.h **** * Pointer to the pin's port register base address
1136:Generated_Source\PSoC6\pdl\drivers\peripheral\gpio/cy_gpio.h **** *
1137:Generated_Source\PSoC6\pdl\drivers\peripheral\gpio/cy_gpio.h **** * \param pinNum
1138:Generated_Source\PSoC6\pdl\drivers\peripheral\gpio/cy_gpio.h **** * Position of the pin bit-field within the port register
1139:Generated_Source\PSoC6\pdl\drivers\peripheral\gpio/cy_gpio.h **** *
1140:Generated_Source\PSoC6\pdl\drivers\peripheral\gpio/cy_gpio.h **** * \param value
1141:Generated_Source\PSoC6\pdl\drivers\peripheral\gpio/cy_gpio.h **** * Pin drive strength. Options are detailed in \ref group_gpio_driveStrength macros
1142:Generated_Source\PSoC6\pdl\drivers\peripheral\gpio/cy_gpio.h **** *
ARM GAS  C:\Users\cmila\AppData\Local\Temp\ccgUIjp6.s 			page 26


1143:Generated_Source\PSoC6\pdl\drivers\peripheral\gpio/cy_gpio.h **** * \note 
1144:Generated_Source\PSoC6\pdl\drivers\peripheral\gpio/cy_gpio.h **** * This function modifies a port register in a read-modify-write operation. It is
1145:Generated_Source\PSoC6\pdl\drivers\peripheral\gpio/cy_gpio.h **** * not thread safe as the resource is shared among multiple pins on a port.
1146:Generated_Source\PSoC6\pdl\drivers\peripheral\gpio/cy_gpio.h **** *
1147:Generated_Source\PSoC6\pdl\drivers\peripheral\gpio/cy_gpio.h **** * \funcusage
1148:Generated_Source\PSoC6\pdl\drivers\peripheral\gpio/cy_gpio.h **** * \snippet gpio/gpio_v1_10_sut_01.cydsn/main_cm4.c snippet_Cy_GPIO_SetDriveSel
1149:Generated_Source\PSoC6\pdl\drivers\peripheral\gpio/cy_gpio.h **** *
1150:Generated_Source\PSoC6\pdl\drivers\peripheral\gpio/cy_gpio.h **** *******************************************************************************/
1151:Generated_Source\PSoC6\pdl\drivers\peripheral\gpio/cy_gpio.h **** __STATIC_INLINE void Cy_GPIO_SetDriveSel(GPIO_PRT_Type* base, uint32_t pinNum, uint32_t value)
1152:Generated_Source\PSoC6\pdl\drivers\peripheral\gpio/cy_gpio.h **** {
1153:Generated_Source\PSoC6\pdl\drivers\peripheral\gpio/cy_gpio.h ****     uint32_t tempReg;
1154:Generated_Source\PSoC6\pdl\drivers\peripheral\gpio/cy_gpio.h ****     uint32_t pinLoc;
1155:Generated_Source\PSoC6\pdl\drivers\peripheral\gpio/cy_gpio.h **** 
1156:Generated_Source\PSoC6\pdl\drivers\peripheral\gpio/cy_gpio.h ****     CY_ASSERT_L2(CY_GPIO_IS_PIN_VALID(pinNum));
1157:Generated_Source\PSoC6\pdl\drivers\peripheral\gpio/cy_gpio.h ****     CY_ASSERT_L2(CY_GPIO_IS_DRIVE_SEL_VALID(value));
1158:Generated_Source\PSoC6\pdl\drivers\peripheral\gpio/cy_gpio.h ****     
1159:Generated_Source\PSoC6\pdl\drivers\peripheral\gpio/cy_gpio.h ****     pinLoc = (uint32_t)(pinNum << 1u) + CY_GPIO_CFG_OUT_DRIVE_OFFSET;
1160:Generated_Source\PSoC6\pdl\drivers\peripheral\gpio/cy_gpio.h ****     tempReg = GPIO_PRT_CFG_OUT(base) & ~(CY_GPIO_CFG_OUT_DRIVE_SEL_MASK << pinLoc);
1161:Generated_Source\PSoC6\pdl\drivers\peripheral\gpio/cy_gpio.h ****     GPIO_PRT_CFG_OUT(base) = tempReg | ((value & CY_GPIO_CFG_OUT_DRIVE_SEL_MASK) << pinLoc);
1162:Generated_Source\PSoC6\pdl\drivers\peripheral\gpio/cy_gpio.h **** }
1163:Generated_Source\PSoC6\pdl\drivers\peripheral\gpio/cy_gpio.h **** 
1164:Generated_Source\PSoC6\pdl\drivers\peripheral\gpio/cy_gpio.h **** 
1165:Generated_Source\PSoC6\pdl\drivers\peripheral\gpio/cy_gpio.h **** /*******************************************************************************
1166:Generated_Source\PSoC6\pdl\drivers\peripheral\gpio/cy_gpio.h **** * Function Name: Cy_GPIO_GetDriveSel
1167:Generated_Source\PSoC6\pdl\drivers\peripheral\gpio/cy_gpio.h **** ****************************************************************************//**
1168:Generated_Source\PSoC6\pdl\drivers\peripheral\gpio/cy_gpio.h **** *
1169:Generated_Source\PSoC6\pdl\drivers\peripheral\gpio/cy_gpio.h **** * Returns the pin output buffer drive strength.
1170:Generated_Source\PSoC6\pdl\drivers\peripheral\gpio/cy_gpio.h **** *
1171:Generated_Source\PSoC6\pdl\drivers\peripheral\gpio/cy_gpio.h **** * \param base
1172:Generated_Source\PSoC6\pdl\drivers\peripheral\gpio/cy_gpio.h **** * Pointer to the pin's port register base address
1173:Generated_Source\PSoC6\pdl\drivers\peripheral\gpio/cy_gpio.h **** *
1174:Generated_Source\PSoC6\pdl\drivers\peripheral\gpio/cy_gpio.h **** * \param pinNum
1175:Generated_Source\PSoC6\pdl\drivers\peripheral\gpio/cy_gpio.h **** * Position of the pin bit-field within the port register
1176:Generated_Source\PSoC6\pdl\drivers\peripheral\gpio/cy_gpio.h **** *
1177:Generated_Source\PSoC6\pdl\drivers\peripheral\gpio/cy_gpio.h **** * \return
1178:Generated_Source\PSoC6\pdl\drivers\peripheral\gpio/cy_gpio.h **** * Pin drive strength. Options are detailed in \ref group_gpio_driveStrength macros
1179:Generated_Source\PSoC6\pdl\drivers\peripheral\gpio/cy_gpio.h **** *
1180:Generated_Source\PSoC6\pdl\drivers\peripheral\gpio/cy_gpio.h **** * \funcusage
1181:Generated_Source\PSoC6\pdl\drivers\peripheral\gpio/cy_gpio.h **** * \snippet gpio/gpio_v1_10_sut_01.cydsn/main_cm4.c snippet_Cy_GPIO_SetDriveSel
1182:Generated_Source\PSoC6\pdl\drivers\peripheral\gpio/cy_gpio.h **** *
1183:Generated_Source\PSoC6\pdl\drivers\peripheral\gpio/cy_gpio.h **** *******************************************************************************/
1184:Generated_Source\PSoC6\pdl\drivers\peripheral\gpio/cy_gpio.h **** __STATIC_INLINE uint32_t Cy_GPIO_GetDriveSel(GPIO_PRT_Type* base, uint32_t pinNum)
1185:Generated_Source\PSoC6\pdl\drivers\peripheral\gpio/cy_gpio.h **** {
1186:Generated_Source\PSoC6\pdl\drivers\peripheral\gpio/cy_gpio.h ****     CY_ASSERT_L2(CY_GPIO_IS_PIN_VALID(pinNum));
1187:Generated_Source\PSoC6\pdl\drivers\peripheral\gpio/cy_gpio.h **** 
1188:Generated_Source\PSoC6\pdl\drivers\peripheral\gpio/cy_gpio.h ****     return ((GPIO_PRT_CFG_OUT(base) >> ((uint32_t)(pinNum << 1u) + CY_GPIO_CFG_OUT_DRIVE_OFFSET)) 
1189:Generated_Source\PSoC6\pdl\drivers\peripheral\gpio/cy_gpio.h ****             & CY_GPIO_CFG_OUT_DRIVE_SEL_MASK);
1190:Generated_Source\PSoC6\pdl\drivers\peripheral\gpio/cy_gpio.h **** }
1191:Generated_Source\PSoC6\pdl\drivers\peripheral\gpio/cy_gpio.h **** 
1192:Generated_Source\PSoC6\pdl\drivers\peripheral\gpio/cy_gpio.h **** /** \} group_gpio_functions_gpio */
1193:Generated_Source\PSoC6\pdl\drivers\peripheral\gpio/cy_gpio.h **** 
1194:Generated_Source\PSoC6\pdl\drivers\peripheral\gpio/cy_gpio.h **** /**
1195:Generated_Source\PSoC6\pdl\drivers\peripheral\gpio/cy_gpio.h **** * \addtogroup group_gpio_functions_sio
1196:Generated_Source\PSoC6\pdl\drivers\peripheral\gpio/cy_gpio.h **** * \{
1197:Generated_Source\PSoC6\pdl\drivers\peripheral\gpio/cy_gpio.h **** */
1198:Generated_Source\PSoC6\pdl\drivers\peripheral\gpio/cy_gpio.h **** 
1199:Generated_Source\PSoC6\pdl\drivers\peripheral\gpio/cy_gpio.h **** /*******************************************************************************
ARM GAS  C:\Users\cmila\AppData\Local\Temp\ccgUIjp6.s 			page 27


1200:Generated_Source\PSoC6\pdl\drivers\peripheral\gpio/cy_gpio.h **** * Function Name: Cy_GPIO_SetVregEn
1201:Generated_Source\PSoC6\pdl\drivers\peripheral\gpio/cy_gpio.h **** ****************************************************************************//**
1202:Generated_Source\PSoC6\pdl\drivers\peripheral\gpio/cy_gpio.h **** *
1203:Generated_Source\PSoC6\pdl\drivers\peripheral\gpio/cy_gpio.h **** * Configures the SIO pin pair output buffer regulation mode.
1204:Generated_Source\PSoC6\pdl\drivers\peripheral\gpio/cy_gpio.h **** *
1205:Generated_Source\PSoC6\pdl\drivers\peripheral\gpio/cy_gpio.h **** * Note that this function has no effect on non-SIO pins.
1206:Generated_Source\PSoC6\pdl\drivers\peripheral\gpio/cy_gpio.h **** *
1207:Generated_Source\PSoC6\pdl\drivers\peripheral\gpio/cy_gpio.h **** * \param base
1208:Generated_Source\PSoC6\pdl\drivers\peripheral\gpio/cy_gpio.h **** * Pointer to the pin's port register base address
1209:Generated_Source\PSoC6\pdl\drivers\peripheral\gpio/cy_gpio.h **** *
1210:Generated_Source\PSoC6\pdl\drivers\peripheral\gpio/cy_gpio.h **** * \param pinNum
1211:Generated_Source\PSoC6\pdl\drivers\peripheral\gpio/cy_gpio.h **** * Position of the pin bit-field within the port register
1212:Generated_Source\PSoC6\pdl\drivers\peripheral\gpio/cy_gpio.h **** *
1213:Generated_Source\PSoC6\pdl\drivers\peripheral\gpio/cy_gpio.h **** * \param value
1214:Generated_Source\PSoC6\pdl\drivers\peripheral\gpio/cy_gpio.h **** * SIO pair output buffer regulator mode. Options are detailed in \ref group_gpio_sioVreg macros
1215:Generated_Source\PSoC6\pdl\drivers\peripheral\gpio/cy_gpio.h **** *
1216:Generated_Source\PSoC6\pdl\drivers\peripheral\gpio/cy_gpio.h **** * \note 
1217:Generated_Source\PSoC6\pdl\drivers\peripheral\gpio/cy_gpio.h **** * This function modifies a port register in a read-modify-write operation. It is
1218:Generated_Source\PSoC6\pdl\drivers\peripheral\gpio/cy_gpio.h **** * not thread safe as the resource is shared among multiple pins on a port.
1219:Generated_Source\PSoC6\pdl\drivers\peripheral\gpio/cy_gpio.h **** *
1220:Generated_Source\PSoC6\pdl\drivers\peripheral\gpio/cy_gpio.h **** * \funcusage
1221:Generated_Source\PSoC6\pdl\drivers\peripheral\gpio/cy_gpio.h **** * \snippet gpio/gpio_v1_10_sut_01.cydsn/main_cm4.c snippet_Cy_GPIO_SetVregEn
1222:Generated_Source\PSoC6\pdl\drivers\peripheral\gpio/cy_gpio.h **** *
1223:Generated_Source\PSoC6\pdl\drivers\peripheral\gpio/cy_gpio.h **** *******************************************************************************/
1224:Generated_Source\PSoC6\pdl\drivers\peripheral\gpio/cy_gpio.h **** __STATIC_INLINE void Cy_GPIO_SetVregEn(GPIO_PRT_Type* base, uint32_t pinNum, uint32_t value)
1225:Generated_Source\PSoC6\pdl\drivers\peripheral\gpio/cy_gpio.h **** {
1226:Generated_Source\PSoC6\pdl\drivers\peripheral\gpio/cy_gpio.h ****     uint32_t tempReg;
1227:Generated_Source\PSoC6\pdl\drivers\peripheral\gpio/cy_gpio.h ****     uint32_t pinLoc;
1228:Generated_Source\PSoC6\pdl\drivers\peripheral\gpio/cy_gpio.h **** 
1229:Generated_Source\PSoC6\pdl\drivers\peripheral\gpio/cy_gpio.h ****     CY_ASSERT_L2(CY_GPIO_IS_PIN_VALID(pinNum));
1230:Generated_Source\PSoC6\pdl\drivers\peripheral\gpio/cy_gpio.h ****     CY_ASSERT_L2(CY_GPIO_IS_VALUE_VALID(value));
1231:Generated_Source\PSoC6\pdl\drivers\peripheral\gpio/cy_gpio.h **** 
1232:Generated_Source\PSoC6\pdl\drivers\peripheral\gpio/cy_gpio.h ****     pinLoc = (pinNum & CY_GPIO_SIO_ODD_PIN_MASK) << CY_GPIO_CFG_SIO_OFFSET;
1233:Generated_Source\PSoC6\pdl\drivers\peripheral\gpio/cy_gpio.h ****     tempReg = GPIO_PRT_CFG_SIO(base) & ~(CY_GPIO_VREG_EN_MASK << pinLoc);
1234:Generated_Source\PSoC6\pdl\drivers\peripheral\gpio/cy_gpio.h ****     GPIO_PRT_CFG_SIO(base) = tempReg | ((value & CY_GPIO_VREG_EN_MASK) << pinLoc);
1235:Generated_Source\PSoC6\pdl\drivers\peripheral\gpio/cy_gpio.h **** }
1236:Generated_Source\PSoC6\pdl\drivers\peripheral\gpio/cy_gpio.h **** 
1237:Generated_Source\PSoC6\pdl\drivers\peripheral\gpio/cy_gpio.h **** 
1238:Generated_Source\PSoC6\pdl\drivers\peripheral\gpio/cy_gpio.h **** /*******************************************************************************
1239:Generated_Source\PSoC6\pdl\drivers\peripheral\gpio/cy_gpio.h **** * Function Name: Cy_GPIO_GetVregEn
1240:Generated_Source\PSoC6\pdl\drivers\peripheral\gpio/cy_gpio.h **** ****************************************************************************//**
1241:Generated_Source\PSoC6\pdl\drivers\peripheral\gpio/cy_gpio.h **** *
1242:Generated_Source\PSoC6\pdl\drivers\peripheral\gpio/cy_gpio.h **** * Returns the SIO pin pair output buffer regulation mode.
1243:Generated_Source\PSoC6\pdl\drivers\peripheral\gpio/cy_gpio.h **** *
1244:Generated_Source\PSoC6\pdl\drivers\peripheral\gpio/cy_gpio.h **** * Note that this function has no effect on non-SIO pins.
1245:Generated_Source\PSoC6\pdl\drivers\peripheral\gpio/cy_gpio.h **** *
1246:Generated_Source\PSoC6\pdl\drivers\peripheral\gpio/cy_gpio.h **** * \param base
1247:Generated_Source\PSoC6\pdl\drivers\peripheral\gpio/cy_gpio.h **** * Pointer to the pin's port register base address
1248:Generated_Source\PSoC6\pdl\drivers\peripheral\gpio/cy_gpio.h **** *
1249:Generated_Source\PSoC6\pdl\drivers\peripheral\gpio/cy_gpio.h **** * \param pinNum
1250:Generated_Source\PSoC6\pdl\drivers\peripheral\gpio/cy_gpio.h **** * Position of the pin bit-field within the port register
1251:Generated_Source\PSoC6\pdl\drivers\peripheral\gpio/cy_gpio.h **** *
1252:Generated_Source\PSoC6\pdl\drivers\peripheral\gpio/cy_gpio.h **** * \return
1253:Generated_Source\PSoC6\pdl\drivers\peripheral\gpio/cy_gpio.h **** * SIO pair output buffer regulator mode. Options are detailed in \ref group_gpio_sioVreg macros
1254:Generated_Source\PSoC6\pdl\drivers\peripheral\gpio/cy_gpio.h **** *
1255:Generated_Source\PSoC6\pdl\drivers\peripheral\gpio/cy_gpio.h **** * \funcusage
1256:Generated_Source\PSoC6\pdl\drivers\peripheral\gpio/cy_gpio.h **** * \snippet gpio/gpio_v1_10_sut_01.cydsn/main_cm4.c snippet_Cy_GPIO_SetVregEn
ARM GAS  C:\Users\cmila\AppData\Local\Temp\ccgUIjp6.s 			page 28


1257:Generated_Source\PSoC6\pdl\drivers\peripheral\gpio/cy_gpio.h **** *
1258:Generated_Source\PSoC6\pdl\drivers\peripheral\gpio/cy_gpio.h **** *******************************************************************************/
1259:Generated_Source\PSoC6\pdl\drivers\peripheral\gpio/cy_gpio.h **** __STATIC_INLINE uint32_t Cy_GPIO_GetVregEn(GPIO_PRT_Type* base, uint32_t pinNum)
1260:Generated_Source\PSoC6\pdl\drivers\peripheral\gpio/cy_gpio.h **** {
1261:Generated_Source\PSoC6\pdl\drivers\peripheral\gpio/cy_gpio.h ****     CY_ASSERT_L2(CY_GPIO_IS_PIN_VALID(pinNum));
1262:Generated_Source\PSoC6\pdl\drivers\peripheral\gpio/cy_gpio.h ****     
1263:Generated_Source\PSoC6\pdl\drivers\peripheral\gpio/cy_gpio.h ****     return (GPIO_PRT_CFG_SIO(base) >> ((pinNum & CY_GPIO_SIO_ODD_PIN_MASK) << CY_GPIO_CFG_SIO_OFFSE
1264:Generated_Source\PSoC6\pdl\drivers\peripheral\gpio/cy_gpio.h **** }
1265:Generated_Source\PSoC6\pdl\drivers\peripheral\gpio/cy_gpio.h **** 
1266:Generated_Source\PSoC6\pdl\drivers\peripheral\gpio/cy_gpio.h **** 
1267:Generated_Source\PSoC6\pdl\drivers\peripheral\gpio/cy_gpio.h **** /*******************************************************************************
1268:Generated_Source\PSoC6\pdl\drivers\peripheral\gpio/cy_gpio.h **** * Function Name: Cy_GPIO_SetIbufMode
1269:Generated_Source\PSoC6\pdl\drivers\peripheral\gpio/cy_gpio.h **** ****************************************************************************//**
1270:Generated_Source\PSoC6\pdl\drivers\peripheral\gpio/cy_gpio.h **** *
1271:Generated_Source\PSoC6\pdl\drivers\peripheral\gpio/cy_gpio.h **** * Configures the SIO pin pair input buffer mode.
1272:Generated_Source\PSoC6\pdl\drivers\peripheral\gpio/cy_gpio.h **** *
1273:Generated_Source\PSoC6\pdl\drivers\peripheral\gpio/cy_gpio.h **** * Note that this function has no effect on non-SIO pins.
1274:Generated_Source\PSoC6\pdl\drivers\peripheral\gpio/cy_gpio.h **** *
1275:Generated_Source\PSoC6\pdl\drivers\peripheral\gpio/cy_gpio.h **** * \param base
1276:Generated_Source\PSoC6\pdl\drivers\peripheral\gpio/cy_gpio.h **** * Pointer to the pin's port register base address
1277:Generated_Source\PSoC6\pdl\drivers\peripheral\gpio/cy_gpio.h **** *
1278:Generated_Source\PSoC6\pdl\drivers\peripheral\gpio/cy_gpio.h **** * \param pinNum
1279:Generated_Source\PSoC6\pdl\drivers\peripheral\gpio/cy_gpio.h **** * Position of the pin bit-field within the port register
1280:Generated_Source\PSoC6\pdl\drivers\peripheral\gpio/cy_gpio.h **** *
1281:Generated_Source\PSoC6\pdl\drivers\peripheral\gpio/cy_gpio.h **** * \param value
1282:Generated_Source\PSoC6\pdl\drivers\peripheral\gpio/cy_gpio.h **** * SIO pair input buffer mode. Options are detailed in \ref group_gpio_sioIbuf macros
1283:Generated_Source\PSoC6\pdl\drivers\peripheral\gpio/cy_gpio.h **** *
1284:Generated_Source\PSoC6\pdl\drivers\peripheral\gpio/cy_gpio.h **** * \note 
1285:Generated_Source\PSoC6\pdl\drivers\peripheral\gpio/cy_gpio.h **** * This function modifies a port register in a read-modify-write operation. It is
1286:Generated_Source\PSoC6\pdl\drivers\peripheral\gpio/cy_gpio.h **** * not thread safe as the resource is shared among multiple pins on a port.
1287:Generated_Source\PSoC6\pdl\drivers\peripheral\gpio/cy_gpio.h **** *
1288:Generated_Source\PSoC6\pdl\drivers\peripheral\gpio/cy_gpio.h **** * \funcusage
1289:Generated_Source\PSoC6\pdl\drivers\peripheral\gpio/cy_gpio.h **** * \snippet gpio/gpio_v1_10_sut_01.cydsn/main_cm4.c snippet_Cy_GPIO_SetIbufMode
1290:Generated_Source\PSoC6\pdl\drivers\peripheral\gpio/cy_gpio.h **** *
1291:Generated_Source\PSoC6\pdl\drivers\peripheral\gpio/cy_gpio.h **** *******************************************************************************/
1292:Generated_Source\PSoC6\pdl\drivers\peripheral\gpio/cy_gpio.h **** __STATIC_INLINE void Cy_GPIO_SetIbufMode(GPIO_PRT_Type* base, uint32_t pinNum, uint32_t value)
1293:Generated_Source\PSoC6\pdl\drivers\peripheral\gpio/cy_gpio.h **** {
1294:Generated_Source\PSoC6\pdl\drivers\peripheral\gpio/cy_gpio.h ****     uint32_t tempReg;
1295:Generated_Source\PSoC6\pdl\drivers\peripheral\gpio/cy_gpio.h ****     uint32_t pinLoc;
1296:Generated_Source\PSoC6\pdl\drivers\peripheral\gpio/cy_gpio.h **** 
1297:Generated_Source\PSoC6\pdl\drivers\peripheral\gpio/cy_gpio.h ****     CY_ASSERT_L2(CY_GPIO_IS_PIN_VALID(pinNum));
1298:Generated_Source\PSoC6\pdl\drivers\peripheral\gpio/cy_gpio.h ****     CY_ASSERT_L2(CY_GPIO_IS_VALUE_VALID(value));
1299:Generated_Source\PSoC6\pdl\drivers\peripheral\gpio/cy_gpio.h **** 
1300:Generated_Source\PSoC6\pdl\drivers\peripheral\gpio/cy_gpio.h ****     pinLoc = ((pinNum & CY_GPIO_SIO_ODD_PIN_MASK) << CY_GPIO_CFG_SIO_OFFSET) + CY_GPIO_IBUF_SHIFT;
1301:Generated_Source\PSoC6\pdl\drivers\peripheral\gpio/cy_gpio.h ****     tempReg = (GPIO_PRT_CFG_SIO(base) & ~(CY_GPIO_IBUF_MASK << pinLoc));
1302:Generated_Source\PSoC6\pdl\drivers\peripheral\gpio/cy_gpio.h ****     GPIO_PRT_CFG_SIO(base) = tempReg | ((value & CY_GPIO_IBUF_MASK) << pinLoc);
1303:Generated_Source\PSoC6\pdl\drivers\peripheral\gpio/cy_gpio.h **** }
1304:Generated_Source\PSoC6\pdl\drivers\peripheral\gpio/cy_gpio.h **** 
1305:Generated_Source\PSoC6\pdl\drivers\peripheral\gpio/cy_gpio.h **** 
1306:Generated_Source\PSoC6\pdl\drivers\peripheral\gpio/cy_gpio.h **** /*******************************************************************************
1307:Generated_Source\PSoC6\pdl\drivers\peripheral\gpio/cy_gpio.h **** * Function Name: Cy_GPIO_GetIbufMode
1308:Generated_Source\PSoC6\pdl\drivers\peripheral\gpio/cy_gpio.h **** ****************************************************************************//**
1309:Generated_Source\PSoC6\pdl\drivers\peripheral\gpio/cy_gpio.h **** *
1310:Generated_Source\PSoC6\pdl\drivers\peripheral\gpio/cy_gpio.h **** * Returns the SIO pin pair input buffer mode.
1311:Generated_Source\PSoC6\pdl\drivers\peripheral\gpio/cy_gpio.h **** *
1312:Generated_Source\PSoC6\pdl\drivers\peripheral\gpio/cy_gpio.h **** * Note that this function has no effect on non-SIO pins.
1313:Generated_Source\PSoC6\pdl\drivers\peripheral\gpio/cy_gpio.h **** *
ARM GAS  C:\Users\cmila\AppData\Local\Temp\ccgUIjp6.s 			page 29


1314:Generated_Source\PSoC6\pdl\drivers\peripheral\gpio/cy_gpio.h **** * \param base
1315:Generated_Source\PSoC6\pdl\drivers\peripheral\gpio/cy_gpio.h **** * Pointer to the pin's port register base address
1316:Generated_Source\PSoC6\pdl\drivers\peripheral\gpio/cy_gpio.h **** *
1317:Generated_Source\PSoC6\pdl\drivers\peripheral\gpio/cy_gpio.h **** * \param pinNum
1318:Generated_Source\PSoC6\pdl\drivers\peripheral\gpio/cy_gpio.h **** * Position of the pin bit-field within the port register
1319:Generated_Source\PSoC6\pdl\drivers\peripheral\gpio/cy_gpio.h **** *
1320:Generated_Source\PSoC6\pdl\drivers\peripheral\gpio/cy_gpio.h **** * \return
1321:Generated_Source\PSoC6\pdl\drivers\peripheral\gpio/cy_gpio.h **** * SIO pair input buffer mode. Options are detailed in \ref group_gpio_sioIbuf macros
1322:Generated_Source\PSoC6\pdl\drivers\peripheral\gpio/cy_gpio.h **** *
1323:Generated_Source\PSoC6\pdl\drivers\peripheral\gpio/cy_gpio.h **** * \funcusage
1324:Generated_Source\PSoC6\pdl\drivers\peripheral\gpio/cy_gpio.h **** * \snippet gpio/gpio_v1_10_sut_01.cydsn/main_cm4.c snippet_Cy_GPIO_SetIbufMode
1325:Generated_Source\PSoC6\pdl\drivers\peripheral\gpio/cy_gpio.h **** *
1326:Generated_Source\PSoC6\pdl\drivers\peripheral\gpio/cy_gpio.h **** *******************************************************************************/
1327:Generated_Source\PSoC6\pdl\drivers\peripheral\gpio/cy_gpio.h **** __STATIC_INLINE uint32_t Cy_GPIO_GetIbufMode(GPIO_PRT_Type* base, uint32_t pinNum)
1328:Generated_Source\PSoC6\pdl\drivers\peripheral\gpio/cy_gpio.h **** {
1329:Generated_Source\PSoC6\pdl\drivers\peripheral\gpio/cy_gpio.h ****     CY_ASSERT_L2(CY_GPIO_IS_PIN_VALID(pinNum));
1330:Generated_Source\PSoC6\pdl\drivers\peripheral\gpio/cy_gpio.h ****     
1331:Generated_Source\PSoC6\pdl\drivers\peripheral\gpio/cy_gpio.h ****     return (GPIO_PRT_CFG_SIO(base) >> (((pinNum & CY_GPIO_SIO_ODD_PIN_MASK) << CY_GPIO_CFG_SIO_OFFS
1332:Generated_Source\PSoC6\pdl\drivers\peripheral\gpio/cy_gpio.h **** }
1333:Generated_Source\PSoC6\pdl\drivers\peripheral\gpio/cy_gpio.h **** 
1334:Generated_Source\PSoC6\pdl\drivers\peripheral\gpio/cy_gpio.h **** 
1335:Generated_Source\PSoC6\pdl\drivers\peripheral\gpio/cy_gpio.h **** /*******************************************************************************
1336:Generated_Source\PSoC6\pdl\drivers\peripheral\gpio/cy_gpio.h **** * Function Name: Cy_GPIO_SetVtripSel
1337:Generated_Source\PSoC6\pdl\drivers\peripheral\gpio/cy_gpio.h **** ****************************************************************************//**
1338:Generated_Source\PSoC6\pdl\drivers\peripheral\gpio/cy_gpio.h **** *
1339:Generated_Source\PSoC6\pdl\drivers\peripheral\gpio/cy_gpio.h **** * Configures the SIO pin pair input buffer trip point.
1340:Generated_Source\PSoC6\pdl\drivers\peripheral\gpio/cy_gpio.h **** *
1341:Generated_Source\PSoC6\pdl\drivers\peripheral\gpio/cy_gpio.h **** * Note that this function has no effect on non-SIO pins.
1342:Generated_Source\PSoC6\pdl\drivers\peripheral\gpio/cy_gpio.h **** *
1343:Generated_Source\PSoC6\pdl\drivers\peripheral\gpio/cy_gpio.h **** * \param base
1344:Generated_Source\PSoC6\pdl\drivers\peripheral\gpio/cy_gpio.h **** * Pointer to the pin's port register base address
1345:Generated_Source\PSoC6\pdl\drivers\peripheral\gpio/cy_gpio.h **** *
1346:Generated_Source\PSoC6\pdl\drivers\peripheral\gpio/cy_gpio.h **** * \param pinNum
1347:Generated_Source\PSoC6\pdl\drivers\peripheral\gpio/cy_gpio.h **** * Position of the pin bit-field within the port register
1348:Generated_Source\PSoC6\pdl\drivers\peripheral\gpio/cy_gpio.h **** *
1349:Generated_Source\PSoC6\pdl\drivers\peripheral\gpio/cy_gpio.h **** * \param value
1350:Generated_Source\PSoC6\pdl\drivers\peripheral\gpio/cy_gpio.h **** * SIO pair input buffer trip point. Options are detailed in \ref group_gpio_sioVtrip macros
1351:Generated_Source\PSoC6\pdl\drivers\peripheral\gpio/cy_gpio.h **** *
1352:Generated_Source\PSoC6\pdl\drivers\peripheral\gpio/cy_gpio.h **** * \note 
1353:Generated_Source\PSoC6\pdl\drivers\peripheral\gpio/cy_gpio.h **** * This function modifies a port register in a read-modify-write operation. It is
1354:Generated_Source\PSoC6\pdl\drivers\peripheral\gpio/cy_gpio.h **** * not thread safe as the resource is shared among multiple pins on a port.
1355:Generated_Source\PSoC6\pdl\drivers\peripheral\gpio/cy_gpio.h **** *
1356:Generated_Source\PSoC6\pdl\drivers\peripheral\gpio/cy_gpio.h **** * \funcusage
1357:Generated_Source\PSoC6\pdl\drivers\peripheral\gpio/cy_gpio.h **** * \snippet gpio/gpio_v1_10_sut_01.cydsn/main_cm4.c snippet_Cy_GPIO_SetVtripSel
1358:Generated_Source\PSoC6\pdl\drivers\peripheral\gpio/cy_gpio.h **** *
1359:Generated_Source\PSoC6\pdl\drivers\peripheral\gpio/cy_gpio.h **** *******************************************************************************/
1360:Generated_Source\PSoC6\pdl\drivers\peripheral\gpio/cy_gpio.h **** __STATIC_INLINE void Cy_GPIO_SetVtripSel(GPIO_PRT_Type* base, uint32_t pinNum, uint32_t value)
1361:Generated_Source\PSoC6\pdl\drivers\peripheral\gpio/cy_gpio.h **** {
1362:Generated_Source\PSoC6\pdl\drivers\peripheral\gpio/cy_gpio.h ****     uint32_t tempReg;
1363:Generated_Source\PSoC6\pdl\drivers\peripheral\gpio/cy_gpio.h ****     uint32_t pinLoc;
1364:Generated_Source\PSoC6\pdl\drivers\peripheral\gpio/cy_gpio.h **** 
1365:Generated_Source\PSoC6\pdl\drivers\peripheral\gpio/cy_gpio.h ****     CY_ASSERT_L2(CY_GPIO_IS_PIN_VALID(pinNum));
1366:Generated_Source\PSoC6\pdl\drivers\peripheral\gpio/cy_gpio.h ****     CY_ASSERT_L2(CY_GPIO_IS_VALUE_VALID(value));
1367:Generated_Source\PSoC6\pdl\drivers\peripheral\gpio/cy_gpio.h **** 
1368:Generated_Source\PSoC6\pdl\drivers\peripheral\gpio/cy_gpio.h ****     pinLoc = ((pinNum & CY_GPIO_SIO_ODD_PIN_MASK) << CY_GPIO_CFG_SIO_OFFSET) + CY_GPIO_VTRIP_SEL_SH
1369:Generated_Source\PSoC6\pdl\drivers\peripheral\gpio/cy_gpio.h ****     tempReg = (GPIO_PRT_CFG_SIO(base) & ~(CY_GPIO_VTRIP_SEL_MASK << pinLoc));
1370:Generated_Source\PSoC6\pdl\drivers\peripheral\gpio/cy_gpio.h ****     GPIO_PRT_CFG_SIO(base) = tempReg | ((value & CY_GPIO_VTRIP_SEL_MASK) << pinLoc);
ARM GAS  C:\Users\cmila\AppData\Local\Temp\ccgUIjp6.s 			page 30


1371:Generated_Source\PSoC6\pdl\drivers\peripheral\gpio/cy_gpio.h **** }
1372:Generated_Source\PSoC6\pdl\drivers\peripheral\gpio/cy_gpio.h **** 
1373:Generated_Source\PSoC6\pdl\drivers\peripheral\gpio/cy_gpio.h **** 
1374:Generated_Source\PSoC6\pdl\drivers\peripheral\gpio/cy_gpio.h **** /*******************************************************************************
1375:Generated_Source\PSoC6\pdl\drivers\peripheral\gpio/cy_gpio.h **** * Function Name: Cy_GPIO_GetVtripSel
1376:Generated_Source\PSoC6\pdl\drivers\peripheral\gpio/cy_gpio.h **** ****************************************************************************//**
1377:Generated_Source\PSoC6\pdl\drivers\peripheral\gpio/cy_gpio.h **** *
1378:Generated_Source\PSoC6\pdl\drivers\peripheral\gpio/cy_gpio.h **** * Returns the SIO pin pair input buffer trip point.
1379:Generated_Source\PSoC6\pdl\drivers\peripheral\gpio/cy_gpio.h **** *
1380:Generated_Source\PSoC6\pdl\drivers\peripheral\gpio/cy_gpio.h **** * Note that this function has no effect on non-SIO pins.
1381:Generated_Source\PSoC6\pdl\drivers\peripheral\gpio/cy_gpio.h **** *
1382:Generated_Source\PSoC6\pdl\drivers\peripheral\gpio/cy_gpio.h **** * \param base
1383:Generated_Source\PSoC6\pdl\drivers\peripheral\gpio/cy_gpio.h **** * Pointer to the pin's port register base address
1384:Generated_Source\PSoC6\pdl\drivers\peripheral\gpio/cy_gpio.h **** *
1385:Generated_Source\PSoC6\pdl\drivers\peripheral\gpio/cy_gpio.h **** * \param pinNum
1386:Generated_Source\PSoC6\pdl\drivers\peripheral\gpio/cy_gpio.h **** * Position of the pin bit-field within the port register
1387:Generated_Source\PSoC6\pdl\drivers\peripheral\gpio/cy_gpio.h **** *
1388:Generated_Source\PSoC6\pdl\drivers\peripheral\gpio/cy_gpio.h **** * \return
1389:Generated_Source\PSoC6\pdl\drivers\peripheral\gpio/cy_gpio.h **** * SIO pair input buffer trip point. Options are detailed in \ref group_gpio_sioVtrip macros
1390:Generated_Source\PSoC6\pdl\drivers\peripheral\gpio/cy_gpio.h **** *
1391:Generated_Source\PSoC6\pdl\drivers\peripheral\gpio/cy_gpio.h **** * \funcusage
1392:Generated_Source\PSoC6\pdl\drivers\peripheral\gpio/cy_gpio.h **** * \snippet gpio/gpio_v1_10_sut_01.cydsn/main_cm4.c snippet_Cy_GPIO_SetVtripSel
1393:Generated_Source\PSoC6\pdl\drivers\peripheral\gpio/cy_gpio.h **** *
1394:Generated_Source\PSoC6\pdl\drivers\peripheral\gpio/cy_gpio.h **** *******************************************************************************/
1395:Generated_Source\PSoC6\pdl\drivers\peripheral\gpio/cy_gpio.h **** __STATIC_INLINE uint32_t Cy_GPIO_GetVtripSel(GPIO_PRT_Type* base, uint32_t pinNum)
1396:Generated_Source\PSoC6\pdl\drivers\peripheral\gpio/cy_gpio.h **** {
1397:Generated_Source\PSoC6\pdl\drivers\peripheral\gpio/cy_gpio.h ****     CY_ASSERT_L2(CY_GPIO_IS_PIN_VALID(pinNum));
1398:Generated_Source\PSoC6\pdl\drivers\peripheral\gpio/cy_gpio.h **** 
1399:Generated_Source\PSoC6\pdl\drivers\peripheral\gpio/cy_gpio.h ****     return (GPIO_PRT_CFG_SIO(base) >> (((pinNum & CY_GPIO_SIO_ODD_PIN_MASK) << CY_GPIO_CFG_SIO_OFFS
1400:Generated_Source\PSoC6\pdl\drivers\peripheral\gpio/cy_gpio.h **** }
1401:Generated_Source\PSoC6\pdl\drivers\peripheral\gpio/cy_gpio.h **** 
1402:Generated_Source\PSoC6\pdl\drivers\peripheral\gpio/cy_gpio.h **** 
1403:Generated_Source\PSoC6\pdl\drivers\peripheral\gpio/cy_gpio.h **** /*******************************************************************************
1404:Generated_Source\PSoC6\pdl\drivers\peripheral\gpio/cy_gpio.h **** * Function Name: Cy_GPIO_SetVrefSel
1405:Generated_Source\PSoC6\pdl\drivers\peripheral\gpio/cy_gpio.h **** ****************************************************************************//**
1406:Generated_Source\PSoC6\pdl\drivers\peripheral\gpio/cy_gpio.h **** *
1407:Generated_Source\PSoC6\pdl\drivers\peripheral\gpio/cy_gpio.h **** * Configures the SIO reference voltage for the input buffer trip point.
1408:Generated_Source\PSoC6\pdl\drivers\peripheral\gpio/cy_gpio.h **** *
1409:Generated_Source\PSoC6\pdl\drivers\peripheral\gpio/cy_gpio.h **** * Note that this function has no effect on non-SIO pins.
1410:Generated_Source\PSoC6\pdl\drivers\peripheral\gpio/cy_gpio.h **** *
1411:Generated_Source\PSoC6\pdl\drivers\peripheral\gpio/cy_gpio.h **** * \param base
1412:Generated_Source\PSoC6\pdl\drivers\peripheral\gpio/cy_gpio.h **** * Pointer to the pin's port register base address
1413:Generated_Source\PSoC6\pdl\drivers\peripheral\gpio/cy_gpio.h **** *
1414:Generated_Source\PSoC6\pdl\drivers\peripheral\gpio/cy_gpio.h **** * \param pinNum
1415:Generated_Source\PSoC6\pdl\drivers\peripheral\gpio/cy_gpio.h **** * Position of the pin bit-field within the port register
1416:Generated_Source\PSoC6\pdl\drivers\peripheral\gpio/cy_gpio.h **** *
1417:Generated_Source\PSoC6\pdl\drivers\peripheral\gpio/cy_gpio.h **** * \param value
1418:Generated_Source\PSoC6\pdl\drivers\peripheral\gpio/cy_gpio.h **** * SIO pair reference voltage. Options are detailed in \ref group_gpio_sioVref macros
1419:Generated_Source\PSoC6\pdl\drivers\peripheral\gpio/cy_gpio.h **** *
1420:Generated_Source\PSoC6\pdl\drivers\peripheral\gpio/cy_gpio.h **** * \note 
1421:Generated_Source\PSoC6\pdl\drivers\peripheral\gpio/cy_gpio.h **** * This function modifies a port register in a read-modify-write operation. It is
1422:Generated_Source\PSoC6\pdl\drivers\peripheral\gpio/cy_gpio.h **** * not thread safe as the resource is shared among multiple pins on a port.
1423:Generated_Source\PSoC6\pdl\drivers\peripheral\gpio/cy_gpio.h **** *
1424:Generated_Source\PSoC6\pdl\drivers\peripheral\gpio/cy_gpio.h **** * \funcusage
1425:Generated_Source\PSoC6\pdl\drivers\peripheral\gpio/cy_gpio.h **** * \snippet gpio/gpio_v1_10_sut_01.cydsn/main_cm4.c snippet_Cy_GPIO_SetVrefSel
1426:Generated_Source\PSoC6\pdl\drivers\peripheral\gpio/cy_gpio.h **** *
1427:Generated_Source\PSoC6\pdl\drivers\peripheral\gpio/cy_gpio.h **** *******************************************************************************/
ARM GAS  C:\Users\cmila\AppData\Local\Temp\ccgUIjp6.s 			page 31


1428:Generated_Source\PSoC6\pdl\drivers\peripheral\gpio/cy_gpio.h **** __STATIC_INLINE void Cy_GPIO_SetVrefSel(GPIO_PRT_Type* base, uint32_t pinNum, uint32_t value)
1429:Generated_Source\PSoC6\pdl\drivers\peripheral\gpio/cy_gpio.h **** {
1430:Generated_Source\PSoC6\pdl\drivers\peripheral\gpio/cy_gpio.h ****     uint32_t tempReg;
1431:Generated_Source\PSoC6\pdl\drivers\peripheral\gpio/cy_gpio.h ****     uint32_t pinLoc;
1432:Generated_Source\PSoC6\pdl\drivers\peripheral\gpio/cy_gpio.h **** 
1433:Generated_Source\PSoC6\pdl\drivers\peripheral\gpio/cy_gpio.h ****     CY_ASSERT_L2(CY_GPIO_IS_PIN_VALID(pinNum));
1434:Generated_Source\PSoC6\pdl\drivers\peripheral\gpio/cy_gpio.h ****     CY_ASSERT_L2(CY_GPIO_IS_VREF_SEL_VALID(value));
1435:Generated_Source\PSoC6\pdl\drivers\peripheral\gpio/cy_gpio.h ****     
1436:Generated_Source\PSoC6\pdl\drivers\peripheral\gpio/cy_gpio.h ****     pinLoc = ((pinNum & CY_GPIO_SIO_ODD_PIN_MASK) << CY_GPIO_CFG_SIO_OFFSET) + CY_GPIO_VREF_SEL_SHI
1437:Generated_Source\PSoC6\pdl\drivers\peripheral\gpio/cy_gpio.h ****     tempReg = (GPIO_PRT_CFG_SIO(base) & ~(CY_GPIO_VREF_SEL_MASK << pinLoc));
1438:Generated_Source\PSoC6\pdl\drivers\peripheral\gpio/cy_gpio.h ****     GPIO_PRT_CFG_SIO(base) = tempReg | ((value & CY_GPIO_VREF_SEL_MASK) << pinLoc);
1439:Generated_Source\PSoC6\pdl\drivers\peripheral\gpio/cy_gpio.h **** }
1440:Generated_Source\PSoC6\pdl\drivers\peripheral\gpio/cy_gpio.h **** 
1441:Generated_Source\PSoC6\pdl\drivers\peripheral\gpio/cy_gpio.h **** 
1442:Generated_Source\PSoC6\pdl\drivers\peripheral\gpio/cy_gpio.h **** /*******************************************************************************
1443:Generated_Source\PSoC6\pdl\drivers\peripheral\gpio/cy_gpio.h **** * Function Name: Cy_GPIO_GetVrefSel
1444:Generated_Source\PSoC6\pdl\drivers\peripheral\gpio/cy_gpio.h **** ****************************************************************************//**
1445:Generated_Source\PSoC6\pdl\drivers\peripheral\gpio/cy_gpio.h **** *
1446:Generated_Source\PSoC6\pdl\drivers\peripheral\gpio/cy_gpio.h **** * Returns the SIO reference voltage for the input buffer trip point.
1447:Generated_Source\PSoC6\pdl\drivers\peripheral\gpio/cy_gpio.h **** *
1448:Generated_Source\PSoC6\pdl\drivers\peripheral\gpio/cy_gpio.h **** * Note that this function has no effect on non-SIO pins.
1449:Generated_Source\PSoC6\pdl\drivers\peripheral\gpio/cy_gpio.h **** *
1450:Generated_Source\PSoC6\pdl\drivers\peripheral\gpio/cy_gpio.h **** * \param base
1451:Generated_Source\PSoC6\pdl\drivers\peripheral\gpio/cy_gpio.h **** * Pointer to the pin's port register base address
1452:Generated_Source\PSoC6\pdl\drivers\peripheral\gpio/cy_gpio.h **** *
1453:Generated_Source\PSoC6\pdl\drivers\peripheral\gpio/cy_gpio.h **** * \param pinNum
1454:Generated_Source\PSoC6\pdl\drivers\peripheral\gpio/cy_gpio.h **** * Position of the pin bit-field within the port register
1455:Generated_Source\PSoC6\pdl\drivers\peripheral\gpio/cy_gpio.h **** *
1456:Generated_Source\PSoC6\pdl\drivers\peripheral\gpio/cy_gpio.h **** * \return
1457:Generated_Source\PSoC6\pdl\drivers\peripheral\gpio/cy_gpio.h **** * SIO pair reference voltage. Options are detailed in \ref group_gpio_sioVref macros
1458:Generated_Source\PSoC6\pdl\drivers\peripheral\gpio/cy_gpio.h **** *
1459:Generated_Source\PSoC6\pdl\drivers\peripheral\gpio/cy_gpio.h **** * \funcusage
1460:Generated_Source\PSoC6\pdl\drivers\peripheral\gpio/cy_gpio.h **** * \snippet gpio/gpio_v1_10_sut_01.cydsn/main_cm4.c snippet_Cy_GPIO_SetVrefSel
1461:Generated_Source\PSoC6\pdl\drivers\peripheral\gpio/cy_gpio.h **** *
1462:Generated_Source\PSoC6\pdl\drivers\peripheral\gpio/cy_gpio.h **** *******************************************************************************/
1463:Generated_Source\PSoC6\pdl\drivers\peripheral\gpio/cy_gpio.h **** __STATIC_INLINE uint32_t Cy_GPIO_GetVrefSel(GPIO_PRT_Type* base, uint32_t pinNum)
1464:Generated_Source\PSoC6\pdl\drivers\peripheral\gpio/cy_gpio.h **** {
1465:Generated_Source\PSoC6\pdl\drivers\peripheral\gpio/cy_gpio.h ****     CY_ASSERT_L2(CY_GPIO_IS_PIN_VALID(pinNum));
1466:Generated_Source\PSoC6\pdl\drivers\peripheral\gpio/cy_gpio.h ****     
1467:Generated_Source\PSoC6\pdl\drivers\peripheral\gpio/cy_gpio.h ****     return (GPIO_PRT_CFG_SIO(base) >> (((pinNum & CY_GPIO_SIO_ODD_PIN_MASK) << CY_GPIO_CFG_SIO_OFFS
1468:Generated_Source\PSoC6\pdl\drivers\peripheral\gpio/cy_gpio.h **** }
1469:Generated_Source\PSoC6\pdl\drivers\peripheral\gpio/cy_gpio.h **** 
1470:Generated_Source\PSoC6\pdl\drivers\peripheral\gpio/cy_gpio.h **** 
1471:Generated_Source\PSoC6\pdl\drivers\peripheral\gpio/cy_gpio.h **** /*******************************************************************************
1472:Generated_Source\PSoC6\pdl\drivers\peripheral\gpio/cy_gpio.h **** * Function Name: Cy_GPIO_SetVohSel
1473:Generated_Source\PSoC6\pdl\drivers\peripheral\gpio/cy_gpio.h **** ****************************************************************************//**
1474:Generated_Source\PSoC6\pdl\drivers\peripheral\gpio/cy_gpio.h **** *
1475:Generated_Source\PSoC6\pdl\drivers\peripheral\gpio/cy_gpio.h **** * Configures the regulated output reference multiplier for the SIO pin pair.
1476:Generated_Source\PSoC6\pdl\drivers\peripheral\gpio/cy_gpio.h **** *
1477:Generated_Source\PSoC6\pdl\drivers\peripheral\gpio/cy_gpio.h **** * The regulated output reference controls both the output level of digital output
1478:Generated_Source\PSoC6\pdl\drivers\peripheral\gpio/cy_gpio.h **** * pin and the input trip point of digital input pin in the SIO pair.
1479:Generated_Source\PSoC6\pdl\drivers\peripheral\gpio/cy_gpio.h **** *
1480:Generated_Source\PSoC6\pdl\drivers\peripheral\gpio/cy_gpio.h **** * Note that this function has no effect on non-SIO pins.
1481:Generated_Source\PSoC6\pdl\drivers\peripheral\gpio/cy_gpio.h **** *
1482:Generated_Source\PSoC6\pdl\drivers\peripheral\gpio/cy_gpio.h **** * \param base
1483:Generated_Source\PSoC6\pdl\drivers\peripheral\gpio/cy_gpio.h **** * Pointer to the pin's port register base address
1484:Generated_Source\PSoC6\pdl\drivers\peripheral\gpio/cy_gpio.h **** *
ARM GAS  C:\Users\cmila\AppData\Local\Temp\ccgUIjp6.s 			page 32


1485:Generated_Source\PSoC6\pdl\drivers\peripheral\gpio/cy_gpio.h **** * \param pinNum
1486:Generated_Source\PSoC6\pdl\drivers\peripheral\gpio/cy_gpio.h **** * Position of the pin bit-field within the port register
1487:Generated_Source\PSoC6\pdl\drivers\peripheral\gpio/cy_gpio.h **** *
1488:Generated_Source\PSoC6\pdl\drivers\peripheral\gpio/cy_gpio.h **** * \param value
1489:Generated_Source\PSoC6\pdl\drivers\peripheral\gpio/cy_gpio.h **** * SIO pair reference voltage. Options are detailed in \ref group_gpio_sioVoh macros
1490:Generated_Source\PSoC6\pdl\drivers\peripheral\gpio/cy_gpio.h **** *
1491:Generated_Source\PSoC6\pdl\drivers\peripheral\gpio/cy_gpio.h **** * \note 
1492:Generated_Source\PSoC6\pdl\drivers\peripheral\gpio/cy_gpio.h **** * This function modifies a port register in a read-modify-write operation. It is
1493:Generated_Source\PSoC6\pdl\drivers\peripheral\gpio/cy_gpio.h **** * not thread safe as the resource is shared among multiple pins on a port.
1494:Generated_Source\PSoC6\pdl\drivers\peripheral\gpio/cy_gpio.h **** *
1495:Generated_Source\PSoC6\pdl\drivers\peripheral\gpio/cy_gpio.h **** * \funcusage
1496:Generated_Source\PSoC6\pdl\drivers\peripheral\gpio/cy_gpio.h **** * \snippet gpio/gpio_v1_10_sut_01.cydsn/main_cm4.c snippet_Cy_GPIO_SetVohSel
1497:Generated_Source\PSoC6\pdl\drivers\peripheral\gpio/cy_gpio.h **** *
1498:Generated_Source\PSoC6\pdl\drivers\peripheral\gpio/cy_gpio.h **** *******************************************************************************/
1499:Generated_Source\PSoC6\pdl\drivers\peripheral\gpio/cy_gpio.h **** __STATIC_INLINE void Cy_GPIO_SetVohSel(GPIO_PRT_Type* base, uint32_t pinNum, uint32_t value)
1500:Generated_Source\PSoC6\pdl\drivers\peripheral\gpio/cy_gpio.h **** {
1501:Generated_Source\PSoC6\pdl\drivers\peripheral\gpio/cy_gpio.h ****     uint32_t tempReg;
1502:Generated_Source\PSoC6\pdl\drivers\peripheral\gpio/cy_gpio.h ****     uint32_t pinLoc;
1503:Generated_Source\PSoC6\pdl\drivers\peripheral\gpio/cy_gpio.h **** 
1504:Generated_Source\PSoC6\pdl\drivers\peripheral\gpio/cy_gpio.h ****     CY_ASSERT_L2(CY_GPIO_IS_PIN_VALID(pinNum));
1505:Generated_Source\PSoC6\pdl\drivers\peripheral\gpio/cy_gpio.h ****     CY_ASSERT_L2(CY_GPIO_IS_VOH_SEL_VALID(value));
1506:Generated_Source\PSoC6\pdl\drivers\peripheral\gpio/cy_gpio.h **** 
1507:Generated_Source\PSoC6\pdl\drivers\peripheral\gpio/cy_gpio.h ****     pinLoc = ((pinNum & CY_GPIO_SIO_ODD_PIN_MASK) << CY_GPIO_CFG_SIO_OFFSET) + CY_GPIO_VOH_SEL_SHIF
1508:Generated_Source\PSoC6\pdl\drivers\peripheral\gpio/cy_gpio.h ****     tempReg = (GPIO_PRT_CFG_SIO(base) & ~(CY_GPIO_VOH_SEL_MASK << pinLoc));
1509:Generated_Source\PSoC6\pdl\drivers\peripheral\gpio/cy_gpio.h ****     GPIO_PRT_CFG_SIO(base) = tempReg | ((value & CY_GPIO_VOH_SEL_MASK) << pinLoc);
1510:Generated_Source\PSoC6\pdl\drivers\peripheral\gpio/cy_gpio.h **** }
1511:Generated_Source\PSoC6\pdl\drivers\peripheral\gpio/cy_gpio.h **** 
1512:Generated_Source\PSoC6\pdl\drivers\peripheral\gpio/cy_gpio.h **** 
1513:Generated_Source\PSoC6\pdl\drivers\peripheral\gpio/cy_gpio.h **** /*******************************************************************************
1514:Generated_Source\PSoC6\pdl\drivers\peripheral\gpio/cy_gpio.h **** * Function Name: Cy_GPIO_GetVohSel
1515:Generated_Source\PSoC6\pdl\drivers\peripheral\gpio/cy_gpio.h **** ****************************************************************************//**
1516:Generated_Source\PSoC6\pdl\drivers\peripheral\gpio/cy_gpio.h **** *
1517:Generated_Source\PSoC6\pdl\drivers\peripheral\gpio/cy_gpio.h **** * Returns the regulated output reference multiplier for the SIO pin pair.
1518:Generated_Source\PSoC6\pdl\drivers\peripheral\gpio/cy_gpio.h **** *
1519:Generated_Source\PSoC6\pdl\drivers\peripheral\gpio/cy_gpio.h **** * Note that this function has no effect on non-SIO pins.
1520:Generated_Source\PSoC6\pdl\drivers\peripheral\gpio/cy_gpio.h **** *
1521:Generated_Source\PSoC6\pdl\drivers\peripheral\gpio/cy_gpio.h **** * \param base
1522:Generated_Source\PSoC6\pdl\drivers\peripheral\gpio/cy_gpio.h **** * Pointer to the pin's port register base address
1523:Generated_Source\PSoC6\pdl\drivers\peripheral\gpio/cy_gpio.h **** *
1524:Generated_Source\PSoC6\pdl\drivers\peripheral\gpio/cy_gpio.h **** * \param pinNum
1525:Generated_Source\PSoC6\pdl\drivers\peripheral\gpio/cy_gpio.h **** * Position of the pin bit-field within the port register
1526:Generated_Source\PSoC6\pdl\drivers\peripheral\gpio/cy_gpio.h **** *
1527:Generated_Source\PSoC6\pdl\drivers\peripheral\gpio/cy_gpio.h **** * \return
1528:Generated_Source\PSoC6\pdl\drivers\peripheral\gpio/cy_gpio.h **** * SIO pair reference voltage. Options are detailed in \ref group_gpio_sioVoh macros
1529:Generated_Source\PSoC6\pdl\drivers\peripheral\gpio/cy_gpio.h **** *
1530:Generated_Source\PSoC6\pdl\drivers\peripheral\gpio/cy_gpio.h **** * \funcusage
1531:Generated_Source\PSoC6\pdl\drivers\peripheral\gpio/cy_gpio.h **** * \snippet gpio/gpio_v1_10_sut_01.cydsn/main_cm4.c snippet_Cy_GPIO_SetVohSel
1532:Generated_Source\PSoC6\pdl\drivers\peripheral\gpio/cy_gpio.h **** *
1533:Generated_Source\PSoC6\pdl\drivers\peripheral\gpio/cy_gpio.h **** *******************************************************************************/
1534:Generated_Source\PSoC6\pdl\drivers\peripheral\gpio/cy_gpio.h **** __STATIC_INLINE uint32_t Cy_GPIO_GetVohSel(GPIO_PRT_Type* base, uint32_t pinNum)
1535:Generated_Source\PSoC6\pdl\drivers\peripheral\gpio/cy_gpio.h **** {
1536:Generated_Source\PSoC6\pdl\drivers\peripheral\gpio/cy_gpio.h ****     CY_ASSERT_L2(CY_GPIO_IS_PIN_VALID(pinNum));
1537:Generated_Source\PSoC6\pdl\drivers\peripheral\gpio/cy_gpio.h ****     
1538:Generated_Source\PSoC6\pdl\drivers\peripheral\gpio/cy_gpio.h ****     return (GPIO_PRT_CFG_SIO(base) >> (((pinNum & CY_GPIO_SIO_ODD_PIN_MASK) << CY_GPIO_CFG_SIO_OFFS
1539:Generated_Source\PSoC6\pdl\drivers\peripheral\gpio/cy_gpio.h **** }
1540:Generated_Source\PSoC6\pdl\drivers\peripheral\gpio/cy_gpio.h **** 
1541:Generated_Source\PSoC6\pdl\drivers\peripheral\gpio/cy_gpio.h **** /** \} group_gpio_functions_sio */
ARM GAS  C:\Users\cmila\AppData\Local\Temp\ccgUIjp6.s 			page 33


1542:Generated_Source\PSoC6\pdl\drivers\peripheral\gpio/cy_gpio.h **** 
1543:Generated_Source\PSoC6\pdl\drivers\peripheral\gpio/cy_gpio.h **** /**
1544:Generated_Source\PSoC6\pdl\drivers\peripheral\gpio/cy_gpio.h **** * \addtogroup group_gpio_functions_interrupt
1545:Generated_Source\PSoC6\pdl\drivers\peripheral\gpio/cy_gpio.h **** * \{
1546:Generated_Source\PSoC6\pdl\drivers\peripheral\gpio/cy_gpio.h **** */
1547:Generated_Source\PSoC6\pdl\drivers\peripheral\gpio/cy_gpio.h **** 
1548:Generated_Source\PSoC6\pdl\drivers\peripheral\gpio/cy_gpio.h **** /*******************************************************************************
1549:Generated_Source\PSoC6\pdl\drivers\peripheral\gpio/cy_gpio.h **** * Function Name: Cy_GPIO_GetInterruptStatus
1550:Generated_Source\PSoC6\pdl\drivers\peripheral\gpio/cy_gpio.h **** ****************************************************************************//**
1551:Generated_Source\PSoC6\pdl\drivers\peripheral\gpio/cy_gpio.h **** *
1552:Generated_Source\PSoC6\pdl\drivers\peripheral\gpio/cy_gpio.h **** * Returns the current unmasked interrupt state of the pin.
1553:Generated_Source\PSoC6\pdl\drivers\peripheral\gpio/cy_gpio.h **** *
1554:Generated_Source\PSoC6\pdl\drivers\peripheral\gpio/cy_gpio.h **** * The core processor's NVIC is triggered by the masked interrupt bits. This 
1555:Generated_Source\PSoC6\pdl\drivers\peripheral\gpio/cy_gpio.h **** * function allows reading the unmasked interrupt state. Whether the bit
1556:Generated_Source\PSoC6\pdl\drivers\peripheral\gpio/cy_gpio.h **** * positions actually trigger the interrupt are defined by the interrupt mask bits.
1557:Generated_Source\PSoC6\pdl\drivers\peripheral\gpio/cy_gpio.h **** *
1558:Generated_Source\PSoC6\pdl\drivers\peripheral\gpio/cy_gpio.h **** * \param base
1559:Generated_Source\PSoC6\pdl\drivers\peripheral\gpio/cy_gpio.h **** * Pointer to the pin's port register base address
1560:Generated_Source\PSoC6\pdl\drivers\peripheral\gpio/cy_gpio.h **** *
1561:Generated_Source\PSoC6\pdl\drivers\peripheral\gpio/cy_gpio.h **** * \param pinNum
1562:Generated_Source\PSoC6\pdl\drivers\peripheral\gpio/cy_gpio.h **** * Position of the pin bit-field within the port register
1563:Generated_Source\PSoC6\pdl\drivers\peripheral\gpio/cy_gpio.h **** * Bit position 8 is the routed pin through the port glitch filter.
1564:Generated_Source\PSoC6\pdl\drivers\peripheral\gpio/cy_gpio.h **** *
1565:Generated_Source\PSoC6\pdl\drivers\peripheral\gpio/cy_gpio.h **** * \return
1566:Generated_Source\PSoC6\pdl\drivers\peripheral\gpio/cy_gpio.h **** * 0 = Pin interrupt condition not detected
1567:Generated_Source\PSoC6\pdl\drivers\peripheral\gpio/cy_gpio.h **** * 1 = Pin interrupt condition detected
1568:Generated_Source\PSoC6\pdl\drivers\peripheral\gpio/cy_gpio.h **** *
1569:Generated_Source\PSoC6\pdl\drivers\peripheral\gpio/cy_gpio.h **** * \funcusage
1570:Generated_Source\PSoC6\pdl\drivers\peripheral\gpio/cy_gpio.h **** * \snippet gpio/gpio_v1_10_sut_01.cydsn/main_cm4.c snippet_Cy_GPIO_GetInterruptStatus
1571:Generated_Source\PSoC6\pdl\drivers\peripheral\gpio/cy_gpio.h **** *
1572:Generated_Source\PSoC6\pdl\drivers\peripheral\gpio/cy_gpio.h **** *******************************************************************************/
1573:Generated_Source\PSoC6\pdl\drivers\peripheral\gpio/cy_gpio.h **** __STATIC_INLINE uint32_t Cy_GPIO_GetInterruptStatus(GPIO_PRT_Type* base, uint32_t pinNum)
1574:Generated_Source\PSoC6\pdl\drivers\peripheral\gpio/cy_gpio.h **** {
1575:Generated_Source\PSoC6\pdl\drivers\peripheral\gpio/cy_gpio.h ****     CY_ASSERT_L2(CY_GPIO_IS_FILTER_PIN_VALID(pinNum));
1576:Generated_Source\PSoC6\pdl\drivers\peripheral\gpio/cy_gpio.h ****     
1577:Generated_Source\PSoC6\pdl\drivers\peripheral\gpio/cy_gpio.h ****     return (GPIO_PRT_INTR(base) >> pinNum) & CY_GPIO_INTR_STATUS_MASK;
1578:Generated_Source\PSoC6\pdl\drivers\peripheral\gpio/cy_gpio.h **** }
1579:Generated_Source\PSoC6\pdl\drivers\peripheral\gpio/cy_gpio.h **** 
1580:Generated_Source\PSoC6\pdl\drivers\peripheral\gpio/cy_gpio.h **** 
1581:Generated_Source\PSoC6\pdl\drivers\peripheral\gpio/cy_gpio.h **** /*******************************************************************************
1582:Generated_Source\PSoC6\pdl\drivers\peripheral\gpio/cy_gpio.h **** * Function Name: Cy_GPIO_ClearInterrupt
1583:Generated_Source\PSoC6\pdl\drivers\peripheral\gpio/cy_gpio.h **** ****************************************************************************//**
1584:Generated_Source\PSoC6\pdl\drivers\peripheral\gpio/cy_gpio.h **** *
1585:Generated_Source\PSoC6\pdl\drivers\peripheral\gpio/cy_gpio.h **** * Clears the triggered pin interrupt.
1586:Generated_Source\PSoC6\pdl\drivers\peripheral\gpio/cy_gpio.h **** *
1587:Generated_Source\PSoC6\pdl\drivers\peripheral\gpio/cy_gpio.h **** * \param base
1588:Generated_Source\PSoC6\pdl\drivers\peripheral\gpio/cy_gpio.h **** * Pointer to the pin's port register base address
1589:Generated_Source\PSoC6\pdl\drivers\peripheral\gpio/cy_gpio.h **** *
1590:Generated_Source\PSoC6\pdl\drivers\peripheral\gpio/cy_gpio.h **** * \param pinNum
1591:Generated_Source\PSoC6\pdl\drivers\peripheral\gpio/cy_gpio.h **** * Position of the pin bit-field within the port register
1592:Generated_Source\PSoC6\pdl\drivers\peripheral\gpio/cy_gpio.h **** * Bit position 8 is the routed pin through the port glitch filter.
1593:Generated_Source\PSoC6\pdl\drivers\peripheral\gpio/cy_gpio.h **** *
1594:Generated_Source\PSoC6\pdl\drivers\peripheral\gpio/cy_gpio.h **** * \funcusage
1595:Generated_Source\PSoC6\pdl\drivers\peripheral\gpio/cy_gpio.h **** * \snippet gpio/gpio_v1_10_sut_01.cydsn/main_cm4.c snippet_Cy_GPIO_ClearInterrupt
1596:Generated_Source\PSoC6\pdl\drivers\peripheral\gpio/cy_gpio.h **** *
1597:Generated_Source\PSoC6\pdl\drivers\peripheral\gpio/cy_gpio.h **** *******************************************************************************/
1598:Generated_Source\PSoC6\pdl\drivers\peripheral\gpio/cy_gpio.h **** __STATIC_INLINE void Cy_GPIO_ClearInterrupt(GPIO_PRT_Type* base, uint32_t pinNum)
ARM GAS  C:\Users\cmila\AppData\Local\Temp\ccgUIjp6.s 			page 34


1599:Generated_Source\PSoC6\pdl\drivers\peripheral\gpio/cy_gpio.h **** {
1600:Generated_Source\PSoC6\pdl\drivers\peripheral\gpio/cy_gpio.h ****     CY_ASSERT_L2(CY_GPIO_IS_FILTER_PIN_VALID(pinNum));
1601:Generated_Source\PSoC6\pdl\drivers\peripheral\gpio/cy_gpio.h ****     
1602:Generated_Source\PSoC6\pdl\drivers\peripheral\gpio/cy_gpio.h ****     /* Any INTR MMIO registers AHB clearing must be preceded with an AHB read access */
1603:Generated_Source\PSoC6\pdl\drivers\peripheral\gpio/cy_gpio.h ****     (void)GPIO_PRT_INTR(base);
1604:Generated_Source\PSoC6\pdl\drivers\peripheral\gpio/cy_gpio.h **** 
1605:Generated_Source\PSoC6\pdl\drivers\peripheral\gpio/cy_gpio.h ****     GPIO_PRT_INTR(base) = CY_GPIO_INTR_STATUS_MASK << pinNum;
1606:Generated_Source\PSoC6\pdl\drivers\peripheral\gpio/cy_gpio.h **** 
1607:Generated_Source\PSoC6\pdl\drivers\peripheral\gpio/cy_gpio.h ****     /* This read ensures that the initial write has been flushed out to the hardware */
1608:Generated_Source\PSoC6\pdl\drivers\peripheral\gpio/cy_gpio.h ****     (void)GPIO_PRT_INTR(base);
1609:Generated_Source\PSoC6\pdl\drivers\peripheral\gpio/cy_gpio.h **** }
1610:Generated_Source\PSoC6\pdl\drivers\peripheral\gpio/cy_gpio.h **** 
1611:Generated_Source\PSoC6\pdl\drivers\peripheral\gpio/cy_gpio.h **** 
1612:Generated_Source\PSoC6\pdl\drivers\peripheral\gpio/cy_gpio.h **** /*******************************************************************************
1613:Generated_Source\PSoC6\pdl\drivers\peripheral\gpio/cy_gpio.h **** * Function Name: Cy_GPIO_SetInterruptMask
1614:Generated_Source\PSoC6\pdl\drivers\peripheral\gpio/cy_gpio.h **** ****************************************************************************//**
1615:Generated_Source\PSoC6\pdl\drivers\peripheral\gpio/cy_gpio.h **** *
1616:Generated_Source\PSoC6\pdl\drivers\peripheral\gpio/cy_gpio.h **** * Configures the pin interrupt to be forwarded to the CPU NVIC.
1617:Generated_Source\PSoC6\pdl\drivers\peripheral\gpio/cy_gpio.h **** *
1618:Generated_Source\PSoC6\pdl\drivers\peripheral\gpio/cy_gpio.h **** * \param base
1619:Generated_Source\PSoC6\pdl\drivers\peripheral\gpio/cy_gpio.h **** * Pointer to the pin's port register base address
1620:Generated_Source\PSoC6\pdl\drivers\peripheral\gpio/cy_gpio.h **** *
1621:Generated_Source\PSoC6\pdl\drivers\peripheral\gpio/cy_gpio.h **** * \param pinNum
1622:Generated_Source\PSoC6\pdl\drivers\peripheral\gpio/cy_gpio.h **** * Position of the pin bit-field within the port register.
1623:Generated_Source\PSoC6\pdl\drivers\peripheral\gpio/cy_gpio.h **** * Bit position 8 is the routed pin through the port glitch filter.
1624:Generated_Source\PSoC6\pdl\drivers\peripheral\gpio/cy_gpio.h **** *
1625:Generated_Source\PSoC6\pdl\drivers\peripheral\gpio/cy_gpio.h **** * \param value
1626:Generated_Source\PSoC6\pdl\drivers\peripheral\gpio/cy_gpio.h **** * 0 = Pin interrupt not forwarded to CPU interrupt controller
1627:Generated_Source\PSoC6\pdl\drivers\peripheral\gpio/cy_gpio.h **** * 1 = Pin interrupt masked and forwarded to CPU interrupt controller
1628:Generated_Source\PSoC6\pdl\drivers\peripheral\gpio/cy_gpio.h **** *
1629:Generated_Source\PSoC6\pdl\drivers\peripheral\gpio/cy_gpio.h **** * \note 
1630:Generated_Source\PSoC6\pdl\drivers\peripheral\gpio/cy_gpio.h **** * This function modifies a port register in a read-modify-write operation. It is
1631:Generated_Source\PSoC6\pdl\drivers\peripheral\gpio/cy_gpio.h **** * not thread safe as the resource is shared among multiple pins on a port.
1632:Generated_Source\PSoC6\pdl\drivers\peripheral\gpio/cy_gpio.h **** *
1633:Generated_Source\PSoC6\pdl\drivers\peripheral\gpio/cy_gpio.h **** * \funcusage
1634:Generated_Source\PSoC6\pdl\drivers\peripheral\gpio/cy_gpio.h **** * \snippet gpio/gpio_v1_10_sut_01.cydsn/main_cm4.c snippet_Cy_GPIO_SetInterruptMask
1635:Generated_Source\PSoC6\pdl\drivers\peripheral\gpio/cy_gpio.h **** *
1636:Generated_Source\PSoC6\pdl\drivers\peripheral\gpio/cy_gpio.h **** *******************************************************************************/
1637:Generated_Source\PSoC6\pdl\drivers\peripheral\gpio/cy_gpio.h **** __STATIC_INLINE void Cy_GPIO_SetInterruptMask(GPIO_PRT_Type* base, uint32_t pinNum, uint32_t value)
1638:Generated_Source\PSoC6\pdl\drivers\peripheral\gpio/cy_gpio.h **** {
1639:Generated_Source\PSoC6\pdl\drivers\peripheral\gpio/cy_gpio.h ****     uint32_t tempReg;
1640:Generated_Source\PSoC6\pdl\drivers\peripheral\gpio/cy_gpio.h **** 
1641:Generated_Source\PSoC6\pdl\drivers\peripheral\gpio/cy_gpio.h ****     CY_ASSERT_L2(CY_GPIO_IS_FILTER_PIN_VALID(pinNum));
1642:Generated_Source\PSoC6\pdl\drivers\peripheral\gpio/cy_gpio.h ****     CY_ASSERT_L2(CY_GPIO_IS_VALUE_VALID(value));
1643:Generated_Source\PSoC6\pdl\drivers\peripheral\gpio/cy_gpio.h **** 
1644:Generated_Source\PSoC6\pdl\drivers\peripheral\gpio/cy_gpio.h ****     tempReg= GPIO_PRT_INTR_MASK(base) & ~(CY_GPIO_INTR_EN_MASK << pinNum);
1645:Generated_Source\PSoC6\pdl\drivers\peripheral\gpio/cy_gpio.h ****     GPIO_PRT_INTR_MASK(base) = tempReg | ((value & CY_GPIO_INTR_EN_MASK) << pinNum);
1646:Generated_Source\PSoC6\pdl\drivers\peripheral\gpio/cy_gpio.h **** }
1647:Generated_Source\PSoC6\pdl\drivers\peripheral\gpio/cy_gpio.h **** 
1648:Generated_Source\PSoC6\pdl\drivers\peripheral\gpio/cy_gpio.h **** 
1649:Generated_Source\PSoC6\pdl\drivers\peripheral\gpio/cy_gpio.h **** /*******************************************************************************
1650:Generated_Source\PSoC6\pdl\drivers\peripheral\gpio/cy_gpio.h **** * Function Name: Cy_GPIO_GetInterruptMask
1651:Generated_Source\PSoC6\pdl\drivers\peripheral\gpio/cy_gpio.h **** ****************************************************************************//**
1652:Generated_Source\PSoC6\pdl\drivers\peripheral\gpio/cy_gpio.h **** *
1653:Generated_Source\PSoC6\pdl\drivers\peripheral\gpio/cy_gpio.h **** * Returns the state of the pin interrupt mask.
1654:Generated_Source\PSoC6\pdl\drivers\peripheral\gpio/cy_gpio.h **** *
1655:Generated_Source\PSoC6\pdl\drivers\peripheral\gpio/cy_gpio.h **** * This mask is used to determine whether the pin is configured to be forwarded
ARM GAS  C:\Users\cmila\AppData\Local\Temp\ccgUIjp6.s 			page 35


1656:Generated_Source\PSoC6\pdl\drivers\peripheral\gpio/cy_gpio.h **** * to the CPU NVIC.
1657:Generated_Source\PSoC6\pdl\drivers\peripheral\gpio/cy_gpio.h **** *
1658:Generated_Source\PSoC6\pdl\drivers\peripheral\gpio/cy_gpio.h **** * \param base
1659:Generated_Source\PSoC6\pdl\drivers\peripheral\gpio/cy_gpio.h **** * Pointer to the pin's port register base address
1660:Generated_Source\PSoC6\pdl\drivers\peripheral\gpio/cy_gpio.h **** *
1661:Generated_Source\PSoC6\pdl\drivers\peripheral\gpio/cy_gpio.h **** * \param pinNum
1662:Generated_Source\PSoC6\pdl\drivers\peripheral\gpio/cy_gpio.h **** * Position of the pin bit-field within the port register.
1663:Generated_Source\PSoC6\pdl\drivers\peripheral\gpio/cy_gpio.h **** * Bit position 8 is the routed pin through the port glitch filter.
1664:Generated_Source\PSoC6\pdl\drivers\peripheral\gpio/cy_gpio.h **** *
1665:Generated_Source\PSoC6\pdl\drivers\peripheral\gpio/cy_gpio.h **** * \return
1666:Generated_Source\PSoC6\pdl\drivers\peripheral\gpio/cy_gpio.h **** * 0 = Pin interrupt not forwarded to CPU interrupt controller
1667:Generated_Source\PSoC6\pdl\drivers\peripheral\gpio/cy_gpio.h **** * 1 = Pin interrupt masked and forwarded to CPU interrupt controller
1668:Generated_Source\PSoC6\pdl\drivers\peripheral\gpio/cy_gpio.h **** *
1669:Generated_Source\PSoC6\pdl\drivers\peripheral\gpio/cy_gpio.h **** * \funcusage
1670:Generated_Source\PSoC6\pdl\drivers\peripheral\gpio/cy_gpio.h **** * \snippet gpio/gpio_v1_10_sut_01.cydsn/main_cm4.c snippet_Cy_GPIO_SetInterruptMask
1671:Generated_Source\PSoC6\pdl\drivers\peripheral\gpio/cy_gpio.h **** *
1672:Generated_Source\PSoC6\pdl\drivers\peripheral\gpio/cy_gpio.h **** *******************************************************************************/
1673:Generated_Source\PSoC6\pdl\drivers\peripheral\gpio/cy_gpio.h **** __STATIC_INLINE uint32_t Cy_GPIO_GetInterruptMask(GPIO_PRT_Type* base, uint32_t pinNum)
1674:Generated_Source\PSoC6\pdl\drivers\peripheral\gpio/cy_gpio.h **** {
1675:Generated_Source\PSoC6\pdl\drivers\peripheral\gpio/cy_gpio.h ****     CY_ASSERT_L2(CY_GPIO_IS_FILTER_PIN_VALID(pinNum));
1676:Generated_Source\PSoC6\pdl\drivers\peripheral\gpio/cy_gpio.h ****     
1677:Generated_Source\PSoC6\pdl\drivers\peripheral\gpio/cy_gpio.h ****     return (GPIO_PRT_INTR_MASK(base) >> pinNum) & CY_GPIO_INTR_EN_MASK;
1678:Generated_Source\PSoC6\pdl\drivers\peripheral\gpio/cy_gpio.h **** }
1679:Generated_Source\PSoC6\pdl\drivers\peripheral\gpio/cy_gpio.h **** 
1680:Generated_Source\PSoC6\pdl\drivers\peripheral\gpio/cy_gpio.h **** 
1681:Generated_Source\PSoC6\pdl\drivers\peripheral\gpio/cy_gpio.h **** /*******************************************************************************
1682:Generated_Source\PSoC6\pdl\drivers\peripheral\gpio/cy_gpio.h **** * Function Name: Cy_GPIO_GetInterruptStatusMasked
1683:Generated_Source\PSoC6\pdl\drivers\peripheral\gpio/cy_gpio.h **** ****************************************************************************//**
1684:Generated_Source\PSoC6\pdl\drivers\peripheral\gpio/cy_gpio.h **** *
1685:Generated_Source\PSoC6\pdl\drivers\peripheral\gpio/cy_gpio.h **** * Return the pin's current interrupt state after being masked.
1686:Generated_Source\PSoC6\pdl\drivers\peripheral\gpio/cy_gpio.h **** *
1687:Generated_Source\PSoC6\pdl\drivers\peripheral\gpio/cy_gpio.h **** * The core processor's NVIC is triggered by the masked interrupt bits. This 
1688:Generated_Source\PSoC6\pdl\drivers\peripheral\gpio/cy_gpio.h **** * function allows reading this masked interrupt state. Note that the bits that
1689:Generated_Source\PSoC6\pdl\drivers\peripheral\gpio/cy_gpio.h **** * are not masked will not be forwarded to the NVIC.
1690:Generated_Source\PSoC6\pdl\drivers\peripheral\gpio/cy_gpio.h **** *
1691:Generated_Source\PSoC6\pdl\drivers\peripheral\gpio/cy_gpio.h **** * \param base
1692:Generated_Source\PSoC6\pdl\drivers\peripheral\gpio/cy_gpio.h **** * Pointer to the pin's port register base address
1693:Generated_Source\PSoC6\pdl\drivers\peripheral\gpio/cy_gpio.h **** *
1694:Generated_Source\PSoC6\pdl\drivers\peripheral\gpio/cy_gpio.h **** * \param pinNum
1695:Generated_Source\PSoC6\pdl\drivers\peripheral\gpio/cy_gpio.h **** * Position of the pin bit-field within the port register.
1696:Generated_Source\PSoC6\pdl\drivers\peripheral\gpio/cy_gpio.h **** * Bit position 8 is the routed pin through the port glitch filter.
1697:Generated_Source\PSoC6\pdl\drivers\peripheral\gpio/cy_gpio.h **** *
1698:Generated_Source\PSoC6\pdl\drivers\peripheral\gpio/cy_gpio.h **** * \return
1699:Generated_Source\PSoC6\pdl\drivers\peripheral\gpio/cy_gpio.h **** * 0 = Pin interrupt not detected or not forwarded to CPU interrupt controller
1700:Generated_Source\PSoC6\pdl\drivers\peripheral\gpio/cy_gpio.h **** * 1 = Pin interrupt detected and forwarded to CPU interrupt controller
1701:Generated_Source\PSoC6\pdl\drivers\peripheral\gpio/cy_gpio.h **** *
1702:Generated_Source\PSoC6\pdl\drivers\peripheral\gpio/cy_gpio.h **** * \funcusage
1703:Generated_Source\PSoC6\pdl\drivers\peripheral\gpio/cy_gpio.h **** * \snippet gpio/gpio_v1_10_sut_01.cydsn/main_cm4.c snippet_Cy_GPIO_GetInterruptStatusMasked
1704:Generated_Source\PSoC6\pdl\drivers\peripheral\gpio/cy_gpio.h **** *
1705:Generated_Source\PSoC6\pdl\drivers\peripheral\gpio/cy_gpio.h **** *******************************************************************************/
1706:Generated_Source\PSoC6\pdl\drivers\peripheral\gpio/cy_gpio.h **** __STATIC_INLINE uint32_t Cy_GPIO_GetInterruptStatusMasked(GPIO_PRT_Type* base, uint32_t pinNum)
1707:Generated_Source\PSoC6\pdl\drivers\peripheral\gpio/cy_gpio.h **** {
1708:Generated_Source\PSoC6\pdl\drivers\peripheral\gpio/cy_gpio.h ****     CY_ASSERT_L2(CY_GPIO_IS_FILTER_PIN_VALID(pinNum));
1709:Generated_Source\PSoC6\pdl\drivers\peripheral\gpio/cy_gpio.h ****     
1710:Generated_Source\PSoC6\pdl\drivers\peripheral\gpio/cy_gpio.h ****     return (GPIO_PRT_INTR_MASKED(base) >> pinNum) & CY_GPIO_INTR_MASKED_MASK;
1711:Generated_Source\PSoC6\pdl\drivers\peripheral\gpio/cy_gpio.h **** }
1712:Generated_Source\PSoC6\pdl\drivers\peripheral\gpio/cy_gpio.h **** 
ARM GAS  C:\Users\cmila\AppData\Local\Temp\ccgUIjp6.s 			page 36


1713:Generated_Source\PSoC6\pdl\drivers\peripheral\gpio/cy_gpio.h **** 
1714:Generated_Source\PSoC6\pdl\drivers\peripheral\gpio/cy_gpio.h **** /*******************************************************************************
1715:Generated_Source\PSoC6\pdl\drivers\peripheral\gpio/cy_gpio.h **** * Function Name: Cy_GPIO_SetSwInterrupt
1716:Generated_Source\PSoC6\pdl\drivers\peripheral\gpio/cy_gpio.h **** ****************************************************************************//**
1717:Generated_Source\PSoC6\pdl\drivers\peripheral\gpio/cy_gpio.h **** *
1718:Generated_Source\PSoC6\pdl\drivers\peripheral\gpio/cy_gpio.h **** * Force a pin interrupt to trigger.
1719:Generated_Source\PSoC6\pdl\drivers\peripheral\gpio/cy_gpio.h **** *
1720:Generated_Source\PSoC6\pdl\drivers\peripheral\gpio/cy_gpio.h **** * \param base
1721:Generated_Source\PSoC6\pdl\drivers\peripheral\gpio/cy_gpio.h **** * Pointer to the pin's port register base address
1722:Generated_Source\PSoC6\pdl\drivers\peripheral\gpio/cy_gpio.h **** *
1723:Generated_Source\PSoC6\pdl\drivers\peripheral\gpio/cy_gpio.h **** * \param pinNum
1724:Generated_Source\PSoC6\pdl\drivers\peripheral\gpio/cy_gpio.h **** * Position of the pin bit-field within the port register.
1725:Generated_Source\PSoC6\pdl\drivers\peripheral\gpio/cy_gpio.h **** * Bit position 8 is the routed pin through the port glitch filter.
1726:Generated_Source\PSoC6\pdl\drivers\peripheral\gpio/cy_gpio.h **** *
1727:Generated_Source\PSoC6\pdl\drivers\peripheral\gpio/cy_gpio.h **** * \funcusage
1728:Generated_Source\PSoC6\pdl\drivers\peripheral\gpio/cy_gpio.h **** * \snippet gpio/gpio_v1_10_sut_01.cydsn/main_cm4.c snippet_Cy_GPIO_SetSwInterrupt
1729:Generated_Source\PSoC6\pdl\drivers\peripheral\gpio/cy_gpio.h **** *
1730:Generated_Source\PSoC6\pdl\drivers\peripheral\gpio/cy_gpio.h **** *******************************************************************************/
1731:Generated_Source\PSoC6\pdl\drivers\peripheral\gpio/cy_gpio.h **** __STATIC_INLINE void Cy_GPIO_SetSwInterrupt(GPIO_PRT_Type* base, uint32_t pinNum)
1732:Generated_Source\PSoC6\pdl\drivers\peripheral\gpio/cy_gpio.h **** {
1733:Generated_Source\PSoC6\pdl\drivers\peripheral\gpio/cy_gpio.h ****     CY_ASSERT_L2(CY_GPIO_IS_FILTER_PIN_VALID(pinNum));
1734:Generated_Source\PSoC6\pdl\drivers\peripheral\gpio/cy_gpio.h ****     
1735:Generated_Source\PSoC6\pdl\drivers\peripheral\gpio/cy_gpio.h ****     GPIO_PRT_INTR_SET(base) = CY_GPIO_INTR_SET_MASK << pinNum;
1736:Generated_Source\PSoC6\pdl\drivers\peripheral\gpio/cy_gpio.h **** }
1737:Generated_Source\PSoC6\pdl\drivers\peripheral\gpio/cy_gpio.h **** 
1738:Generated_Source\PSoC6\pdl\drivers\peripheral\gpio/cy_gpio.h **** 
1739:Generated_Source\PSoC6\pdl\drivers\peripheral\gpio/cy_gpio.h **** /*******************************************************************************
1740:Generated_Source\PSoC6\pdl\drivers\peripheral\gpio/cy_gpio.h **** * Function Name: Cy_GPIO_SetInterruptEdge
1741:Generated_Source\PSoC6\pdl\drivers\peripheral\gpio/cy_gpio.h **** ****************************************************************************//**
1742:Generated_Source\PSoC6\pdl\drivers\peripheral\gpio/cy_gpio.h **** *
1743:Generated_Source\PSoC6\pdl\drivers\peripheral\gpio/cy_gpio.h **** * Configures the type of edge that will trigger a pin interrupt.
1744:Generated_Source\PSoC6\pdl\drivers\peripheral\gpio/cy_gpio.h **** *
1745:Generated_Source\PSoC6\pdl\drivers\peripheral\gpio/cy_gpio.h **** * \param base
1746:Generated_Source\PSoC6\pdl\drivers\peripheral\gpio/cy_gpio.h **** * Pointer to the pin's port register base address
1747:Generated_Source\PSoC6\pdl\drivers\peripheral\gpio/cy_gpio.h **** *
1748:Generated_Source\PSoC6\pdl\drivers\peripheral\gpio/cy_gpio.h **** * \param pinNum
1749:Generated_Source\PSoC6\pdl\drivers\peripheral\gpio/cy_gpio.h **** * Position of the pin bit-field within the port register.
1750:Generated_Source\PSoC6\pdl\drivers\peripheral\gpio/cy_gpio.h **** * Bit position 8 is the routed pin through the port glitch filter.
1751:Generated_Source\PSoC6\pdl\drivers\peripheral\gpio/cy_gpio.h **** *
1752:Generated_Source\PSoC6\pdl\drivers\peripheral\gpio/cy_gpio.h **** * \param value
1753:Generated_Source\PSoC6\pdl\drivers\peripheral\gpio/cy_gpio.h **** * Pin interrupt mode. Options are detailed in \ref group_gpio_interruptTrigger macros
1754:Generated_Source\PSoC6\pdl\drivers\peripheral\gpio/cy_gpio.h **** *
1755:Generated_Source\PSoC6\pdl\drivers\peripheral\gpio/cy_gpio.h **** * \note 
1756:Generated_Source\PSoC6\pdl\drivers\peripheral\gpio/cy_gpio.h **** * This function modifies a port register in a read-modify-write operation. It is
1757:Generated_Source\PSoC6\pdl\drivers\peripheral\gpio/cy_gpio.h **** * not thread safe as the resource is shared among multiple pins on a port.
1758:Generated_Source\PSoC6\pdl\drivers\peripheral\gpio/cy_gpio.h **** *
1759:Generated_Source\PSoC6\pdl\drivers\peripheral\gpio/cy_gpio.h **** * \funcusage
1760:Generated_Source\PSoC6\pdl\drivers\peripheral\gpio/cy_gpio.h **** * \snippet gpio/gpio_v1_10_sut_01.cydsn/main_cm4.c snippet_Cy_GPIO_SetInterruptEdge
1761:Generated_Source\PSoC6\pdl\drivers\peripheral\gpio/cy_gpio.h **** *
1762:Generated_Source\PSoC6\pdl\drivers\peripheral\gpio/cy_gpio.h **** *******************************************************************************/
1763:Generated_Source\PSoC6\pdl\drivers\peripheral\gpio/cy_gpio.h **** __STATIC_INLINE void Cy_GPIO_SetInterruptEdge(GPIO_PRT_Type* base, uint32_t pinNum, uint32_t value)
1764:Generated_Source\PSoC6\pdl\drivers\peripheral\gpio/cy_gpio.h **** {
1765:Generated_Source\PSoC6\pdl\drivers\peripheral\gpio/cy_gpio.h ****     uint32_t tempReg;
1766:Generated_Source\PSoC6\pdl\drivers\peripheral\gpio/cy_gpio.h ****     uint32_t pinLoc;
1767:Generated_Source\PSoC6\pdl\drivers\peripheral\gpio/cy_gpio.h **** 
1768:Generated_Source\PSoC6\pdl\drivers\peripheral\gpio/cy_gpio.h ****     CY_ASSERT_L2(CY_GPIO_IS_FILTER_PIN_VALID(pinNum));
1769:Generated_Source\PSoC6\pdl\drivers\peripheral\gpio/cy_gpio.h ****     CY_ASSERT_L2(CY_GPIO_IS_INT_EDGE_VALID(value));
ARM GAS  C:\Users\cmila\AppData\Local\Temp\ccgUIjp6.s 			page 37


1770:Generated_Source\PSoC6\pdl\drivers\peripheral\gpio/cy_gpio.h **** 
1771:Generated_Source\PSoC6\pdl\drivers\peripheral\gpio/cy_gpio.h ****     pinLoc = pinNum << CY_GPIO_INTR_CFG_OFFSET;
1772:Generated_Source\PSoC6\pdl\drivers\peripheral\gpio/cy_gpio.h ****     tempReg = GPIO_PRT_INTR_CFG(base) & ~(CY_GPIO_INTR_EDGE_MASK << pinLoc);
 194              		.loc 1 1772 0
 195 0052 D8F800E0 		ldr	lr, [r8]
 196 0056 9EF87C00 		ldrb	r0, [lr, #124]	@ zero_extendqisi2
1773:Generated_Source\PSoC6\pdl\drivers\peripheral\gpio/cy_gpio.h ****     GPIO_PRT_INTR_CFG(base) = tempReg | ((value & CY_GPIO_INTR_EDGE_MASK) << pinLoc);
 197              		.loc 1 1773 0
 198 005a 4FF0030C 		mov	ip, #3
1772:Generated_Source\PSoC6\pdl\drivers\peripheral\gpio/cy_gpio.h ****     GPIO_PRT_INTR_CFG(base) = tempReg | ((value & CY_GPIO_INTR_EDGE_MASK) << pinLoc);
 199              		.loc 1 1772 0
 200 005e 0359     		ldr	r3, [r0, r4]
1771:Generated_Source\PSoC6\pdl\drivers\peripheral\gpio/cy_gpio.h ****     tempReg = GPIO_PRT_INTR_CFG(base) & ~(CY_GPIO_INTR_EDGE_MASK << pinLoc);
 201              		.loc 1 1771 0
 202 0060 7100     		lsls	r1, r6, #1
 203              	.LVL28:
 204              		.loc 1 1773 0
 205 0062 0CFA01F2 		lsl	r2, ip, r1
 206 0066 23EA0202 		bic	r2, r3, r2
 207              	.LVL29:
 208 006a EB68     		ldr	r3, [r5, #12]
 209 006c 03EA0C03 		and	r3, r3, ip
 210 0070 8B40     		lsls	r3, r3, r1
 211 0072 1343     		orrs	r3, r3, r2
 212 0074 0351     		str	r3, [r0, r4]
 213              	.LVL30:
 214              	.LBE19:
 215              	.LBE18:
 216              	.LBB20:
 217              	.LBB21:
1644:Generated_Source\PSoC6\pdl\drivers\peripheral\gpio/cy_gpio.h ****     GPIO_PRT_INTR_MASK(base) = tempReg | ((value & CY_GPIO_INTR_EN_MASK) << pinNum);
 218              		.loc 1 1644 0
 219 0076 0122     		movs	r2, #1
1645:Generated_Source\PSoC6\pdl\drivers\peripheral\gpio/cy_gpio.h **** }
 220              		.loc 1 1645 0
 221 0078 2B69     		ldr	r3, [r5, #16]
1644:Generated_Source\PSoC6\pdl\drivers\peripheral\gpio/cy_gpio.h ****     GPIO_PRT_INTR_MASK(base) = tempReg | ((value & CY_GPIO_INTR_EN_MASK) << pinNum);
 222              		.loc 1 1644 0
 223 007a D4F81880 		ldr	r8, [r4, #24]
 224 007e B240     		lsls	r2, r2, r6
 225 0080 D043     		mvns	r0, r2
 226              	.LVL31:
1645:Generated_Source\PSoC6\pdl\drivers\peripheral\gpio/cy_gpio.h **** }
 227              		.loc 1 1645 0
 228 0082 03F00103 		and	r3, r3, #1
 229 0086 08EA0008 		and	r8, r8, r0
 230              	.LVL32:
 231 008a B340     		lsls	r3, r3, r6
 232 008c 43EA0803 		orr	r3, r3, r8
 233 0090 A361     		str	r3, [r4, #24]
 234              	.LVL33:
 235              	.LBE21:
 236              	.LBE20:
 237              	.LBB22:
 238              	.LBB23:
1030:Generated_Source\PSoC6\pdl\drivers\peripheral\gpio/cy_gpio.h ****     GPIO_PRT_CFG_IN(base) = tempReg | ((value & CY_GPIO_CFG_IN_VTRIP_SEL_MASK) << pinNum);
 239              		.loc 1 1030 0
ARM GAS  C:\Users\cmila\AppData\Local\Temp\ccgUIjp6.s 			page 38


 240 0092 9EF87E80 		ldrb	r8, [lr, #126]	@ zero_extendqisi2
1031:Generated_Source\PSoC6\pdl\drivers\peripheral\gpio/cy_gpio.h **** }
 241              		.loc 1 1031 0
 242 0096 6B69     		ldr	r3, [r5, #20]
1030:Generated_Source\PSoC6\pdl\drivers\peripheral\gpio/cy_gpio.h ****     GPIO_PRT_CFG_IN(base) = tempReg | ((value & CY_GPIO_CFG_IN_VTRIP_SEL_MASK) << pinNum);
 243              		.loc 1 1030 0
 244 0098 58F80490 		ldr	r9, [r8, r4]
 245              	.LVL34:
1031:Generated_Source\PSoC6\pdl\drivers\peripheral\gpio/cy_gpio.h **** }
 246              		.loc 1 1031 0
 247 009c 03F00103 		and	r3, r3, #1
 248 00a0 B340     		lsls	r3, r3, r6
 249 00a2 09EA0000 		and	r0, r9, r0
 250              	.LVL35:
 251 00a6 1843     		orrs	r0, r0, r3
 252              	.LVL36:
 253 00a8 48F80400 		str	r0, [r8, r4]
 254              	.LVL37:
 255              	.LBE23:
 256              	.LBE22:
  87:Generated_Source\PSoC6\pdl\drivers\peripheral\gpio/cy_gpio.c **** 
  88:Generated_Source\PSoC6\pdl\drivers\peripheral\gpio/cy_gpio.c ****         Cy_GPIO_SetInterruptEdge(base, pinNum, config->intEdge);
  89:Generated_Source\PSoC6\pdl\drivers\peripheral\gpio/cy_gpio.c ****         Cy_GPIO_SetInterruptMask(base, pinNum, config->intMask);
  90:Generated_Source\PSoC6\pdl\drivers\peripheral\gpio/cy_gpio.c ****         Cy_GPIO_SetVtrip(base, pinNum, config->vtrip);
  91:Generated_Source\PSoC6\pdl\drivers\peripheral\gpio/cy_gpio.c **** 
  92:Generated_Source\PSoC6\pdl\drivers\peripheral\gpio/cy_gpio.c ****         /* Slew rate and Driver strength */
  93:Generated_Source\PSoC6\pdl\drivers\peripheral\gpio/cy_gpio.c ****         maskCfgOut = (CY_GPIO_CFG_OUT_SLOW_MASK << pinNum) 
  94:Generated_Source\PSoC6\pdl\drivers\peripheral\gpio/cy_gpio.c ****                      | (CY_GPIO_CFG_OUT_DRIVE_SEL_MASK << ((uint32_t)(pinNum << 1U) + CY_GPIO_CFG_O
  95:Generated_Source\PSoC6\pdl\drivers\peripheral\gpio/cy_gpio.c ****         tempReg = GPIO_PRT_CFG_OUT(base) & ~(maskCfgOut);
  96:Generated_Source\PSoC6\pdl\drivers\peripheral\gpio/cy_gpio.c ****         
  97:Generated_Source\PSoC6\pdl\drivers\peripheral\gpio/cy_gpio.c ****         GPIO_PRT_CFG_OUT(base) = tempReg | ((config->slewRate & CY_GPIO_CFG_OUT_SLOW_MASK) << pinNu
  98:Generated_Source\PSoC6\pdl\drivers\peripheral\gpio/cy_gpio.c ****                             | ((config->driveSel & CY_GPIO_CFG_OUT_DRIVE_SEL_MASK) << ((uint32_t)(p
 257              		.loc 2 98 0
 258 00ac AB69     		ldr	r3, [r5, #24]
  95:Generated_Source\PSoC6\pdl\drivers\peripheral\gpio/cy_gpio.c ****         
 259              		.loc 2 95 0
 260 00ae 9EF87F80 		ldrb	r8, [lr, #127]	@ zero_extendqisi2
 261              		.loc 2 98 0
 262 00b2 03F00103 		and	r3, r3, #1
 263 00b6 03FA06F6 		lsl	r6, r3, r6
 264              	.LVL38:
 265 00ba EB69     		ldr	r3, [r5, #28]
  95:Generated_Source\PSoC6\pdl\drivers\peripheral\gpio/cy_gpio.c ****         
 266              		.loc 2 95 0
 267 00bc 58F80400 		ldr	r0, [r8, r4]
  94:Generated_Source\PSoC6\pdl\drivers\peripheral\gpio/cy_gpio.c ****         tempReg = GPIO_PRT_CFG_OUT(base) & ~(maskCfgOut);
 268              		.loc 2 94 0
 269 00c0 1031     		adds	r1, r1, #16
 270              	.LVL39:
 271              		.loc 2 98 0
 272 00c2 03EA0C03 		and	r3, r3, ip
 273 00c6 8B40     		lsls	r3, r3, r1
 274 00c8 0CFA01F1 		lsl	r1, ip, r1
 275              	.LVL40:
 276 00cc 0A43     		orrs	r2, r2, r1
 277              	.LVL41:
 278 00ce 20EA0200 		bic	r0, r0, r2
ARM GAS  C:\Users\cmila\AppData\Local\Temp\ccgUIjp6.s 			page 39


 279              	.LVL42:
 280 00d2 1E43     		orrs	r6, r6, r3
 281 00d4 0643     		orrs	r6, r6, r0
  97:Generated_Source\PSoC6\pdl\drivers\peripheral\gpio/cy_gpio.c ****                             | ((config->driveSel & CY_GPIO_CFG_OUT_DRIVE_SEL_MASK) << ((uint32_t)(p
 282              		.loc 2 97 0
 283 00d6 48F80460 		str	r6, [r8, r4]
  99:Generated_Source\PSoC6\pdl\drivers\peripheral\gpio/cy_gpio.c **** 
 100:Generated_Source\PSoC6\pdl\drivers\peripheral\gpio/cy_gpio.c ****         /* SIO specific configuration */
 101:Generated_Source\PSoC6\pdl\drivers\peripheral\gpio/cy_gpio.c ****         tempReg = GPIO_PRT_CFG_SIO(base) & ~(CY_GPIO_SIO_PIN_MASK);
 102:Generated_Source\PSoC6\pdl\drivers\peripheral\gpio/cy_gpio.c ****         GPIO_PRT_CFG_SIO(base) = tempReg | (((config->vregEn & CY_GPIO_VREG_EN_MASK)
 284              		.loc 2 102 0
 285 00da 696A     		ldr	r1, [r5, #36]
 286 00dc 2A6B     		ldr	r2, [r5, #48]
 287              	.LVL43:
 101:Generated_Source\PSoC6\pdl\drivers\peripheral\gpio/cy_gpio.c ****         GPIO_PRT_CFG_SIO(base) = tempReg | (((config->vregEn & CY_GPIO_VREG_EN_MASK)
 288              		.loc 2 101 0
 289 00de 9EF88060 		ldrb	r6, [lr, #128]	@ zero_extendqisi2
 290              		.loc 2 102 0
 291 00e2 4900     		lsls	r1, r1, #1
 292 00e4 01F00203 		and	r3, r1, #2
 293 00e8 A96A     		ldr	r1, [r5, #40]
 101:Generated_Source\PSoC6\pdl\drivers\peripheral\gpio/cy_gpio.c ****         GPIO_PRT_CFG_SIO(base) = tempReg | (((config->vregEn & CY_GPIO_VREG_EN_MASK)
 294              		.loc 2 101 0
 295 00ea 3059     		ldr	r0, [r6, r4]
 296              	.LVL44:
 297              		.loc 2 102 0
 298 00ec 8900     		lsls	r1, r1, #2
 299 00ee 01F00401 		and	r1, r1, #4
 300 00f2 1943     		orrs	r1, r1, r3
 301 00f4 2B6A     		ldr	r3, [r5, #32]
 302 00f6 03F00103 		and	r3, r3, #1
 303 00fa 0B43     		orrs	r3, r3, r1
 304 00fc E96A     		ldr	r1, [r5, #44]
 305 00fe 01FA0CF1 		lsl	r1, r1, ip
 306 0102 01F01801 		and	r1, r1, #24
 307 0106 5201     		lsls	r2, r2, #5
 308 0108 0B43     		orrs	r3, r3, r1
 309 010a D2B2     		uxtb	r2, r2
 310 010c 1A43     		orrs	r2, r2, r3
 311 010e 07F47E73 		and	r3, r7, #1016
 312 0112 02FA03F3 		lsl	r3, r2, r3
 313 0116 20F0FF00 		bic	r0, r0, #255
 314              	.LVL45:
 315 011a 0343     		orrs	r3, r3, r0
 316 011c 3351     		str	r3, [r6, r4]
 317              	.LVL46:
 103:Generated_Source\PSoC6\pdl\drivers\peripheral\gpio/cy_gpio.c ****                                          | ((config->ibufMode & CY_GPIO_IBUF_MASK) << CY_GPIO_IBUF_
 104:Generated_Source\PSoC6\pdl\drivers\peripheral\gpio/cy_gpio.c ****                                          | ((config->vtripSel & CY_GPIO_VTRIP_SEL_MASK) << CY_GPIO_
 105:Generated_Source\PSoC6\pdl\drivers\peripheral\gpio/cy_gpio.c ****                                          | ((config->vrefSel & CY_GPIO_VREF_SEL_MASK)  << CY_GPIO_V
 106:Generated_Source\PSoC6\pdl\drivers\peripheral\gpio/cy_gpio.c ****                                          | ((config->vohSel & CY_GPIO_VOH_SEL_MASK) << CY_GPIO_VOH_
 107:Generated_Source\PSoC6\pdl\drivers\peripheral\gpio/cy_gpio.c ****                                            << ((pinNum & CY_GPIO_SIO_ODD_PIN_MASK) << CY_GPIO_CFG_S
 108:Generated_Source\PSoC6\pdl\drivers\peripheral\gpio/cy_gpio.c **** 
 109:Generated_Source\PSoC6\pdl\drivers\peripheral\gpio/cy_gpio.c ****         status = CY_GPIO_SUCCESS;
 318              		.loc 2 109 0
 319 011e 0020     		movs	r0, #0
 320              	.LVL47:
 321 0120 BDE8F883 		pop	{r3, r4, r5, r6, r7, r8, r9, pc}
ARM GAS  C:\Users\cmila\AppData\Local\Temp\ccgUIjp6.s 			page 40


 322              	.LVL48:
 323              	.L12:
 324              	.LBE13:
  62:Generated_Source\PSoC6\pdl\drivers\peripheral\gpio/cy_gpio.c **** 
 325              		.loc 2 62 0
 326 0124 0148     		ldr	r0, .L13
 327              	.LVL49:
 110:Generated_Source\PSoC6\pdl\drivers\peripheral\gpio/cy_gpio.c ****     }
 111:Generated_Source\PSoC6\pdl\drivers\peripheral\gpio/cy_gpio.c **** 
 112:Generated_Source\PSoC6\pdl\drivers\peripheral\gpio/cy_gpio.c ****     return(status);
 113:Generated_Source\PSoC6\pdl\drivers\peripheral\gpio/cy_gpio.c **** }
 328              		.loc 2 113 0
 329 0126 BDE8F883 		pop	{r3, r4, r5, r6, r7, r8, r9, pc}
 330              	.LVL50:
 331              	.L14:
 332 012a 00BF     		.align	2
 333              	.L13:
 334 012c 01005A00 		.word	5898241
 335 0130 00000000 		.word	cy_device
 336              		.cfi_endproc
 337              	.LFE173:
 338              		.size	Cy_GPIO_Pin_Init, .-Cy_GPIO_Pin_Init
 339              		.section	.text.Cy_GPIO_Port_Init,"ax",%progbits
 340              		.align	1
 341              		.global	Cy_GPIO_Port_Init
 342              		.thumb
 343              		.thumb_func
 344              		.type	Cy_GPIO_Port_Init, %function
 345              	Cy_GPIO_Port_Init:
 346              	.LFB174:
 114:Generated_Source\PSoC6\pdl\drivers\peripheral\gpio/cy_gpio.c **** 
 115:Generated_Source\PSoC6\pdl\drivers\peripheral\gpio/cy_gpio.c **** 
 116:Generated_Source\PSoC6\pdl\drivers\peripheral\gpio/cy_gpio.c **** /*******************************************************************************
 117:Generated_Source\PSoC6\pdl\drivers\peripheral\gpio/cy_gpio.c **** * Function Name: Cy_GPIO_Port_Init
 118:Generated_Source\PSoC6\pdl\drivers\peripheral\gpio/cy_gpio.c **** ****************************************************************************//**
 119:Generated_Source\PSoC6\pdl\drivers\peripheral\gpio/cy_gpio.c **** *
 120:Generated_Source\PSoC6\pdl\drivers\peripheral\gpio/cy_gpio.c **** * Initialize a complete port of pins from a single init structure.
 121:Generated_Source\PSoC6\pdl\drivers\peripheral\gpio/cy_gpio.c **** *
 122:Generated_Source\PSoC6\pdl\drivers\peripheral\gpio/cy_gpio.c **** * The configuration structure used in this function has a 1:1 mapping to the
 123:Generated_Source\PSoC6\pdl\drivers\peripheral\gpio/cy_gpio.c **** * GPIO and HSIOM registers. Refer to the device Technical Reference Manual (TRM)
 124:Generated_Source\PSoC6\pdl\drivers\peripheral\gpio/cy_gpio.c **** * for the register details on how to populate them.
 125:Generated_Source\PSoC6\pdl\drivers\peripheral\gpio/cy_gpio.c **** *
 126:Generated_Source\PSoC6\pdl\drivers\peripheral\gpio/cy_gpio.c **** * \param base
 127:Generated_Source\PSoC6\pdl\drivers\peripheral\gpio/cy_gpio.c **** * Pointer to the pin's port register base address
 128:Generated_Source\PSoC6\pdl\drivers\peripheral\gpio/cy_gpio.c **** *
 129:Generated_Source\PSoC6\pdl\drivers\peripheral\gpio/cy_gpio.c **** * \param config
 130:Generated_Source\PSoC6\pdl\drivers\peripheral\gpio/cy_gpio.c **** * Pointer to the pin config structure base address
 131:Generated_Source\PSoC6\pdl\drivers\peripheral\gpio/cy_gpio.c **** *
 132:Generated_Source\PSoC6\pdl\drivers\peripheral\gpio/cy_gpio.c **** * \return
 133:Generated_Source\PSoC6\pdl\drivers\peripheral\gpio/cy_gpio.c **** * Initialization status
 134:Generated_Source\PSoC6\pdl\drivers\peripheral\gpio/cy_gpio.c **** *
 135:Generated_Source\PSoC6\pdl\drivers\peripheral\gpio/cy_gpio.c **** * \note 
 136:Generated_Source\PSoC6\pdl\drivers\peripheral\gpio/cy_gpio.c **** * If using the PSoC Creator IDE, there is no need to initialize the pins when 
 137:Generated_Source\PSoC6\pdl\drivers\peripheral\gpio/cy_gpio.c **** * using the GPIO component on the schematic. Ports are configured in 
 138:Generated_Source\PSoC6\pdl\drivers\peripheral\gpio/cy_gpio.c **** * Cy_SystemInit() before main() entry.
 139:Generated_Source\PSoC6\pdl\drivers\peripheral\gpio/cy_gpio.c **** *
 140:Generated_Source\PSoC6\pdl\drivers\peripheral\gpio/cy_gpio.c **** * \funcusage
ARM GAS  C:\Users\cmila\AppData\Local\Temp\ccgUIjp6.s 			page 41


 141:Generated_Source\PSoC6\pdl\drivers\peripheral\gpio/cy_gpio.c **** * \snippet gpio/gpio_v1_10_sut_01.cydsn/main_cm4.c snippet_Cy_GPIO_Port_Init
 142:Generated_Source\PSoC6\pdl\drivers\peripheral\gpio/cy_gpio.c **** *
 143:Generated_Source\PSoC6\pdl\drivers\peripheral\gpio/cy_gpio.c **** *******************************************************************************/
 144:Generated_Source\PSoC6\pdl\drivers\peripheral\gpio/cy_gpio.c **** cy_en_gpio_status_t Cy_GPIO_Port_Init(GPIO_PRT_Type* base, const cy_stc_gpio_prt_config_t *config)
 145:Generated_Source\PSoC6\pdl\drivers\peripheral\gpio/cy_gpio.c **** {
 347              		.loc 2 145 0
 348              		.cfi_startproc
 349              		@ args = 0, pretend = 0, frame = 0
 350              		@ frame_needed = 0, uses_anonymous_args = 0
 351              	.LVL51:
 352 0000 F0B5     		push	{r4, r5, r6, r7, lr}
 353              		.cfi_def_cfa_offset 20
 354              		.cfi_offset 4, -20
 355              		.cfi_offset 5, -16
 356              		.cfi_offset 6, -12
 357              		.cfi_offset 7, -8
 358              		.cfi_offset 14, -4
 146:Generated_Source\PSoC6\pdl\drivers\peripheral\gpio/cy_gpio.c ****     cy_en_gpio_status_t status = CY_GPIO_BAD_PARAM;
 147:Generated_Source\PSoC6\pdl\drivers\peripheral\gpio/cy_gpio.c **** 
 148:Generated_Source\PSoC6\pdl\drivers\peripheral\gpio/cy_gpio.c ****     if ((NULL != base) && (NULL != config))
 359              		.loc 2 148 0
 360 0002 30B3     		cbz	r0, .L18
 361              		.loc 2 148 0 is_stmt 0 discriminator 1
 362 0004 29B3     		cbz	r1, .L18
 363              	.LBB24:
 149:Generated_Source\PSoC6\pdl\drivers\peripheral\gpio/cy_gpio.c ****     {
 150:Generated_Source\PSoC6\pdl\drivers\peripheral\gpio/cy_gpio.c ****         uint32_t portNum;
 151:Generated_Source\PSoC6\pdl\drivers\peripheral\gpio/cy_gpio.c ****         HSIOM_PRT_V1_Type* baseHSIOM;
 152:Generated_Source\PSoC6\pdl\drivers\peripheral\gpio/cy_gpio.c ****         
 153:Generated_Source\PSoC6\pdl\drivers\peripheral\gpio/cy_gpio.c ****         CY_ASSERT_L2(CY_GPIO_IS_PIN_BIT_VALID(config->out));
 154:Generated_Source\PSoC6\pdl\drivers\peripheral\gpio/cy_gpio.c ****         CY_ASSERT_L2(CY_GPIO_IS_PIN_BIT_VALID(config->cfgIn));
 155:Generated_Source\PSoC6\pdl\drivers\peripheral\gpio/cy_gpio.c ****         CY_ASSERT_L2(CY_GPIO_IS_INTR_CFG_VALID(config->intrCfg));
 156:Generated_Source\PSoC6\pdl\drivers\peripheral\gpio/cy_gpio.c ****         CY_ASSERT_L2(CY_GPIO_IS_INTR_MASK_VALID(config->intrMask));
 157:Generated_Source\PSoC6\pdl\drivers\peripheral\gpio/cy_gpio.c ****         CY_ASSERT_L2(CY_GPIO_IS_SEL_ACT_VALID(config->sel0Active));
 158:Generated_Source\PSoC6\pdl\drivers\peripheral\gpio/cy_gpio.c ****         CY_ASSERT_L2(CY_GPIO_IS_SEL_ACT_VALID(config->sel1Active));
 159:Generated_Source\PSoC6\pdl\drivers\peripheral\gpio/cy_gpio.c ****     
 160:Generated_Source\PSoC6\pdl\drivers\peripheral\gpio/cy_gpio.c ****         portNum = ((uint32_t)(base) - CY_GPIO_BASE) / GPIO_PRT_SECTION_SIZE;
 364              		.loc 2 160 0 is_stmt 1
 365 0006 144B     		ldr	r3, .L19
 161:Generated_Source\PSoC6\pdl\drivers\peripheral\gpio/cy_gpio.c ****         baseHSIOM = (HSIOM_PRT_V1_Type*)(CY_HSIOM_BASE + (HSIOM_PRT_SECTION_SIZE * portNum));
 162:Generated_Source\PSoC6\pdl\drivers\peripheral\gpio/cy_gpio.c **** 
 163:Generated_Source\PSoC6\pdl\drivers\peripheral\gpio/cy_gpio.c ****         GPIO_PRT_OUT(base)             = config->out;
 366              		.loc 2 163 0
 367 0008 0E68     		ldr	r6, [r1]
 160:Generated_Source\PSoC6\pdl\drivers\peripheral\gpio/cy_gpio.c ****         baseHSIOM = (HSIOM_PRT_V1_Type*)(CY_HSIOM_BASE + (HSIOM_PRT_SECTION_SIZE * portNum));
 368              		.loc 2 160 0
 369 000a 1A68     		ldr	r2, [r3]
 370              	.LVL52:
 164:Generated_Source\PSoC6\pdl\drivers\peripheral\gpio/cy_gpio.c ****         GPIO_PRT_CFG(base)             = config->cfg;
 371              		.loc 2 164 0
 372 000c CF68     		ldr	r7, [r1, #12]
 161:Generated_Source\PSoC6\pdl\drivers\peripheral\gpio/cy_gpio.c ****         baseHSIOM = (HSIOM_PRT_V1_Type*)(CY_HSIOM_BASE + (HSIOM_PRT_SECTION_SIZE * portNum));
 373              		.loc 2 161 0
 374 000e 9369     		ldr	r3, [r2, #24]
 375 0010 5469     		ldr	r4, [r2, #20]
 163:Generated_Source\PSoC6\pdl\drivers\peripheral\gpio/cy_gpio.c ****         GPIO_PRT_CFG(base)             = config->cfg;
 376              		.loc 2 163 0
ARM GAS  C:\Users\cmila\AppData\Local\Temp\ccgUIjp6.s 			page 42


 377 0012 0660     		str	r6, [r0]
 378              	.LVL53:
 379              		.loc 2 164 0
 380 0014 92F87D60 		ldrb	r6, [r2, #125]	@ zero_extendqisi2
 381 0018 3750     		str	r7, [r6, r0]
 165:Generated_Source\PSoC6\pdl\drivers\peripheral\gpio/cy_gpio.c ****         GPIO_PRT_CFG_IN(base)          = config->cfgIn;
 382              		.loc 2 165 0
 383 001a 92F87E60 		ldrb	r6, [r2, #126]	@ zero_extendqisi2
 384 001e 0F69     		ldr	r7, [r1, #16]
 385 0020 3750     		str	r7, [r6, r0]
 166:Generated_Source\PSoC6\pdl\drivers\peripheral\gpio/cy_gpio.c ****         GPIO_PRT_CFG_OUT(base)         = config->cfgOut;
 386              		.loc 2 166 0
 387 0022 92F87F60 		ldrb	r6, [r2, #127]	@ zero_extendqisi2
 388 0026 4F69     		ldr	r7, [r1, #20]
 389 0028 3750     		str	r7, [r6, r0]
 167:Generated_Source\PSoC6\pdl\drivers\peripheral\gpio/cy_gpio.c ****         GPIO_PRT_INTR_CFG(base)        = config->intrCfg;
 390              		.loc 2 167 0
 391 002a 92F87C60 		ldrb	r6, [r2, #124]	@ zero_extendqisi2
 392 002e 8F68     		ldr	r7, [r1, #8]
 393 0030 3750     		str	r7, [r6, r0]
 168:Generated_Source\PSoC6\pdl\drivers\peripheral\gpio/cy_gpio.c ****         GPIO_PRT_INTR_MASK(base)       = config->intrMask;
 394              		.loc 2 168 0
 395 0032 4E68     		ldr	r6, [r1, #4]
 396 0034 8661     		str	r6, [r0, #24]
 169:Generated_Source\PSoC6\pdl\drivers\peripheral\gpio/cy_gpio.c ****         GPIO_PRT_CFG_SIO(base)         = config->cfgSIO;
 397              		.loc 2 169 0
 398 0036 92F88020 		ldrb	r2, [r2, #128]	@ zero_extendqisi2
 399 003a 8E69     		ldr	r6, [r1, #24]
 400 003c 1650     		str	r6, [r2, r0]
 161:Generated_Source\PSoC6\pdl\drivers\peripheral\gpio/cy_gpio.c **** 
 401              		.loc 2 161 0
 402 003e C31A     		subs	r3, r0, r3
 403              	.LVL54:
 404 0040 DB09     		lsrs	r3, r3, #7
 405              	.LVL55:
 406 0042 1B01     		lsls	r3, r3, #4
 407              	.LVL56:
 408 0044 1D19     		adds	r5, r3, r4
 409              	.LVL57:
 170:Generated_Source\PSoC6\pdl\drivers\peripheral\gpio/cy_gpio.c ****         HSIOM_PRT_PORT_SEL0(baseHSIOM) = config->sel0Active;
 410              		.loc 2 170 0
 411 0046 CA69     		ldr	r2, [r1, #28]
 412 0048 1A51     		str	r2, [r3, r4]
 171:Generated_Source\PSoC6\pdl\drivers\peripheral\gpio/cy_gpio.c ****         HSIOM_PRT_PORT_SEL1(baseHSIOM) = config->sel1Active;
 413              		.loc 2 171 0
 414 004a 0B6A     		ldr	r3, [r1, #32]
 415 004c 6B60     		str	r3, [r5, #4]
 416              	.LVL58:
 172:Generated_Source\PSoC6\pdl\drivers\peripheral\gpio/cy_gpio.c ****         
 173:Generated_Source\PSoC6\pdl\drivers\peripheral\gpio/cy_gpio.c ****         status = CY_GPIO_SUCCESS;
 417              		.loc 2 173 0
 418 004e 0020     		movs	r0, #0
 419              	.LVL59:
 420 0050 F0BD     		pop	{r4, r5, r6, r7, pc}
 421              	.LVL60:
 422              	.L18:
 423              	.LBE24:
ARM GAS  C:\Users\cmila\AppData\Local\Temp\ccgUIjp6.s 			page 43


 146:Generated_Source\PSoC6\pdl\drivers\peripheral\gpio/cy_gpio.c **** 
 424              		.loc 2 146 0
 425 0052 0248     		ldr	r0, .L19+4
 426              	.LVL61:
 174:Generated_Source\PSoC6\pdl\drivers\peripheral\gpio/cy_gpio.c ****     }
 175:Generated_Source\PSoC6\pdl\drivers\peripheral\gpio/cy_gpio.c ****     
 176:Generated_Source\PSoC6\pdl\drivers\peripheral\gpio/cy_gpio.c ****     return (status);
 177:Generated_Source\PSoC6\pdl\drivers\peripheral\gpio/cy_gpio.c **** }
 427              		.loc 2 177 0
 428 0054 F0BD     		pop	{r4, r5, r6, r7, pc}
 429              	.L20:
 430 0056 00BF     		.align	2
 431              	.L19:
 432 0058 00000000 		.word	cy_device
 433 005c 01005A00 		.word	5898241
 434              		.cfi_endproc
 435              	.LFE174:
 436              		.size	Cy_GPIO_Port_Init, .-Cy_GPIO_Port_Init
 437              		.section	.text.Cy_GPIO_Pin_FastInit,"ax",%progbits
 438              		.align	1
 439              		.global	Cy_GPIO_Pin_FastInit
 440              		.thumb
 441              		.thumb_func
 442              		.type	Cy_GPIO_Pin_FastInit, %function
 443              	Cy_GPIO_Pin_FastInit:
 444              	.LFB175:
 178:Generated_Source\PSoC6\pdl\drivers\peripheral\gpio/cy_gpio.c **** 
 179:Generated_Source\PSoC6\pdl\drivers\peripheral\gpio/cy_gpio.c **** 
 180:Generated_Source\PSoC6\pdl\drivers\peripheral\gpio/cy_gpio.c **** /*******************************************************************************
 181:Generated_Source\PSoC6\pdl\drivers\peripheral\gpio/cy_gpio.c **** * Function Name: Cy_GPIO_Pin_FastInit
 182:Generated_Source\PSoC6\pdl\drivers\peripheral\gpio/cy_gpio.c **** ****************************************************************************//**
 183:Generated_Source\PSoC6\pdl\drivers\peripheral\gpio/cy_gpio.c **** *
 184:Generated_Source\PSoC6\pdl\drivers\peripheral\gpio/cy_gpio.c **** * Initialize the most common configuration settings for all pin types.
 185:Generated_Source\PSoC6\pdl\drivers\peripheral\gpio/cy_gpio.c **** *
 186:Generated_Source\PSoC6\pdl\drivers\peripheral\gpio/cy_gpio.c **** * These include, drive mode, initial output value, and HSIOM connection.
 187:Generated_Source\PSoC6\pdl\drivers\peripheral\gpio/cy_gpio.c **** *
 188:Generated_Source\PSoC6\pdl\drivers\peripheral\gpio/cy_gpio.c **** * \param base
 189:Generated_Source\PSoC6\pdl\drivers\peripheral\gpio/cy_gpio.c **** * Pointer to the pin's port register base address
 190:Generated_Source\PSoC6\pdl\drivers\peripheral\gpio/cy_gpio.c **** *
 191:Generated_Source\PSoC6\pdl\drivers\peripheral\gpio/cy_gpio.c **** * \param pinNum
 192:Generated_Source\PSoC6\pdl\drivers\peripheral\gpio/cy_gpio.c **** * Position of the pin bit-field within the port register
 193:Generated_Source\PSoC6\pdl\drivers\peripheral\gpio/cy_gpio.c **** *
 194:Generated_Source\PSoC6\pdl\drivers\peripheral\gpio/cy_gpio.c **** * \param driveMode
 195:Generated_Source\PSoC6\pdl\drivers\peripheral\gpio/cy_gpio.c **** * Pin drive mode. Options are detailed in \ref group_gpio_driveModes macros
 196:Generated_Source\PSoC6\pdl\drivers\peripheral\gpio/cy_gpio.c **** *
 197:Generated_Source\PSoC6\pdl\drivers\peripheral\gpio/cy_gpio.c **** * \param outVal
 198:Generated_Source\PSoC6\pdl\drivers\peripheral\gpio/cy_gpio.c **** * Logic state of the output buffer driven to the pin (1 or 0)
 199:Generated_Source\PSoC6\pdl\drivers\peripheral\gpio/cy_gpio.c **** *
 200:Generated_Source\PSoC6\pdl\drivers\peripheral\gpio/cy_gpio.c **** * \param hsiom
 201:Generated_Source\PSoC6\pdl\drivers\peripheral\gpio/cy_gpio.c **** * HSIOM input selection
 202:Generated_Source\PSoC6\pdl\drivers\peripheral\gpio/cy_gpio.c **** *
 203:Generated_Source\PSoC6\pdl\drivers\peripheral\gpio/cy_gpio.c **** * \note 
 204:Generated_Source\PSoC6\pdl\drivers\peripheral\gpio/cy_gpio.c **** * This function modifies port registers in read-modify-write operations. It is
 205:Generated_Source\PSoC6\pdl\drivers\peripheral\gpio/cy_gpio.c **** * not thread safe as the resource is shared among multiple pins on a port.
 206:Generated_Source\PSoC6\pdl\drivers\peripheral\gpio/cy_gpio.c **** * You can use the Cy_SysLib_EnterCriticalSection() and 
 207:Generated_Source\PSoC6\pdl\drivers\peripheral\gpio/cy_gpio.c **** * Cy_SysLib_ExitCriticalSection() functions to ensure that 
 208:Generated_Source\PSoC6\pdl\drivers\peripheral\gpio/cy_gpio.c **** * Cy_GPIO_Pin_FastInit() function execution is not interrupted.
ARM GAS  C:\Users\cmila\AppData\Local\Temp\ccgUIjp6.s 			page 44


 209:Generated_Source\PSoC6\pdl\drivers\peripheral\gpio/cy_gpio.c **** *
 210:Generated_Source\PSoC6\pdl\drivers\peripheral\gpio/cy_gpio.c **** * \funcusage
 211:Generated_Source\PSoC6\pdl\drivers\peripheral\gpio/cy_gpio.c **** * \snippet gpio/gpio_v1_10_sut_01.cydsn/main_cm4.c snippet_Cy_GPIO_Pin_FastInit
 212:Generated_Source\PSoC6\pdl\drivers\peripheral\gpio/cy_gpio.c **** *
 213:Generated_Source\PSoC6\pdl\drivers\peripheral\gpio/cy_gpio.c **** *******************************************************************************/
 214:Generated_Source\PSoC6\pdl\drivers\peripheral\gpio/cy_gpio.c **** void Cy_GPIO_Pin_FastInit(GPIO_PRT_Type* base, uint32_t pinNum, uint32_t driveMode,
 215:Generated_Source\PSoC6\pdl\drivers\peripheral\gpio/cy_gpio.c ****                                         uint32_t outVal, en_hsiom_sel_t hsiom)
 216:Generated_Source\PSoC6\pdl\drivers\peripheral\gpio/cy_gpio.c **** {
 445              		.loc 2 216 0
 446              		.cfi_startproc
 447              		@ args = 4, pretend = 0, frame = 0
 448              		@ frame_needed = 0, uses_anonymous_args = 0
 449              	.LVL62:
 450 0000 F0B5     		push	{r4, r5, r6, r7, lr}
 451              		.cfi_def_cfa_offset 20
 452              		.cfi_offset 4, -20
 453              		.cfi_offset 5, -16
 454              		.cfi_offset 6, -12
 455              		.cfi_offset 7, -8
 456              		.cfi_offset 14, -4
 217:Generated_Source\PSoC6\pdl\drivers\peripheral\gpio/cy_gpio.c ****     CY_ASSERT_L2(CY_GPIO_IS_PIN_VALID(pinNum));
 218:Generated_Source\PSoC6\pdl\drivers\peripheral\gpio/cy_gpio.c ****     CY_ASSERT_L2(CY_GPIO_IS_DM_VALID(driveMode));
 219:Generated_Source\PSoC6\pdl\drivers\peripheral\gpio/cy_gpio.c ****     CY_ASSERT_L2(CY_GPIO_IS_VALUE_VALID(outVal));
 220:Generated_Source\PSoC6\pdl\drivers\peripheral\gpio/cy_gpio.c ****     CY_ASSERT_L2(CY_GPIO_IS_HSIOM_VALID(hsiom));
 221:Generated_Source\PSoC6\pdl\drivers\peripheral\gpio/cy_gpio.c **** 
 222:Generated_Source\PSoC6\pdl\drivers\peripheral\gpio/cy_gpio.c ****     uint32_t tempReg;
 223:Generated_Source\PSoC6\pdl\drivers\peripheral\gpio/cy_gpio.c **** 
 224:Generated_Source\PSoC6\pdl\drivers\peripheral\gpio/cy_gpio.c ****     tempReg = (GPIO_PRT_OUT(base) & ~(CY_GPIO_OUT_MASK << pinNum));
 457              		.loc 2 224 0
 458 0002 0768     		ldr	r7, [r0]
 459              	.LVL63:
 216:Generated_Source\PSoC6\pdl\drivers\peripheral\gpio/cy_gpio.c ****     CY_ASSERT_L2(CY_GPIO_IS_PIN_VALID(pinNum));
 460              		.loc 2 216 0
 461 0004 9DF81460 		ldrb	r6, [sp, #20]	@ zero_extendqisi2
 225:Generated_Source\PSoC6\pdl\drivers\peripheral\gpio/cy_gpio.c ****     GPIO_PRT_OUT(base) = tempReg | ((outVal & CY_GPIO_OUT_MASK) << pinNum);
 462              		.loc 2 225 0
 463 0008 4FF0010E 		mov	lr, #1
 464 000c 0EFA01FE 		lsl	lr, lr, r1
 465 0010 03F00103 		and	r3, r3, #1
 466              	.LVL64:
 467 0014 27EA0E07 		bic	r7, r7, lr
 468              	.LVL65:
 469 0018 8B40     		lsls	r3, r3, r1
 470 001a 3B43     		orrs	r3, r3, r7
 471 001c 0360     		str	r3, [r0]
 226:Generated_Source\PSoC6\pdl\drivers\peripheral\gpio/cy_gpio.c **** 
 227:Generated_Source\PSoC6\pdl\drivers\peripheral\gpio/cy_gpio.c ****     tempReg = (GPIO_PRT_CFG(base) & ~(CY_GPIO_CFG_DM_MASK << (pinNum << CY_GPIO_DRIVE_MODE_OFFSET))
 472              		.loc 2 227 0
 473 001e 0B4B     		ldr	r3, .L22
 474 0020 1B68     		ldr	r3, [r3]
 475 0022 93F87DE0 		ldrb	lr, [r3, #125]	@ zero_extendqisi2
 476 0026 8C00     		lsls	r4, r1, #2
 477 0028 50F80E70 		ldr	r7, [r0, lr]
 478              	.LVL66:
 228:Generated_Source\PSoC6\pdl\drivers\peripheral\gpio/cy_gpio.c ****     GPIO_PRT_CFG(base) = tempReg | ((driveMode & CY_GPIO_CFG_DM_MASK) << (pinNum << CY_GPIO_DRIVE_M
 479              		.loc 2 228 0
 480 002c 0F23     		movs	r3, #15
ARM GAS  C:\Users\cmila\AppData\Local\Temp\ccgUIjp6.s 			page 45


 481 002e A340     		lsls	r3, r3, r4
 482 0030 02F00F02 		and	r2, r2, #15
 483              	.LVL67:
 484 0034 27EA0303 		bic	r3, r7, r3
 485              	.LVL68:
 486 0038 02FA04F4 		lsl	r4, r2, r4
 487 003c 1C43     		orrs	r4, r4, r3
 488 003e 40F80E40 		str	r4, [r0, lr]
 229:Generated_Source\PSoC6\pdl\drivers\peripheral\gpio/cy_gpio.c **** 
 230:Generated_Source\PSoC6\pdl\drivers\peripheral\gpio/cy_gpio.c ****     Cy_GPIO_SetHSIOM(base, pinNum, hsiom);
 489              		.loc 2 230 0
 490 0042 3246     		mov	r2, r6
 231:Generated_Source\PSoC6\pdl\drivers\peripheral\gpio/cy_gpio.c **** }
 491              		.loc 2 231 0
 492 0044 BDE8F040 		pop	{r4, r5, r6, r7, lr}
 493              		.cfi_restore 14
 494              		.cfi_restore 7
 495              		.cfi_restore 6
 496              		.cfi_restore 5
 497              		.cfi_restore 4
 498              		.cfi_def_cfa_offset 0
 499              	.LVL69:
 230:Generated_Source\PSoC6\pdl\drivers\peripheral\gpio/cy_gpio.c **** }
 500              		.loc 2 230 0
 501 0048 FFF7FEBF 		b	Cy_GPIO_SetHSIOM
 502              	.LVL70:
 503              	.L23:
 504              		.align	2
 505              	.L22:
 506 004c 00000000 		.word	cy_device
 507              		.cfi_endproc
 508              	.LFE175:
 509              		.size	Cy_GPIO_Pin_FastInit, .-Cy_GPIO_Pin_FastInit
 510              		.section	.text.Cy_GPIO_Port_Deinit,"ax",%progbits
 511              		.align	1
 512              		.global	Cy_GPIO_Port_Deinit
 513              		.thumb
 514              		.thumb_func
 515              		.type	Cy_GPIO_Port_Deinit, %function
 516              	Cy_GPIO_Port_Deinit:
 517              	.LFB176:
 232:Generated_Source\PSoC6\pdl\drivers\peripheral\gpio/cy_gpio.c **** 
 233:Generated_Source\PSoC6\pdl\drivers\peripheral\gpio/cy_gpio.c **** 
 234:Generated_Source\PSoC6\pdl\drivers\peripheral\gpio/cy_gpio.c **** /*******************************************************************************
 235:Generated_Source\PSoC6\pdl\drivers\peripheral\gpio/cy_gpio.c **** * Function Name: Cy_GPIO_Port_Deinit
 236:Generated_Source\PSoC6\pdl\drivers\peripheral\gpio/cy_gpio.c **** ****************************************************************************//**
 237:Generated_Source\PSoC6\pdl\drivers\peripheral\gpio/cy_gpio.c **** *
 238:Generated_Source\PSoC6\pdl\drivers\peripheral\gpio/cy_gpio.c **** * Reset a complete port of pins back to power on reset defaults.
 239:Generated_Source\PSoC6\pdl\drivers\peripheral\gpio/cy_gpio.c **** *
 240:Generated_Source\PSoC6\pdl\drivers\peripheral\gpio/cy_gpio.c **** * \param base
 241:Generated_Source\PSoC6\pdl\drivers\peripheral\gpio/cy_gpio.c **** * Pointer to the pin's port register base address
 242:Generated_Source\PSoC6\pdl\drivers\peripheral\gpio/cy_gpio.c **** *
 243:Generated_Source\PSoC6\pdl\drivers\peripheral\gpio/cy_gpio.c **** * \funcusage
 244:Generated_Source\PSoC6\pdl\drivers\peripheral\gpio/cy_gpio.c **** * \snippet gpio/gpio_v1_10_sut_01.cydsn/main_cm4.c snippet_Cy_GPIO_Port_Deinit
 245:Generated_Source\PSoC6\pdl\drivers\peripheral\gpio/cy_gpio.c **** *
 246:Generated_Source\PSoC6\pdl\drivers\peripheral\gpio/cy_gpio.c **** *******************************************************************************/
 247:Generated_Source\PSoC6\pdl\drivers\peripheral\gpio/cy_gpio.c **** void Cy_GPIO_Port_Deinit(GPIO_PRT_Type* base)
ARM GAS  C:\Users\cmila\AppData\Local\Temp\ccgUIjp6.s 			page 46


 248:Generated_Source\PSoC6\pdl\drivers\peripheral\gpio/cy_gpio.c **** {
 518              		.loc 2 248 0
 519              		.cfi_startproc
 520              		@ args = 0, pretend = 0, frame = 0
 521              		@ frame_needed = 0, uses_anonymous_args = 0
 522              	.LVL71:
 523 0000 70B5     		push	{r4, r5, r6, lr}
 524              		.cfi_def_cfa_offset 16
 525              		.cfi_offset 4, -16
 526              		.cfi_offset 5, -12
 527              		.cfi_offset 6, -8
 528              		.cfi_offset 14, -4
 249:Generated_Source\PSoC6\pdl\drivers\peripheral\gpio/cy_gpio.c ****     uint32_t portNum;
 250:Generated_Source\PSoC6\pdl\drivers\peripheral\gpio/cy_gpio.c ****     HSIOM_PRT_V1_Type* baseHSIOM;
 251:Generated_Source\PSoC6\pdl\drivers\peripheral\gpio/cy_gpio.c **** 
 252:Generated_Source\PSoC6\pdl\drivers\peripheral\gpio/cy_gpio.c ****     portNum = ((uint32_t)(base) - CY_GPIO_BASE) / GPIO_PRT_SECTION_SIZE;
 529              		.loc 2 252 0
 530 0002 0E4B     		ldr	r3, .L25
 531 0004 1968     		ldr	r1, [r3]
 532              	.LVL72:
 253:Generated_Source\PSoC6\pdl\drivers\peripheral\gpio/cy_gpio.c ****     baseHSIOM = (HSIOM_PRT_V1_Type*)(CY_HSIOM_BASE + (HSIOM_PRT_SECTION_SIZE * portNum));
 254:Generated_Source\PSoC6\pdl\drivers\peripheral\gpio/cy_gpio.c **** 
 255:Generated_Source\PSoC6\pdl\drivers\peripheral\gpio/cy_gpio.c ****     GPIO_PRT_OUT(base)             = CY_GPIO_PRT_DEINIT;
 533              		.loc 2 255 0
 534 0006 0023     		movs	r3, #0
 253:Generated_Source\PSoC6\pdl\drivers\peripheral\gpio/cy_gpio.c ****     baseHSIOM = (HSIOM_PRT_V1_Type*)(CY_HSIOM_BASE + (HSIOM_PRT_SECTION_SIZE * portNum));
 535              		.loc 2 253 0
 536 0008 8A69     		ldr	r2, [r1, #24]
 537 000a 4C69     		ldr	r4, [r1, #20]
 538              		.loc 2 255 0
 539 000c 0360     		str	r3, [r0]
 540              	.LVL73:
 256:Generated_Source\PSoC6\pdl\drivers\peripheral\gpio/cy_gpio.c ****     GPIO_PRT_CFG(base)             = CY_GPIO_PRT_DEINIT;
 541              		.loc 2 256 0
 542 000e 91F87D60 		ldrb	r6, [r1, #125]	@ zero_extendqisi2
 543 0012 3350     		str	r3, [r6, r0]
 257:Generated_Source\PSoC6\pdl\drivers\peripheral\gpio/cy_gpio.c ****     GPIO_PRT_CFG_IN(base)          = CY_GPIO_PRT_DEINIT;
 544              		.loc 2 257 0
 545 0014 91F87E60 		ldrb	r6, [r1, #126]	@ zero_extendqisi2
