Archive member included to satisfy reference by file (symbol)

c:/program files (x86)/cypress/psoc creator/4.4/psoc creator/import/gnu/arm/5.4.1/bin/../lib/gcc/arm-none-eabi/5.4.1/armv7e-m/softfp\libgcc.a(_arm_addsubdf3.o)
                              .\CortexM4\ARM_GCC_541\Release\cy_sysclk.o (__aeabi_f2d)
c:/program files (x86)/cypress/psoc creator/4.4/psoc creator/import/gnu/arm/5.4.1/bin/../lib/gcc/arm-none-eabi/5.4.1/armv7e-m/softfp\libgcc.a(_arm_muldivdf3.o)
                              .\CortexM4\ARM_GCC_541\Release\cy_sysclk.o (__aeabi_ddiv)
c:/program files (x86)/cypress/psoc creator/4.4/psoc creator/import/gnu/arm/5.4.1/bin/../lib/gcc/arm-none-eabi/5.4.1/armv7e-m/softfp\libgcc.a(_arm_fixunsdfsi.o)
                              .\CortexM4\ARM_GCC_541\Release\cy_sysclk.o (__aeabi_d2uiz)
c:/program files (x86)/cypress/psoc creator/4.4/psoc creator/import/gnu/arm/5.4.1/bin/../lib/gcc/arm-none-eabi/5.4.1/armv7e-m/softfp\libgcc.a(_aeabi_uldivmod.o)
                              .\CortexM4\ARM_GCC_541\Release\cy_sysclk.o (__aeabi_uldivmod)
c:/program files (x86)/cypress/psoc creator/4.4/psoc creator/import/gnu/arm/5.4.1/bin/../lib/gcc/arm-none-eabi/5.4.1/armv7e-m/softfp\libgcc.a(_udivmoddi4.o)
                              c:/program files (x86)/cypress/psoc creator/4.4/psoc creator/import/gnu/arm/5.4.1/bin/../lib/gcc/arm-none-eabi/5.4.1/armv7e-m/softfp\libgcc.a(_aeabi_uldivmod.o) (__udivmoddi4)
c:/program files (x86)/cypress/psoc creator/4.4/psoc creator/import/gnu/arm/5.4.1/bin/../lib/gcc/arm-none-eabi/5.4.1/armv7e-m/softfp\libgcc.a(_dvmd_tls.o)
                              c:/program files (x86)/cypress/psoc creator/4.4/psoc creator/import/gnu/arm/5.4.1/bin/../lib/gcc/arm-none-eabi/5.4.1/armv7e-m/softfp\libgcc.a(_aeabi_uldivmod.o) (__aeabi_ldiv0)
c:/program files (x86)/cypress/psoc creator/4.4/psoc creator/import/gnu/arm/5.4.1/bin/../lib/gcc/arm-none-eabi/5.4.1/../../../../arm-none-eabi/lib/armv7e-m/softfp\libg_nano.a(lib_a-calloc.o)
                              .\CortexM4\ARM_GCC_541\Release\main_cm4.o (calloc)
c:/program files (x86)/cypress/psoc creator/4.4/psoc creator/import/gnu/arm/5.4.1/bin/../lib/gcc/arm-none-eabi/5.4.1/../../../../arm-none-eabi/lib/armv7e-m/softfp\libg_nano.a(lib_a-exit.o)
                              c:/program files (x86)/cypress/psoc creator/4.4/psoc creator/import/gnu/arm/5.4.1/bin/../lib/gcc/arm-none-eabi/5.4.1/../../../../arm-none-eabi/lib/armv7e-m/softfp/crt0.o (exit)
c:/program files (x86)/cypress/psoc creator/4.4/psoc creator/import/gnu/arm/5.4.1/bin/../lib/gcc/arm-none-eabi/5.4.1/../../../../arm-none-eabi/lib/armv7e-m/softfp\libg_nano.a(lib_a-impure.o)
                              c:/program files (x86)/cypress/psoc creator/4.4/psoc creator/import/gnu/arm/5.4.1/bin/../lib/gcc/arm-none-eabi/5.4.1/../../../../arm-none-eabi/lib/armv7e-m/softfp\libg_nano.a(lib_a-exit.o) (_global_impure_ptr)
c:/program files (x86)/cypress/psoc creator/4.4/psoc creator/import/gnu/arm/5.4.1/bin/../lib/gcc/arm-none-eabi/5.4.1/../../../../arm-none-eabi/lib/armv7e-m/softfp\libg_nano.a(lib_a-init.o)
                              c:/program files (x86)/cypress/psoc creator/4.4/psoc creator/import/gnu/arm/5.4.1/bin/../lib/gcc/arm-none-eabi/5.4.1/../../../../arm-none-eabi/lib/armv7e-m/softfp/crt0.o (__libc_init_array)
c:/program files (x86)/cypress/psoc creator/4.4/psoc creator/import/gnu/arm/5.4.1/bin/../lib/gcc/arm-none-eabi/5.4.1/../../../../arm-none-eabi/lib/armv7e-m/softfp\libg_nano.a(lib_a-malloc.o)
                              .\CortexM4\ARM_GCC_541\Release\command_queue.o (malloc)
c:/program files (x86)/cypress/psoc creator/4.4/psoc creator/import/gnu/arm/5.4.1/bin/../lib/gcc/arm-none-eabi/5.4.1/../../../../arm-none-eabi/lib/armv7e-m/softfp\libg_nano.a(lib_a-memcpy-stub.o)
                              .\CortexM4\ARM_GCC_541\Release\command_queue.o (memcpy)
c:/program files (x86)/cypress/psoc creator/4.4/psoc creator/import/gnu/arm/5.4.1/bin/../lib/gcc/arm-none-eabi/5.4.1/../../../../arm-none-eabi/lib/armv7e-m/softfp\libg_nano.a(lib_a-memset.o)
                              c:/program files (x86)/cypress/psoc creator/4.4/psoc creator/import/gnu/arm/5.4.1/bin/../lib/gcc/arm-none-eabi/5.4.1/../../../../arm-none-eabi/lib/armv7e-m/softfp/crt0.o (memset)
c:/program files (x86)/cypress/psoc creator/4.4/psoc creator/import/gnu/arm/5.4.1/bin/../lib/gcc/arm-none-eabi/5.4.1/../../../../arm-none-eabi/lib/armv7e-m/softfp\libg_nano.a(lib_a-nano-callocr.o)
                              c:/program files (x86)/cypress/psoc creator/4.4/psoc creator/import/gnu/arm/5.4.1/bin/../lib/gcc/arm-none-eabi/5.4.1/../../../../arm-none-eabi/lib/armv7e-m/softfp\libg_nano.a(lib_a-calloc.o) (_calloc_r)
c:/program files (x86)/cypress/psoc creator/4.4/psoc creator/import/gnu/arm/5.4.1/bin/../lib/gcc/arm-none-eabi/5.4.1/../../../../arm-none-eabi/lib/armv7e-m/softfp\libg_nano.a(lib_a-nano-freer.o)
                              c:/program files (x86)/cypress/psoc creator/4.4/psoc creator/import/gnu/arm/5.4.1/bin/../lib/gcc/arm-none-eabi/5.4.1/../../../../arm-none-eabi/lib/armv7e-m/softfp\libg_nano.a(lib_a-malloc.o) (_free_r)
c:/program files (x86)/cypress/psoc creator/4.4/psoc creator/import/gnu/arm/5.4.1/bin/../lib/gcc/arm-none-eabi/5.4.1/../../../../arm-none-eabi/lib/armv7e-m/softfp\libg_nano.a(lib_a-nano-mallocr.o)
                              c:/program files (x86)/cypress/psoc creator/4.4/psoc creator/import/gnu/arm/5.4.1/bin/../lib/gcc/arm-none-eabi/5.4.1/../../../../arm-none-eabi/lib/armv7e-m/softfp\libg_nano.a(lib_a-malloc.o) (_malloc_r)
c:/program files (x86)/cypress/psoc creator/4.4/psoc creator/import/gnu/arm/5.4.1/bin/../lib/gcc/arm-none-eabi/5.4.1/../../../../arm-none-eabi/lib/armv7e-m/softfp\libg_nano.a(lib_a-nano-vfprintf_float.o)
                              .\CortexM4\ARM_GCC_541\Release\retarget.o (_printf_float)
c:/program files (x86)/cypress/psoc creator/4.4/psoc creator/import/gnu/arm/5.4.1/bin/../lib/gcc/arm-none-eabi/5.4.1/../../../../arm-none-eabi/lib/armv7e-m/softfp\libg_nano.a(lib_a-nano-vfprintf_i.o)
                              c:/program files (x86)/cypress/psoc creator/4.4/psoc creator/import/gnu/arm/5.4.1/bin/../lib/gcc/arm-none-eabi/5.4.1/../../../../arm-none-eabi/lib/armv7e-m/softfp\libg_nano.a(lib_a-nano-vfprintf_float.o) (_printf_common)
c:/program files (x86)/cypress/psoc creator/4.4/psoc creator/import/gnu/arm/5.4.1/bin/../lib/gcc/arm-none-eabi/5.4.1/../../../../arm-none-eabi/lib/armv7e-m/softfp\libg_nano.a(lib_a-nano-vfscanf_float.o)
                              .\CortexM4\ARM_GCC_541\Release\retarget.o (_scanf_float)
c:/program files (x86)/cypress/psoc creator/4.4/psoc creator/import/gnu/arm/5.4.1/bin/../lib/gcc/arm-none-eabi/5.4.1/../../../../arm-none-eabi/lib/armv7e-m/softfp\libg_nano.a(lib_a-printf.o)
                              .\CortexM4\ARM_GCC_541\Release\main_cm4.o (printf)
c:/program files (x86)/cypress/psoc creator/4.4/psoc creator/import/gnu/arm/5.4.1/bin/../lib/gcc/arm-none-eabi/5.4.1/../../../../arm-none-eabi/lib/armv7e-m/softfp\libg_nano.a(lib_a-sbrkr.o)
                              c:/program files (x86)/cypress/psoc creator/4.4/psoc creator/import/gnu/arm/5.4.1/bin/../lib/gcc/arm-none-eabi/5.4.1/../../../../arm-none-eabi/lib/armv7e-m/softfp\libg_nano.a(lib_a-nano-mallocr.o) (_sbrk_r)
c:/program files (x86)/cypress/psoc creator/4.4/psoc creator/import/gnu/arm/5.4.1/bin/../lib/gcc/arm-none-eabi/5.4.1/../../../../arm-none-eabi/lib/armv7e-m/softfp\libg_nano.a(lib_a-setvbuf.o)
                              .\CortexM4\ARM_GCC_541\Release\main_cm4.o (setvbuf)
c:/program files (x86)/cypress/psoc creator/4.4/psoc creator/import/gnu/arm/5.4.1/bin/../lib/gcc/arm-none-eabi/5.4.1/../../../../arm-none-eabi/lib/armv7e-m/softfp\libg_nano.a(lib_a-sf_nan.o)
                              c:/program files (x86)/cypress/psoc creator/4.4/psoc creator/import/gnu/arm/5.4.1/bin/../lib/gcc/arm-none-eabi/5.4.1/../../../../arm-none-eabi/lib/armv7e-m/softfp\libg_nano.a(lib_a-nano-vfscanf_float.o) (nanf)
c:/program files (x86)/cypress/psoc creator/4.4/psoc creator/import/gnu/arm/5.4.1/bin/../lib/gcc/arm-none-eabi/5.4.1/../../../../arm-none-eabi/lib/armv7e-m/softfp\libg_nano.a(lib_a-sprintf.o)
                              c:/program files (x86)/cypress/psoc creator/4.4/psoc creator/import/gnu/arm/5.4.1/bin/../lib/gcc/arm-none-eabi/5.4.1/../../../../arm-none-eabi/lib/armv7e-m/softfp\libg_nano.a(lib_a-nano-vfscanf_float.o) (sprintf)
c:/program files (x86)/cypress/psoc creator/4.4/psoc creator/import/gnu/arm/5.4.1/bin/../lib/gcc/arm-none-eabi/5.4.1/../../../../arm-none-eabi/lib/armv7e-m/softfp\libg_nano.a(lib_a-strlen.o)
                              c:/program files (x86)/cypress/psoc creator/4.4/psoc creator/import/gnu/arm/5.4.1/bin/../lib/gcc/arm-none-eabi/5.4.1/../../../../arm-none-eabi/lib/armv7e-m/softfp\libg_nano.a(lib_a-nano-vfprintf_float.o) (strlen)
c:/program files (x86)/cypress/psoc creator/4.4/psoc creator/import/gnu/arm/5.4.1/bin/../lib/gcc/arm-none-eabi/5.4.1/../../../../arm-none-eabi/lib/armv7e-m/softfp\libg_nano.a(lib_a-strtod.o)
                              c:/program files (x86)/cypress/psoc creator/4.4/psoc creator/import/gnu/arm/5.4.1/bin/../lib/gcc/arm-none-eabi/5.4.1/../../../../arm-none-eabi/lib/armv7e-m/softfp\libg_nano.a(lib_a-nano-vfscanf_float.o) (_strtod_r)
c:/program files (x86)/cypress/psoc creator/4.4/psoc creator/import/gnu/arm/5.4.1/bin/../lib/gcc/arm-none-eabi/5.4.1/../../../../arm-none-eabi/lib/armv7e-m/softfp\libg_nano.a(lib_a-strtol.o)
                              c:/program files (x86)/cypress/psoc creator/4.4/psoc creator/import/gnu/arm/5.4.1/bin/../lib/gcc/arm-none-eabi/5.4.1/../../../../arm-none-eabi/lib/armv7e-m/softfp\libg_nano.a(lib_a-nano-vfscanf_float.o) (_strtol_r)
c:/program files (x86)/cypress/psoc creator/4.4/psoc creator/import/gnu/arm/5.4.1/bin/../lib/gcc/arm-none-eabi/5.4.1/../../../../arm-none-eabi/lib/armv7e-m/softfp\libg_nano.a(lib_a-ctype_.o)
                              c:/program files (x86)/cypress/psoc creator/4.4/psoc creator/import/gnu/arm/5.4.1/bin/../lib/gcc/arm-none-eabi/5.4.1/../../../../arm-none-eabi/lib/armv7e-m/softfp\libg_nano.a(lib_a-strtol.o) (__ctype_ptr__)
c:/program files (x86)/cypress/psoc creator/4.4/psoc creator/import/gnu/arm/5.4.1/bin/../lib/gcc/arm-none-eabi/5.4.1/../../../../arm-none-eabi/lib/armv7e-m/softfp\libg_nano.a(lib_a-dtoa.o)
                              c:/program files (x86)/cypress/psoc creator/4.4/psoc creator/import/gnu/arm/5.4.1/bin/../lib/gcc/arm-none-eabi/5.4.1/../../../../arm-none-eabi/lib/armv7e-m/softfp\libg_nano.a(lib_a-nano-vfprintf_float.o) (_dtoa_r)
c:/program files (x86)/cypress/psoc creator/4.4/psoc creator/import/gnu/arm/5.4.1/bin/../lib/gcc/arm-none-eabi/5.4.1/../../../../arm-none-eabi/lib/armv7e-m/softfp\libg_nano.a(lib_a-fflush.o)
                              c:/program files (x86)/cypress/psoc creator/4.4/psoc creator/import/gnu/arm/5.4.1/bin/../lib/gcc/arm-none-eabi/5.4.1/../../../../arm-none-eabi/lib/armv7e-m/softfp\libg_nano.a(lib_a-setvbuf.o) (_fflush_r)
c:/program files (x86)/cypress/psoc creator/4.4/psoc creator/import/gnu/arm/5.4.1/bin/../lib/gcc/arm-none-eabi/5.4.1/../../../../arm-none-eabi/lib/armv7e-m/softfp\libg_nano.a(lib_a-findfp.o)
                              c:/program files (x86)/cypress/psoc creator/4.4/psoc creator/import/gnu/arm/5.4.1/bin/../lib/gcc/arm-none-eabi/5.4.1/../../../../arm-none-eabi/lib/armv7e-m/softfp\libg_nano.a(lib_a-printf.o) (__sinit)
c:/program files (x86)/cypress/psoc creator/4.4/psoc creator/import/gnu/arm/5.4.1/bin/../lib/gcc/arm-none-eabi/5.4.1/../../../../arm-none-eabi/lib/armv7e-m/softfp\libg_nano.a(lib_a-fwalk.o)
                              c:/program files (x86)/cypress/psoc creator/4.4/psoc creator/import/gnu/arm/5.4.1/bin/../lib/gcc/arm-none-eabi/5.4.1/../../../../arm-none-eabi/lib/armv7e-m/softfp\libg_nano.a(lib_a-findfp.o) (_fwalk)
c:/program files (x86)/cypress/psoc creator/4.4/psoc creator/import/gnu/arm/5.4.1/bin/../lib/gcc/arm-none-eabi/5.4.1/../../../../arm-none-eabi/lib/armv7e-m/softfp\libg_nano.a(lib_a-gdtoa-gethex.o)
                              c:/program files (x86)/cypress/psoc creator/4.4/psoc creator/import/gnu/arm/5.4.1/bin/../lib/gcc/arm-none-eabi/5.4.1/../../../../arm-none-eabi/lib/armv7e-m/softfp\libg_nano.a(lib_a-strtod.o) (__gethex)
c:/program files (x86)/cypress/psoc creator/4.4/psoc creator/import/gnu/arm/5.4.1/bin/../lib/gcc/arm-none-eabi/5.4.1/../../../../arm-none-eabi/lib/armv7e-m/softfp\libg_nano.a(lib_a-gdtoa-hexnan.o)
                              c:/program files (x86)/cypress/psoc creator/4.4/psoc creator/import/gnu/arm/5.4.1/bin/../lib/gcc/arm-none-eabi/5.4.1/../../../../arm-none-eabi/lib/armv7e-m/softfp\libg_nano.a(lib_a-strtod.o) (__match)
c:/program files (x86)/cypress/psoc creator/4.4/psoc creator/import/gnu/arm/5.4.1/bin/../lib/gcc/arm-none-eabi/5.4.1/../../../../arm-none-eabi/lib/armv7e-m/softfp\libg_nano.a(lib_a-locale.o)
                              c:/program files (x86)/cypress/psoc creator/4.4/psoc creator/import/gnu/arm/5.4.1/bin/../lib/gcc/arm-none-eabi/5.4.1/../../../../arm-none-eabi/lib/armv7e-m/softfp\libg_nano.a(lib_a-nano-vfprintf_float.o) (_localeconv_r)
c:/program files (x86)/cypress/psoc creator/4.4/psoc creator/import/gnu/arm/5.4.1/bin/../lib/gcc/arm-none-eabi/5.4.1/../../../../arm-none-eabi/lib/armv7e-m/softfp\libg_nano.a(lib_a-makebuf.o)
                              c:/program files (x86)/cypress/psoc creator/4.4/psoc creator/import/gnu/arm/5.4.1/bin/../lib/gcc/arm-none-eabi/5.4.1/../../../../arm-none-eabi/lib/armv7e-m/softfp\libg_nano.a(lib_a-setvbuf.o) (__swhatbuf_r)
c:/program files (x86)/cypress/psoc creator/4.4/psoc creator/import/gnu/arm/5.4.1/bin/../lib/gcc/arm-none-eabi/5.4.1/../../../../arm-none-eabi/lib/armv7e-m/softfp\libg_nano.a(lib_a-memchr.o)
                              c:/program files (x86)/cypress/psoc creator/4.4/psoc creator/import/gnu/arm/5.4.1/bin/../lib/gcc/arm-none-eabi/5.4.1/../../../../arm-none-eabi/lib/armv7e-m/softfp\libg_nano.a(lib_a-nano-vfprintf_i.o) (memchr)
c:/program files (x86)/cypress/psoc creator/4.4/psoc creator/import/gnu/arm/5.4.1/bin/../lib/gcc/arm-none-eabi/5.4.1/../../../../arm-none-eabi/lib/armv7e-m/softfp\libg_nano.a(lib_a-mlock.o)
                              c:/program files (x86)/cypress/psoc creator/4.4/psoc creator/import/gnu/arm/5.4.1/bin/../lib/gcc/arm-none-eabi/5.4.1/../../../../arm-none-eabi/lib/armv7e-m/softfp\libg_nano.a(lib_a-nano-freer.o) (__malloc_lock)
c:/program files (x86)/cypress/psoc creator/4.4/psoc creator/import/gnu/arm/5.4.1/bin/../lib/gcc/arm-none-eabi/5.4.1/../../../../arm-none-eabi/lib/armv7e-m/softfp\libg_nano.a(lib_a-mprec.o)
                              c:/program files (x86)/cypress/psoc creator/4.4/psoc creator/import/gnu/arm/5.4.1/bin/../lib/gcc/arm-none-eabi/5.4.1/../../../../arm-none-eabi/lib/armv7e-m/softfp\libg_nano.a(lib_a-strtod.o) (_Balloc)
c:/program files (x86)/cypress/psoc creator/4.4/psoc creator/import/gnu/arm/5.4.1/bin/../lib/gcc/arm-none-eabi/5.4.1/../../../../arm-none-eabi/lib/armv7e-m/softfp\libg_nano.a(lib_a-nano-svfprintf.o)
                              c:/program files (x86)/cypress/psoc creator/4.4/psoc creator/import/gnu/arm/5.4.1/bin/../lib/gcc/arm-none-eabi/5.4.1/../../../../arm-none-eabi/lib/armv7e-m/softfp\libg_nano.a(lib_a-sprintf.o) (_svfprintf_r)
c:/program files (x86)/cypress/psoc creator/4.4/psoc creator/import/gnu/arm/5.4.1/bin/../lib/gcc/arm-none-eabi/5.4.1/../../../../arm-none-eabi/lib/armv7e-m/softfp\libg_nano.a(lib_a-nano-vfprintf.o)
                              c:/program files (x86)/cypress/psoc creator/4.4/psoc creator/import/gnu/arm/5.4.1/bin/../lib/gcc/arm-none-eabi/5.4.1/../../../../arm-none-eabi/lib/armv7e-m/softfp\libg_nano.a(lib_a-printf.o) (_vfprintf_r)
c:/program files (x86)/cypress/psoc creator/4.4/psoc creator/import/gnu/arm/5.4.1/bin/../lib/gcc/arm-none-eabi/5.4.1/../../../../arm-none-eabi/lib/armv7e-m/softfp\libg_nano.a(lib_a-reent.o)
                              c:/program files (x86)/cypress/psoc creator/4.4/psoc creator/import/gnu/arm/5.4.1/bin/../lib/gcc/arm-none-eabi/5.4.1/../../../../arm-none-eabi/lib/armv7e-m/softfp\libg_nano.a(lib_a-sbrkr.o) (errno)
c:/program files (x86)/cypress/psoc creator/4.4/psoc creator/import/gnu/arm/5.4.1/bin/../lib/gcc/arm-none-eabi/5.4.1/../../../../arm-none-eabi/lib/armv7e-m/softfp\libg_nano.a(lib_a-stdio.o)
                              c:/program files (x86)/cypress/psoc creator/4.4/psoc creator/import/gnu/arm/5.4.1/bin/../lib/gcc/arm-none-eabi/5.4.1/../../../../arm-none-eabi/lib/armv7e-m/softfp\libg_nano.a(lib_a-findfp.o) (__sread)
c:/program files (x86)/cypress/psoc creator/4.4/psoc creator/import/gnu/arm/5.4.1/bin/../lib/gcc/arm-none-eabi/5.4.1/../../../../arm-none-eabi/lib/armv7e-m/softfp\libg_nano.a(lib_a-strcmp.o)
                              c:/program files (x86)/cypress/psoc creator/4.4/psoc creator/import/gnu/arm/5.4.1/bin/../lib/gcc/arm-none-eabi/5.4.1/../../../../arm-none-eabi/lib/armv7e-m/softfp\libg_nano.a(lib_a-locale.o) (strcmp)
c:/program files (x86)/cypress/psoc creator/4.4/psoc creator/import/gnu/arm/5.4.1/bin/../lib/gcc/arm-none-eabi/5.4.1/../../../../arm-none-eabi/lib/armv7e-m/softfp\libg_nano.a(lib_a-strncmp.o)
                              c:/program files (x86)/cypress/psoc creator/4.4/psoc creator/import/gnu/arm/5.4.1/bin/../lib/gcc/arm-none-eabi/5.4.1/../../../../arm-none-eabi/lib/armv7e-m/softfp\libg_nano.a(lib_a-strtod.o) (strncmp)
c:/program files (x86)/cypress/psoc creator/4.4/psoc creator/import/gnu/arm/5.4.1/bin/../lib/gcc/arm-none-eabi/5.4.1/../../../../arm-none-eabi/lib/armv7e-m/softfp\libg_nano.a(lib_a-wbuf.o)
                              c:/program files (x86)/cypress/psoc creator/4.4/psoc creator/import/gnu/arm/5.4.1/bin/../lib/gcc/arm-none-eabi/5.4.1/../../../../arm-none-eabi/lib/armv7e-m/softfp\libg_nano.a(lib_a-nano-vfprintf.o) (__swbuf_r)
c:/program files (x86)/cypress/psoc creator/4.4/psoc creator/import/gnu/arm/5.4.1/bin/../lib/gcc/arm-none-eabi/5.4.1/../../../../arm-none-eabi/lib/armv7e-m/softfp\libg_nano.a(lib_a-writer.o)
                              c:/program files (x86)/cypress/psoc creator/4.4/psoc creator/import/gnu/arm/5.4.1/bin/../lib/gcc/arm-none-eabi/5.4.1/../../../../arm-none-eabi/lib/armv7e-m/softfp\libg_nano.a(lib_a-stdio.o) (_write_r)
c:/program files (x86)/cypress/psoc creator/4.4/psoc creator/import/gnu/arm/5.4.1/bin/../lib/gcc/arm-none-eabi/5.4.1/../../../../arm-none-eabi/lib/armv7e-m/softfp\libg_nano.a(lib_a-wsetup.o)
                              c:/program files (x86)/cypress/psoc creator/4.4/psoc creator/import/gnu/arm/5.4.1/bin/../lib/gcc/arm-none-eabi/5.4.1/../../../../arm-none-eabi/lib/armv7e-m/softfp\libg_nano.a(lib_a-nano-vfprintf.o) (__swsetup_r)
c:/program files (x86)/cypress/psoc creator/4.4/psoc creator/import/gnu/arm/5.4.1/bin/../lib/gcc/arm-none-eabi/5.4.1/../../../../arm-none-eabi/lib/armv7e-m/softfp\libg_nano.a(lib_a-closer.o)
                              c:/program files (x86)/cypress/psoc creator/4.4/psoc creator/import/gnu/arm/5.4.1/bin/../lib/gcc/arm-none-eabi/5.4.1/../../../../arm-none-eabi/lib/armv7e-m/softfp\libg_nano.a(lib_a-stdio.o) (_close_r)
c:/program files (x86)/cypress/psoc creator/4.4/psoc creator/import/gnu/arm/5.4.1/bin/../lib/gcc/arm-none-eabi/5.4.1/../../../../arm-none-eabi/lib/armv7e-m/softfp\libg_nano.a(lib_a-fstatr.o)
                              c:/program files (x86)/cypress/psoc creator/4.4/psoc creator/import/gnu/arm/5.4.1/bin/../lib/gcc/arm-none-eabi/5.4.1/../../../../arm-none-eabi/lib/armv7e-m/softfp\libg_nano.a(lib_a-makebuf.o) (_fstat_r)
c:/program files (x86)/cypress/psoc creator/4.4/psoc creator/import/gnu/arm/5.4.1/bin/../lib/gcc/arm-none-eabi/5.4.1/../../../../arm-none-eabi/lib/armv7e-m/softfp\libg_nano.a(lib_a-fvwrite.o)
                              c:/program files (x86)/cypress/psoc creator/4.4/psoc creator/import/gnu/arm/5.4.1/bin/../lib/gcc/arm-none-eabi/5.4.1/../../../../arm-none-eabi/lib/armv7e-m/softfp\libg_nano.a(lib_a-nano-vfprintf.o) (__sfvwrite_r)
c:/program files (x86)/cypress/psoc creator/4.4/psoc creator/import/gnu/arm/5.4.1/bin/../lib/gcc/arm-none-eabi/5.4.1/../../../../arm-none-eabi/lib/armv7e-m/softfp\libg_nano.a(lib_a-isattyr.o)
                              c:/program files (x86)/cypress/psoc creator/4.4/psoc creator/import/gnu/arm/5.4.1/bin/../lib/gcc/arm-none-eabi/5.4.1/../../../../arm-none-eabi/lib/armv7e-m/softfp\libg_nano.a(lib_a-makebuf.o) (_isatty_r)
c:/program files (x86)/cypress/psoc creator/4.4/psoc creator/import/gnu/arm/5.4.1/bin/../lib/gcc/arm-none-eabi/5.4.1/../../../../arm-none-eabi/lib/armv7e-m/softfp\libg_nano.a(lib_a-lseekr.o)
                              c:/program files (x86)/cypress/psoc creator/4.4/psoc creator/import/gnu/arm/5.4.1/bin/../lib/gcc/arm-none-eabi/5.4.1/../../../../arm-none-eabi/lib/armv7e-m/softfp\libg_nano.a(lib_a-stdio.o) (_lseek_r)
c:/program files (x86)/cypress/psoc creator/4.4/psoc creator/import/gnu/arm/5.4.1/bin/../lib/gcc/arm-none-eabi/5.4.1/../../../../arm-none-eabi/lib/armv7e-m/softfp\libg_nano.a(lib_a-memmove.o)
                              c:/program files (x86)/cypress/psoc creator/4.4/psoc creator/import/gnu/arm/5.4.1/bin/../lib/gcc/arm-none-eabi/5.4.1/../../../../arm-none-eabi/lib/armv7e-m/softfp\libg_nano.a(lib_a-nano-svfprintf.o) (memmove)
c:/program files (x86)/cypress/psoc creator/4.4/psoc creator/import/gnu/arm/5.4.1/bin/../lib/gcc/arm-none-eabi/5.4.1/../../../../arm-none-eabi/lib/armv7e-m/softfp\libg_nano.a(lib_a-nano-reallocr.o)
                              c:/program files (x86)/cypress/psoc creator/4.4/psoc creator/import/gnu/arm/5.4.1/bin/../lib/gcc/arm-none-eabi/5.4.1/../../../../arm-none-eabi/lib/armv7e-m/softfp\libg_nano.a(lib_a-nano-svfprintf.o) (_realloc_r)
c:/program files (x86)/cypress/psoc creator/4.4/psoc creator/import/gnu/arm/5.4.1/bin/../lib/gcc/arm-none-eabi/5.4.1/../../../../arm-none-eabi/lib/armv7e-m/softfp\libg_nano.a(lib_a-readr.o)
                              c:/program files (x86)/cypress/psoc creator/4.4/psoc creator/import/gnu/arm/5.4.1/bin/../lib/gcc/arm-none-eabi/5.4.1/../../../../arm-none-eabi/lib/armv7e-m/softfp\libg_nano.a(lib_a-stdio.o) (_read_r)
c:/program files (x86)/cypress/psoc creator/4.4/psoc creator/import/gnu/arm/5.4.1/bin/../lib/gcc/arm-none-eabi/5.4.1/../../../../arm-none-eabi/lib/armv7e-m/softfp\libg_nano.a(lib_a-nano-msizer.o)
                              c:/program files (x86)/cypress/psoc creator/4.4/psoc creator/import/gnu/arm/5.4.1/bin/../lib/gcc/arm-none-eabi/5.4.1/../../../../arm-none-eabi/lib/armv7e-m/softfp\libg_nano.a(lib_a-nano-reallocr.o) (_malloc_usable_size_r)
c:/program files (x86)/cypress/psoc creator/4.4/psoc creator/import/gnu/arm/5.4.1/bin/../lib/gcc/arm-none-eabi/5.4.1/armv7e-m/softfp\libgcc.a(_arm_cmpdf2.o)
                              c:/program files (x86)/cypress/psoc creator/4.4/psoc creator/import/gnu/arm/5.4.1/bin/../lib/gcc/arm-none-eabi/5.4.1/../../../../arm-none-eabi/lib/armv7e-m/softfp\libg_nano.a(lib_a-nano-vfprintf_float.o) (__aeabi_dcmpeq)
c:/program files (x86)/cypress/psoc creator/4.4/psoc creator/import/gnu/arm/5.4.1/bin/../lib/gcc/arm-none-eabi/5.4.1/armv7e-m/softfp\libgcc.a(_arm_unorddf2.o)
                              c:/program files (x86)/cypress/psoc creator/4.4/psoc creator/import/gnu/arm/5.4.1/bin/../lib/gcc/arm-none-eabi/5.4.1/../../../../arm-none-eabi/lib/armv7e-m/softfp\libg_nano.a(lib_a-nano-vfprintf_float.o) (__aeabi_dcmpun)
c:/program files (x86)/cypress/psoc creator/4.4/psoc creator/import/gnu/arm/5.4.1/bin/../lib/gcc/arm-none-eabi/5.4.1/armv7e-m/softfp\libgcc.a(_arm_fixdfsi.o)
                              c:/program files (x86)/cypress/psoc creator/4.4/psoc creator/import/gnu/arm/5.4.1/bin/../lib/gcc/arm-none-eabi/5.4.1/../../../../arm-none-eabi/lib/armv7e-m/softfp\libg_nano.a(lib_a-strtod.o) (__aeabi_d2iz)
c:/program files (x86)/cypress/psoc creator/4.4/psoc creator/import/gnu/arm/5.4.1/bin/../lib/gcc/arm-none-eabi/5.4.1/armv7e-m/softfp\libgcc.a(_arm_truncdfsf2.o)
                              c:/program files (x86)/cypress/psoc creator/4.4/psoc creator/import/gnu/arm/5.4.1/bin/../lib/gcc/arm-none-eabi/5.4.1/../../../../arm-none-eabi/lib/armv7e-m/softfp\libg_nano.a(lib_a-nano-vfscanf_float.o) (__aeabi_d2f)
c:/program files (x86)/cypress/psoc creator/4.4/psoc creator/import/gnu/arm/5.4.1/bin/../lib/gcc/arm-none-eabi/5.4.1/../../../../arm-none-eabi/lib/armv7e-m/softfp\libnosys.a(close.o)
                              c:/program files (x86)/cypress/psoc creator/4.4/psoc creator/import/gnu/arm/5.4.1/bin/../lib/gcc/arm-none-eabi/5.4.1/../../../../arm-none-eabi/lib/armv7e-m/softfp\libg_nano.a(lib_a-closer.o) (_close)
c:/program files (x86)/cypress/psoc creator/4.4/psoc creator/import/gnu/arm/5.4.1/bin/../lib/gcc/arm-none-eabi/5.4.1/../../../../arm-none-eabi/lib/armv7e-m/softfp\libnosys.a(fstat.o)
                              c:/program files (x86)/cypress/psoc creator/4.4/psoc creator/import/gnu/arm/5.4.1/bin/../lib/gcc/arm-none-eabi/5.4.1/../../../../arm-none-eabi/lib/armv7e-m/softfp\libg_nano.a(lib_a-fstatr.o) (_fstat)
c:/program files (x86)/cypress/psoc creator/4.4/psoc creator/import/gnu/arm/5.4.1/bin/../lib/gcc/arm-none-eabi/5.4.1/../../../../arm-none-eabi/lib/armv7e-m/softfp\libnosys.a(isatty.o)
                              c:/program files (x86)/cypress/psoc creator/4.4/psoc creator/import/gnu/arm/5.4.1/bin/../lib/gcc/arm-none-eabi/5.4.1/../../../../arm-none-eabi/lib/armv7e-m/softfp\libg_nano.a(lib_a-isattyr.o) (_isatty)
c:/program files (x86)/cypress/psoc creator/4.4/psoc creator/import/gnu/arm/5.4.1/bin/../lib/gcc/arm-none-eabi/5.4.1/../../../../arm-none-eabi/lib/armv7e-m/softfp\libnosys.a(lseek.o)
                              c:/program files (x86)/cypress/psoc creator/4.4/psoc creator/import/gnu/arm/5.4.1/bin/../lib/gcc/arm-none-eabi/5.4.1/../../../../arm-none-eabi/lib/armv7e-m/softfp\libg_nano.a(lib_a-lseekr.o) (_lseek)
c:/program files (x86)/cypress/psoc creator/4.4/psoc creator/import/gnu/arm/5.4.1/bin/../lib/gcc/arm-none-eabi/5.4.1/../../../../arm-none-eabi/lib/armv7e-m/softfp\libnosys.a(sbrk.o)
                              c:/program files (x86)/cypress/psoc creator/4.4/psoc creator/import/gnu/arm/5.4.1/bin/../lib/gcc/arm-none-eabi/5.4.1/../../../../arm-none-eabi/lib/armv7e-m/softfp\libg_nano.a(lib_a-sbrkr.o) (_sbrk)
c:/program files (x86)/cypress/psoc creator/4.4/psoc creator/import/gnu/arm/5.4.1/bin/../lib/gcc/arm-none-eabi/5.4.1/../../../../arm-none-eabi/lib/armv7e-m/softfp\libnosys.a(_exit.o)
                              c:/program files (x86)/cypress/psoc creator/4.4/psoc creator/import/gnu/arm/5.4.1/bin/../lib/gcc/arm-none-eabi/5.4.1/../../../../arm-none-eabi/lib/armv7e-m/softfp\libg_nano.a(lib_a-exit.o) (_exit)
c:/program files (x86)/cypress/psoc creator/4.4/psoc creator/import/gnu/arm/5.4.1/bin/../lib/gcc/arm-none-eabi/5.4.1/../../../../arm-none-eabi/lib/armv7e-m/softfp\libm.a(lib_a-s_floor.o)
                              .\CortexM4\ARM_GCC_541\Release\cy_sysclk.o (floor)
c:/program files (x86)/cypress/psoc creator/4.4/psoc creator/import/gnu/arm/5.4.1/bin/../lib/gcc/arm-none-eabi/5.4.1/../../../../arm-none-eabi/lib/armv7e-m/softfp\libm.a(lib_a-sf_ceil.o)
                              .\CortexM4\ARM_GCC_541\Release\cy_sysclk.o (ceilf)
c:/program files (x86)/cypress/psoc creator/4.4/psoc creator/import/gnu/arm/5.4.1/bin/../lib/gcc/arm-none-eabi/5.4.1/../../../../arm-none-eabi/lib/armv7e-m/softfp\libm.a(lib_a-w_log.o)
                              .\CortexM4\ARM_GCC_541\Release\cy_sysclk.o (log)
c:/program files (x86)/cypress/psoc creator/4.4/psoc creator/import/gnu/arm/5.4.1/bin/../lib/gcc/arm-none-eabi/5.4.1/../../../../arm-none-eabi/lib/armv7e-m/softfp\libm.a(lib_a-e_log.o)
                              c:/program files (x86)/cypress/psoc creator/4.4/psoc creator/import/gnu/arm/5.4.1/bin/../lib/gcc/arm-none-eabi/5.4.1/../../../../arm-none-eabi/lib/armv7e-m/softfp\libm.a(lib_a-w_log.o) (__ieee754_log)
c:/program files (x86)/cypress/psoc creator/4.4/psoc creator/import/gnu/arm/5.4.1/bin/../lib/gcc/arm-none-eabi/5.4.1/../../../../arm-none-eabi/lib/armv7e-m/softfp\libm.a(lib_a-s_lib_ver.o)
                              c:/program files (x86)/cypress/psoc creator/4.4/psoc creator/import/gnu/arm/5.4.1/bin/../lib/gcc/arm-none-eabi/5.4.1/../../../../arm-none-eabi/lib/armv7e-m/softfp\libm.a(lib_a-w_log.o) (__fdlib_version)
c:/program files (x86)/cypress/psoc creator/4.4/psoc creator/import/gnu/arm/5.4.1/bin/../lib/gcc/arm-none-eabi/5.4.1/../../../../arm-none-eabi/lib/armv7e-m/softfp\libm.a(lib_a-s_matherr.o)
                              c:/program files (x86)/cypress/psoc creator/4.4/psoc creator/import/gnu/arm/5.4.1/bin/../lib/gcc/arm-none-eabi/5.4.1/../../../../arm-none-eabi/lib/armv7e-m/softfp\libm.a(lib_a-w_log.o) (matherr)
c:/program files (x86)/cypress/psoc creator/4.4/psoc creator/import/gnu/arm/5.4.1/bin/../lib/gcc/arm-none-eabi/5.4.1/../../../../arm-none-eabi/lib/armv7e-m/softfp\libm.a(lib_a-s_nan.o)
                              c:/program files (x86)/cypress/psoc creator/4.4/psoc creator/import/gnu/arm/5.4.1/bin/../lib/gcc/arm-none-eabi/5.4.1/../../../../arm-none-eabi/lib/armv7e-m/softfp\libm.a(lib_a-w_log.o) (nan)
c:/program files (x86)/cypress/psoc creator/4.4/psoc creator/import/gnu/arm/5.4.1/bin/../lib/gcc/arm-none-eabi/5.4.1/../../../../arm-none-eabi/lib/armv7e-m/softfp\libc.a(lib_a-errno.o)
                              c:/program files (x86)/cypress/psoc creator/4.4/psoc creator/import/gnu/arm/5.4.1/bin/../lib/gcc/arm-none-eabi/5.4.1/../../../../arm-none-eabi/lib/armv7e-m/softfp\libm.a(lib_a-w_log.o) (__errno)

Allocating common symbols
Common symbol       size              file

UART_context        0x34              .\CortexM4\ARM_GCC_541\Release\UART.o
dac_phase_two       0x2               .\CortexM4\ARM_GCC_541\Release\main_cm4.o
COMMAND_QUEUE       0x8               .\CortexM4\ARM_GCC_541\Release\main_cm4.o
errno               0x4               c:/program files (x86)/cypress/psoc creator/4.4/psoc creator/import/gnu/arm/5.4.1/bin/../lib/gcc/arm-none-eabi/5.4.1/../../../../arm-none-eabi/lib/armv7e-m/softfp\libg_nano.a(lib_a-reent.o)
dac_gap             0x2               .\CortexM4\ARM_GCC_541\Release\main_cm4.o
pulse_num_in_one_burst
                    0x4               .\CortexM4\ARM_GCC_541\Release\main_cm4.o
ramp_up             0x1               .\CortexM4\ARM_GCC_541\Release\main_cm4.o
stim_amp            0x2               .\CortexM4\ARM_GCC_541\Release\main_cm4.o
burst_num           0x4               .\CortexM4\ARM_GCC_541\Release\main_cm4.o
stim_status         0x4               .\CortexM4\ARM_GCC_541\Release\main_cm4.o
short_electrode     0x1               .\CortexM4\ARM_GCC_541\Release\main_cm4.o
stim_type           0x1               .\CortexM4\ARM_GCC_541\Release\main_cm4.o
dac_phase_one       0x2               .\CortexM4\ARM_GCC_541\Release\main_cm4.o
inter_burst_delay   0x4               .\CortexM4\ARM_GCC_541\Release\main_cm4.o
num_pulses          0x4               .\CortexM4\ARM_GCC_541\Release\main_cm4.o
cy_device           0x4               .\CortexM4\ARM_GCC_541\Release\cy_device.o
anodic_cathodic     0x1               .\CortexM4\ARM_GCC_541\Release\main_cm4.o

Discarded input sections

 .text          0x00000000        0x0 c:/program files (x86)/cypress/psoc creator/4.4/psoc creator/import/gnu/arm/5.4.1/bin/../lib/gcc/arm-none-eabi/5.4.1/armv7e-m/softfp/crti.o
 .data          0x00000000        0x0 c:/program files (x86)/cypress/psoc creator/4.4/psoc creator/import/gnu/arm/5.4.1/bin/../lib/gcc/arm-none-eabi/5.4.1/armv7e-m/softfp/crti.o
 .bss           0x00000000        0x0 c:/program files (x86)/cypress/psoc creator/4.4/psoc creator/import/gnu/arm/5.4.1/bin/../lib/gcc/arm-none-eabi/5.4.1/armv7e-m/softfp/crti.o
 .data          0x00000000        0x4 c:/program files (x86)/cypress/psoc creator/4.4/psoc creator/import/gnu/arm/5.4.1/bin/../lib/gcc/arm-none-eabi/5.4.1/armv7e-m/softfp/crtbegin.o
 .text          0x00000000       0x74 c:/program files (x86)/cypress/psoc creator/4.4/psoc creator/import/gnu/arm/5.4.1/bin/../lib/gcc/arm-none-eabi/5.4.1/../../../../arm-none-eabi/lib/armv7e-m/softfp/crt0.o
 .data          0x00000000        0x0 c:/program files (x86)/cypress/psoc creator/4.4/psoc creator/import/gnu/arm/5.4.1/bin/../lib/gcc/arm-none-eabi/5.4.1/../../../../arm-none-eabi/lib/armv7e-m/softfp/crt0.o
 .bss           0x00000000        0x0 c:/program files (x86)/cypress/psoc creator/4.4/psoc creator/import/gnu/arm/5.4.1/bin/../lib/gcc/arm-none-eabi/5.4.1/../../../../arm-none-eabi/lib/armv7e-m/softfp/crt0.o
 .ARM.extab     0x00000000        0x0 c:/program files (x86)/cypress/psoc creator/4.4/psoc creator/import/gnu/arm/5.4.1/bin/../lib/gcc/arm-none-eabi/5.4.1/../../../../arm-none-eabi/lib/armv7e-m/softfp/crt0.o
 .ARM.exidx     0x00000000        0x8 c:/program files (x86)/cypress/psoc creator/4.4/psoc creator/import/gnu/arm/5.4.1/bin/../lib/gcc/arm-none-eabi/5.4.1/../../../../arm-none-eabi/lib/armv7e-m/softfp/crt0.o
 .ARM.attributes
                0x00000000       0x20 c:/program files (x86)/cypress/psoc creator/4.4/psoc creator/import/gnu/arm/5.4.1/bin/../lib/gcc/arm-none-eabi/5.4.1/../../../../arm-none-eabi/lib/armv7e-m/softfp/crt0.o
 .data          0x00000000        0x0 .\CortexM4\ARM_GCC_541\Release\startup_psoc6_01_cm4.o
 .bss           0x00000000        0x0 .\CortexM4\ARM_GCC_541\Release\startup_psoc6_01_cm4.o
 .text          0x00000000        0x0 .\CortexM4\ARM_GCC_541\Release\main_cm4.o
 .data          0x00000000        0x0 .\CortexM4\ARM_GCC_541\Release\main_cm4.o
 .text          0x00000000        0x0 .\CortexM4\ARM_GCC_541\Release\system_psoc6_cm4.o
 .text          0x00000000        0x0 .\CortexM4\ARM_GCC_541\Release\command_parse.o
 .data          0x00000000        0x0 .\CortexM4\ARM_GCC_541\Release\command_parse.o
 .bss           0x00000000        0x0 .\CortexM4\ARM_GCC_541\Release\command_parse.o
 .text          0x00000000        0x0 .\CortexM4\ARM_GCC_541\Release\command_queue.o
 .data          0x00000000        0x0 .\CortexM4\ARM_GCC_541\Release\command_queue.o
 .bss           0x00000000        0x0 .\CortexM4\ARM_GCC_541\Release\command_queue.o
 .text.InitQueue
                0x00000000       0x16 .\CortexM4\ARM_GCC_541\Release\command_queue.o
 .text.EnQueue  0x00000000       0x28 .\CortexM4\ARM_GCC_541\Release\command_queue.o
 .text.DestroyQueue
                0x00000000       0x18 .\CortexM4\ARM_GCC_541\Release\command_queue.o
 .text          0x00000000        0x0 .\CortexM4\ARM_GCC_541\Release\stdio_user.o
 .data          0x00000000        0x0 .\CortexM4\ARM_GCC_541\Release\stdio_user.o
 .bss           0x00000000        0x0 .\CortexM4\ARM_GCC_541\Release\stdio_user.o
 .text          0x00000000        0x0 .\CortexM4\ARM_GCC_541\Release\cyfitter_sysint_cfg.o
 .data          0x00000000        0x0 .\CortexM4\ARM_GCC_541\Release\cyfitter_sysint_cfg.o
 .bss           0x00000000        0x0 .\CortexM4\ARM_GCC_541\Release\cyfitter_sysint_cfg.o
 .text          0x00000000        0x0 .\CortexM4\ARM_GCC_541\Release\cymetadata.o
 .data          0x00000000        0x0 .\CortexM4\ARM_GCC_541\Release\cymetadata.o
 .bss           0x00000000        0x0 .\CortexM4\ARM_GCC_541\Release\cymetadata.o
 .text          0x00000000        0x0 .\CortexM4\ARM_GCC_541\Release\Timer.o
 .data          0x00000000        0x0 .\CortexM4\ARM_GCC_541\Release\Timer.o
 .bss           0x00000000        0x1 .\CortexM4\ARM_GCC_541\Release\Timer.o
 .text.Timer_Start
                0x00000000       0x2c .\CortexM4\ARM_GCC_541\Release\Timer.o
 .text          0x00000000        0x0 .\CortexM4\ARM_GCC_541\Release\UART.o
 .data          0x00000000        0x0 .\CortexM4\ARM_GCC_541\Release\UART.o
 .text          0x00000000        0x0 .\CortexM4\ARM_GCC_541\Release\cy_efuse.o
 .data          0x00000000        0x0 .\CortexM4\ARM_GCC_541\Release\cy_efuse.o
 .bss           0x00000000        0x4 .\CortexM4\ARM_GCC_541\Release\cy_efuse.o
 .text.Cy_EFUSE_GetEfuseByte
                0x00000000       0xa0 .\CortexM4\ARM_GCC_541\Release\cy_efuse.o
 .text.Cy_EFUSE_GetEfuseBit
                0x00000000       0x38 .\CortexM4\ARM_GCC_541\Release\cy_efuse.o
 .text.Cy_EFUSE_GetExternalStatus
                0x00000000        0xc .\CortexM4\ARM_GCC_541\Release\cy_efuse.o
 .debug_info    0x00000000      0x900 .\CortexM4\ARM_GCC_541\Release\cy_efuse.o
 .debug_abbrev  0x00000000      0x244 .\CortexM4\ARM_GCC_541\Release\cy_efuse.o
 .debug_loc     0x00000000      0x203 .\CortexM4\ARM_GCC_541\Release\cy_efuse.o
 .debug_aranges
                0x00000000       0x30 .\CortexM4\ARM_GCC_541\Release\cy_efuse.o
 .debug_ranges  0x00000000       0x38 .\CortexM4\ARM_GCC_541\Release\cy_efuse.o
 .debug_line    0x00000000      0x338 .\CortexM4\ARM_GCC_541\Release\cy_efuse.o
 .debug_str     0x00000000      0x9ff .\CortexM4\ARM_GCC_541\Release\cy_efuse.o
 .comment       0x00000000       0x6f .\CortexM4\ARM_GCC_541\Release\cy_efuse.o
 .debug_frame   0x00000000       0x60 .\CortexM4\ARM_GCC_541\Release\cy_efuse.o
 .ARM.attributes
                0x00000000       0x37 .\CortexM4\ARM_GCC_541\Release\cy_efuse.o
 .text          0x00000000        0x0 .\CortexM4\ARM_GCC_541\Release\cy_flash.o
 .data          0x00000000        0x0 .\CortexM4\ARM_GCC_541\Release\cy_flash.o
 .text.Cy_Flash_EraseRow
                0x00000000       0x74 .\CortexM4\ARM_GCC_541\Release\cy_flash.o
 .text.Cy_Flash_ProgramRow
                0x00000000       0x7c .\CortexM4\ARM_GCC_541\Release\cy_flash.o
 .text.Cy_Flash_WriteRow
                0x00000000       0x7c .\CortexM4\ARM_GCC_541\Release\cy_flash.o
 .text.Cy_Flash_IsOperationComplete
                0x00000000        0x4 .\CortexM4\ARM_GCC_541\Release\cy_flash.o
 .text.Cy_Flash_StartErase
                0x00000000       0x88 .\CortexM4\ARM_GCC_541\Release\cy_flash.o
 .text.Cy_Flash_StartProgram
                0x00000000       0x90 .\CortexM4\ARM_GCC_541\Release\cy_flash.o
 .text.Cy_Flash_StartWrite
                0x00000000       0x40 .\CortexM4\ARM_GCC_541\Release\cy_flash.o
 .text.Cy_Flash_RowChecksum
                0x00000000       0xc0 .\CortexM4\ARM_GCC_541\Release\cy_flash.o
 .text.Cy_Flash_CalculateHash
                0x00000000       0x6c .\CortexM4\ARM_GCC_541\Release\cy_flash.o
 .text.Cy_Flash_GetExternalStatus
                0x00000000        0xc .\CortexM4\ARM_GCC_541\Release\cy_flash.o
 .text          0x00000000        0x0 .\CortexM4\ARM_GCC_541\Release\cy_gpio.o
 .data          0x00000000        0x0 .\CortexM4\ARM_GCC_541\Release\cy_gpio.o
 .bss           0x00000000        0x0 .\CortexM4\ARM_GCC_541\Release\cy_gpio.o
 .text.Cy_GPIO_SetHSIOM
                0x00000000       0x4c .\CortexM4\ARM_GCC_541\Release\cy_gpio.o
 .text.Cy_GPIO_Pin_Init
                0x00000000      0x134 .\CortexM4\ARM_GCC_541\Release\cy_gpio.o
 .text.Cy_GPIO_Port_Init
                0x00000000       0x60 .\CortexM4\ARM_GCC_541\Release\cy_gpio.o
 .text.Cy_GPIO_Pin_FastInit
                0x00000000       0x50 .\CortexM4\ARM_GCC_541\Release\cy_gpio.o
 .text.Cy_GPIO_Port_Deinit
                0x00000000       0x40 .\CortexM4\ARM_GCC_541\Release\cy_gpio.o
 .text.Cy_GPIO_SetAmuxSplit
                0x00000000       0x34 .\CortexM4\ARM_GCC_541\Release\cy_gpio.o
 .text.Cy_GPIO_GetAmuxSplit
                0x00000000       0x20 .\CortexM4\ARM_GCC_541\Release\cy_gpio.o
 .debug_info    0x00000000     0x1e82 .\CortexM4\ARM_GCC_541\Release\cy_gpio.o
 .debug_abbrev  0x00000000      0x287 .\CortexM4\ARM_GCC_541\Release\cy_gpio.o
 .debug_loc     0x00000000      0x7aa .\CortexM4\ARM_GCC_541\Release\cy_gpio.o
 .debug_aranges
                0x00000000       0x50 .\CortexM4\ARM_GCC_541\Release\cy_gpio.o
 .debug_ranges  0x00000000       0x40 .\CortexM4\ARM_GCC_541\Release\cy_gpio.o
 .debug_line    0x00000000      0x3c8 .\CortexM4\ARM_GCC_541\Release\cy_gpio.o
 .debug_str     0x00000000     0x3732 .\CortexM4\ARM_GCC_541\Release\cy_gpio.o
 .comment       0x00000000       0x6f .\CortexM4\ARM_GCC_541\Release\cy_gpio.o
 .debug_frame   0x00000000       0xf0 .\CortexM4\ARM_GCC_541\Release\cy_gpio.o
 .ARM.attributes
                0x00000000       0x37 .\CortexM4\ARM_GCC_541\Release\cy_gpio.o
 .text          0x00000000        0x0 .\CortexM4\ARM_GCC_541\Release\cy_ipc_drv.o
 .data          0x00000000        0x0 .\CortexM4\ARM_GCC_541\Release\cy_ipc_drv.o
 .bss           0x00000000        0x0 .\CortexM4\ARM_GCC_541\Release\cy_ipc_drv.o
 .text          0x00000000        0x0 .\CortexM4\ARM_GCC_541\Release\cy_ipc_sema.o
 .data          0x00000000        0x0 .\CortexM4\ARM_GCC_541\Release\cy_ipc_sema.o
 .text.Cy_IPC_Sema_Set
                0x00000000       0x80 .\CortexM4\ARM_GCC_541\Release\cy_ipc_sema.o
 .text.Cy_IPC_Sema_GetMaxSems
                0x00000000       0x10 .\CortexM4\ARM_GCC_541\Release\cy_ipc_sema.o
 .text          0x00000000        0x0 .\CortexM4\ARM_GCC_541\Release\cy_ipc_pipe.o
 .data          0x00000000        0x0 .\CortexM4\ARM_GCC_541\Release\cy_ipc_pipe.o
 .text.Cy_IPC_Pipe_RegisterCallbackRel
                0x00000000       0x14 .\CortexM4\ARM_GCC_541\Release\cy_ipc_pipe.o
 .text.Cy_IPC_Pipe_EndpointPause
                0x00000000       0x3c .\CortexM4\ARM_GCC_541\Release\cy_ipc_pipe.o
 .text.Cy_IPC_Pipe_EndpointResume
                0x00000000       0x30 .\CortexM4\ARM_GCC_541\Release\cy_ipc_pipe.o
 .text          0x00000000        0x0 .\CortexM4\ARM_GCC_541\Release\cy_lvd.o
 .data          0x00000000        0x0 .\CortexM4\ARM_GCC_541\Release\cy_lvd.o
 .bss           0x00000000        0x0 .\CortexM4\ARM_GCC_541\Release\cy_lvd.o
 .text.Cy_LVD_DeepSleepCallback
                0x00000000       0x30 .\CortexM4\ARM_GCC_541\Release\cy_lvd.o
 .debug_info    0x00000000      0xc45 .\CortexM4\ARM_GCC_541\Release\cy_lvd.o
 .debug_abbrev  0x00000000      0x16c .\CortexM4\ARM_GCC_541\Release\cy_lvd.o
 .debug_loc     0x00000000       0x7a .\CortexM4\ARM_GCC_541\Release\cy_lvd.o
 .debug_aranges
                0x00000000       0x20 .\CortexM4\ARM_GCC_541\Release\cy_lvd.o
 .debug_ranges  0x00000000       0x10 .\CortexM4\ARM_GCC_541\Release\cy_lvd.o
 .debug_line    0x00000000      0x2cd .\CortexM4\ARM_GCC_541\Release\cy_lvd.o
 .debug_str     0x00000000      0xd76 .\CortexM4\ARM_GCC_541\Release\cy_lvd.o
 .comment       0x00000000       0x6f .\CortexM4\ARM_GCC_541\Release\cy_lvd.o
 .debug_frame   0x00000000       0x20 .\CortexM4\ARM_GCC_541\Release\cy_lvd.o
 .ARM.attributes
                0x00000000       0x37 .\CortexM4\ARM_GCC_541\Release\cy_lvd.o
 .text          0x00000000        0x0 .\CortexM4\ARM_GCC_541\Release\cy_profile.o
 .data          0x00000000        0x0 .\CortexM4\ARM_GCC_541\Release\cy_profile.o
 .bss           0x00000000       0xe0 .\CortexM4\ARM_GCC_541\Release\cy_profile.o
 .text.Cy_Profile_IsPtrValid
                0x00000000       0x24 .\CortexM4\ARM_GCC_541\Release\cy_profile.o
 .text.Cy_Profile_ISR
                0x00000000       0x34 .\CortexM4\ARM_GCC_541\Release\cy_profile.o
 .text.Cy_Profile_StartProfiling
                0x00000000       0x20 .\CortexM4\ARM_GCC_541\Release\cy_profile.o
 .text.Cy_Profile_ClearConfiguration
                0x00000000       0x20 .\CortexM4\ARM_GCC_541\Release\cy_profile.o
 .text.Cy_Profile_ConfigureCounter
                0x00000000       0xd4 .\CortexM4\ARM_GCC_541\Release\cy_profile.o
 .text.Cy_Profile_FreeCounter
                0x00000000        0xe .\CortexM4\ARM_GCC_541\Release\cy_profile.o
 .text.Cy_Profile_EnableCounter
                0x00000000       0x2c .\CortexM4\ARM_GCC_541\Release\cy_profile.o
 .text.Cy_Profile_DisableCounter
                0x00000000       0x30 .\CortexM4\ARM_GCC_541\Release\cy_profile.o
 .text.Cy_Profile_GetRawCount
                0x00000000       0x22 .\CortexM4\ARM_GCC_541\Release\cy_profile.o
 .text.Cy_Profile_GetWeightedCount
                0x00000000       0x26 .\CortexM4\ARM_GCC_541\Release\cy_profile.o
 .text.Cy_Profile_GetSumWeightedCounts
                0x00000000       0x3a .\CortexM4\ARM_GCC_541\Release\cy_profile.o
 .debug_info    0x00000000      0x87b .\CortexM4\ARM_GCC_541\Release\cy_profile.o
 .debug_abbrev  0x00000000      0x2bd .\CortexM4\ARM_GCC_541\Release\cy_profile.o
 .debug_loc     0x00000000      0x3df .\CortexM4\ARM_GCC_541\Release\cy_profile.o
 .debug_aranges
                0x00000000       0x70 .\CortexM4\ARM_GCC_541\Release\cy_profile.o
 .debug_ranges  0x00000000       0x60 .\CortexM4\ARM_GCC_541\Release\cy_profile.o
 .debug_line    0x00000000      0x39e .\CortexM4\ARM_GCC_541\Release\cy_profile.o
 .debug_str     0x00000000      0x888 .\CortexM4\ARM_GCC_541\Release\cy_profile.o
 .comment       0x00000000       0x6f .\CortexM4\ARM_GCC_541\Release\cy_profile.o
 .debug_frame   0x00000000      0x140 .\CortexM4\ARM_GCC_541\Release\cy_profile.o
 .ARM.attributes
                0x00000000       0x37 .\CortexM4\ARM_GCC_541\Release\cy_profile.o
 .text          0x00000000        0x0 .\CortexM4\ARM_GCC_541\Release\cy_prot.o
 .data          0x00000000        0x0 .\CortexM4\ARM_GCC_541\Release\cy_prot.o
 .bss           0x00000000        0x0 .\CortexM4\ARM_GCC_541\Release\cy_prot.o
 .text.Prot_IsSmpuStructDisabled
                0x00000000       0x2c .\CortexM4\ARM_GCC_541\Release\cy_prot.o
 .text.Prot_IsPpuProgStructDisabled
                0x00000000       0x2c .\CortexM4\ARM_GCC_541\Release\cy_prot.o
 .text.Prot_ConfigPpuAtt
                0x00000000       0xa0 .\CortexM4\ARM_GCC_541\Release\cy_prot.o
 .text.Cy_Prot_ConfigBusMaster
                0x00000000       0x34 .\CortexM4\ARM_GCC_541\Release\cy_prot.o
 .text.Cy_Prot_SetActivePC
                0x00000000       0x34 .\CortexM4\ARM_GCC_541\Release\cy_prot.o
 .text.Cy_Prot_GetActivePC
                0x00000000       0x18 .\CortexM4\ARM_GCC_541\Release\cy_prot.o
 .text.Cy_Prot_ConfigMpuStruct
                0x00000000       0x54 .\CortexM4\ARM_GCC_541\Release\cy_prot.o
 .text.Cy_Prot_EnableMpuStruct
                0x00000000       0x18 .\CortexM4\ARM_GCC_541\Release\cy_prot.o
 .text.Cy_Prot_DisableMpuStruct
                0x00000000       0x18 .\CortexM4\ARM_GCC_541\Release\cy_prot.o
 .text.Cy_Prot_ConfigSmpuMasterStruct
                0x00000000       0x6c .\CortexM4\ARM_GCC_541\Release\cy_prot.o
 .text.Cy_Prot_ConfigSmpuSlaveStruct
                0x00000000       0x80 .\CortexM4\ARM_GCC_541\Release\cy_prot.o
 .text.Cy_Prot_EnableSmpuMasterStruct
                0x00000000       0x18 .\CortexM4\ARM_GCC_541\Release\cy_prot.o
 .text.Cy_Prot_DisableSmpuMasterStruct
                0x00000000       0x18 .\CortexM4\ARM_GCC_541\Release\cy_prot.o
 .text.Cy_Prot_EnableSmpuSlaveStruct
                0x00000000       0x18 .\CortexM4\ARM_GCC_541\Release\cy_prot.o
 .text.Cy_Prot_DisableSmpuSlaveStruct
                0x00000000       0x18 .\CortexM4\ARM_GCC_541\Release\cy_prot.o
 .text.Cy_Prot_GetSmpuStruct
                0x00000000       0x90 .\CortexM4\ARM_GCC_541\Release\cy_prot.o
 .text.Cy_Prot_ConfigPpuProgMasterAtt
                0x00000000       0x12 .\CortexM4\ARM_GCC_541\Release\cy_prot.o
 .text.Cy_Prot_ConfigPpuProgSlaveAddr
                0x00000000       0x50 .\CortexM4\ARM_GCC_541\Release\cy_prot.o
 .text.Cy_Prot_ConfigPpuProgSlaveAtt
                0x00000000       0x12 .\CortexM4\ARM_GCC_541\Release\cy_prot.o
 .text.Cy_Prot_EnablePpuProgSlaveRegion
                0x00000000       0x30 .\CortexM4\ARM_GCC_541\Release\cy_prot.o
 .text.Cy_Prot_DisablePpuProgSlaveRegion
                0x00000000       0x30 .\CortexM4\ARM_GCC_541\Release\cy_prot.o
 .text.Cy_Prot_ConfigPpuFixedMasterAtt
                0x00000000       0x12 .\CortexM4\ARM_GCC_541\Release\cy_prot.o
 .text.Cy_Prot_ConfigPpuFixedSlaveAtt
                0x00000000       0x12 .\CortexM4\ARM_GCC_541\Release\cy_prot.o
 .text.Cy_Prot_ConfigPpuProgMasterStruct
                0x00000000       0x84 .\CortexM4\ARM_GCC_541\Release\cy_prot.o
 .text.Cy_Prot_ConfigPpuProgSlaveStruct
                0x00000000       0xa0 .\CortexM4\ARM_GCC_541\Release\cy_prot.o
 .text.Cy_Prot_EnablePpuProgMasterStruct
                0x00000000       0x30 .\CortexM4\ARM_GCC_541\Release\cy_prot.o
 .text.Cy_Prot_DisablePpuProgMasterStruct
                0x00000000       0x30 .\CortexM4\ARM_GCC_541\Release\cy_prot.o
 .text.Cy_Prot_EnablePpuProgSlaveStruct
                0x00000000       0x30 .\CortexM4\ARM_GCC_541\Release\cy_prot.o
 .text.Cy_Prot_DisablePpuProgSlaveStruct
                0x00000000       0x30 .\CortexM4\ARM_GCC_541\Release\cy_prot.o
 .text.Cy_Prot_GetPpuProgStruct
                0x00000000       0xac .\CortexM4\ARM_GCC_541\Release\cy_prot.o
 .text.Cy_Prot_ConfigPpuFixedGrMasterStruct
                0x00000000       0x84 .\CortexM4\ARM_GCC_541\Release\cy_prot.o
 .text.Cy_Prot_ConfigPpuFixedGrSlaveStruct
                0x00000000       0x84 .\CortexM4\ARM_GCC_541\Release\cy_prot.o
 .text.Cy_Prot_EnablePpuFixedGrMasterStruct
                0x00000000       0x30 .\CortexM4\ARM_GCC_541\Release\cy_prot.o
 .text.Cy_Prot_DisablePpuFixedGrMasterStruct
                0x00000000       0x30 .\CortexM4\ARM_GCC_541\Release\cy_prot.o
 .text.Cy_Prot_EnablePpuFixedGrSlaveStruct
                0x00000000       0x30 .\CortexM4\ARM_GCC_541\Release\cy_prot.o
 .text.Cy_Prot_DisablePpuFixedGrSlaveStruct
                0x00000000       0x30 .\CortexM4\ARM_GCC_541\Release\cy_prot.o
 .text.Cy_Prot_ConfigPpuFixedSlMasterStruct
                0x00000000       0x84 .\CortexM4\ARM_GCC_541\Release\cy_prot.o
 .text.Cy_Prot_ConfigPpuFixedSlSlaveStruct
                0x00000000       0x84 .\CortexM4\ARM_GCC_541\Release\cy_prot.o
 .text.Cy_Prot_EnablePpuFixedSlMasterStruct
                0x00000000       0x30 .\CortexM4\ARM_GCC_541\Release\cy_prot.o
 .text.Cy_Prot_DisablePpuFixedSlMasterStruct
                0x00000000       0x30 .\CortexM4\ARM_GCC_541\Release\cy_prot.o
 .text.Cy_Prot_EnablePpuFixedSlSlaveStruct
                0x00000000       0x30 .\CortexM4\ARM_GCC_541\Release\cy_prot.o
 .text.Cy_Prot_DisablePpuFixedSlSlaveStruct
                0x00000000       0x30 .\CortexM4\ARM_GCC_541\Release\cy_prot.o
 .text.Cy_Prot_ConfigPpuFixedRgMasterStruct
                0x00000000       0x84 .\CortexM4\ARM_GCC_541\Release\cy_prot.o
 .text.Cy_Prot_ConfigPpuFixedRgSlaveStruct
                0x00000000       0x84 .\CortexM4\ARM_GCC_541\Release\cy_prot.o
 .text.Cy_Prot_EnablePpuFixedRgMasterStruct
                0x00000000       0x30 .\CortexM4\ARM_GCC_541\Release\cy_prot.o
 .text.Cy_Prot_DisablePpuFixedRgMasterStruct
                0x00000000       0x30 .\CortexM4\ARM_GCC_541\Release\cy_prot.o
 .text.Cy_Prot_EnablePpuFixedRgSlaveStruct
                0x00000000       0x30 .\CortexM4\ARM_GCC_541\Release\cy_prot.o
 .text.Cy_Prot_DisablePpuFixedRgSlaveStruct
                0x00000000       0x30 .\CortexM4\ARM_GCC_541\Release\cy_prot.o
 .debug_info    0x00000000     0x225b .\CortexM4\ARM_GCC_541\Release\cy_prot.o
 .debug_abbrev  0x00000000      0x298 .\CortexM4\ARM_GCC_541\Release\cy_prot.o
 .debug_loc     0x00000000     0x186b .\CortexM4\ARM_GCC_541\Release\cy_prot.o
 .debug_aranges
                0x00000000      0x198 .\CortexM4\ARM_GCC_541\Release\cy_prot.o
 .debug_ranges  0x00000000      0x1a0 .\CortexM4\ARM_GCC_541\Release\cy_prot.o
 .debug_line    0x00000000      0x7e2 .\CortexM4\ARM_GCC_541\Release\cy_prot.o
 .debug_str     0x00000000     0x16e0 .\CortexM4\ARM_GCC_541\Release\cy_prot.o
 .comment       0x00000000       0x6f .\CortexM4\ARM_GCC_541\Release\cy_prot.o
 .debug_frame   0x00000000      0x41c .\CortexM4\ARM_GCC_541\Release\cy_prot.o
 .ARM.attributes
                0x00000000       0x37 .\CortexM4\ARM_GCC_541\Release\cy_prot.o
 .text          0x00000000        0x0 .\CortexM4\ARM_GCC_541\Release\cy_scb_common.o
 .data          0x00000000        0x0 .\CortexM4\ARM_GCC_541\Release\cy_scb_common.o
 .bss           0x00000000        0x0 .\CortexM4\ARM_GCC_541\Release\cy_scb_common.o
 .text.Cy_SCB_ReadArrayBlocking
                0x00000000       0x2c .\CortexM4\ARM_GCC_541\Release\cy_scb_common.o
 .text.Cy_SCB_WriteArrayBlocking
                0x00000000       0x2c .\CortexM4\ARM_GCC_541\Release\cy_scb_common.o
 .text.Cy_SCB_WriteString
                0x00000000       0x2c .\CortexM4\ARM_GCC_541\Release\cy_scb_common.o
 .text.Cy_SCB_WriteDefaultArrayNoCheck
                0x00000000        0xc .\CortexM4\ARM_GCC_541\Release\cy_scb_common.o
 .text.Cy_SCB_WriteDefaultArray
                0x00000000       0x2e .\CortexM4\ARM_GCC_541\Release\cy_scb_common.o
 .text          0x00000000        0x0 .\CortexM4\ARM_GCC_541\Release\cy_scb_i2c.o
 .data          0x00000000        0x0 .\CortexM4\ARM_GCC_541\Release\cy_scb_i2c.o
 .bss           0x00000000        0x0 .\CortexM4\ARM_GCC_541\Release\cy_scb_i2c.o
 .text.Cy_SCB_ClearTxFifo
                0x00000000       0x1e .\CortexM4\ARM_GCC_541\Release\cy_scb_i2c.o
 .text.WaitOneUnit
                0x00000000       0x22 .\CortexM4\ARM_GCC_541\Release\cy_scb_i2c.o
 .text.HandleStatus
                0x00000000       0xd4 .\CortexM4\ARM_GCC_541\Release\cy_scb_i2c.o
 .text.Cy_SCB_I2C_Init
                0x00000000      0x114 .\CortexM4\ARM_GCC_541\Release\cy_scb_i2c.o
 .text.Cy_SCB_I2C_DeInit
                0x00000000       0x4c .\CortexM4\ARM_GCC_541\Release\cy_scb_i2c.o
 .text.Cy_SCB_I2C_Disable
                0x00000000       0x16 .\CortexM4\ARM_GCC_541\Release\cy_scb_i2c.o
 .text.Cy_SCB_I2C_DeepSleepCallback
                0x00000000       0xac .\CortexM4\ARM_GCC_541\Release\cy_scb_i2c.o
 .text.Cy_SCB_I2C_HibernateCallback
                0x00000000       0x50 .\CortexM4\ARM_GCC_541\Release\cy_scb_i2c.o
 .text.Cy_SCB_I2C_GetDataRate
                0x00000000       0x78 .\CortexM4\ARM_GCC_541\Release\cy_scb_i2c.o
 .text.Cy_SCB_I2C_SetDataRate
                0x00000000      0x164 .\CortexM4\ARM_GCC_541\Release\cy_scb_i2c.o
 .text.Cy_SCB_I2C_SlaveGetStatus
                0x00000000        0x4 .\CortexM4\ARM_GCC_541\Release\cy_scb_i2c.o
 .text.Cy_SCB_I2C_SlaveConfigReadBuf
                0x00000000        0xc .\CortexM4\ARM_GCC_541\Release\cy_scb_i2c.o
 .text.Cy_SCB_I2C_SlaveAbortRead
                0x00000000       0x2a .\CortexM4\ARM_GCC_541\Release\cy_scb_i2c.o
 .text.Cy_SCB_I2C_SlaveGetReadTransferCount
                0x00000000        0x4 .\CortexM4\ARM_GCC_541\Release\cy_scb_i2c.o
 .text.Cy_SCB_I2C_SlaveClearReadStatus
                0x00000000       0x10 .\CortexM4\ARM_GCC_541\Release\cy_scb_i2c.o
 .text.Cy_SCB_I2C_SlaveConfigWriteBuf
                0x00000000        0xa .\CortexM4\ARM_GCC_541\Release\cy_scb_i2c.o
 .text.Cy_SCB_I2C_SlaveAbortWrite
                0x00000000       0x2c .\CortexM4\ARM_GCC_541\Release\cy_scb_i2c.o
 .text.Cy_SCB_I2C_SlaveGetWriteTransferCount
                0x00000000        0x4 .\CortexM4\ARM_GCC_541\Release\cy_scb_i2c.o
 .text.Cy_SCB_I2C_SlaveClearWriteStatus
                0x00000000       0x10 .\CortexM4\ARM_GCC_541\Release\cy_scb_i2c.o
 .text.Cy_SCB_I2C_MasterGetStatus
                0x00000000        0x4 .\CortexM4\ARM_GCC_541\Release\cy_scb_i2c.o
 .text.Cy_SCB_I2C_MasterRead
                0x00000000       0xd8 .\CortexM4\ARM_GCC_541\Release\cy_scb_i2c.o
 .text.Cy_SCB_I2C_MasterAbortRead
                0x00000000       0x78 .\CortexM4\ARM_GCC_541\Release\cy_scb_i2c.o
 .text.Cy_SCB_I2C_MasterWrite
                0x00000000       0xd4 .\CortexM4\ARM_GCC_541\Release\cy_scb_i2c.o
 .text.Cy_SCB_I2C_MasterAbortWrite
                0x00000000       0x7c .\CortexM4\ARM_GCC_541\Release\cy_scb_i2c.o
 .text.Cy_SCB_I2C_MasterGetTransferCount
                0x00000000        0x4 .\CortexM4\ARM_GCC_541\Release\cy_scb_i2c.o
 .text.Cy_SCB_I2C_MasterSendStart
                0x00000000       0x94 .\CortexM4\ARM_GCC_541\Release\cy_scb_i2c.o
 .text.Cy_SCB_I2C_MasterSendReStart
                0x00000000       0x8c .\CortexM4\ARM_GCC_541\Release\cy_scb_i2c.o
 .text.Cy_SCB_I2C_MasterSendStop
                0x00000000       0x48 .\CortexM4\ARM_GCC_541\Release\cy_scb_i2c.o
 .text.Cy_SCB_I2C_MasterReadByte
                0x00000000       0x7c .\CortexM4\ARM_GCC_541\Release\cy_scb_i2c.o
 .text.Cy_SCB_I2C_MasterWriteByte
                0x00000000       0x48 .\CortexM4\ARM_GCC_541\Release\cy_scb_i2c.o
 .text.Cy_SCB_I2C_SlaveInterrupt
                0x00000000      0x41e .\CortexM4\ARM_GCC_541\Release\cy_scb_i2c.o
 .text.Cy_SCB_I2C_MasterInterrupt
                0x00000000      0x318 .\CortexM4\ARM_GCC_541\Release\cy_scb_i2c.o
 .text.Cy_SCB_I2C_Interrupt
                0x00000000        0xe .\CortexM4\ARM_GCC_541\Release\cy_scb_i2c.o
 .debug_info    0x00000000     0x3ab1 .\CortexM4\ARM_GCC_541\Release\cy_scb_i2c.o
 .debug_abbrev  0x00000000      0x3e4 .\CortexM4\ARM_GCC_541\Release\cy_scb_i2c.o
 .debug_loc     0x00000000     0x2ceb .\CortexM4\ARM_GCC_541\Release\cy_scb_i2c.o
 .debug_aranges
                0x00000000      0x120 .\CortexM4\ARM_GCC_541\Release\cy_scb_i2c.o
 .debug_ranges  0x00000000      0x2a8 .\CortexM4\ARM_GCC_541\Release\cy_scb_i2c.o
 .debug_line    0x00000000      0xef6 .\CortexM4\ARM_GCC_541\Release\cy_scb_i2c.o
 .debug_str     0x00000000     0x1ae5 .\CortexM4\ARM_GCC_541\Release\cy_scb_i2c.o
 .comment       0x00000000       0x6f .\CortexM4\ARM_GCC_541\Release\cy_scb_i2c.o
 .debug_frame   0x00000000      0x3ac .\CortexM4\ARM_GCC_541\Release\cy_scb_i2c.o
 .ARM.attributes
                0x00000000       0x37 .\CortexM4\ARM_GCC_541\Release\cy_scb_i2c.o
 .text          0x00000000        0x0 .\CortexM4\ARM_GCC_541\Release\cy_scb_ezi2c.o
 .data          0x00000000        0x0 .\CortexM4\ARM_GCC_541\Release\cy_scb_ezi2c.o
 .bss           0x00000000        0x0 .\CortexM4\ARM_GCC_541\Release\cy_scb_ezi2c.o
 .text.UpdateRxFifoLevel
                0x00000000       0x3a .\CortexM4\ARM_GCC_541\Release\cy_scb_ezi2c.o
 .text.UpdateAddressMask
                0x00000000       0x24 .\CortexM4\ARM_GCC_541\Release\cy_scb_ezi2c.o
 .text.Cy_SCB_EZI2C_DeInit
                0x00000000       0x44 .\CortexM4\ARM_GCC_541\Release\cy_scb_ezi2c.o
 .text.Cy_SCB_EZI2C_Disable
                0x00000000       0x10 .\CortexM4\ARM_GCC_541\Release\cy_scb_ezi2c.o
 .text.Cy_SCB_EZI2C_DeepSleepCallback
                0x00000000       0xbc .\CortexM4\ARM_GCC_541\Release\cy_scb_ezi2c.o
 .text.Cy_SCB_EZI2C_HibernateCallback
                0x00000000       0x54 .\CortexM4\ARM_GCC_541\Release\cy_scb_ezi2c.o
 .text.Cy_SCB_EZI2C_GetActivity
                0x00000000       0x1a .\CortexM4\ARM_GCC_541\Release\cy_scb_ezi2c.o
 .text.Cy_SCB_EZI2C_SetAddress1
                0x00000000       0x1e .\CortexM4\ARM_GCC_541\Release\cy_scb_ezi2c.o
 .text.Cy_SCB_EZI2C_Init
                0x00000000       0xb0 .\CortexM4\ARM_GCC_541\Release\cy_scb_ezi2c.o
 .text.Cy_SCB_EZI2C_GetAddress1
                0x00000000        0x4 .\CortexM4\ARM_GCC_541\Release\cy_scb_ezi2c.o
 .text.Cy_SCB_EZI2C_SetBuffer1
                0x00000000        0xa .\CortexM4\ARM_GCC_541\Release\cy_scb_ezi2c.o
 .text.Cy_SCB_EZI2C_SetAddress2
                0x00000000        0x8 .\CortexM4\ARM_GCC_541\Release\cy_scb_ezi2c.o
 .text.Cy_SCB_EZI2C_GetAddress2
                0x00000000        0x4 .\CortexM4\ARM_GCC_541\Release\cy_scb_ezi2c.o
 .text.Cy_SCB_EZI2C_SetBuffer2
                0x00000000        0xa .\CortexM4\ARM_GCC_541\Release\cy_scb_ezi2c.o
 .text.Cy_SCB_EZI2C_Interrupt
                0x00000000      0x33a .\CortexM4\ARM_GCC_541\Release\cy_scb_ezi2c.o
 .debug_info    0x00000000     0x1ec7 .\CortexM4\ARM_GCC_541\Release\cy_scb_ezi2c.o
 .debug_abbrev  0x00000000      0x3d0 .\CortexM4\ARM_GCC_541\Release\cy_scb_ezi2c.o
 .debug_loc     0x00000000      0xe8f .\CortexM4\ARM_GCC_541\Release\cy_scb_ezi2c.o
 .debug_aranges
                0x00000000       0x90 .\CortexM4\ARM_GCC_541\Release\cy_scb_ezi2c.o
 .debug_ranges  0x00000000      0x128 .\CortexM4\ARM_GCC_541\Release\cy_scb_ezi2c.o
 .debug_line    0x00000000      0x70b .\CortexM4\ARM_GCC_541\Release\cy_scb_ezi2c.o
 .debug_str     0x00000000     0x141b .\CortexM4\ARM_GCC_541\Release\cy_scb_ezi2c.o
 .comment       0x00000000       0x6f .\CortexM4\ARM_GCC_541\Release\cy_scb_ezi2c.o
 .debug_frame   0x00000000      0x148 .\CortexM4\ARM_GCC_541\Release\cy_scb_ezi2c.o
 .ARM.attributes
                0x00000000       0x37 .\CortexM4\ARM_GCC_541\Release\cy_scb_ezi2c.o
 .text          0x00000000        0x0 .\CortexM4\ARM_GCC_541\Release\cy_scb_spi.o
 .data          0x00000000        0x0 .\CortexM4\ARM_GCC_541\Release\cy_scb_spi.o
 .bss           0x00000000        0x0 .\CortexM4\ARM_GCC_541\Release\cy_scb_spi.o
 .text.Cy_SCB_SPI_Init
                0x00000000      0x16c .\CortexM4\ARM_GCC_541\Release\cy_scb_spi.o
 .text.Cy_SCB_SPI_DeInit
                0x00000000       0x40 .\CortexM4\ARM_GCC_541\Release\cy_scb_spi.o
 .text.Cy_SCB_SPI_Disable
                0x00000000       0x24 .\CortexM4\ARM_GCC_541\Release\cy_scb_spi.o
 .text.Cy_SCB_SPI_DeepSleepCallback
                0x00000000       0xb8 .\CortexM4\ARM_GCC_541\Release\cy_scb_spi.o
 .text.Cy_SCB_SPI_HibernateCallback
                0x00000000       0x60 .\CortexM4\ARM_GCC_541\Release\cy_scb_spi.o
 .text.Cy_SCB_SPI_Transfer
                0x00000000       0xac .\CortexM4\ARM_GCC_541\Release\cy_scb_spi.o
 .text.Cy_SCB_SPI_AbortTransfer
                0x00000000       0x5a .\CortexM4\ARM_GCC_541\Release\cy_scb_spi.o
 .text.Cy_SCB_SPI_GetNumTransfered
                0x00000000        0x4 .\CortexM4\ARM_GCC_541\Release\cy_scb_spi.o
 .text.Cy_SCB_SPI_GetTransferStatus
                0x00000000        0x4 .\CortexM4\ARM_GCC_541\Release\cy_scb_spi.o
 .text.Cy_SCB_SPI_Interrupt
                0x00000000      0x1c8 .\CortexM4\ARM_GCC_541\Release\cy_scb_spi.o
 .debug_info    0x00000000     0x200e .\CortexM4\ARM_GCC_541\Release\cy_scb_spi.o
 .debug_abbrev  0x00000000      0x375 .\CortexM4\ARM_GCC_541\Release\cy_scb_spi.o
 .debug_loc     0x00000000      0xcc5 .\CortexM4\ARM_GCC_541\Release\cy_scb_spi.o
 .debug_aranges
                0x00000000       0x68 .\CortexM4\ARM_GCC_541\Release\cy_scb_spi.o
 .debug_ranges  0x00000000      0x158 .\CortexM4\ARM_GCC_541\Release\cy_scb_spi.o
 .debug_line    0x00000000      0x6e8 .\CortexM4\ARM_GCC_541\Release\cy_scb_spi.o
 .debug_str     0x00000000     0x14d0 .\CortexM4\ARM_GCC_541\Release\cy_scb_spi.o
 .comment       0x00000000       0x6f .\CortexM4\ARM_GCC_541\Release\cy_scb_spi.o
 .debug_frame   0x00000000      0x124 .\CortexM4\ARM_GCC_541\Release\cy_scb_spi.o
 .ARM.attributes
                0x00000000       0x37 .\CortexM4\ARM_GCC_541\Release\cy_scb_spi.o
 .text          0x00000000        0x0 .\CortexM4\ARM_GCC_541\Release\cy_scb_uart.o
 .data          0x00000000        0x0 .\CortexM4\ARM_GCC_541\Release\cy_scb_uart.o
 .bss           0x00000000        0x0 .\CortexM4\ARM_GCC_541\Release\cy_scb_uart.o
 .text.Cy_SCB_UART_DeInit
                0x00000000       0x48 .\CortexM4\ARM_GCC_541\Release\cy_scb_uart.o
 .text.Cy_SCB_UART_Disable
                0x00000000       0x16 .\CortexM4\ARM_GCC_541\Release\cy_scb_uart.o
 .text.Cy_SCB_UART_DeepSleepCallback
                0x00000000       0x58 .\CortexM4\ARM_GCC_541\Release\cy_scb_uart.o
 .text.Cy_SCB_UART_HibernateCallback
                0x00000000        0x4 .\CortexM4\ARM_GCC_541\Release\cy_scb_uart.o
 .text.Cy_SCB_UART_StartRingBuffer
                0x00000000       0x44 .\CortexM4\ARM_GCC_541\Release\cy_scb_uart.o
 .text.Cy_SCB_UART_StopRingBuffer
                0x00000000       0x10 .\CortexM4\ARM_GCC_541\Release\cy_scb_uart.o
 .text.Cy_SCB_UART_ClearRingBuffer
                0x00000000        0x6 .\CortexM4\ARM_GCC_541\Release\cy_scb_uart.o
 .text.Cy_SCB_UART_Receive
                0x00000000       0xec .\CortexM4\ARM_GCC_541\Release\cy_scb_uart.o
 .text.Cy_SCB_UART_AbortReceive
                0x00000000       0x12 .\CortexM4\ARM_GCC_541\Release\cy_scb_uart.o
 .text.Cy_SCB_UART_GetNumReceived
                0x00000000        0x4 .\CortexM4\ARM_GCC_541\Release\cy_scb_uart.o
 .text.Cy_SCB_UART_GetReceiveStatus
                0x00000000        0x4 .\CortexM4\ARM_GCC_541\Release\cy_scb_uart.o
 .text.Cy_SCB_UART_Transmit
                0x00000000       0x50 .\CortexM4\ARM_GCC_541\Release\cy_scb_uart.o
 .text.Cy_SCB_UART_AbortTransmit
                0x00000000       0x2a .\CortexM4\ARM_GCC_541\Release\cy_scb_uart.o
 .text.Cy_SCB_UART_GetNumLeftToTransmit
                0x00000000        0x4 .\CortexM4\ARM_GCC_541\Release\cy_scb_uart.o
 .text.Cy_SCB_UART_GetTransmitStatus
                0x00000000        0x4 .\CortexM4\ARM_GCC_541\Release\cy_scb_uart.o
 .text.Cy_SCB_UART_SendBreakBlocking
                0x00000000       0x52 .\CortexM4\ARM_GCC_541\Release\cy_scb_uart.o
 .text          0x00000000        0x0 .\CortexM4\ARM_GCC_541\Release\cy_sysanalog.o
 .data          0x00000000        0x0 .\CortexM4\ARM_GCC_541\Release\cy_sysanalog.o
 .bss           0x00000000        0x0 .\CortexM4\ARM_GCC_541\Release\cy_sysanalog.o
 .text.Cy_SysAnalog_Init
                0x00000000       0x30 .\CortexM4\ARM_GCC_541\Release\cy_sysanalog.o
 .rodata        0x00000000       0x30 .\CortexM4\ARM_GCC_541\Release\cy_sysanalog.o
 .debug_info    0x00000000      0x7fc .\CortexM4\ARM_GCC_541\Release\cy_sysanalog.o
 .debug_abbrev  0x00000000      0x167 .\CortexM4\ARM_GCC_541\Release\cy_sysanalog.o
 .debug_loc     0x00000000       0x84 .\CortexM4\ARM_GCC_541\Release\cy_sysanalog.o
 .debug_aranges
                0x00000000       0x20 .\CortexM4\ARM_GCC_541\Release\cy_sysanalog.o
 .debug_ranges  0x00000000       0x10 .\CortexM4\ARM_GCC_541\Release\cy_sysanalog.o
 .debug_line    0x00000000      0x251 .\CortexM4\ARM_GCC_541\Release\cy_sysanalog.o
 .debug_str     0x00000000      0xb2f .\CortexM4\ARM_GCC_541\Release\cy_sysanalog.o
 .comment       0x00000000       0x6f .\CortexM4\ARM_GCC_541\Release\cy_sysanalog.o
 .debug_frame   0x00000000       0x20 .\CortexM4\ARM_GCC_541\Release\cy_sysanalog.o
 .ARM.attributes
                0x00000000       0x37 .\CortexM4\ARM_GCC_541\Release\cy_sysanalog.o
 .text          0x00000000        0x0 .\CortexM4\ARM_GCC_541\Release\cy_sysclk.o
 .data          0x00000000        0x0 .\CortexM4\ARM_GCC_541\Release\cy_sysclk.o
 .bss           0x00000000        0xa .\CortexM4\ARM_GCC_541\Release\cy_sysclk.o
 .text.Cy_SysClk_EcoConfigure
                0x00000000      0x108 .\CortexM4\ARM_GCC_541\Release\cy_sysclk.o
 .text.Cy_SysClk_EcoEnable
                0x00000000       0x50 .\CortexM4\ARM_GCC_541\Release\cy_sysclk.o
 .text.Cy_SysClk_ClkPathSetSource
                0x00000000       0x54 .\CortexM4\ARM_GCC_541\Release\cy_sysclk.o
 .text.Cy_SysClk_ClkPathGetSource
                0x00000000       0x24 .\CortexM4\ARM_GCC_541\Release\cy_sysclk.o
 .text.Cy_SysClk_FllManualConfigure
                0x00000000       0xa8 .\CortexM4\ARM_GCC_541\Release\cy_sysclk.o
 .text.Cy_SysClk_FllConfigure
                0x00000000      0x334 .\CortexM4\ARM_GCC_541\Release\cy_sysclk.o
 .text.Cy_SysClk_FllGetConfiguration
                0x00000000       0x50 .\CortexM4\ARM_GCC_541\Release\cy_sysclk.o
 .text.Cy_SysClk_FllEnable
                0x00000000       0xc4 .\CortexM4\ARM_GCC_541\Release\cy_sysclk.o
 .text.Cy_SysClk_PllManualConfigure
                0x00000000       0xa0 .\CortexM4\ARM_GCC_541\Release\cy_sysclk.o
 .text.Cy_SysClk_PllConfigure
                0x00000000      0x18c .\CortexM4\ARM_GCC_541\Release\cy_sysclk.o
 .text.Cy_SysClk_PllGetConfiguration
                0x00000000       0x4c .\CortexM4\ARM_GCC_541\Release\cy_sysclk.o
 .text.Cy_SysClk_PllEnable
                0x00000000       0x5c .\CortexM4\ARM_GCC_541\Release\cy_sysclk.o
 .text.Cy_SysClk_StartClkMeasurementCounters
                0x00000000      0x140 .\CortexM4\ARM_GCC_541\Release\cy_sysclk.o
 .text.Cy_SysClk_ClkMeasurementCountersGetFreq
                0x00000000       0x90 .\CortexM4\ARM_GCC_541\Release\cy_sysclk.o
 .text.Cy_SysClk_IloTrim
                0x00000000       0x60 .\CortexM4\ARM_GCC_541\Release\cy_sysclk.o
 .text.Cy_SysClk_PiloTrim
                0x00000000       0x70 .\CortexM4\ARM_GCC_541\Release\cy_sysclk.o
 .text.Cy_SysClk_DeepSleepCallback
                0x00000000      0x180 .\CortexM4\ARM_GCC_541\Release\cy_sysclk.o
 .text.Cy_SysClk_PeriphGetFrequency
                0x00000000      0x184 .\CortexM4\ARM_GCC_541\Release\cy_sysclk.o
 .rodata        0x00000000       0x58 .\CortexM4\ARM_GCC_541\Release\cy_sysclk.o
 .debug_info    0x00000000     0x200b .\CortexM4\ARM_GCC_541\Release\cy_sysclk.o
 .debug_abbrev  0x00000000      0x3e0 .\CortexM4\ARM_GCC_541\Release\cy_sysclk.o
 .debug_loc     0x00000000     0x1755 .\CortexM4\ARM_GCC_541\Release\cy_sysclk.o
 .debug_aranges
                0x00000000       0xa8 .\CortexM4\ARM_GCC_541\Release\cy_sysclk.o
 .debug_ranges  0x00000000      0x280 .\CortexM4\ARM_GCC_541\Release\cy_sysclk.o
 .debug_line    0x00000000      0xa12 .\CortexM4\ARM_GCC_541\Release\cy_sysclk.o
 .debug_str     0x00000000     0x1e85 .\CortexM4\ARM_GCC_541\Release\cy_sysclk.o
 .comment       0x00000000       0x6f .\CortexM4\ARM_GCC_541\Release\cy_sysclk.o
 .debug_frame   0x00000000      0x288 .\CortexM4\ARM_GCC_541\Release\cy_sysclk.o
 .ARM.attributes
                0x00000000       0x37 .\CortexM4\ARM_GCC_541\Release\cy_sysclk.o
 .text          0x00000000        0x0 .\CortexM4\ARM_GCC_541\Release\cy_sysint.o
 .data          0x00000000        0x0 .\CortexM4\ARM_GCC_541\Release\cy_sysint.o
 .bss           0x00000000        0x0 .\CortexM4\ARM_GCC_541\Release\cy_sysint.o
 .text.Cy_SysInt_GetVector
                0x00000000       0x20 .\CortexM4\ARM_GCC_541\Release\cy_sysint.o
 .text          0x00000000        0x0 .\CortexM4\ARM_GCC_541\Release\cy_syslib.o
 .data          0x00000000        0x0 .\CortexM4\ARM_GCC_541\Release\cy_syslib.o
 .bss           0x00000000        0x0 .\CortexM4\ARM_GCC_541\Release\cy_syslib.o
 .text.Cy_SysLib_Delay
                0x00000000       0x30 .\CortexM4\ARM_GCC_541\Release\cy_syslib.o
 .text.Cy_SysLib_DelayUs
                0x00000000       0x10 .\CortexM4\ARM_GCC_541\Release\cy_syslib.o
 .text.Cy_SysLib_Halt
                0x00000000        0x4 .\CortexM4\ARM_GCC_541\Release\cy_syslib.o
 .text.Cy_SysLib_ClearFlashCacheAndBuffer
                0x00000000       0x10 .\CortexM4\ARM_GCC_541\Release\cy_syslib.o
 .text.Cy_SysLib_ResetBackupDomain
                0x00000000       0x1c .\CortexM4\ARM_GCC_541\Release\cy_syslib.o
 .text.Cy_SysLib_GetResetReason
                0x00000000       0x18 .\CortexM4\ARM_GCC_541\Release\cy_syslib.o
 .text.Cy_SysLib_ClearResetReason
                0x00000000       0x24 .\CortexM4\ARM_GCC_541\Release\cy_syslib.o
 .text.Cy_SysLib_GetUniqueId
                0x00000000       0x56 .\CortexM4\ARM_GCC_541\Release\cy_syslib.o
 .text.Cy_SysLib_SetWaitStates
                0x00000000       0xa8 .\CortexM4\ARM_GCC_541\Release\cy_syslib.o
 .data          0x00000000        0x0 .\CortexM4\ARM_GCC_541\Release\cy_syslib_gcc.o
 .bss           0x00000000        0x0 .\CortexM4\ARM_GCC_541\Release\cy_syslib_gcc.o
 .text          0x00000000        0x0 .\CortexM4\ARM_GCC_541\Release\cy_syspm.o
 .data          0x00000000        0x0 .\CortexM4\ARM_GCC_541\Release\cy_syspm.o
 .text.Cy_SysLib_GetDevice
                0x00000000       0x16 .\CortexM4\ARM_GCC_541\Release\cy_syspm.o
 .text.Cy_SysPm_LdoGetVoltage
                0x00000000       0x20 .\CortexM4\ARM_GCC_541\Release\cy_syspm.o
 .text.Cy_SysPm_LdoIsEnabled
                0x00000000       0x14 .\CortexM4\ARM_GCC_541\Release\cy_syspm.o
 .text.SetReadMarginTrimUlp
                0x00000000       0x68 .\CortexM4\ARM_GCC_541\Release\cy_syspm.o
 .text.SetReadMarginTrimLp
                0x00000000       0x60 .\CortexM4\ARM_GCC_541\Release\cy_syspm.o
 .text.SetWriteAssistTrimUlp
                0x00000000       0x44 .\CortexM4\ARM_GCC_541\Release\cy_syspm.o
 .text.SetWriteAssistTrimLp
                0x00000000       0x4c .\CortexM4\ARM_GCC_541\Release\cy_syspm.o
 .text.IsVoltageChangePossible.part.4
                0x00000000       0x1c .\CortexM4\ARM_GCC_541\Release\cy_syspm.o
 .text.Cy_SysPm_ReadStatus
                0x00000000       0x78 .\CortexM4\ARM_GCC_541\Release\cy_syspm.o
 .text.Cy_SysPm_SystemSetMinRegulatorCurrent
                0x00000000       0x44 .\CortexM4\ARM_GCC_541\Release\cy_syspm.o
 .text.Cy_SysPm_SystemSetNormalRegulatorCurrent
                0x00000000       0x54 .\CortexM4\ARM_GCC_541\Release\cy_syspm.o
 .text.Cy_SysPm_CpuSleepOnExit
                0x00000000       0x18 .\CortexM4\ARM_GCC_541\Release\cy_syspm.o
 .text.Cy_SysPm_SetHibernateWakeupSource
                0x00000000       0x40 .\CortexM4\ARM_GCC_541\Release\cy_syspm.o
 .text.Cy_SysPm_ClearHibernateWakeupSource
                0x00000000       0x54 .\CortexM4\ARM_GCC_541\Release\cy_syspm.o
 .text.Cy_SysPm_BuckIsOutputEnabled
                0x00000000       0x38 .\CortexM4\ARM_GCC_541\Release\cy_syspm.o
 .text.Cy_SysPm_BuckEnableVoltage2
                0x00000000       0x34 .\CortexM4\ARM_GCC_541\Release\cy_syspm.o
 .text.Cy_SysPm_BuckSetVoltage2
                0x00000000       0x40 .\CortexM4\ARM_GCC_541\Release\cy_syspm.o
 .text.Cy_SysPm_LdoSetMode
                0x00000000       0x2c .\CortexM4\ARM_GCC_541\Release\cy_syspm.o
 .text.Cy_SysPm_LdoGetMode
                0x00000000       0x34 .\CortexM4\ARM_GCC_541\Release\cy_syspm.o
 .text.Cy_SysPm_RegisterCallback
                0x00000000       0x48 .\CortexM4\ARM_GCC_541\Release\cy_syspm.o
 .text.Cy_SysPm_UnregisterCallback
                0x00000000       0x44 .\CortexM4\ARM_GCC_541\Release\cy_syspm.o
 .text.Cy_SysPm_ExecuteCallback
                0x00000000       0x84 .\CortexM4\ARM_GCC_541\Release\cy_syspm.o
 .text.Cy_SysPm_CpuEnterSleep
                0x00000000       0x78 .\CortexM4\ARM_GCC_541\Release\cy_syspm.o
 .text.Cy_SysPm_SystemEnterHibernate
                0x00000000       0x78 .\CortexM4\ARM_GCC_541\Release\cy_syspm.o
 .text.Cy_SysPm_IoUnfreeze
                0x00000000       0x2c .\CortexM4\ARM_GCC_541\Release\cy_syspm.o
 .text.Cy_SysPm_WriteVoltageBitForFlash
                0x00000000       0xc0 .\CortexM4\ARM_GCC_541\Release\cy_syspm.o
 .text.Cy_SysPm_BuckSetVoltage1
                0x00000000       0x90 .\CortexM4\ARM_GCC_541\Release\cy_syspm.o
 .text.Cy_SysPm_LdoSetVoltage
                0x00000000       0xb8 .\CortexM4\ARM_GCC_541\Release\cy_syspm.o
 .text.Cy_SysPm_SystemEnterLp
                0x00000000       0x84 .\CortexM4\ARM_GCC_541\Release\cy_syspm.o
 .text.Cy_SysPm_SystemEnterUlp
                0x00000000       0x84 .\CortexM4\ARM_GCC_541\Release\cy_syspm.o
 .text.Cy_SysPm_BuckEnable
                0x00000000       0xd8 .\CortexM4\ARM_GCC_541\Release\cy_syspm.o
 .text.Cy_SysPm_SaveRegisters
                0x00000000       0x4c .\CortexM4\ARM_GCC_541\Release\cy_syspm.o
 .text.Cy_SysPm_RestoreRegisters
                0x00000000       0x4c .\CortexM4\ARM_GCC_541\Release\cy_syspm.o
 .text.Cy_SysPm_CpuEnterDeepSleep
                0x00000000       0xe8 .\CortexM4\ARM_GCC_541\Release\cy_syspm.o
 .text          0x00000000        0x0 .\CortexM4\ARM_GCC_541\Release\cy_systick.o
 .data          0x00000000        0x0 .\CortexM4\ARM_GCC_541\Release\cy_systick.o
 .bss           0x00000000       0x14 .\CortexM4\ARM_GCC_541\Release\cy_systick.o
 .text.Cy_SysTick_ServiceCallbacks
                0x00000000       0x28 .\CortexM4\ARM_GCC_541\Release\cy_systick.o
 .text.Cy_SysTick_Enable
                0x00000000       0x18 .\CortexM4\ARM_GCC_541\Release\cy_systick.o
 .text.Cy_SysTick_Disable
                0x00000000       0x18 .\CortexM4\ARM_GCC_541\Release\cy_systick.o
 .text.Cy_SysTick_SetClockSource
                0x00000000       0x34 .\CortexM4\ARM_GCC_541\Release\cy_systick.o
 .text.Cy_SysTick_Init
                0x00000000       0x40 .\CortexM4\ARM_GCC_541\Release\cy_systick.o
 .text.Cy_SysTick_GetClockSource
                0x00000000       0x28 .\CortexM4\ARM_GCC_541\Release\cy_systick.o
 .text.Cy_SysTick_SetCallback
                0x00000000       0x18 .\CortexM4\ARM_GCC_541\Release\cy_systick.o
 .text.Cy_SysTick_GetCallback
                0x00000000       0x14 .\CortexM4\ARM_GCC_541\Release\cy_systick.o
 .debug_info    0x00000000      0x85b .\CortexM4\ARM_GCC_541\Release\cy_systick.o
 .debug_abbrev  0x00000000      0x25f .\CortexM4\ARM_GCC_541\Release\cy_systick.o
 .debug_loc     0x00000000      0x145 .\CortexM4\ARM_GCC_541\Release\cy_systick.o
 .debug_aranges
                0x00000000       0x58 .\CortexM4\ARM_GCC_541\Release\cy_systick.o
 .debug_ranges  0x00000000       0x60 .\CortexM4\ARM_GCC_541\Release\cy_systick.o
 .debug_line    0x00000000      0x2fe .\CortexM4\ARM_GCC_541\Release\cy_systick.o
 .debug_str     0x00000000      0xa52 .\CortexM4\ARM_GCC_541\Release\cy_systick.o
 .comment       0x00000000       0x6f .\CortexM4\ARM_GCC_541\Release\cy_systick.o
 .debug_frame   0x00000000       0xbc .\CortexM4\ARM_GCC_541\Release\cy_systick.o
 .ARM.attributes
                0x00000000       0x37 .\CortexM4\ARM_GCC_541\Release\cy_systick.o
 .text          0x00000000        0x0 .\CortexM4\ARM_GCC_541\Release\cy_tcpwm_counter.o
 .data          0x00000000        0x0 .\CortexM4\ARM_GCC_541\Release\cy_tcpwm_counter.o
 .bss           0x00000000        0x0 .\CortexM4\ARM_GCC_541\Release\cy_tcpwm_counter.o
 .text.Cy_TCPWM_Counter_DeInit
                0x00000000       0x50 .\CortexM4\ARM_GCC_541\Release\cy_tcpwm_counter.o
 .text          0x00000000        0x0 .\CortexM4\ARM_GCC_541\Release\cy_tcpwm_pwm.o
 .data          0x00000000        0x0 .\CortexM4\ARM_GCC_541\Release\cy_tcpwm_pwm.o
 .bss           0x00000000        0x0 .\CortexM4\ARM_GCC_541\Release\cy_tcpwm_pwm.o
 .text.Cy_TCPWM_PWM_Init
                0x00000000      0x138 .\CortexM4\ARM_GCC_541\Release\cy_tcpwm_pwm.o
 .text.Cy_TCPWM_PWM_DeInit
                0x00000000       0x50 .\CortexM4\ARM_GCC_541\Release\cy_tcpwm_pwm.o
 .debug_info    0x00000000      0x487 .\CortexM4\ARM_GCC_541\Release\cy_tcpwm_pwm.o
 .debug_abbrev  0x00000000      0x158 .\CortexM4\ARM_GCC_541\Release\cy_tcpwm_pwm.o
 .debug_loc     0x00000000       0xe7 .\CortexM4\ARM_GCC_541\Release\cy_tcpwm_pwm.o
 .debug_aranges
                0x00000000       0x28 .\CortexM4\ARM_GCC_541\Release\cy_tcpwm_pwm.o
 .debug_ranges  0x00000000       0x18 .\CortexM4\ARM_GCC_541\Release\cy_tcpwm_pwm.o
 .debug_line    0x00000000      0x2b9 .\CortexM4\ARM_GCC_541\Release\cy_tcpwm_pwm.o
 .debug_str     0x00000000      0x502 .\CortexM4\ARM_GCC_541\Release\cy_tcpwm_pwm.o
 .comment       0x00000000       0x6f .\CortexM4\ARM_GCC_541\Release\cy_tcpwm_pwm.o
 .debug_frame   0x00000000       0x50 .\CortexM4\ARM_GCC_541\Release\cy_tcpwm_pwm.o
 .ARM.attributes
                0x00000000       0x37 .\CortexM4\ARM_GCC_541\Release\cy_tcpwm_pwm.o
 .text          0x00000000        0x0 .\CortexM4\ARM_GCC_541\Release\cy_tcpwm_quaddec.o
 .data          0x00000000        0x0 .\CortexM4\ARM_GCC_541\Release\cy_tcpwm_quaddec.o
 .bss           0x00000000        0x0 .\CortexM4\ARM_GCC_541\Release\cy_tcpwm_quaddec.o
 .text.Cy_TCPWM_QuadDec_Init
                0x00000000       0x7c .\CortexM4\ARM_GCC_541\Release\cy_tcpwm_quaddec.o
 .text.Cy_TCPWM_QuadDec_DeInit
                0x00000000       0x50 .\CortexM4\ARM_GCC_541\Release\cy_tcpwm_quaddec.o
 .debug_info    0x00000000      0x3b4 .\CortexM4\ARM_GCC_541\Release\cy_tcpwm_quaddec.o
 .debug_abbrev  0x00000000      0x158 .\CortexM4\ARM_GCC_541\Release\cy_tcpwm_quaddec.o
 .debug_loc     0x00000000       0xe7 .\CortexM4\ARM_GCC_541\Release\cy_tcpwm_quaddec.o
 .debug_aranges
                0x00000000       0x28 .\CortexM4\ARM_GCC_541\Release\cy_tcpwm_quaddec.o
 .debug_ranges  0x00000000       0x18 .\CortexM4\ARM_GCC_541\Release\cy_tcpwm_quaddec.o
 .debug_line    0x00000000      0x292 .\CortexM4\ARM_GCC_541\Release\cy_tcpwm_quaddec.o
 .debug_str     0x00000000      0x43d .\CortexM4\ARM_GCC_541\Release\cy_tcpwm_quaddec.o
 .comment       0x00000000       0x6f .\CortexM4\ARM_GCC_541\Release\cy_tcpwm_quaddec.o
 .debug_frame   0x00000000       0x48 .\CortexM4\ARM_GCC_541\Release\cy_tcpwm_quaddec.o
 .ARM.attributes
                0x00000000       0x37 .\CortexM4\ARM_GCC_541\Release\cy_tcpwm_quaddec.o
 .text          0x00000000        0x0 .\CortexM4\ARM_GCC_541\Release\cy_trigmux.o
 .data          0x00000000        0x0 .\CortexM4\ARM_GCC_541\Release\cy_trigmux.o
 .bss           0x00000000        0x0 .\CortexM4\ARM_GCC_541\Release\cy_trigmux.o
 .text.Cy_TrigMux_Connect
                0x00000000       0x84 .\CortexM4\ARM_GCC_541\Release\cy_trigmux.o
 .text.Cy_TrigMux_Select
                0x00000000       0x70 .\CortexM4\ARM_GCC_541\Release\cy_trigmux.o
 .text.Cy_TrigMux_Deselect
                0x00000000       0x58 .\CortexM4\ARM_GCC_541\Release\cy_trigmux.o
 .text.Cy_TrigMux_SetDebugFreeze
                0x00000000       0x84 .\CortexM4\ARM_GCC_541\Release\cy_trigmux.o
 .text.Cy_TrigMux_SwTrigger
                0x00000000       0x74 .\CortexM4\ARM_GCC_541\Release\cy_trigmux.o
 .debug_info    0x00000000      0x7fe .\CortexM4\ARM_GCC_541\Release\cy_trigmux.o
 .debug_abbrev  0x00000000      0x15a .\CortexM4\ARM_GCC_541\Release\cy_trigmux.o
 .debug_loc     0x00000000      0x4db .\CortexM4\ARM_GCC_541\Release\cy_trigmux.o
 .debug_aranges
                0x00000000       0x40 .\CortexM4\ARM_GCC_541\Release\cy_trigmux.o
 .debug_ranges  0x00000000       0x48 .\CortexM4\ARM_GCC_541\Release\cy_trigmux.o
 .debug_line    0x00000000      0x33a .\CortexM4\ARM_GCC_541\Release\cy_trigmux.o
 .debug_str     0x00000000      0x956 .\CortexM4\ARM_GCC_541\Release\cy_trigmux.o
 .comment       0x00000000       0x6f .\CortexM4\ARM_GCC_541\Release\cy_trigmux.o
 .debug_frame   0x00000000       0xc0 .\CortexM4\ARM_GCC_541\Release\cy_trigmux.o
 .ARM.attributes
                0x00000000       0x37 .\CortexM4\ARM_GCC_541\Release\cy_trigmux.o
 .text          0x00000000        0x0 .\CortexM4\ARM_GCC_541\Release\cy_wdt.o
 .data          0x00000000        0x0 .\CortexM4\ARM_GCC_541\Release\cy_wdt.o
 .bss           0x00000000        0x0 .\CortexM4\ARM_GCC_541\Release\cy_wdt.o
 .text.Cy_WDT_Lock
                0x00000000       0x14 .\CortexM4\ARM_GCC_541\Release\cy_wdt.o
 .text.Cy_WDT_Unlock
                0x00000000       0x24 .\CortexM4\ARM_GCC_541\Release\cy_wdt.o
 .text.Cy_WDT_SetMatch
                0x00000000       0x20 .\CortexM4\ARM_GCC_541\Release\cy_wdt.o
 .text.Cy_WDT_SetIgnoreBits
                0x00000000       0x24 .\CortexM4\ARM_GCC_541\Release\cy_wdt.o
 .text.Cy_WDT_ClearInterrupt
                0x00000000       0x14 .\CortexM4\ARM_GCC_541\Release\cy_wdt.o
 .text.Cy_WDT_Init
                0x00000000       0x48 .\CortexM4\ARM_GCC_541\Release\cy_wdt.o
 .text.Cy_WDT_ClearWatchdog
                0x00000000        0x4 .\CortexM4\ARM_GCC_541\Release\cy_wdt.o
 .debug_info    0x00000000      0x82d .\CortexM4\ARM_GCC_541\Release\cy_wdt.o
 .debug_abbrev  0x00000000      0x182 .\CortexM4\ARM_GCC_541\Release\cy_wdt.o
 .debug_loc     0x00000000       0x84 .\CortexM4\ARM_GCC_541\Release\cy_wdt.o
 .debug_aranges
                0x00000000       0x50 .\CortexM4\ARM_GCC_541\Release\cy_wdt.o
 .debug_ranges  0x00000000       0x40 .\CortexM4\ARM_GCC_541\Release\cy_wdt.o
 .debug_line    0x00000000      0x2ba .\CortexM4\ARM_GCC_541\Release\cy_wdt.o
 .debug_str     0x00000000      0x717 .\CortexM4\ARM_GCC_541\Release\cy_wdt.o
 .comment       0x00000000       0x6f .\CortexM4\ARM_GCC_541\Release\cy_wdt.o
 .debug_frame   0x00000000       0x90 .\CortexM4\ARM_GCC_541\Release\cy_wdt.o
 .ARM.attributes
                0x00000000       0x37 .\CortexM4\ARM_GCC_541\Release\cy_wdt.o
 .text          0x00000000        0x0 .\CortexM4\ARM_GCC_541\Release\cy_device.o
 .data          0x00000000        0x0 .\CortexM4\ARM_GCC_541\Release\cy_device.o
 .bss           0x00000000        0x0 .\CortexM4\ARM_GCC_541\Release\cy_device.o
 .text          0x00000000        0x0 .\CortexM4\ARM_GCC_541\Release\cy_ctb.o
 .data          0x00000000        0x0 .\CortexM4\ARM_GCC_541\Release\cy_ctb.o
 .bss           0x00000000        0x0 .\CortexM4\ARM_GCC_541\Release\cy_ctb.o
 .text.Cy_CTB_SetIptatLevel
                0x00000000       0x1c .\CortexM4\ARM_GCC_541\Release\cy_ctb.o
 .text.Cy_CTB_Init
                0x00000000       0xb8 .\CortexM4\ARM_GCC_541\Release\cy_ctb.o
 .text.Cy_CTB_DeInit
                0x00000000       0x3c .\CortexM4\ARM_GCC_541\Release\cy_ctb.o
 .text.Cy_CTB_FastInit
                0x00000000       0x84 .\CortexM4\ARM_GCC_541\Release\cy_ctb.o
 .text.Cy_CTB_SetCurrentMode
                0x00000000       0xb8 .\CortexM4\ARM_GCC_541\Release\cy_ctb.o
 .text.Cy_CTB_SetDeepSleepMode
                0x00000000        0xc .\CortexM4\ARM_GCC_541\Release\cy_ctb.o
 .text.Cy_CTB_SetOutputMode
                0x00000000       0x62 .\CortexM4\ARM_GCC_541\Release\cy_ctb.o
 .text.Cy_CTB_SetPower
                0x00000000       0x32 .\CortexM4\ARM_GCC_541\Release\cy_ctb.o
 .text.Cy_CTB_DACSampleAndHold
                0x00000000       0x3e .\CortexM4\ARM_GCC_541\Release\cy_ctb.o
 .text.Cy_CTB_OpampSetOffset
                0x00000000       0x24 .\CortexM4\ARM_GCC_541\Release\cy_ctb.o
 .text.Cy_CTB_OpampGetOffset
                0x00000000        0xe .\CortexM4\ARM_GCC_541\Release\cy_ctb.o
 .text.Cy_CTB_OpampSetSlope
                0x00000000       0x24 .\CortexM4\ARM_GCC_541\Release\cy_ctb.o
 .text.Cy_CTB_OpampGetSlope
                0x00000000        0xe .\CortexM4\ARM_GCC_541\Release\cy_ctb.o
 .text.Cy_CTB_SetAnalogSwitch
                0x00000000       0x26 .\CortexM4\ARM_GCC_541\Release\cy_ctb.o
 .text.Cy_CTB_GetAnalogSwitch
                0x00000000       0x18 .\CortexM4\ARM_GCC_541\Release\cy_ctb.o
 .text.Cy_CTB_CompSetConfig
                0x00000000       0x32 .\CortexM4\ARM_GCC_541\Release\cy_ctb.o
 .text.Cy_CTB_CompGetConfig
                0x00000000        0xe .\CortexM4\ARM_GCC_541\Release\cy_ctb.o
 .text.Cy_CTB_CompSetInterruptEdgeType
                0x00000000       0x28 .\CortexM4\ARM_GCC_541\Release\cy_ctb.o
 .text.Cy_CTB_CompGetStatus
                0x00000000       0x1a .\CortexM4\ARM_GCC_541\Release\cy_ctb.o
 .rodata        0x00000000       0xa8 .\CortexM4\ARM_GCC_541\Release\cy_ctb.o
 .text          0x00000000        0x0 .\CortexM4\ARM_GCC_541\Release\cy_ctdac.o
 .data          0x00000000        0x0 .\CortexM4\ARM_GCC_541\Release\cy_ctdac.o
 .bss           0x00000000        0x0 .\CortexM4\ARM_GCC_541\Release\cy_ctdac.o
 .text.Cy_CTDAC_DeInit
                0x00000000       0x28 .\CortexM4\ARM_GCC_541\Release\cy_ctdac.o
 .text.Cy_CTDAC_FastInit
                0x00000000       0x74 .\CortexM4\ARM_GCC_541\Release\cy_ctdac.o
 .text.Cy_CTDAC_SetSignMode
                0x00000000        0xc .\CortexM4\ARM_GCC_541\Release\cy_ctdac.o
 .text.Cy_CTDAC_SetDeepSleepMode
                0x00000000        0xc .\CortexM4\ARM_GCC_541\Release\cy_ctdac.o
 .text.Cy_CTDAC_SetOutputMode
                0x00000000        0xc .\CortexM4\ARM_GCC_541\Release\cy_ctdac.o
 .text.Cy_CTDAC_SetDeglitchMode
                0x00000000        0xc .\CortexM4\ARM_GCC_541\Release\cy_ctdac.o
 .text.Cy_CTDAC_SetDeglitchCycles
                0x00000000       0x10 .\CortexM4\ARM_GCC_541\Release\cy_ctdac.o
 .text.Cy_CTDAC_SetRef
                0x00000000       0x1a .\CortexM4\ARM_GCC_541\Release\cy_ctdac.o
 .text.Cy_CTDAC_SetAnalogSwitch
                0x00000000       0x14 .\CortexM4\ARM_GCC_541\Release\cy_ctdac.o
 .text.Cy_CTDAC_DeepSleepCallback
                0x00000000       0x28 .\CortexM4\ARM_GCC_541\Release\cy_ctdac.o
 .rodata        0x00000000        0x8 .\CortexM4\ARM_GCC_541\Release\cy_ctdac.o
 .text          0x00000000        0x0 .\CortexM4\ARM_GCC_541\Release\cy_ble_clk.o
 .data          0x00000000        0x0 .\CortexM4\ARM_GCC_541\Release\cy_ble_clk.o
 .bss           0x00000000        0x0 .\CortexM4\ARM_GCC_541\Release\cy_ble_clk.o
 .text.Cy_BLE_HAL_RcbRegRead
                0x00000000       0x48 .\CortexM4\ARM_GCC_541\Release\cy_ble_clk.o
 .text.Cy_BLE_HAL_RcbRegWrite
                0x00000000       0x48 .\CortexM4\ARM_GCC_541\Release\cy_ble_clk.o
 .text.Cy_BLE_EcoStop
                0x00000000       0x10 .\CortexM4\ARM_GCC_541\Release\cy_ble_clk.o
 .text.Cy_BLE_HAL_Init
                0x00000000       0x64 .\CortexM4\ARM_GCC_541\Release\cy_ble_clk.o
 .text.Cy_BLE_EcoStart
                0x00000000      0x414 .\CortexM4\ARM_GCC_541\Release\cy_ble_clk.o
 .text.Cy_BLE_HAL_EcoGetFrequency
                0x00000000        0xc .\CortexM4\ARM_GCC_541\Release\cy_ble_clk.o
 .text.Cy_BLE_HAL_IsEcoCpuClockSrc
                0x00000000       0x1c .\CortexM4\ARM_GCC_541\Release\cy_ble_clk.o
 .text.Cy_BLE_HAL_IsWcoLfclkSrc
                0x00000000       0x10 .\CortexM4\ARM_GCC_541\Release\cy_ble_clk.o
 .rodata        0x00000000       0x6c .\CortexM4\ARM_GCC_541\Release\cy_ble_clk.o
 .debug_info    0x00000000     0x361f .\CortexM4\ARM_GCC_541\Release\cy_ble_clk.o
 .debug_abbrev  0x00000000      0x399 .\CortexM4\ARM_GCC_541\Release\cy_ble_clk.o
 .debug_loc     0x00000000      0x5ac .\CortexM4\ARM_GCC_541\Release\cy_ble_clk.o
 .debug_aranges
                0x00000000       0x58 .\CortexM4\ARM_GCC_541\Release\cy_ble_clk.o
 .debug_ranges  0x00000000       0xa8 .\CortexM4\ARM_GCC_541\Release\cy_ble_clk.o
 .debug_line    0x00000000      0x5c0 .\CortexM4\ARM_GCC_541\Release\cy_ble_clk.o
 .debug_str     0x00000000     0x3031 .\CortexM4\ARM_GCC_541\Release\cy_ble_clk.o
 .comment       0x00000000       0x6f .\CortexM4\ARM_GCC_541\Release\cy_ble_clk.o
 .debug_frame   0x00000000       0xf4 .\CortexM4\ARM_GCC_541\Release\cy_ble_clk.o
 .ARM.attributes
                0x00000000       0x37 .\CortexM4\ARM_GCC_541\Release\cy_ble_clk.o
 .text          0x00000000        0x0 .\CortexM4\ARM_GCC_541\Release\retarget.o
 .data          0x00000000        0x0 .\CortexM4\ARM_GCC_541\Release\retarget.o
 .bss           0x00000000        0x0 .\CortexM4\ARM_GCC_541\Release\retarget.o
 .text          0x00000000        0x0 .\CortexM4\ARM_GCC_541\Release\VDAC_1.o
 .data          0x00000000       0x20 .\CortexM4\ARM_GCC_541\Release\VDAC_1.o
 .text.VDAC_1_SetDeepSleepMode
                0x00000000        0x2 .\CortexM4\ARM_GCC_541\Release\VDAC_1.o
 .text.VDAC_1_SetSampleAndHold
                0x00000000        0x2 .\CortexM4\ARM_GCC_541\Release\VDAC_1.o
 .text.VDAC_1_EasySampleAndHold
                0x00000000        0x2 .\CortexM4\ARM_GCC_541\Release\VDAC_1.o
 .data          0x00000000        0x0 c:/program files (x86)/cypress/psoc creator/4.4/psoc creator/import/gnu/arm/5.4.1/bin/../lib/gcc/arm-none-eabi/5.4.1/armv7e-m/softfp\libgcc.a(_arm_addsubdf3.o)
 .bss           0x00000000        0x0 c:/program files (x86)/cypress/psoc creator/4.4/psoc creator/import/gnu/arm/5.4.1/bin/../lib/gcc/arm-none-eabi/5.4.1/armv7e-m/softfp\libgcc.a(_arm_addsubdf3.o)
 .data          0x00000000        0x0 c:/program files (x86)/cypress/psoc creator/4.4/psoc creator/import/gnu/arm/5.4.1/bin/../lib/gcc/arm-none-eabi/5.4.1/armv7e-m/softfp\libgcc.a(_arm_muldivdf3.o)
 .bss           0x00000000        0x0 c:/program files (x86)/cypress/psoc creator/4.4/psoc creator/import/gnu/arm/5.4.1/bin/../lib/gcc/arm-none-eabi/5.4.1/armv7e-m/softfp\libgcc.a(_arm_muldivdf3.o)
 .text          0x00000000       0x40 c:/program files (x86)/cypress/psoc creator/4.4/psoc creator/import/gnu/arm/5.4.1/bin/../lib/gcc/arm-none-eabi/5.4.1/armv7e-m/softfp\libgcc.a(_arm_fixunsdfsi.o)
 .data          0x00000000        0x0 c:/program files (x86)/cypress/psoc creator/4.4/psoc creator/import/gnu/arm/5.4.1/bin/../lib/gcc/arm-none-eabi/5.4.1/armv7e-m/softfp\libgcc.a(_arm_fixunsdfsi.o)
 .bss           0x00000000        0x0 c:/program files (x86)/cypress/psoc creator/4.4/psoc creator/import/gnu/arm/5.4.1/bin/../lib/gcc/arm-none-eabi/5.4.1/armv7e-m/softfp\libgcc.a(_arm_fixunsdfsi.o)
 .ARM.attributes
                0x00000000       0x22 c:/program files (x86)/cypress/psoc creator/4.4/psoc creator/import/gnu/arm/5.4.1/bin/../lib/gcc/arm-none-eabi/5.4.1/armv7e-m/softfp\libgcc.a(_arm_fixunsdfsi.o)
 .text          0x00000000       0x30 c:/program files (x86)/cypress/psoc creator/4.4/psoc creator/import/gnu/arm/5.4.1/bin/../lib/gcc/arm-none-eabi/5.4.1/armv7e-m/softfp\libgcc.a(_aeabi_uldivmod.o)
 .data          0x00000000        0x0 c:/program files (x86)/cypress/psoc creator/4.4/psoc creator/import/gnu/arm/5.4.1/bin/../lib/gcc/arm-none-eabi/5.4.1/armv7e-m/softfp\libgcc.a(_aeabi_uldivmod.o)
 .bss           0x00000000        0x0 c:/program files (x86)/cypress/psoc creator/4.4/psoc creator/import/gnu/arm/5.4.1/bin/../lib/gcc/arm-none-eabi/5.4.1/armv7e-m/softfp\libgcc.a(_aeabi_uldivmod.o)
 .debug_frame   0x00000000       0x2c c:/program files (x86)/cypress/psoc creator/4.4/psoc creator/import/gnu/arm/5.4.1/bin/../lib/gcc/arm-none-eabi/5.4.1/armv7e-m/softfp\libgcc.a(_aeabi_uldivmod.o)
 .ARM.attributes
                0x00000000       0x22 c:/program files (x86)/cypress/psoc creator/4.4/psoc creator/import/gnu/arm/5.4.1/bin/../lib/gcc/arm-none-eabi/5.4.1/armv7e-m/softfp\libgcc.a(_aeabi_uldivmod.o)
 .text          0x00000000      0x2e4 c:/program files (x86)/cypress/psoc creator/4.4/psoc creator/import/gnu/arm/5.4.1/bin/../lib/gcc/arm-none-eabi/5.4.1/armv7e-m/softfp\libgcc.a(_udivmoddi4.o)
 .data          0x00000000        0x0 c:/program files (x86)/cypress/psoc creator/4.4/psoc creator/import/gnu/arm/5.4.1/bin/../lib/gcc/arm-none-eabi/5.4.1/armv7e-m/softfp\libgcc.a(_udivmoddi4.o)
 .bss           0x00000000        0x0 c:/program files (x86)/cypress/psoc creator/4.4/psoc creator/import/gnu/arm/5.4.1/bin/../lib/gcc/arm-none-eabi/5.4.1/armv7e-m/softfp\libgcc.a(_udivmoddi4.o)
 .ARM.extab     0x00000000        0x0 c:/program files (x86)/cypress/psoc creator/4.4/psoc creator/import/gnu/arm/5.4.1/bin/../lib/gcc/arm-none-eabi/5.4.1/armv7e-m/softfp\libgcc.a(_udivmoddi4.o)
 .ARM.exidx     0x00000000        0x8 c:/program files (x86)/cypress/psoc creator/4.4/psoc creator/import/gnu/arm/5.4.1/bin/../lib/gcc/arm-none-eabi/5.4.1/armv7e-m/softfp\libgcc.a(_udivmoddi4.o)
 .debug_frame   0x00000000       0x34 c:/program files (x86)/cypress/psoc creator/4.4/psoc creator/import/gnu/arm/5.4.1/bin/../lib/gcc/arm-none-eabi/5.4.1/armv7e-m/softfp\libgcc.a(_udivmoddi4.o)
 .ARM.attributes
                0x00000000       0x32 c:/program files (x86)/cypress/psoc creator/4.4/psoc creator/import/gnu/arm/5.4.1/bin/../lib/gcc/arm-none-eabi/5.4.1/armv7e-m/softfp\libgcc.a(_udivmoddi4.o)
 .text          0x00000000        0x4 c:/program files (x86)/cypress/psoc creator/4.4/psoc creator/import/gnu/arm/5.4.1/bin/../lib/gcc/arm-none-eabi/5.4.1/armv7e-m/softfp\libgcc.a(_dvmd_tls.o)
 .data          0x00000000        0x0 c:/program files (x86)/cypress/psoc creator/4.4/psoc creator/import/gnu/arm/5.4.1/bin/../lib/gcc/arm-none-eabi/5.4.1/armv7e-m/softfp\libgcc.a(_dvmd_tls.o)
 .bss           0x00000000        0x0 c:/program files (x86)/cypress/psoc creator/4.4/psoc creator/import/gnu/arm/5.4.1/bin/../lib/gcc/arm-none-eabi/5.4.1/armv7e-m/softfp\libgcc.a(_dvmd_tls.o)
 .ARM.attributes
                0x00000000       0x22 c:/program files (x86)/cypress/psoc creator/4.4/psoc creator/import/gnu/arm/5.4.1/bin/../lib/gcc/arm-none-eabi/5.4.1/armv7e-m/softfp\libgcc.a(_dvmd_tls.o)
 .text          0x00000000        0x0 c:/program files (x86)/cypress/psoc creator/4.4/psoc creator/import/gnu/arm/5.4.1/bin/../lib/gcc/arm-none-eabi/5.4.1/../../../../arm-none-eabi/lib/armv7e-m/softfp\libg_nano.a(lib_a-calloc.o)
 .data          0x00000000        0x0 c:/program files (x86)/cypress/psoc creator/4.4/psoc creator/import/gnu/arm/5.4.1/bin/../lib/gcc/arm-none-eabi/5.4.1/../../../../arm-none-eabi/lib/armv7e-m/softfp\libg_nano.a(lib_a-calloc.o)
 .bss           0x00000000        0x0 c:/program files (x86)/cypress/psoc creator/4.4/psoc creator/import/gnu/arm/5.4.1/bin/../lib/gcc/arm-none-eabi/5.4.1/../../../../arm-none-eabi/lib/armv7e-m/softfp\libg_nano.a(lib_a-calloc.o)
 .text          0x00000000        0x0 c:/program files (x86)/cypress/psoc creator/4.4/psoc creator/import/gnu/arm/5.4.1/bin/../lib/gcc/arm-none-eabi/5.4.1/../../../../arm-none-eabi/lib/armv7e-m/softfp\libg_nano.a(lib_a-exit.o)
 .data          0x00000000        0x0 c:/program files (x86)/cypress/psoc creator/4.4/psoc creator/import/gnu/arm/5.4.1/bin/../lib/gcc/arm-none-eabi/5.4.1/../../../../arm-none-eabi/lib/armv7e-m/softfp\libg_nano.a(lib_a-exit.o)
 .bss           0x00000000        0x0 c:/program files (x86)/cypress/psoc creator/4.4/psoc creator/import/gnu/arm/5.4.1/bin/../lib/gcc/arm-none-eabi/5.4.1/../../../../arm-none-eabi/lib/armv7e-m/softfp\libg_nano.a(lib_a-exit.o)
 .text.exit     0x00000000       0x28 c:/program files (x86)/cypress/psoc creator/4.4/psoc creator/import/gnu/arm/5.4.1/bin/../lib/gcc/arm-none-eabi/5.4.1/../../../../arm-none-eabi/lib/armv7e-m/softfp\libg_nano.a(lib_a-exit.o)
 .debug_frame   0x00000000       0x28 c:/program files (x86)/cypress/psoc creator/4.4/psoc creator/import/gnu/arm/5.4.1/bin/../lib/gcc/arm-none-eabi/5.4.1/../../../../arm-none-eabi/lib/armv7e-m/softfp\libg_nano.a(lib_a-exit.o)
 .ARM.attributes
                0x00000000       0x32 c:/program files (x86)/cypress/psoc creator/4.4/psoc creator/import/gnu/arm/5.4.1/bin/../lib/gcc/arm-none-eabi/5.4.1/../../../../arm-none-eabi/lib/armv7e-m/softfp\libg_nano.a(lib_a-exit.o)
 .text          0x00000000        0x0 c:/program files (x86)/cypress/psoc creator/4.4/psoc creator/import/gnu/arm/5.4.1/bin/../lib/gcc/arm-none-eabi/5.4.1/../../../../arm-none-eabi/lib/armv7e-m/softfp\libg_nano.a(lib_a-impure.o)
 .data          0x00000000        0x0 c:/program files (x86)/cypress/psoc creator/4.4/psoc creator/import/gnu/arm/5.4.1/bin/../lib/gcc/arm-none-eabi/5.4.1/../../../../arm-none-eabi/lib/armv7e-m/softfp\libg_nano.a(lib_a-impure.o)
 .bss           0x00000000        0x0 c:/program files (x86)/cypress/psoc creator/4.4/psoc creator/import/gnu/arm/5.4.1/bin/../lib/gcc/arm-none-eabi/5.4.1/../../../../arm-none-eabi/lib/armv7e-m/softfp\libg_nano.a(lib_a-impure.o)
 .text          0x00000000        0x0 c:/program files (x86)/cypress/psoc creator/4.4/psoc creator/import/gnu/arm/5.4.1/bin/../lib/gcc/arm-none-eabi/5.4.1/../../../../arm-none-eabi/lib/armv7e-m/softfp\libg_nano.a(lib_a-init.o)
 .data          0x00000000        0x0 c:/program files (x86)/cypress/psoc creator/4.4/psoc creator/import/gnu/arm/5.4.1/bin/../lib/gcc/arm-none-eabi/5.4.1/../../../../arm-none-eabi/lib/armv7e-m/softfp\libg_nano.a(lib_a-init.o)
 .bss           0x00000000        0x0 c:/program files (x86)/cypress/psoc creator/4.4/psoc creator/import/gnu/arm/5.4.1/bin/../lib/gcc/arm-none-eabi/5.4.1/../../../../arm-none-eabi/lib/armv7e-m/softfp\libg_nano.a(lib_a-init.o)
 .text.__libc_init_array
                0x00000000       0x4c c:/program files (x86)/cypress/psoc creator/4.4/psoc creator/import/gnu/arm/5.4.1/bin/../lib/gcc/arm-none-eabi/5.4.1/../../../../arm-none-eabi/lib/armv7e-m/softfp\libg_nano.a(lib_a-init.o)
 .debug_frame   0x00000000       0x2c c:/program files (x86)/cypress/psoc creator/4.4/psoc creator/import/gnu/arm/5.4.1/bin/../lib/gcc/arm-none-eabi/5.4.1/../../../../arm-none-eabi/lib/armv7e-m/softfp\libg_nano.a(lib_a-init.o)
 .ARM.attributes
                0x00000000       0x32 c:/program files (x86)/cypress/psoc creator/4.4/psoc creator/import/gnu/arm/5.4.1/bin/../lib/gcc/arm-none-eabi/5.4.1/../../../../arm-none-eabi/lib/armv7e-m/softfp\libg_nano.a(lib_a-init.o)
 .text          0x00000000        0x0 c:/program files (x86)/cypress/psoc creator/4.4/psoc creator/import/gnu/arm/5.4.1/bin/../lib/gcc/arm-none-eabi/5.4.1/../../../../arm-none-eabi/lib/armv7e-m/softfp\libg_nano.a(lib_a-malloc.o)
 .data          0x00000000        0x0 c:/program files (x86)/cypress/psoc creator/4.4/psoc creator/import/gnu/arm/5.4.1/bin/../lib/gcc/arm-none-eabi/5.4.1/../../../../arm-none-eabi/lib/armv7e-m/softfp\libg_nano.a(lib_a-malloc.o)
 .bss           0x00000000        0x0 c:/program files (x86)/cypress/psoc creator/4.4/psoc creator/import/gnu/arm/5.4.1/bin/../lib/gcc/arm-none-eabi/5.4.1/../../../../arm-none-eabi/lib/armv7e-m/softfp\libg_nano.a(lib_a-malloc.o)
 .text          0x00000000        0x0 c:/program files (x86)/cypress/psoc creator/4.4/psoc creator/import/gnu/arm/5.4.1/bin/../lib/gcc/arm-none-eabi/5.4.1/../../../../arm-none-eabi/lib/armv7e-m/softfp\libg_nano.a(lib_a-memcpy-stub.o)
 .data          0x00000000        0x0 c:/program files (x86)/cypress/psoc creator/4.4/psoc creator/import/gnu/arm/5.4.1/bin/../lib/gcc/arm-none-eabi/5.4.1/../../../../arm-none-eabi/lib/armv7e-m/softfp\libg_nano.a(lib_a-memcpy-stub.o)
 .bss           0x00000000        0x0 c:/program files (x86)/cypress/psoc creator/4.4/psoc creator/import/gnu/arm/5.4.1/bin/../lib/gcc/arm-none-eabi/5.4.1/../../../../arm-none-eabi/lib/armv7e-m/softfp\libg_nano.a(lib_a-memcpy-stub.o)
 .text          0x00000000        0x0 c:/program files (x86)/cypress/psoc creator/4.4/psoc creator/import/gnu/arm/5.4.1/bin/../lib/gcc/arm-none-eabi/5.4.1/../../../../arm-none-eabi/lib/armv7e-m/softfp\libg_nano.a(lib_a-memset.o)
 .data          0x00000000        0x0 c:/program files (x86)/cypress/psoc creator/4.4/psoc creator/import/gnu/arm/5.4.1/bin/../lib/gcc/arm-none-eabi/5.4.1/../../../../arm-none-eabi/lib/armv7e-m/softfp\libg_nano.a(lib_a-memset.o)
 .bss           0x00000000        0x0 c:/program files (x86)/cypress/psoc creator/4.4/psoc creator/import/gnu/arm/5.4.1/bin/../lib/gcc/arm-none-eabi/5.4.1/../../../../arm-none-eabi/lib/armv7e-m/softfp\libg_nano.a(lib_a-memset.o)
 .text          0x00000000        0x0 c:/program files (x86)/cypress/psoc creator/4.4/psoc creator/import/gnu/arm/5.4.1/bin/../lib/gcc/arm-none-eabi/5.4.1/../../../../arm-none-eabi/lib/armv7e-m/softfp\libg_nano.a(lib_a-nano-callocr.o)
 .data          0x00000000        0x0 c:/program files (x86)/cypress/psoc creator/4.4/psoc creator/import/gnu/arm/5.4.1/bin/../lib/gcc/arm-none-eabi/5.4.1/../../../../arm-none-eabi/lib/armv7e-m/softfp\libg_nano.a(lib_a-nano-callocr.o)
 .bss           0x00000000        0x0 c:/program files (x86)/cypress/psoc creator/4.4/psoc creator/import/gnu/arm/5.4.1/bin/../lib/gcc/arm-none-eabi/5.4.1/../../../../arm-none-eabi/lib/armv7e-m/softfp\libg_nano.a(lib_a-nano-callocr.o)
 .text          0x00000000        0x0 c:/program files (x86)/cypress/psoc creator/4.4/psoc creator/import/gnu/arm/5.4.1/bin/../lib/gcc/arm-none-eabi/5.4.1/../../../../arm-none-eabi/lib/armv7e-m/softfp\libg_nano.a(lib_a-nano-freer.o)
 .data          0x00000000        0x0 c:/program files (x86)/cypress/psoc creator/4.4/psoc creator/import/gnu/arm/5.4.1/bin/../lib/gcc/arm-none-eabi/5.4.1/../../../../arm-none-eabi/lib/armv7e-m/softfp\libg_nano.a(lib_a-nano-freer.o)
 .bss           0x00000000        0x0 c:/program files (x86)/cypress/psoc creator/4.4/psoc creator/import/gnu/arm/5.4.1/bin/../lib/gcc/arm-none-eabi/5.4.1/../../../../arm-none-eabi/lib/armv7e-m/softfp\libg_nano.a(lib_a-nano-freer.o)
 .text          0x00000000        0x0 c:/program files (x86)/cypress/psoc creator/4.4/psoc creator/import/gnu/arm/5.4.1/bin/../lib/gcc/arm-none-eabi/5.4.1/../../../../arm-none-eabi/lib/armv7e-m/softfp\libg_nano.a(lib_a-nano-mallocr.o)
 .data          0x00000000        0x0 c:/program files (x86)/cypress/psoc creator/4.4/psoc creator/import/gnu/arm/5.4.1/bin/../lib/gcc/arm-none-eabi/5.4.1/../../../../arm-none-eabi/lib/armv7e-m/softfp\libg_nano.a(lib_a-nano-mallocr.o)
 .bss           0x00000000        0x0 c:/program files (x86)/cypress/psoc creator/4.4/psoc creator/import/gnu/arm/5.4.1/bin/../lib/gcc/arm-none-eabi/5.4.1/../../../../arm-none-eabi/lib/armv7e-m/softfp\libg_nano.a(lib_a-nano-mallocr.o)
 .text          0x00000000        0x0 c:/program files (x86)/cypress/psoc creator/4.4/psoc creator/import/gnu/arm/5.4.1/bin/../lib/gcc/arm-none-eabi/5.4.1/../../../../arm-none-eabi/lib/armv7e-m/softfp\libg_nano.a(lib_a-nano-vfprintf_float.o)
 .data          0x00000000        0x0 c:/program files (x86)/cypress/psoc creator/4.4/psoc creator/import/gnu/arm/5.4.1/bin/../lib/gcc/arm-none-eabi/5.4.1/../../../../arm-none-eabi/lib/armv7e-m/softfp\libg_nano.a(lib_a-nano-vfprintf_float.o)
 .bss           0x00000000        0x0 c:/program files (x86)/cypress/psoc creator/4.4/psoc creator/import/gnu/arm/5.4.1/bin/../lib/gcc/arm-none-eabi/5.4.1/../../../../arm-none-eabi/lib/armv7e-m/softfp\libg_nano.a(lib_a-nano-vfprintf_float.o)
 .text          0x00000000        0x0 c:/program files (x86)/cypress/psoc creator/4.4/psoc creator/import/gnu/arm/5.4.1/bin/../lib/gcc/arm-none-eabi/5.4.1/../../../../arm-none-eabi/lib/armv7e-m/softfp\libg_nano.a(lib_a-nano-vfprintf_i.o)
 .data          0x00000000        0x0 c:/program files (x86)/cypress/psoc creator/4.4/psoc creator/import/gnu/arm/5.4.1/bin/../lib/gcc/arm-none-eabi/5.4.1/../../../../arm-none-eabi/lib/armv7e-m/softfp\libg_nano.a(lib_a-nano-vfprintf_i.o)
 .bss           0x00000000        0x0 c:/program files (x86)/cypress/psoc creator/4.4/psoc creator/import/gnu/arm/5.4.1/bin/../lib/gcc/arm-none-eabi/5.4.1/../../../../arm-none-eabi/lib/armv7e-m/softfp\libg_nano.a(lib_a-nano-vfprintf_i.o)
 .text          0x00000000        0x0 c:/program files (x86)/cypress/psoc creator/4.4/psoc creator/import/gnu/arm/5.4.1/bin/../lib/gcc/arm-none-eabi/5.4.1/../../../../arm-none-eabi/lib/armv7e-m/softfp\libg_nano.a(lib_a-nano-vfscanf_float.o)
 .data          0x00000000        0x0 c:/program files (x86)/cypress/psoc creator/4.4/psoc creator/import/gnu/arm/5.4.1/bin/../lib/gcc/arm-none-eabi/5.4.1/../../../../arm-none-eabi/lib/armv7e-m/softfp\libg_nano.a(lib_a-nano-vfscanf_float.o)
 .bss           0x00000000        0x0 c:/program files (x86)/cypress/psoc creator/4.4/psoc creator/import/gnu/arm/5.4.1/bin/../lib/gcc/arm-none-eabi/5.4.1/../../../../arm-none-eabi/lib/armv7e-m/softfp\libg_nano.a(lib_a-nano-vfscanf_float.o)
 .text._scanf_float
                0x00000000      0x3bc c:/program files (x86)/cypress/psoc creator/4.4/psoc creator/import/gnu/arm/5.4.1/bin/../lib/gcc/arm-none-eabi/5.4.1/../../../../arm-none-eabi/lib/armv7e-m/softfp\libg_nano.a(lib_a-nano-vfscanf_float.o)
 .rodata.str1.1
                0x00000000        0x5 c:/program files (x86)/cypress/psoc creator/4.4/psoc creator/import/gnu/arm/5.4.1/bin/../lib/gcc/arm-none-eabi/5.4.1/../../../../arm-none-eabi/lib/armv7e-m/softfp\libg_nano.a(lib_a-nano-vfscanf_float.o)
 .debug_frame   0x00000000       0x40 c:/program files (x86)/cypress/psoc creator/4.4/psoc creator/import/gnu/arm/5.4.1/bin/../lib/gcc/arm-none-eabi/5.4.1/../../../../arm-none-eabi/lib/armv7e-m/softfp\libg_nano.a(lib_a-nano-vfscanf_float.o)
 .ARM.attributes
                0x00000000       0x32 c:/program files (x86)/cypress/psoc creator/4.4/psoc creator/import/gnu/arm/5.4.1/bin/../lib/gcc/arm-none-eabi/5.4.1/../../../../arm-none-eabi/lib/armv7e-m/softfp\libg_nano.a(lib_a-nano-vfscanf_float.o)
 .text          0x00000000        0x0 c:/program files (x86)/cypress/psoc creator/4.4/psoc creator/import/gnu/arm/5.4.1/bin/../lib/gcc/arm-none-eabi/5.4.1/../../../../arm-none-eabi/lib/armv7e-m/softfp\libg_nano.a(lib_a-printf.o)
 .data          0x00000000        0x0 c:/program files (x86)/cypress/psoc creator/4.4/psoc creator/import/gnu/arm/5.4.1/bin/../lib/gcc/arm-none-eabi/5.4.1/../../../../arm-none-eabi/lib/armv7e-m/softfp\libg_nano.a(lib_a-printf.o)
 .bss           0x00000000        0x0 c:/program files (x86)/cypress/psoc creator/4.4/psoc creator/import/gnu/arm/5.4.1/bin/../lib/gcc/arm-none-eabi/5.4.1/../../../../arm-none-eabi/lib/armv7e-m/softfp\libg_nano.a(lib_a-printf.o)
 .text._printf_r
                0x00000000       0x28 c:/program files (x86)/cypress/psoc creator/4.4/psoc creator/import/gnu/arm/5.4.1/bin/../lib/gcc/arm-none-eabi/5.4.1/../../../../arm-none-eabi/lib/armv7e-m/softfp\libg_nano.a(lib_a-printf.o)
 .text          0x00000000        0x0 c:/program files (x86)/cypress/psoc creator/4.4/psoc creator/import/gnu/arm/5.4.1/bin/../lib/gcc/arm-none-eabi/5.4.1/../../../../arm-none-eabi/lib/armv7e-m/softfp\libg_nano.a(lib_a-sbrkr.o)
 .data          0x00000000        0x0 c:/program files (x86)/cypress/psoc creator/4.4/psoc creator/import/gnu/arm/5.4.1/bin/../lib/gcc/arm-none-eabi/5.4.1/../../../../arm-none-eabi/lib/armv7e-m/softfp\libg_nano.a(lib_a-sbrkr.o)
 .bss           0x00000000        0x0 c:/program files (x86)/cypress/psoc creator/4.4/psoc creator/import/gnu/arm/5.4.1/bin/../lib/gcc/arm-none-eabi/5.4.1/../../../../arm-none-eabi/lib/armv7e-m/softfp\libg_nano.a(lib_a-sbrkr.o)
 .text          0x00000000        0x0 c:/program files (x86)/cypress/psoc creator/4.4/psoc creator/import/gnu/arm/5.4.1/bin/../lib/gcc/arm-none-eabi/5.4.1/../../../../arm-none-eabi/lib/armv7e-m/softfp\libg_nano.a(lib_a-setvbuf.o)
 .data          0x00000000        0x0 c:/program files (x86)/cypress/psoc creator/4.4/psoc creator/import/gnu/arm/5.4.1/bin/../lib/gcc/arm-none-eabi/5.4.1/../../../../arm-none-eabi/lib/armv7e-m/softfp\libg_nano.a(lib_a-setvbuf.o)
 .bss           0x00000000        0x0 c:/program files (x86)/cypress/psoc creator/4.4/psoc creator/import/gnu/arm/5.4.1/bin/../lib/gcc/arm-none-eabi/5.4.1/../../../../arm-none-eabi/lib/armv7e-m/softfp\libg_nano.a(lib_a-setvbuf.o)
 .text          0x00000000        0x0 c:/program files (x86)/cypress/psoc creator/4.4/psoc creator/import/gnu/arm/5.4.1/bin/../lib/gcc/arm-none-eabi/5.4.1/../../../../arm-none-eabi/lib/armv7e-m/softfp\libg_nano.a(lib_a-sf_nan.o)
 .data          0x00000000        0x0 c:/program files (x86)/cypress/psoc creator/4.4/psoc creator/import/gnu/arm/5.4.1/bin/../lib/gcc/arm-none-eabi/5.4.1/../../../../arm-none-eabi/lib/armv7e-m/softfp\libg_nano.a(lib_a-sf_nan.o)
 .bss           0x00000000        0x0 c:/program files (x86)/cypress/psoc creator/4.4/psoc creator/import/gnu/arm/5.4.1/bin/../lib/gcc/arm-none-eabi/5.4.1/../../../../arm-none-eabi/lib/armv7e-m/softfp\libg_nano.a(lib_a-sf_nan.o)
 .text.nanf     0x00000000        0x8 c:/program files (x86)/cypress/psoc creator/4.4/psoc creator/import/gnu/arm/5.4.1/bin/../lib/gcc/arm-none-eabi/5.4.1/../../../../arm-none-eabi/lib/armv7e-m/softfp\libg_nano.a(lib_a-sf_nan.o)
 .debug_frame   0x00000000       0x20 c:/program files (x86)/cypress/psoc creator/4.4/psoc creator/import/gnu/arm/5.4.1/bin/../lib/gcc/arm-none-eabi/5.4.1/../../../../arm-none-eabi/lib/armv7e-m/softfp\libg_nano.a(lib_a-sf_nan.o)
 .ARM.attributes
                0x00000000       0x32 c:/program files (x86)/cypress/psoc creator/4.4/psoc creator/import/gnu/arm/5.4.1/bin/../lib/gcc/arm-none-eabi/5.4.1/../../../../arm-none-eabi/lib/armv7e-m/softfp\libg_nano.a(lib_a-sf_nan.o)
 .text          0x00000000        0x0 c:/program files (x86)/cypress/psoc creator/4.4/psoc creator/import/gnu/arm/5.4.1/bin/../lib/gcc/arm-none-eabi/5.4.1/../../../../arm-none-eabi/lib/armv7e-m/softfp\libg_nano.a(lib_a-sprintf.o)
 .data          0x00000000        0x0 c:/program files (x86)/cypress/psoc creator/4.4/psoc creator/import/gnu/arm/5.4.1/bin/../lib/gcc/arm-none-eabi/5.4.1/../../../../arm-none-eabi/lib/armv7e-m/softfp\libg_nano.a(lib_a-sprintf.o)
 .bss           0x00000000        0x0 c:/program files (x86)/cypress/psoc creator/4.4/psoc creator/import/gnu/arm/5.4.1/bin/../lib/gcc/arm-none-eabi/5.4.1/../../../../arm-none-eabi/lib/armv7e-m/softfp\libg_nano.a(lib_a-sprintf.o)
 .text._sprintf_r
                0x00000000       0x40 c:/program files (x86)/cypress/psoc creator/4.4/psoc creator/import/gnu/arm/5.4.1/bin/../lib/gcc/arm-none-eabi/5.4.1/../../../../arm-none-eabi/lib/armv7e-m/softfp\libg_nano.a(lib_a-sprintf.o)
 .text.sprintf  0x00000000       0x48 c:/program files (x86)/cypress/psoc creator/4.4/psoc creator/import/gnu/arm/5.4.1/bin/../lib/gcc/arm-none-eabi/5.4.1/../../../../arm-none-eabi/lib/armv7e-m/softfp\libg_nano.a(lib_a-sprintf.o)
 .debug_frame   0x00000000       0x70 c:/program files (x86)/cypress/psoc creator/4.4/psoc creator/import/gnu/arm/5.4.1/bin/../lib/gcc/arm-none-eabi/5.4.1/../../../../arm-none-eabi/lib/armv7e-m/softfp\libg_nano.a(lib_a-sprintf.o)
 .ARM.attributes
                0x00000000       0x32 c:/program files (x86)/cypress/psoc creator/4.4/psoc creator/import/gnu/arm/5.4.1/bin/../lib/gcc/arm-none-eabi/5.4.1/../../../../arm-none-eabi/lib/armv7e-m/softfp\libg_nano.a(lib_a-sprintf.o)
 .data          0x00000000        0x0 c:/program files (x86)/cypress/psoc creator/4.4/psoc creator/import/gnu/arm/5.4.1/bin/../lib/gcc/arm-none-eabi/5.4.1/../../../../arm-none-eabi/lib/armv7e-m/softfp\libg_nano.a(lib_a-strlen.o)
 .bss           0x00000000        0x0 c:/program files (x86)/cypress/psoc creator/4.4/psoc creator/import/gnu/arm/5.4.1/bin/../lib/gcc/arm-none-eabi/5.4.1/../../../../arm-none-eabi/lib/armv7e-m/softfp\libg_nano.a(lib_a-strlen.o)
 .text          0x00000000        0x0 c:/program files (x86)/cypress/psoc creator/4.4/psoc creator/import/gnu/arm/5.4.1/bin/../lib/gcc/arm-none-eabi/5.4.1/../../../../arm-none-eabi/lib/armv7e-m/softfp\libg_nano.a(lib_a-strtod.o)
 .data          0x00000000        0x0 c:/program files (x86)/cypress/psoc creator/4.4/psoc creator/import/gnu/arm/5.4.1/bin/../lib/gcc/arm-none-eabi/5.4.1/../../../../arm-none-eabi/lib/armv7e-m/softfp\libg_nano.a(lib_a-strtod.o)
 .bss           0x00000000        0x0 c:/program files (x86)/cypress/psoc creator/4.4/psoc creator/import/gnu/arm/5.4.1/bin/../lib/gcc/arm-none-eabi/5.4.1/../../../../arm-none-eabi/lib/armv7e-m/softfp\libg_nano.a(lib_a-strtod.o)
 .text.sulp     0x00000000       0x42 c:/program files (x86)/cypress/psoc creator/4.4/psoc creator/import/gnu/arm/5.4.1/bin/../lib/gcc/arm-none-eabi/5.4.1/../../../../arm-none-eabi/lib/armv7e-m/softfp\libg_nano.a(lib_a-strtod.o)
 .text._strtod_r
                0x00000000      0xbf8 c:/program files (x86)/cypress/psoc creator/4.4/psoc creator/import/gnu/arm/5.4.1/bin/../lib/gcc/arm-none-eabi/5.4.1/../../../../arm-none-eabi/lib/armv7e-m/softfp\libg_nano.a(lib_a-strtod.o)
 .text.strtod   0x00000000       0x10 c:/program files (x86)/cypress/psoc creator/4.4/psoc creator/import/gnu/arm/5.4.1/bin/../lib/gcc/arm-none-eabi/5.4.1/../../../../arm-none-eabi/lib/armv7e-m/softfp\libg_nano.a(lib_a-strtod.o)
 .text.strtof   0x00000000       0x34 c:/program files (x86)/cypress/psoc creator/4.4/psoc creator/import/gnu/arm/5.4.1/bin/../lib/gcc/arm-none-eabi/5.4.1/../../../../arm-none-eabi/lib/armv7e-m/softfp\libg_nano.a(lib_a-strtod.o)
 .rodata.fpinan.5403
                0x00000000       0x14 c:/program files (x86)/cypress/psoc creator/4.4/psoc creator/import/gnu/arm/5.4.1/bin/../lib/gcc/arm-none-eabi/5.4.1/../../../../arm-none-eabi/lib/armv7e-m/softfp\libg_nano.a(lib_a-strtod.o)
 .rodata.str1.1
                0x00000000        0xc c:/program files (x86)/cypress/psoc creator/4.4/psoc creator/import/gnu/arm/5.4.1/bin/../lib/gcc/arm-none-eabi/5.4.1/../../../../arm-none-eabi/lib/armv7e-m/softfp\libg_nano.a(lib_a-strtod.o)
 .rodata.fpi.5367
                0x00000000       0x14 c:/program files (x86)/cypress/psoc creator/4.4/psoc creator/import/gnu/arm/5.4.1/bin/../lib/gcc/arm-none-eabi/5.4.1/../../../../arm-none-eabi/lib/armv7e-m/softfp\libg_nano.a(lib_a-strtod.o)
 .rodata.tinytens
                0x00000000       0x28 c:/program files (x86)/cypress/psoc creator/4.4/psoc creator/import/gnu/arm/5.4.1/bin/../lib/gcc/arm-none-eabi/5.4.1/../../../../arm-none-eabi/lib/armv7e-m/softfp\libg_nano.a(lib_a-strtod.o)
 .debug_frame   0x00000000       0x98 c:/program files (x86)/cypress/psoc creator/4.4/psoc creator/import/gnu/arm/5.4.1/bin/../lib/gcc/arm-none-eabi/5.4.1/../../../../arm-none-eabi/lib/armv7e-m/softfp\libg_nano.a(lib_a-strtod.o)
 .ARM.attributes
                0x00000000       0x32 c:/program files (x86)/cypress/psoc creator/4.4/psoc creator/import/gnu/arm/5.4.1/bin/../lib/gcc/arm-none-eabi/5.4.1/../../../../arm-none-eabi/lib/armv7e-m/softfp\libg_nano.a(lib_a-strtod.o)
 .text          0x00000000        0x0 c:/program files (x86)/cypress/psoc creator/4.4/psoc creator/import/gnu/arm/5.4.1/bin/../lib/gcc/arm-none-eabi/5.4.1/../../../../arm-none-eabi/lib/armv7e-m/softfp\libg_nano.a(lib_a-strtol.o)
 .data          0x00000000        0x0 c:/program files (x86)/cypress/psoc creator/4.4/psoc creator/import/gnu/arm/5.4.1/bin/../lib/gcc/arm-none-eabi/5.4.1/../../../../arm-none-eabi/lib/armv7e-m/softfp\libg_nano.a(lib_a-strtol.o)
 .bss           0x00000000        0x0 c:/program files (x86)/cypress/psoc creator/4.4/psoc creator/import/gnu/arm/5.4.1/bin/../lib/gcc/arm-none-eabi/5.4.1/../../../../arm-none-eabi/lib/armv7e-m/softfp\libg_nano.a(lib_a-strtol.o)
 .text._strtol_r
                0x00000000      0x10c c:/program files (x86)/cypress/psoc creator/4.4/psoc creator/import/gnu/arm/5.4.1/bin/../lib/gcc/arm-none-eabi/5.4.1/../../../../arm-none-eabi/lib/armv7e-m/softfp\libg_nano.a(lib_a-strtol.o)
 .text.strtol   0x00000000       0x14 c:/program files (x86)/cypress/psoc creator/4.4/psoc creator/import/gnu/arm/5.4.1/bin/../lib/gcc/arm-none-eabi/5.4.1/../../../../arm-none-eabi/lib/armv7e-m/softfp\libg_nano.a(lib_a-strtol.o)
 .debug_frame   0x00000000       0x44 c:/program files (x86)/cypress/psoc creator/4.4/psoc creator/import/gnu/arm/5.4.1/bin/../lib/gcc/arm-none-eabi/5.4.1/../../../../arm-none-eabi/lib/armv7e-m/softfp\libg_nano.a(lib_a-strtol.o)
 .ARM.attributes
                0x00000000       0x32 c:/program files (x86)/cypress/psoc creator/4.4/psoc creator/import/gnu/arm/5.4.1/bin/../lib/gcc/arm-none-eabi/5.4.1/../../../../arm-none-eabi/lib/armv7e-m/softfp\libg_nano.a(lib_a-strtol.o)
 .text          0x00000000        0x0 c:/program files (x86)/cypress/psoc creator/4.4/psoc creator/import/gnu/arm/5.4.1/bin/../lib/gcc/arm-none-eabi/5.4.1/../../../../arm-none-eabi/lib/armv7e-m/softfp\libg_nano.a(lib_a-ctype_.o)
 .data          0x00000000        0x0 c:/program files (x86)/cypress/psoc creator/4.4/psoc creator/import/gnu/arm/5.4.1/bin/../lib/gcc/arm-none-eabi/5.4.1/../../../../arm-none-eabi/lib/armv7e-m/softfp\libg_nano.a(lib_a-ctype_.o)
 .bss           0x00000000        0x0 c:/program files (x86)/cypress/psoc creator/4.4/psoc creator/import/gnu/arm/5.4.1/bin/../lib/gcc/arm-none-eabi/5.4.1/../../../../arm-none-eabi/lib/armv7e-m/softfp\libg_nano.a(lib_a-ctype_.o)
 .data.__ctype_ptr__
                0x00000000        0x4 c:/program files (x86)/cypress/psoc creator/4.4/psoc creator/import/gnu/arm/5.4.1/bin/../lib/gcc/arm-none-eabi/5.4.1/../../../../arm-none-eabi/lib/armv7e-m/softfp\libg_nano.a(lib_a-ctype_.o)
 .rodata._ctype_
                0x00000000      0x101 c:/program files (x86)/cypress/psoc creator/4.4/psoc creator/import/gnu/arm/5.4.1/bin/../lib/gcc/arm-none-eabi/5.4.1/../../../../arm-none-eabi/lib/armv7e-m/softfp\libg_nano.a(lib_a-ctype_.o)
 .ARM.attributes
                0x00000000       0x32 c:/program files (x86)/cypress/psoc creator/4.4/psoc creator/import/gnu/arm/5.4.1/bin/../lib/gcc/arm-none-eabi/5.4.1/../../../../arm-none-eabi/lib/armv7e-m/softfp\libg_nano.a(lib_a-ctype_.o)
 .text          0x00000000        0x0 c:/program files (x86)/cypress/psoc creator/4.4/psoc creator/import/gnu/arm/5.4.1/bin/../lib/gcc/arm-none-eabi/5.4.1/../../../../arm-none-eabi/lib/armv7e-m/softfp\libg_nano.a(lib_a-dtoa.o)
 .data          0x00000000        0x0 c:/program files (x86)/cypress/psoc creator/4.4/psoc creator/import/gnu/arm/5.4.1/bin/../lib/gcc/arm-none-eabi/5.4.1/../../../../arm-none-eabi/lib/armv7e-m/softfp\libg_nano.a(lib_a-dtoa.o)
 .bss           0x00000000        0x0 c:/program files (x86)/cypress/psoc creator/4.4/psoc creator/import/gnu/arm/5.4.1/bin/../lib/gcc/arm-none-eabi/5.4.1/../../../../arm-none-eabi/lib/armv7e-m/softfp\libg_nano.a(lib_a-dtoa.o)
 .text          0x00000000        0x0 c:/program files (x86)/cypress/psoc creator/4.4/psoc creator/import/gnu/arm/5.4.1/bin/../lib/gcc/arm-none-eabi/5.4.1/../../../../arm-none-eabi/lib/armv7e-m/softfp\libg_nano.a(lib_a-fflush.o)
 .data          0x00000000        0x0 c:/program files (x86)/cypress/psoc creator/4.4/psoc creator/import/gnu/arm/5.4.1/bin/../lib/gcc/arm-none-eabi/5.4.1/../../../../arm-none-eabi/lib/armv7e-m/softfp\libg_nano.a(lib_a-fflush.o)
 .bss           0x00000000        0x0 c:/program files (x86)/cypress/psoc creator/4.4/psoc creator/import/gnu/arm/5.4.1/bin/../lib/gcc/arm-none-eabi/5.4.1/../../../../arm-none-eabi/lib/armv7e-m/softfp\libg_nano.a(lib_a-fflush.o)
 .text.fflush   0x00000000       0x24 c:/program files (x86)/cypress/psoc creator/4.4/psoc creator/import/gnu/arm/5.4.1/bin/../lib/gcc/arm-none-eabi/5.4.1/../../../../arm-none-eabi/lib/armv7e-m/softfp\libg_nano.a(lib_a-fflush.o)
 .text          0x00000000        0x0 c:/program files (x86)/cypress/psoc creator/4.4/psoc creator/import/gnu/arm/5.4.1/bin/../lib/gcc/arm-none-eabi/5.4.1/../../../../arm-none-eabi/lib/armv7e-m/softfp\libg_nano.a(lib_a-findfp.o)
 .data          0x00000000        0x0 c:/program files (x86)/cypress/psoc creator/4.4/psoc creator/import/gnu/arm/5.4.1/bin/../lib/gcc/arm-none-eabi/5.4.1/../../../../arm-none-eabi/lib/armv7e-m/softfp\libg_nano.a(lib_a-findfp.o)
 .bss           0x00000000        0x0 c:/program files (x86)/cypress/psoc creator/4.4/psoc creator/import/gnu/arm/5.4.1/bin/../lib/gcc/arm-none-eabi/5.4.1/../../../../arm-none-eabi/lib/armv7e-m/softfp\libg_nano.a(lib_a-findfp.o)
 .text.__fp_unlock
                0x00000000        0x4 c:/program files (x86)/cypress/psoc creator/4.4/psoc creator/import/gnu/arm/5.4.1/bin/../lib/gcc/arm-none-eabi/5.4.1/../../../../arm-none-eabi/lib/armv7e-m/softfp\libg_nano.a(lib_a-findfp.o)
 .text.__fp_lock
                0x00000000        0x4 c:/program files (x86)/cypress/psoc creator/4.4/psoc creator/import/gnu/arm/5.4.1/bin/../lib/gcc/arm-none-eabi/5.4.1/../../../../arm-none-eabi/lib/armv7e-m/softfp\libg_nano.a(lib_a-findfp.o)
 .text._cleanup
                0x00000000        0xc c:/program files (x86)/cypress/psoc creator/4.4/psoc creator/import/gnu/arm/5.4.1/bin/../lib/gcc/arm-none-eabi/5.4.1/../../../../arm-none-eabi/lib/armv7e-m/softfp\libg_nano.a(lib_a-findfp.o)
 .text.__sfp_lock_acquire
                0x00000000        0x2 c:/program files (x86)/cypress/psoc creator/4.4/psoc creator/import/gnu/arm/5.4.1/bin/../lib/gcc/arm-none-eabi/5.4.1/../../../../arm-none-eabi/lib/armv7e-m/softfp\libg_nano.a(lib_a-findfp.o)
 .text.__sfp_lock_release
                0x00000000        0x2 c:/program files (x86)/cypress/psoc creator/4.4/psoc creator/import/gnu/arm/5.4.1/bin/../lib/gcc/arm-none-eabi/5.4.1/../../../../arm-none-eabi/lib/armv7e-m/softfp\libg_nano.a(lib_a-findfp.o)
 .text.__sinit_lock_acquire
                0x00000000        0x2 c:/program files (x86)/cypress/psoc creator/4.4/psoc creator/import/gnu/arm/5.4.1/bin/../lib/gcc/arm-none-eabi/5.4.1/../../../../arm-none-eabi/lib/armv7e-m/softfp\libg_nano.a(lib_a-findfp.o)
 .text.__sinit_lock_release
                0x00000000        0x2 c:/program files (x86)/cypress/psoc creator/4.4/psoc creator/import/gnu/arm/5.4.1/bin/../lib/gcc/arm-none-eabi/5.4.1/../../../../arm-none-eabi/lib/armv7e-m/softfp\libg_nano.a(lib_a-findfp.o)
 .text.__fp_lock_all
                0x00000000       0x14 c:/program files (x86)/cypress/psoc creator/4.4/psoc creator/import/gnu/arm/5.4.1/bin/../lib/gcc/arm-none-eabi/5.4.1/../../../../arm-none-eabi/lib/armv7e-m/softfp\libg_nano.a(lib_a-findfp.o)
 .text.__fp_unlock_all
                0x00000000       0x14 c:/program files (x86)/cypress/psoc creator/4.4/psoc creator/import/gnu/arm/5.4.1/bin/../lib/gcc/arm-none-eabi/5.4.1/../../../../arm-none-eabi/lib/armv7e-m/softfp\libg_nano.a(lib_a-findfp.o)
 .text          0x00000000        0x0 c:/program files (x86)/cypress/psoc creator/4.4/psoc creator/import/gnu/arm/5.4.1/bin/../lib/gcc/arm-none-eabi/5.4.1/../../../../arm-none-eabi/lib/armv7e-m/softfp\libg_nano.a(lib_a-fwalk.o)
 .data          0x00000000        0x0 c:/program files (x86)/cypress/psoc creator/4.4/psoc creator/import/gnu/arm/5.4.1/bin/../lib/gcc/arm-none-eabi/5.4.1/../../../../arm-none-eabi/lib/armv7e-m/softfp\libg_nano.a(lib_a-fwalk.o)
 .bss           0x00000000        0x0 c:/program files (x86)/cypress/psoc creator/4.4/psoc creator/import/gnu/arm/5.4.1/bin/../lib/gcc/arm-none-eabi/5.4.1/../../../../arm-none-eabi/lib/armv7e-m/softfp\libg_nano.a(lib_a-fwalk.o)
 .text._fwalk   0x00000000       0x38 c:/program files (x86)/cypress/psoc creator/4.4/psoc creator/import/gnu/arm/5.4.1/bin/../lib/gcc/arm-none-eabi/5.4.1/../../../../arm-none-eabi/lib/armv7e-m/softfp\libg_nano.a(lib_a-fwalk.o)
 .text          0x00000000        0x0 c:/program files (x86)/cypress/psoc creator/4.4/psoc creator/import/gnu/arm/5.4.1/bin/../lib/gcc/arm-none-eabi/5.4.1/../../../../arm-none-eabi/lib/armv7e-m/softfp\libg_nano.a(lib_a-gdtoa-gethex.o)
 .data          0x00000000        0x0 c:/program files (x86)/cypress/psoc creator/4.4/psoc creator/import/gnu/arm/5.4.1/bin/../lib/gcc/arm-none-eabi/5.4.1/../../../../arm-none-eabi/lib/armv7e-m/softfp\libg_nano.a(lib_a-gdtoa-gethex.o)
 .bss           0x00000000        0x0 c:/program files (x86)/cypress/psoc creator/4.4/psoc creator/import/gnu/arm/5.4.1/bin/../lib/gcc/arm-none-eabi/5.4.1/../../../../arm-none-eabi/lib/armv7e-m/softfp\libg_nano.a(lib_a-gdtoa-gethex.o)
 .text.rshift   0x00000000       0x6c c:/program files (x86)/cypress/psoc creator/4.4/psoc creator/import/gnu/arm/5.4.1/bin/../lib/gcc/arm-none-eabi/5.4.1/../../../../arm-none-eabi/lib/armv7e-m/softfp\libg_nano.a(lib_a-gdtoa-gethex.o)
 .text.__hexdig_fun
                0x00000000       0x2a c:/program files (x86)/cypress/psoc creator/4.4/psoc creator/import/gnu/arm/5.4.1/bin/../lib/gcc/arm-none-eabi/5.4.1/../../../../arm-none-eabi/lib/armv7e-m/softfp\libg_nano.a(lib_a-gdtoa-gethex.o)
 .text.__gethex
                0x00000000      0x43e c:/program files (x86)/cypress/psoc creator/4.4/psoc creator/import/gnu/arm/5.4.1/bin/../lib/gcc/arm-none-eabi/5.4.1/../../../../arm-none-eabi/lib/armv7e-m/softfp\libg_nano.a(lib_a-gdtoa-gethex.o)
 .debug_frame   0x00000000       0x70 c:/program files (x86)/cypress/psoc creator/4.4/psoc creator/import/gnu/arm/5.4.1/bin/../lib/gcc/arm-none-eabi/5.4.1/../../../../arm-none-eabi/lib/armv7e-m/softfp\libg_nano.a(lib_a-gdtoa-gethex.o)
 .ARM.attributes
                0x00000000       0x32 c:/program files (x86)/cypress/psoc creator/4.4/psoc creator/import/gnu/arm/5.4.1/bin/../lib/gcc/arm-none-eabi/5.4.1/../../../../arm-none-eabi/lib/armv7e-m/softfp\libg_nano.a(lib_a-gdtoa-gethex.o)
 .text          0x00000000        0x0 c:/program files (x86)/cypress/psoc creator/4.4/psoc creator/import/gnu/arm/5.4.1/bin/../lib/gcc/arm-none-eabi/5.4.1/../../../../arm-none-eabi/lib/armv7e-m/softfp\libg_nano.a(lib_a-gdtoa-hexnan.o)
 .data          0x00000000        0x0 c:/program files (x86)/cypress/psoc creator/4.4/psoc creator/import/gnu/arm/5.4.1/bin/../lib/gcc/arm-none-eabi/5.4.1/../../../../arm-none-eabi/lib/armv7e-m/softfp\libg_nano.a(lib_a-gdtoa-hexnan.o)
 .bss           0x00000000        0x0 c:/program files (x86)/cypress/psoc creator/4.4/psoc creator/import/gnu/arm/5.4.1/bin/../lib/gcc/arm-none-eabi/5.4.1/../../../../arm-none-eabi/lib/armv7e-m/softfp\libg_nano.a(lib_a-gdtoa-hexnan.o)
 .text.L_shift  0x00000000       0x24 c:/program files (x86)/cypress/psoc creator/4.4/psoc creator/import/gnu/arm/5.4.1/bin/../lib/gcc/arm-none-eabi/5.4.1/../../../../arm-none-eabi/lib/armv7e-m/softfp\libg_nano.a(lib_a-gdtoa-hexnan.o)
 .text.__match  0x00000000       0x26 c:/program files (x86)/cypress/psoc creator/4.4/psoc creator/import/gnu/arm/5.4.1/bin/../lib/gcc/arm-none-eabi/5.4.1/../../../../arm-none-eabi/lib/armv7e-m/softfp\libg_nano.a(lib_a-gdtoa-hexnan.o)
 .text.__hexnan
                0x00000000      0x11c c:/program files (x86)/cypress/psoc creator/4.4/psoc creator/import/gnu/arm/5.4.1/bin/../lib/gcc/arm-none-eabi/5.4.1/../../../../arm-none-eabi/lib/armv7e-m/softfp\libg_nano.a(lib_a-gdtoa-hexnan.o)
 .debug_frame   0x00000000       0x74 c:/program files (x86)/cypress/psoc creator/4.4/psoc creator/import/gnu/arm/5.4.1/bin/../lib/gcc/arm-none-eabi/5.4.1/../../../../arm-none-eabi/lib/armv7e-m/softfp\libg_nano.a(lib_a-gdtoa-hexnan.o)
 .ARM.attributes
                0x00000000       0x32 c:/program files (x86)/cypress/psoc creator/4.4/psoc creator/import/gnu/arm/5.4.1/bin/../lib/gcc/arm-none-eabi/5.4.1/../../../../arm-none-eabi/lib/armv7e-m/softfp\libg_nano.a(lib_a-gdtoa-hexnan.o)
 .text          0x00000000        0x0 c:/program files (x86)/cypress/psoc creator/4.4/psoc creator/import/gnu/arm/5.4.1/bin/../lib/gcc/arm-none-eabi/5.4.1/../../../../arm-none-eabi/lib/armv7e-m/softfp\libg_nano.a(lib_a-locale.o)
 .data          0x00000000        0x0 c:/program files (x86)/cypress/psoc creator/4.4/psoc creator/import/gnu/arm/5.4.1/bin/../lib/gcc/arm-none-eabi/5.4.1/../../../../arm-none-eabi/lib/armv7e-m/softfp\libg_nano.a(lib_a-locale.o)
 .bss           0x00000000        0x0 c:/program files (x86)/cypress/psoc creator/4.4/psoc creator/import/gnu/arm/5.4.1/bin/../lib/gcc/arm-none-eabi/5.4.1/../../../../arm-none-eabi/lib/armv7e-m/softfp\libg_nano.a(lib_a-locale.o)
 .text._setlocale_r
                0x00000000       0x38 c:/program files (x86)/cypress/psoc creator/4.4/psoc creator/import/gnu/arm/5.4.1/bin/../lib/gcc/arm-none-eabi/5.4.1/../../../../arm-none-eabi/lib/armv7e-m/softfp\libg_nano.a(lib_a-locale.o)
 .text.__locale_charset
                0x00000000        0x8 c:/program files (x86)/cypress/psoc creator/4.4/psoc creator/import/gnu/arm/5.4.1/bin/../lib/gcc/arm-none-eabi/5.4.1/../../../../arm-none-eabi/lib/armv7e-m/softfp\libg_nano.a(lib_a-locale.o)
 .text.__locale_mb_cur_max
                0x00000000        0xc c:/program files (x86)/cypress/psoc creator/4.4/psoc creator/import/gnu/arm/5.4.1/bin/../lib/gcc/arm-none-eabi/5.4.1/../../../../arm-none-eabi/lib/armv7e-m/softfp\libg_nano.a(lib_a-locale.o)
 .text.__locale_msgcharset
                0x00000000        0x8 c:/program files (x86)/cypress/psoc creator/4.4/psoc creator/import/gnu/arm/5.4.1/bin/../lib/gcc/arm-none-eabi/5.4.1/../../../../arm-none-eabi/lib/armv7e-m/softfp\libg_nano.a(lib_a-locale.o)
 .text.__locale_cjk_lang
                0x00000000        0x4 c:/program files (x86)/cypress/psoc creator/4.4/psoc creator/import/gnu/arm/5.4.1/bin/../lib/gcc/arm-none-eabi/5.4.1/../../../../arm-none-eabi/lib/armv7e-m/softfp\libg_nano.a(lib_a-locale.o)
 .text.setlocale
                0x00000000       0x10 c:/program files (x86)/cypress/psoc creator/4.4/psoc creator/import/gnu/arm/5.4.1/bin/../lib/gcc/arm-none-eabi/5.4.1/../../../../arm-none-eabi/lib/armv7e-m/softfp\libg_nano.a(lib_a-locale.o)
 .text.localeconv
                0x00000000        0x8 c:/program files (x86)/cypress/psoc creator/4.4/psoc creator/import/gnu/arm/5.4.1/bin/../lib/gcc/arm-none-eabi/5.4.1/../../../../arm-none-eabi/lib/armv7e-m/softfp\libg_nano.a(lib_a-locale.o)
 .data.lc_message_charset
                0x00000000       0x20 c:/program files (x86)/cypress/psoc creator/4.4/psoc creator/import/gnu/arm/5.4.1/bin/../lib/gcc/arm-none-eabi/5.4.1/../../../../arm-none-eabi/lib/armv7e-m/softfp\libg_nano.a(lib_a-locale.o)
 .bss._PathLocale
                0x00000000        0x4 c:/program files (x86)/cypress/psoc creator/4.4/psoc creator/import/gnu/arm/5.4.1/bin/../lib/gcc/arm-none-eabi/5.4.1/../../../../arm-none-eabi/lib/armv7e-m/softfp\libg_nano.a(lib_a-locale.o)
 .bss.__nlocale_changed
                0x00000000        0x4 c:/program files (x86)/cypress/psoc creator/4.4/psoc creator/import/gnu/arm/5.4.1/bin/../lib/gcc/arm-none-eabi/5.4.1/../../../../arm-none-eabi/lib/armv7e-m/softfp\libg_nano.a(lib_a-locale.o)
 .bss.__mlocale_changed
                0x00000000        0x4 c:/program files (x86)/cypress/psoc creator/4.4/psoc creator/import/gnu/arm/5.4.1/bin/../lib/gcc/arm-none-eabi/5.4.1/../../../../arm-none-eabi/lib/armv7e-m/softfp\libg_nano.a(lib_a-locale.o)
 .data.lc_ctype_charset
                0x00000000       0x20 c:/program files (x86)/cypress/psoc creator/4.4/psoc creator/import/gnu/arm/5.4.1/bin/../lib/gcc/arm-none-eabi/5.4.1/../../../../arm-none-eabi/lib/armv7e-m/softfp\libg_nano.a(lib_a-locale.o)
 .data.__mb_cur_max
                0x00000000        0x4 c:/program files (x86)/cypress/psoc creator/4.4/psoc creator/import/gnu/arm/5.4.1/bin/../lib/gcc/arm-none-eabi/5.4.1/../../../../arm-none-eabi/lib/armv7e-m/softfp\libg_nano.a(lib_a-locale.o)
 .text          0x00000000        0x0 c:/program files (x86)/cypress/psoc creator/4.4/psoc creator/import/gnu/arm/5.4.1/bin/../lib/gcc/arm-none-eabi/5.4.1/../../../../arm-none-eabi/lib/armv7e-m/softfp\libg_nano.a(lib_a-makebuf.o)
 .data          0x00000000        0x0 c:/program files (x86)/cypress/psoc creator/4.4/psoc creator/import/gnu/arm/5.4.1/bin/../lib/gcc/arm-none-eabi/5.4.1/../../../../arm-none-eabi/lib/armv7e-m/softfp\libg_nano.a(lib_a-makebuf.o)
 .bss           0x00000000        0x0 c:/program files (x86)/cypress/psoc creator/4.4/psoc creator/import/gnu/arm/5.4.1/bin/../lib/gcc/arm-none-eabi/5.4.1/../../../../arm-none-eabi/lib/armv7e-m/softfp\libg_nano.a(lib_a-makebuf.o)
 .data          0x00000000        0x0 c:/program files (x86)/cypress/psoc creator/4.4/psoc creator/import/gnu/arm/5.4.1/bin/../lib/gcc/arm-none-eabi/5.4.1/../../../../arm-none-eabi/lib/armv7e-m/softfp\libg_nano.a(lib_a-memchr.o)
 .bss           0x00000000        0x0 c:/program files (x86)/cypress/psoc creator/4.4/psoc creator/import/gnu/arm/5.4.1/bin/../lib/gcc/arm-none-eabi/5.4.1/../../../../arm-none-eabi/lib/armv7e-m/softfp\libg_nano.a(lib_a-memchr.o)
 .text          0x00000000        0x0 c:/program files (x86)/cypress/psoc creator/4.4/psoc creator/import/gnu/arm/5.4.1/bin/../lib/gcc/arm-none-eabi/5.4.1/../../../../arm-none-eabi/lib/armv7e-m/softfp\libg_nano.a(lib_a-mlock.o)
 .data          0x00000000        0x0 c:/program files (x86)/cypress/psoc creator/4.4/psoc creator/import/gnu/arm/5.4.1/bin/../lib/gcc/arm-none-eabi/5.4.1/../../../../arm-none-eabi/lib/armv7e-m/softfp\libg_nano.a(lib_a-mlock.o)
 .bss           0x00000000        0x0 c:/program files (x86)/cypress/psoc creator/4.4/psoc creator/import/gnu/arm/5.4.1/bin/../lib/gcc/arm-none-eabi/5.4.1/../../../../arm-none-eabi/lib/armv7e-m/softfp\libg_nano.a(lib_a-mlock.o)
 .text          0x00000000        0x0 c:/program files (x86)/cypress/psoc creator/4.4/psoc creator/import/gnu/arm/5.4.1/bin/../lib/gcc/arm-none-eabi/5.4.1/../../../../arm-none-eabi/lib/armv7e-m/softfp\libg_nano.a(lib_a-mprec.o)
 .data          0x00000000        0x0 c:/program files (x86)/cypress/psoc creator/4.4/psoc creator/import/gnu/arm/5.4.1/bin/../lib/gcc/arm-none-eabi/5.4.1/../../../../arm-none-eabi/lib/armv7e-m/softfp\libg_nano.a(lib_a-mprec.o)
 .bss           0x00000000        0x0 c:/program files (x86)/cypress/psoc creator/4.4/psoc creator/import/gnu/arm/5.4.1/bin/../lib/gcc/arm-none-eabi/5.4.1/../../../../arm-none-eabi/lib/armv7e-m/softfp\libg_nano.a(lib_a-mprec.o)
 .text.__s2b    0x00000000       0x7c c:/program files (x86)/cypress/psoc creator/4.4/psoc creator/import/gnu/arm/5.4.1/bin/../lib/gcc/arm-none-eabi/5.4.1/../../../../arm-none-eabi/lib/armv7e-m/softfp\libg_nano.a(lib_a-mprec.o)
 .text.__ulp    0x00000000       0x48 c:/program files (x86)/cypress/psoc creator/4.4/psoc creator/import/gnu/arm/5.4.1/bin/../lib/gcc/arm-none-eabi/5.4.1/../../../../arm-none-eabi/lib/armv7e-m/softfp\libg_nano.a(lib_a-mprec.o)
 .text.__b2d    0x00000000       0x9a c:/program files (x86)/cypress/psoc creator/4.4/psoc creator/import/gnu/arm/5.4.1/bin/../lib/gcc/arm-none-eabi/5.4.1/../../../../arm-none-eabi/lib/armv7e-m/softfp\libg_nano.a(lib_a-mprec.o)
 .text.__ratio  0x00000000       0x52 c:/program files (x86)/cypress/psoc creator/4.4/psoc creator/import/gnu/arm/5.4.1/bin/../lib/gcc/arm-none-eabi/5.4.1/../../../../arm-none-eabi/lib/armv7e-m/softfp\libg_nano.a(lib_a-mprec.o)
 .text._mprec_log10
                0x00000000       0x34 c:/program files (x86)/cypress/psoc creator/4.4/psoc creator/import/gnu/arm/5.4.1/bin/../lib/gcc/arm-none-eabi/5.4.1/../../../../arm-none-eabi/lib/armv7e-m/softfp\libg_nano.a(lib_a-mprec.o)
 .text.__copybits
                0x00000000       0x34 c:/program files (x86)/cypress/psoc creator/4.4/psoc creator/import/gnu/arm/5.4.1/bin/../lib/gcc/arm-none-eabi/5.4.1/../../../../arm-none-eabi/lib/armv7e-m/softfp\libg_nano.a(lib_a-mprec.o)
 .text.__any_on
                0x00000000       0x44 c:/program files (x86)/cypress/psoc creator/4.4/psoc creator/import/gnu/arm/5.4.1/bin/../lib/gcc/arm-none-eabi/5.4.1/../../../../arm-none-eabi/lib/armv7e-m/softfp\libg_nano.a(lib_a-mprec.o)
 .rodata.__mprec_tinytens
                0x00000000       0x28 c:/program files (x86)/cypress/psoc creator/4.4/psoc creator/import/gnu/arm/5.4.1/bin/../lib/gcc/arm-none-eabi/5.4.1/../../../../arm-none-eabi/lib/armv7e-m/softfp\libg_nano.a(lib_a-mprec.o)
 .text          0x00000000        0x0 c:/program files (x86)/cypress/psoc creator/4.4/psoc creator/import/gnu/arm/5.4.1/bin/../lib/gcc/arm-none-eabi/5.4.1/../../../../arm-none-eabi/lib/armv7e-m/softfp\libg_nano.a(lib_a-nano-svfprintf.o)
 .data          0x00000000        0x0 c:/program files (x86)/cypress/psoc creator/4.4/psoc creator/import/gnu/arm/5.4.1/bin/../lib/gcc/arm-none-eabi/5.4.1/../../../../arm-none-eabi/lib/armv7e-m/softfp\libg_nano.a(lib_a-nano-svfprintf.o)
 .bss           0x00000000        0x0 c:/program files (x86)/cypress/psoc creator/4.4/psoc creator/import/gnu/arm/5.4.1/bin/../lib/gcc/arm-none-eabi/5.4.1/../../../../arm-none-eabi/lib/armv7e-m/softfp\libg_nano.a(lib_a-nano-svfprintf.o)
 .text.__ssputs_r
                0x00000000       0xb2 c:/program files (x86)/cypress/psoc creator/4.4/psoc creator/import/gnu/arm/5.4.1/bin/../lib/gcc/arm-none-eabi/5.4.1/../../../../arm-none-eabi/lib/armv7e-m/softfp\libg_nano.a(lib_a-nano-svfprintf.o)
 .text.__ssprint_r
                0x00000000       0xfe c:/program files (x86)/cypress/psoc creator/4.4/psoc creator/import/gnu/arm/5.4.1/bin/../lib/gcc/arm-none-eabi/5.4.1/../../../../arm-none-eabi/lib/armv7e-m/softfp\libg_nano.a(lib_a-nano-svfprintf.o)
 .text._svfprintf_r
                0x00000000      0x1e8 c:/program files (x86)/cypress/psoc creator/4.4/psoc creator/import/gnu/arm/5.4.1/bin/../lib/gcc/arm-none-eabi/5.4.1/../../../../arm-none-eabi/lib/armv7e-m/softfp\libg_nano.a(lib_a-nano-svfprintf.o)
 .rodata.str1.1
                0x00000000       0x11 c:/program files (x86)/cypress/psoc creator/4.4/psoc creator/import/gnu/arm/5.4.1/bin/../lib/gcc/arm-none-eabi/5.4.1/../../../../arm-none-eabi/lib/armv7e-m/softfp\libg_nano.a(lib_a-nano-svfprintf.o)
 .debug_frame   0x00000000       0x90 c:/program files (x86)/cypress/psoc creator/4.4/psoc creator/import/gnu/arm/5.4.1/bin/../lib/gcc/arm-none-eabi/5.4.1/../../../../arm-none-eabi/lib/armv7e-m/softfp\libg_nano.a(lib_a-nano-svfprintf.o)
 .ARM.attributes
                0x00000000       0x32 c:/program files (x86)/cypress/psoc creator/4.4/psoc creator/import/gnu/arm/5.4.1/bin/../lib/gcc/arm-none-eabi/5.4.1/../../../../arm-none-eabi/lib/armv7e-m/softfp\libg_nano.a(lib_a-nano-svfprintf.o)
 .text          0x00000000        0x0 c:/program files (x86)/cypress/psoc creator/4.4/psoc creator/import/gnu/arm/5.4.1/bin/../lib/gcc/arm-none-eabi/5.4.1/../../../../arm-none-eabi/lib/armv7e-m/softfp\libg_nano.a(lib_a-nano-vfprintf.o)
 .data          0x00000000        0x0 c:/program files (x86)/cypress/psoc creator/4.4/psoc creator/import/gnu/arm/5.4.1/bin/../lib/gcc/arm-none-eabi/5.4.1/../../../../arm-none-eabi/lib/armv7e-m/softfp\libg_nano.a(lib_a-nano-vfprintf.o)
 .bss           0x00000000        0x0 c:/program files (x86)/cypress/psoc creator/4.4/psoc creator/import/gnu/arm/5.4.1/bin/../lib/gcc/arm-none-eabi/5.4.1/../../../../arm-none-eabi/lib/armv7e-m/softfp\libg_nano.a(lib_a-nano-vfprintf.o)
 .text.__sprint_r
                0x00000000       0x1a c:/program files (x86)/cypress/psoc creator/4.4/psoc creator/import/gnu/arm/5.4.1/bin/../lib/gcc/arm-none-eabi/5.4.1/../../../../arm-none-eabi/lib/armv7e-m/softfp\libg_nano.a(lib_a-nano-vfprintf.o)
 .text.vfprintf
                0x00000000       0x14 c:/program files (x86)/cypress/psoc creator/4.4/psoc creator/import/gnu/arm/5.4.1/bin/../lib/gcc/arm-none-eabi/5.4.1/../../../../arm-none-eabi/lib/armv7e-m/softfp\libg_nano.a(lib_a-nano-vfprintf.o)
 .text          0x00000000        0x0 c:/program files (x86)/cypress/psoc creator/4.4/psoc creator/import/gnu/arm/5.4.1/bin/../lib/gcc/arm-none-eabi/5.4.1/../../../../arm-none-eabi/lib/armv7e-m/softfp\libg_nano.a(lib_a-reent.o)
 .data          0x00000000        0x0 c:/program files (x86)/cypress/psoc creator/4.4/psoc creator/import/gnu/arm/5.4.1/bin/../lib/gcc/arm-none-eabi/5.4.1/../../../../arm-none-eabi/lib/armv7e-m/softfp\libg_nano.a(lib_a-reent.o)
 .bss           0x00000000        0x0 c:/program files (x86)/cypress/psoc creator/4.4/psoc creator/import/gnu/arm/5.4.1/bin/../lib/gcc/arm-none-eabi/5.4.1/../../../../arm-none-eabi/lib/armv7e-m/softfp\libg_nano.a(lib_a-reent.o)
 .text.cleanup_glue
                0x00000000       0x1a c:/program files (x86)/cypress/psoc creator/4.4/psoc creator/import/gnu/arm/5.4.1/bin/../lib/gcc/arm-none-eabi/5.4.1/../../../../arm-none-eabi/lib/armv7e-m/softfp\libg_nano.a(lib_a-reent.o)
 .text._reclaim_reent
                0x00000000       0xb4 c:/program files (x86)/cypress/psoc creator/4.4/psoc creator/import/gnu/arm/5.4.1/bin/../lib/gcc/arm-none-eabi/5.4.1/../../../../arm-none-eabi/lib/armv7e-m/softfp\libg_nano.a(lib_a-reent.o)
 .text          0x00000000        0x0 c:/program files (x86)/cypress/psoc creator/4.4/psoc creator/import/gnu/arm/5.4.1/bin/../lib/gcc/arm-none-eabi/5.4.1/../../../../arm-none-eabi/lib/armv7e-m/softfp\libg_nano.a(lib_a-stdio.o)
 .data          0x00000000        0x0 c:/program files (x86)/cypress/psoc creator/4.4/psoc creator/import/gnu/arm/5.4.1/bin/../lib/gcc/arm-none-eabi/5.4.1/../../../../arm-none-eabi/lib/armv7e-m/softfp\libg_nano.a(lib_a-stdio.o)
 .bss           0x00000000        0x0 c:/program files (x86)/cypress/psoc creator/4.4/psoc creator/import/gnu/arm/5.4.1/bin/../lib/gcc/arm-none-eabi/5.4.1/../../../../arm-none-eabi/lib/armv7e-m/softfp\libg_nano.a(lib_a-stdio.o)
 .text.__seofread
                0x00000000        0x4 c:/program files (x86)/cypress/psoc creator/4.4/psoc creator/import/gnu/arm/5.4.1/bin/../lib/gcc/arm-none-eabi/5.4.1/../../../../arm-none-eabi/lib/armv7e-m/softfp\libg_nano.a(lib_a-stdio.o)
 .text          0x00000000       0x14 c:/program files (x86)/cypress/psoc creator/4.4/psoc creator/import/gnu/arm/5.4.1/bin/../lib/gcc/arm-none-eabi/5.4.1/../../../../arm-none-eabi/lib/armv7e-m/softfp\libg_nano.a(lib_a-strcmp.o)
 .data          0x00000000        0x0 c:/program files (x86)/cypress/psoc creator/4.4/psoc creator/import/gnu/arm/5.4.1/bin/../lib/gcc/arm-none-eabi/5.4.1/../../../../arm-none-eabi/lib/armv7e-m/softfp\libg_nano.a(lib_a-strcmp.o)
 .bss           0x00000000        0x0 c:/program files (x86)/cypress/psoc creator/4.4/psoc creator/import/gnu/arm/5.4.1/bin/../lib/gcc/arm-none-eabi/5.4.1/../../../../arm-none-eabi/lib/armv7e-m/softfp\libg_nano.a(lib_a-strcmp.o)
 .debug_frame   0x00000000       0x20 c:/program files (x86)/cypress/psoc creator/4.4/psoc creator/import/gnu/arm/5.4.1/bin/../lib/gcc/arm-none-eabi/5.4.1/../../../../arm-none-eabi/lib/armv7e-m/softfp\libg_nano.a(lib_a-strcmp.o)
 .ARM.attributes
                0x00000000       0x20 c:/program files (x86)/cypress/psoc creator/4.4/psoc creator/import/gnu/arm/5.4.1/bin/../lib/gcc/arm-none-eabi/5.4.1/../../../../arm-none-eabi/lib/armv7e-m/softfp\libg_nano.a(lib_a-strcmp.o)
 .text          0x00000000        0x0 c:/program files (x86)/cypress/psoc creator/4.4/psoc creator/import/gnu/arm/5.4.1/bin/../lib/gcc/arm-none-eabi/5.4.1/../../../../arm-none-eabi/lib/armv7e-m/softfp\libg_nano.a(lib_a-strncmp.o)
 .data          0x00000000        0x0 c:/program files (x86)/cypress/psoc creator/4.4/psoc creator/import/gnu/arm/5.4.1/bin/../lib/gcc/arm-none-eabi/5.4.1/../../../../arm-none-eabi/lib/armv7e-m/softfp\libg_nano.a(lib_a-strncmp.o)
 .bss           0x00000000        0x0 c:/program files (x86)/cypress/psoc creator/4.4/psoc creator/import/gnu/arm/5.4.1/bin/../lib/gcc/arm-none-eabi/5.4.1/../../../../arm-none-eabi/lib/armv7e-m/softfp\libg_nano.a(lib_a-strncmp.o)
 .text.strncmp  0x00000000       0x2a c:/program files (x86)/cypress/psoc creator/4.4/psoc creator/import/gnu/arm/5.4.1/bin/../lib/gcc/arm-none-eabi/5.4.1/../../../../arm-none-eabi/lib/armv7e-m/softfp\libg_nano.a(lib_a-strncmp.o)
 .debug_frame   0x00000000       0x2c c:/program files (x86)/cypress/psoc creator/4.4/psoc creator/import/gnu/arm/5.4.1/bin/../lib/gcc/arm-none-eabi/5.4.1/../../../../arm-none-eabi/lib/armv7e-m/softfp\libg_nano.a(lib_a-strncmp.o)
 .ARM.attributes
                0x00000000       0x32 c:/program files (x86)/cypress/psoc creator/4.4/psoc creator/import/gnu/arm/5.4.1/bin/../lib/gcc/arm-none-eabi/5.4.1/../../../../arm-none-eabi/lib/armv7e-m/softfp\libg_nano.a(lib_a-strncmp.o)
 .text          0x00000000        0x0 c:/program files (x86)/cypress/psoc creator/4.4/psoc creator/import/gnu/arm/5.4.1/bin/../lib/gcc/arm-none-eabi/5.4.1/../../../../arm-none-eabi/lib/armv7e-m/softfp\libg_nano.a(lib_a-wbuf.o)
 .data          0x00000000        0x0 c:/program files (x86)/cypress/psoc creator/4.4/psoc creator/import/gnu/arm/5.4.1/bin/../lib/gcc/arm-none-eabi/5.4.1/../../../../arm-none-eabi/lib/armv7e-m/softfp\libg_nano.a(lib_a-wbuf.o)
 .bss           0x00000000        0x0 c:/program files (x86)/cypress/psoc creator/4.4/psoc creator/import/gnu/arm/5.4.1/bin/../lib/gcc/arm-none-eabi/5.4.1/../../../../arm-none-eabi/lib/armv7e-m/softfp\libg_nano.a(lib_a-wbuf.o)
 .text.__swbuf  0x00000000       0x10 c:/program files (x86)/cypress/psoc creator/4.4/psoc creator/import/gnu/arm/5.4.1/bin/../lib/gcc/arm-none-eabi/5.4.1/../../../../arm-none-eabi/lib/armv7e-m/softfp\libg_nano.a(lib_a-wbuf.o)
 .text          0x00000000        0x0 c:/program files (x86)/cypress/psoc creator/4.4/psoc creator/import/gnu/arm/5.4.1/bin/../lib/gcc/arm-none-eabi/5.4.1/../../../../arm-none-eabi/lib/armv7e-m/softfp\libg_nano.a(lib_a-writer.o)
 .data          0x00000000        0x0 c:/program files (x86)/cypress/psoc creator/4.4/psoc creator/import/gnu/arm/5.4.1/bin/../lib/gcc/arm-none-eabi/5.4.1/../../../../arm-none-eabi/lib/armv7e-m/softfp\libg_nano.a(lib_a-writer.o)
 .bss           0x00000000        0x0 c:/program files (x86)/cypress/psoc creator/4.4/psoc creator/import/gnu/arm/5.4.1/bin/../lib/gcc/arm-none-eabi/5.4.1/../../../../arm-none-eabi/lib/armv7e-m/softfp\libg_nano.a(lib_a-writer.o)
 .text          0x00000000        0x0 c:/program files (x86)/cypress/psoc creator/4.4/psoc creator/import/gnu/arm/5.4.1/bin/../lib/gcc/arm-none-eabi/5.4.1/../../../../arm-none-eabi/lib/armv7e-m/softfp\libg_nano.a(lib_a-wsetup.o)
 .data          0x00000000        0x0 c:/program files (x86)/cypress/psoc creator/4.4/psoc creator/import/gnu/arm/5.4.1/bin/../lib/gcc/arm-none-eabi/5.4.1/../../../../arm-none-eabi/lib/armv7e-m/softfp\libg_nano.a(lib_a-wsetup.o)
 .bss           0x00000000        0x0 c:/program files (x86)/cypress/psoc creator/4.4/psoc creator/import/gnu/arm/5.4.1/bin/../lib/gcc/arm-none-eabi/5.4.1/../../../../arm-none-eabi/lib/armv7e-m/softfp\libg_nano.a(lib_a-wsetup.o)
 .text          0x00000000        0x0 c:/program files (x86)/cypress/psoc creator/4.4/psoc creator/import/gnu/arm/5.4.1/bin/../lib/gcc/arm-none-eabi/5.4.1/../../../../arm-none-eabi/lib/armv7e-m/softfp\libg_nano.a(lib_a-closer.o)
 .data          0x00000000        0x0 c:/program files (x86)/cypress/psoc creator/4.4/psoc creator/import/gnu/arm/5.4.1/bin/../lib/gcc/arm-none-eabi/5.4.1/../../../../arm-none-eabi/lib/armv7e-m/softfp\libg_nano.a(lib_a-closer.o)
 .bss           0x00000000        0x0 c:/program files (x86)/cypress/psoc creator/4.4/psoc creator/import/gnu/arm/5.4.1/bin/../lib/gcc/arm-none-eabi/5.4.1/../../../../arm-none-eabi/lib/armv7e-m/softfp\libg_nano.a(lib_a-closer.o)
 .text          0x00000000        0x0 c:/program files (x86)/cypress/psoc creator/4.4/psoc creator/import/gnu/arm/5.4.1/bin/../lib/gcc/arm-none-eabi/5.4.1/../../../../arm-none-eabi/lib/armv7e-m/softfp\libg_nano.a(lib_a-fstatr.o)
 .data          0x00000000        0x0 c:/program files (x86)/cypress/psoc creator/4.4/psoc creator/import/gnu/arm/5.4.1/bin/../lib/gcc/arm-none-eabi/5.4.1/../../../../arm-none-eabi/lib/armv7e-m/softfp\libg_nano.a(lib_a-fstatr.o)
 .bss           0x00000000        0x0 c:/program files (x86)/cypress/psoc creator/4.4/psoc creator/import/gnu/arm/5.4.1/bin/../lib/gcc/arm-none-eabi/5.4.1/../../../../arm-none-eabi/lib/armv7e-m/softfp\libg_nano.a(lib_a-fstatr.o)
 .text          0x00000000        0x0 c:/program files (x86)/cypress/psoc creator/4.4/psoc creator/import/gnu/arm/5.4.1/bin/../lib/gcc/arm-none-eabi/5.4.1/../../../../arm-none-eabi/lib/armv7e-m/softfp\libg_nano.a(lib_a-fvwrite.o)
 .data          0x00000000        0x0 c:/program files (x86)/cypress/psoc creator/4.4/psoc creator/import/gnu/arm/5.4.1/bin/../lib/gcc/arm-none-eabi/5.4.1/../../../../arm-none-eabi/lib/armv7e-m/softfp\libg_nano.a(lib_a-fvwrite.o)
 .bss           0x00000000        0x0 c:/program files (x86)/cypress/psoc creator/4.4/psoc creator/import/gnu/arm/5.4.1/bin/../lib/gcc/arm-none-eabi/5.4.1/../../../../arm-none-eabi/lib/armv7e-m/softfp\libg_nano.a(lib_a-fvwrite.o)
 .text.__sfvwrite_r
                0x00000000      0x294 c:/program files (x86)/cypress/psoc creator/4.4/psoc creator/import/gnu/arm/5.4.1/bin/../lib/gcc/arm-none-eabi/5.4.1/../../../../arm-none-eabi/lib/armv7e-m/softfp\libg_nano.a(lib_a-fvwrite.o)
 .debug_frame   0x00000000       0x3c c:/program files (x86)/cypress/psoc creator/4.4/psoc creator/import/gnu/arm/5.4.1/bin/../lib/gcc/arm-none-eabi/5.4.1/../../../../arm-none-eabi/lib/armv7e-m/softfp\libg_nano.a(lib_a-fvwrite.o)
 .ARM.attributes
                0x00000000       0x32 c:/program files (x86)/cypress/psoc creator/4.4/psoc creator/import/gnu/arm/5.4.1/bin/../lib/gcc/arm-none-eabi/5.4.1/../../../../arm-none-eabi/lib/armv7e-m/softfp\libg_nano.a(lib_a-fvwrite.o)
 .text          0x00000000        0x0 c:/program files (x86)/cypress/psoc creator/4.4/psoc creator/import/gnu/arm/5.4.1/bin/../lib/gcc/arm-none-eabi/5.4.1/../../../../arm-none-eabi/lib/armv7e-m/softfp\libg_nano.a(lib_a-isattyr.o)
 .data          0x00000000        0x0 c:/program files (x86)/cypress/psoc creator/4.4/psoc creator/import/gnu/arm/5.4.1/bin/../lib/gcc/arm-none-eabi/5.4.1/../../../../arm-none-eabi/lib/armv7e-m/softfp\libg_nano.a(lib_a-isattyr.o)
 .bss           0x00000000        0x0 c:/program files (x86)/cypress/psoc creator/4.4/psoc creator/import/gnu/arm/5.4.1/bin/../lib/gcc/arm-none-eabi/5.4.1/../../../../arm-none-eabi/lib/armv7e-m/softfp\libg_nano.a(lib_a-isattyr.o)
 .text          0x00000000        0x0 c:/program files (x86)/cypress/psoc creator/4.4/psoc creator/import/gnu/arm/5.4.1/bin/../lib/gcc/arm-none-eabi/5.4.1/../../../../arm-none-eabi/lib/armv7e-m/softfp\libg_nano.a(lib_a-lseekr.o)
 .data          0x00000000        0x0 c:/program files (x86)/cypress/psoc creator/4.4/psoc creator/import/gnu/arm/5.4.1/bin/../lib/gcc/arm-none-eabi/5.4.1/../../../../arm-none-eabi/lib/armv7e-m/softfp\libg_nano.a(lib_a-lseekr.o)
 .bss           0x00000000        0x0 c:/program files (x86)/cypress/psoc creator/4.4/psoc creator/import/gnu/arm/5.4.1/bin/../lib/gcc/arm-none-eabi/5.4.1/../../../../arm-none-eabi/lib/armv7e-m/softfp\libg_nano.a(lib_a-lseekr.o)
 .text          0x00000000        0x0 c:/program files (x86)/cypress/psoc creator/4.4/psoc creator/import/gnu/arm/5.4.1/bin/../lib/gcc/arm-none-eabi/5.4.1/../../../../arm-none-eabi/lib/armv7e-m/softfp\libg_nano.a(lib_a-memmove.o)
 .data          0x00000000        0x0 c:/program files (x86)/cypress/psoc creator/4.4/psoc creator/import/gnu/arm/5.4.1/bin/../lib/gcc/arm-none-eabi/5.4.1/../../../../arm-none-eabi/lib/armv7e-m/softfp\libg_nano.a(lib_a-memmove.o)
 .bss           0x00000000        0x0 c:/program files (x86)/cypress/psoc creator/4.4/psoc creator/import/gnu/arm/5.4.1/bin/../lib/gcc/arm-none-eabi/5.4.1/../../../../arm-none-eabi/lib/armv7e-m/softfp\libg_nano.a(lib_a-memmove.o)
 .text.memmove  0x00000000       0x36 c:/program files (x86)/cypress/psoc creator/4.4/psoc creator/import/gnu/arm/5.4.1/bin/../lib/gcc/arm-none-eabi/5.4.1/../../../../arm-none-eabi/lib/armv7e-m/softfp\libg_nano.a(lib_a-memmove.o)
 .debug_frame   0x00000000       0x28 c:/program files (x86)/cypress/psoc creator/4.4/psoc creator/import/gnu/arm/5.4.1/bin/../lib/gcc/arm-none-eabi/5.4.1/../../../../arm-none-eabi/lib/armv7e-m/softfp\libg_nano.a(lib_a-memmove.o)
 .ARM.attributes
                0x00000000       0x32 c:/program files (x86)/cypress/psoc creator/4.4/psoc creator/import/gnu/arm/5.4.1/bin/../lib/gcc/arm-none-eabi/5.4.1/../../../../arm-none-eabi/lib/armv7e-m/softfp\libg_nano.a(lib_a-memmove.o)
 .text          0x00000000        0x0 c:/program files (x86)/cypress/psoc creator/4.4/psoc creator/import/gnu/arm/5.4.1/bin/../lib/gcc/arm-none-eabi/5.4.1/../../../../arm-none-eabi/lib/armv7e-m/softfp\libg_nano.a(lib_a-nano-reallocr.o)
 .data          0x00000000        0x0 c:/program files (x86)/cypress/psoc creator/4.4/psoc creator/import/gnu/arm/5.4.1/bin/../lib/gcc/arm-none-eabi/5.4.1/../../../../arm-none-eabi/lib/armv7e-m/softfp\libg_nano.a(lib_a-nano-reallocr.o)
 .bss           0x00000000        0x0 c:/program files (x86)/cypress/psoc creator/4.4/psoc creator/import/gnu/arm/5.4.1/bin/../lib/gcc/arm-none-eabi/5.4.1/../../../../arm-none-eabi/lib/armv7e-m/softfp\libg_nano.a(lib_a-nano-reallocr.o)
 .text._realloc_r
                0x00000000       0x4c c:/program files (x86)/cypress/psoc creator/4.4/psoc creator/import/gnu/arm/5.4.1/bin/../lib/gcc/arm-none-eabi/5.4.1/../../../../arm-none-eabi/lib/armv7e-m/softfp\libg_nano.a(lib_a-nano-reallocr.o)
 .debug_frame   0x00000000       0x3c c:/program files (x86)/cypress/psoc creator/4.4/psoc creator/import/gnu/arm/5.4.1/bin/../lib/gcc/arm-none-eabi/5.4.1/../../../../arm-none-eabi/lib/armv7e-m/softfp\libg_nano.a(lib_a-nano-reallocr.o)
 .ARM.attributes
                0x00000000       0x32 c:/program files (x86)/cypress/psoc creator/4.4/psoc creator/import/gnu/arm/5.4.1/bin/../lib/gcc/arm-none-eabi/5.4.1/../../../../arm-none-eabi/lib/armv7e-m/softfp\libg_nano.a(lib_a-nano-reallocr.o)
 .text          0x00000000        0x0 c:/program files (x86)/cypress/psoc creator/4.4/psoc creator/import/gnu/arm/5.4.1/bin/../lib/gcc/arm-none-eabi/5.4.1/../../../../arm-none-eabi/lib/armv7e-m/softfp\libg_nano.a(lib_a-readr.o)
 .data          0x00000000        0x0 c:/program files (x86)/cypress/psoc creator/4.4/psoc creator/import/gnu/arm/5.4.1/bin/../lib/gcc/arm-none-eabi/5.4.1/../../../../arm-none-eabi/lib/armv7e-m/softfp\libg_nano.a(lib_a-readr.o)
 .bss           0x00000000        0x0 c:/program files (x86)/cypress/psoc creator/4.4/psoc creator/import/gnu/arm/5.4.1/bin/../lib/gcc/arm-none-eabi/5.4.1/../../../../arm-none-eabi/lib/armv7e-m/softfp\libg_nano.a(lib_a-readr.o)
 .text          0x00000000        0x0 c:/program files (x86)/cypress/psoc creator/4.4/psoc creator/import/gnu/arm/5.4.1/bin/../lib/gcc/arm-none-eabi/5.4.1/../../../../arm-none-eabi/lib/armv7e-m/softfp\libg_nano.a(lib_a-nano-msizer.o)
 .data          0x00000000        0x0 c:/program files (x86)/cypress/psoc creator/4.4/psoc creator/import/gnu/arm/5.4.1/bin/../lib/gcc/arm-none-eabi/5.4.1/../../../../arm-none-eabi/lib/armv7e-m/softfp\libg_nano.a(lib_a-nano-msizer.o)
 .bss           0x00000000        0x0 c:/program files (x86)/cypress/psoc creator/4.4/psoc creator/import/gnu/arm/5.4.1/bin/../lib/gcc/arm-none-eabi/5.4.1/../../../../arm-none-eabi/lib/armv7e-m/softfp\libg_nano.a(lib_a-nano-msizer.o)
 .text._malloc_usable_size_r
                0x00000000       0x14 c:/program files (x86)/cypress/psoc creator/4.4/psoc creator/import/gnu/arm/5.4.1/bin/../lib/gcc/arm-none-eabi/5.4.1/../../../../arm-none-eabi/lib/armv7e-m/softfp\libg_nano.a(lib_a-nano-msizer.o)
 .debug_frame   0x00000000       0x20 c:/program files (x86)/cypress/psoc creator/4.4/psoc creator/import/gnu/arm/5.4.1/bin/../lib/gcc/arm-none-eabi/5.4.1/../../../../arm-none-eabi/lib/armv7e-m/softfp\libg_nano.a(lib_a-nano-msizer.o)
 .ARM.attributes
                0x00000000       0x32 c:/program files (x86)/cypress/psoc creator/4.4/psoc creator/import/gnu/arm/5.4.1/bin/../lib/gcc/arm-none-eabi/5.4.1/../../../../arm-none-eabi/lib/armv7e-m/softfp\libg_nano.a(lib_a-nano-msizer.o)
 .data          0x00000000        0x0 c:/program files (x86)/cypress/psoc creator/4.4/psoc creator/import/gnu/arm/5.4.1/bin/../lib/gcc/arm-none-eabi/5.4.1/armv7e-m/softfp\libgcc.a(_arm_cmpdf2.o)
 .bss           0x00000000        0x0 c:/program files (x86)/cypress/psoc creator/4.4/psoc creator/import/gnu/arm/5.4.1/bin/../lib/gcc/arm-none-eabi/5.4.1/armv7e-m/softfp\libgcc.a(_arm_cmpdf2.o)
 .data          0x00000000        0x0 c:/program files (x86)/cypress/psoc creator/4.4/psoc creator/import/gnu/arm/5.4.1/bin/../lib/gcc/arm-none-eabi/5.4.1/armv7e-m/softfp\libgcc.a(_arm_unorddf2.o)
 .bss           0x00000000        0x0 c:/program files (x86)/cypress/psoc creator/4.4/psoc creator/import/gnu/arm/5.4.1/bin/../lib/gcc/arm-none-eabi/5.4.1/armv7e-m/softfp\libgcc.a(_arm_unorddf2.o)
 .data          0x00000000        0x0 c:/program files (x86)/cypress/psoc creator/4.4/psoc creator/import/gnu/arm/5.4.1/bin/../lib/gcc/arm-none-eabi/5.4.1/armv7e-m/softfp\libgcc.a(_arm_fixdfsi.o)
 .bss           0x00000000        0x0 c:/program files (x86)/cypress/psoc creator/4.4/psoc creator/import/gnu/arm/5.4.1/bin/../lib/gcc/arm-none-eabi/5.4.1/armv7e-m/softfp\libgcc.a(_arm_fixdfsi.o)
 .text          0x00000000       0xa0 c:/program files (x86)/cypress/psoc creator/4.4/psoc creator/import/gnu/arm/5.4.1/bin/../lib/gcc/arm-none-eabi/5.4.1/armv7e-m/softfp\libgcc.a(_arm_truncdfsf2.o)
 .data          0x00000000        0x0 c:/program files (x86)/cypress/psoc creator/4.4/psoc creator/import/gnu/arm/5.4.1/bin/../lib/gcc/arm-none-eabi/5.4.1/armv7e-m/softfp\libgcc.a(_arm_truncdfsf2.o)
 .bss           0x00000000        0x0 c:/program files (x86)/cypress/psoc creator/4.4/psoc creator/import/gnu/arm/5.4.1/bin/../lib/gcc/arm-none-eabi/5.4.1/armv7e-m/softfp\libgcc.a(_arm_truncdfsf2.o)
 .ARM.attributes
                0x00000000       0x22 c:/program files (x86)/cypress/psoc creator/4.4/psoc creator/import/gnu/arm/5.4.1/bin/../lib/gcc/arm-none-eabi/5.4.1/armv7e-m/softfp\libgcc.a(_arm_truncdfsf2.o)
 .text          0x00000000        0x0 c:/program files (x86)/cypress/psoc creator/4.4/psoc creator/import/gnu/arm/5.4.1/bin/../lib/gcc/arm-none-eabi/5.4.1/armv7e-m/softfp/crtend.o
 .data          0x00000000        0x0 c:/program files (x86)/cypress/psoc creator/4.4/psoc creator/import/gnu/arm/5.4.1/bin/../lib/gcc/arm-none-eabi/5.4.1/armv7e-m/softfp/crtend.o
 .bss           0x00000000        0x0 c:/program files (x86)/cypress/psoc creator/4.4/psoc creator/import/gnu/arm/5.4.1/bin/../lib/gcc/arm-none-eabi/5.4.1/armv7e-m/softfp/crtend.o
 .text          0x00000000        0x0 c:/program files (x86)/cypress/psoc creator/4.4/psoc creator/import/gnu/arm/5.4.1/bin/../lib/gcc/arm-none-eabi/5.4.1/armv7e-m/softfp/crtn.o
 .data          0x00000000        0x0 c:/program files (x86)/cypress/psoc creator/4.4/psoc creator/import/gnu/arm/5.4.1/bin/../lib/gcc/arm-none-eabi/5.4.1/armv7e-m/softfp/crtn.o
 .bss           0x00000000        0x0 c:/program files (x86)/cypress/psoc creator/4.4/psoc creator/import/gnu/arm/5.4.1/bin/../lib/gcc/arm-none-eabi/5.4.1/armv7e-m/softfp/crtn.o
 .text          0x00000000        0x0 c:/program files (x86)/cypress/psoc creator/4.4/psoc creator/import/gnu/arm/5.4.1/bin/../lib/gcc/arm-none-eabi/5.4.1/../../../../arm-none-eabi/lib/armv7e-m/softfp\libnosys.a(close.o)
 .data          0x00000000        0x0 c:/program files (x86)/cypress/psoc creator/4.4/psoc creator/import/gnu/arm/5.4.1/bin/../lib/gcc/arm-none-eabi/5.4.1/../../../../arm-none-eabi/lib/armv7e-m/softfp\libnosys.a(close.o)
 .bss           0x00000000        0x0 c:/program files (x86)/cypress/psoc creator/4.4/psoc creator/import/gnu/arm/5.4.1/bin/../lib/gcc/arm-none-eabi/5.4.1/../../../../arm-none-eabi/lib/armv7e-m/softfp\libnosys.a(close.o)
 .text          0x00000000        0x0 c:/program files (x86)/cypress/psoc creator/4.4/psoc creator/import/gnu/arm/5.4.1/bin/../lib/gcc/arm-none-eabi/5.4.1/../../../../arm-none-eabi/lib/armv7e-m/softfp\libnosys.a(fstat.o)
 .data          0x00000000        0x0 c:/program files (x86)/cypress/psoc creator/4.4/psoc creator/import/gnu/arm/5.4.1/bin/../lib/gcc/arm-none-eabi/5.4.1/../../../../arm-none-eabi/lib/armv7e-m/softfp\libnosys.a(fstat.o)
 .bss           0x00000000        0x0 c:/program files (x86)/cypress/psoc creator/4.4/psoc creator/import/gnu/arm/5.4.1/bin/../lib/gcc/arm-none-eabi/5.4.1/../../../../arm-none-eabi/lib/armv7e-m/softfp\libnosys.a(fstat.o)
 .text          0x00000000        0x0 c:/program files (x86)/cypress/psoc creator/4.4/psoc creator/import/gnu/arm/5.4.1/bin/../lib/gcc/arm-none-eabi/5.4.1/../../../../arm-none-eabi/lib/armv7e-m/softfp\libnosys.a(isatty.o)
 .data          0x00000000        0x0 c:/program files (x86)/cypress/psoc creator/4.4/psoc creator/import/gnu/arm/5.4.1/bin/../lib/gcc/arm-none-eabi/5.4.1/../../../../arm-none-eabi/lib/armv7e-m/softfp\libnosys.a(isatty.o)
 .bss           0x00000000        0x0 c:/program files (x86)/cypress/psoc creator/4.4/psoc creator/import/gnu/arm/5.4.1/bin/../lib/gcc/arm-none-eabi/5.4.1/../../../../arm-none-eabi/lib/armv7e-m/softfp\libnosys.a(isatty.o)
 .text          0x00000000        0x0 c:/program files (x86)/cypress/psoc creator/4.4/psoc creator/import/gnu/arm/5.4.1/bin/../lib/gcc/arm-none-eabi/5.4.1/../../../../arm-none-eabi/lib/armv7e-m/softfp\libnosys.a(lseek.o)
 .data          0x00000000        0x0 c:/program files (x86)/cypress/psoc creator/4.4/psoc creator/import/gnu/arm/5.4.1/bin/../lib/gcc/arm-none-eabi/5.4.1/../../../../arm-none-eabi/lib/armv7e-m/softfp\libnosys.a(lseek.o)
 .bss           0x00000000        0x0 c:/program files (x86)/cypress/psoc creator/4.4/psoc creator/import/gnu/arm/5.4.1/bin/../lib/gcc/arm-none-eabi/5.4.1/../../../../arm-none-eabi/lib/armv7e-m/softfp\libnosys.a(lseek.o)
 .text          0x00000000        0x0 c:/program files (x86)/cypress/psoc creator/4.4/psoc creator/import/gnu/arm/5.4.1/bin/../lib/gcc/arm-none-eabi/5.4.1/../../../../arm-none-eabi/lib/armv7e-m/softfp\libnosys.a(sbrk.o)
 .data          0x00000000        0x0 c:/program files (x86)/cypress/psoc creator/4.4/psoc creator/import/gnu/arm/5.4.1/bin/../lib/gcc/arm-none-eabi/5.4.1/../../../../arm-none-eabi/lib/armv7e-m/softfp\libnosys.a(sbrk.o)
 .bss           0x00000000        0x0 c:/program files (x86)/cypress/psoc creator/4.4/psoc creator/import/gnu/arm/5.4.1/bin/../lib/gcc/arm-none-eabi/5.4.1/../../../../arm-none-eabi/lib/armv7e-m/softfp\libnosys.a(sbrk.o)
 .text          0x00000000        0x0 c:/program files (x86)/cypress/psoc creator/4.4/psoc creator/import/gnu/arm/5.4.1/bin/../lib/gcc/arm-none-eabi/5.4.1/../../../../arm-none-eabi/lib/armv7e-m/softfp\libnosys.a(_exit.o)
 .data          0x00000000        0x0 c:/program files (x86)/cypress/psoc creator/4.4/psoc creator/import/gnu/arm/5.4.1/bin/../lib/gcc/arm-none-eabi/5.4.1/../../../../arm-none-eabi/lib/armv7e-m/softfp\libnosys.a(_exit.o)
 .bss           0x00000000        0x0 c:/program files (x86)/cypress/psoc creator/4.4/psoc creator/import/gnu/arm/5.4.1/bin/../lib/gcc/arm-none-eabi/5.4.1/../../../../arm-none-eabi/lib/armv7e-m/softfp\libnosys.a(_exit.o)
 .text._exit    0x00000000        0x4 c:/program files (x86)/cypress/psoc creator/4.4/psoc creator/import/gnu/arm/5.4.1/bin/../lib/gcc/arm-none-eabi/5.4.1/../../../../arm-none-eabi/lib/armv7e-m/softfp\libnosys.a(_exit.o)
 .debug_frame   0x00000000       0x20 c:/program files (x86)/cypress/psoc creator/4.4/psoc creator/import/gnu/arm/5.4.1/bin/../lib/gcc/arm-none-eabi/5.4.1/../../../../arm-none-eabi/lib/armv7e-m/softfp\libnosys.a(_exit.o)
 .ARM.attributes
                0x00000000       0x32 c:/program files (x86)/cypress/psoc creator/4.4/psoc creator/import/gnu/arm/5.4.1/bin/../lib/gcc/arm-none-eabi/5.4.1/../../../../arm-none-eabi/lib/armv7e-m/softfp\libnosys.a(_exit.o)
 .text          0x00000000        0x0 c:/program files (x86)/cypress/psoc creator/4.4/psoc creator/import/gnu/arm/5.4.1/bin/../lib/gcc/arm-none-eabi/5.4.1/../../../../arm-none-eabi/lib/armv7e-m/softfp\libm.a(lib_a-s_floor.o)
 .data          0x00000000        0x0 c:/program files (x86)/cypress/psoc creator/4.4/psoc creator/import/gnu/arm/5.4.1/bin/../lib/gcc/arm-none-eabi/5.4.1/../../../../arm-none-eabi/lib/armv7e-m/softfp\libm.a(lib_a-s_floor.o)
 .bss           0x00000000        0x0 c:/program files (x86)/cypress/psoc creator/4.4/psoc creator/import/gnu/arm/5.4.1/bin/../lib/gcc/arm-none-eabi/5.4.1/../../../../arm-none-eabi/lib/armv7e-m/softfp\libm.a(lib_a-s_floor.o)
 .text.floor    0x00000000      0x110 c:/program files (x86)/cypress/psoc creator/4.4/psoc creator/import/gnu/arm/5.4.1/bin/../lib/gcc/arm-none-eabi/5.4.1/../../../../arm-none-eabi/lib/armv7e-m/softfp\libm.a(lib_a-s_floor.o)
 .debug_frame   0x00000000       0x30 c:/program files (x86)/cypress/psoc creator/4.4/psoc creator/import/gnu/arm/5.4.1/bin/../lib/gcc/arm-none-eabi/5.4.1/../../../../arm-none-eabi/lib/armv7e-m/softfp\libm.a(lib_a-s_floor.o)
 .ARM.attributes
                0x00000000       0x32 c:/program files (x86)/cypress/psoc creator/4.4/psoc creator/import/gnu/arm/5.4.1/bin/../lib/gcc/arm-none-eabi/5.4.1/../../../../arm-none-eabi/lib/armv7e-m/softfp\libm.a(lib_a-s_floor.o)
 .text          0x00000000        0x0 c:/program files (x86)/cypress/psoc creator/4.4/psoc creator/import/gnu/arm/5.4.1/bin/../lib/gcc/arm-none-eabi/5.4.1/../../../../arm-none-eabi/lib/armv7e-m/softfp\libm.a(lib_a-sf_ceil.o)
 .data          0x00000000        0x0 c:/program files (x86)/cypress/psoc creator/4.4/psoc creator/import/gnu/arm/5.4.1/bin/../lib/gcc/arm-none-eabi/5.4.1/../../../../arm-none-eabi/lib/armv7e-m/softfp\libm.a(lib_a-sf_ceil.o)
 .bss           0x00000000        0x0 c:/program files (x86)/cypress/psoc creator/4.4/psoc creator/import/gnu/arm/5.4.1/bin/../lib/gcc/arm-none-eabi/5.4.1/../../../../arm-none-eabi/lib/armv7e-m/softfp\libm.a(lib_a-sf_ceil.o)
 .text.ceilf    0x00000000       0xa8 c:/program files (x86)/cypress/psoc creator/4.4/psoc creator/import/gnu/arm/5.4.1/bin/../lib/gcc/arm-none-eabi/5.4.1/../../../../arm-none-eabi/lib/armv7e-m/softfp\libm.a(lib_a-sf_ceil.o)
 .debug_frame   0x00000000       0x38 c:/program files (x86)/cypress/psoc creator/4.4/psoc creator/import/gnu/arm/5.4.1/bin/../lib/gcc/arm-none-eabi/5.4.1/../../../../arm-none-eabi/lib/armv7e-m/softfp\libm.a(lib_a-sf_ceil.o)
 .ARM.attributes
                0x00000000       0x32 c:/program files (x86)/cypress/psoc creator/4.4/psoc creator/import/gnu/arm/5.4.1/bin/../lib/gcc/arm-none-eabi/5.4.1/../../../../arm-none-eabi/lib/armv7e-m/softfp\libm.a(lib_a-sf_ceil.o)
 .text          0x00000000        0x0 c:/program files (x86)/cypress/psoc creator/4.4/psoc creator/import/gnu/arm/5.4.1/bin/../lib/gcc/arm-none-eabi/5.4.1/../../../../arm-none-eabi/lib/armv7e-m/softfp\libm.a(lib_a-w_log.o)
 .data          0x00000000        0x0 c:/program files (x86)/cypress/psoc creator/4.4/psoc creator/import/gnu/arm/5.4.1/bin/../lib/gcc/arm-none-eabi/5.4.1/../../../../arm-none-eabi/lib/armv7e-m/softfp\libm.a(lib_a-w_log.o)
 .bss           0x00000000        0x0 c:/program files (x86)/cypress/psoc creator/4.4/psoc creator/import/gnu/arm/5.4.1/bin/../lib/gcc/arm-none-eabi/5.4.1/../../../../arm-none-eabi/lib/armv7e-m/softfp\libm.a(lib_a-w_log.o)
 .text.log      0x00000000      0x100 c:/program files (x86)/cypress/psoc creator/4.4/psoc creator/import/gnu/arm/5.4.1/bin/../lib/gcc/arm-none-eabi/5.4.1/../../../../arm-none-eabi/lib/armv7e-m/softfp\libm.a(lib_a-w_log.o)
 .rodata.str1.4
                0x00000000        0x5 c:/program files (x86)/cypress/psoc creator/4.4/psoc creator/import/gnu/arm/5.4.1/bin/../lib/gcc/arm-none-eabi/5.4.1/../../../../arm-none-eabi/lib/armv7e-m/softfp\libm.a(lib_a-w_log.o)
 .debug_frame   0x00000000       0x40 c:/program files (x86)/cypress/psoc creator/4.4/psoc creator/import/gnu/arm/5.4.1/bin/../lib/gcc/arm-none-eabi/5.4.1/../../../../arm-none-eabi/lib/armv7e-m/softfp\libm.a(lib_a-w_log.o)
 .ARM.attributes
                0x00000000       0x32 c:/program files (x86)/cypress/psoc creator/4.4/psoc creator/import/gnu/arm/5.4.1/bin/../lib/gcc/arm-none-eabi/5.4.1/../../../../arm-none-eabi/lib/armv7e-m/softfp\libm.a(lib_a-w_log.o)
 .text          0x00000000        0x0 c:/program files (x86)/cypress/psoc creator/4.4/psoc creator/import/gnu/arm/5.4.1/bin/../lib/gcc/arm-none-eabi/5.4.1/../../../../arm-none-eabi/lib/armv7e-m/softfp\libm.a(lib_a-e_log.o)
 .data          0x00000000        0x0 c:/program files (x86)/cypress/psoc creator/4.4/psoc creator/import/gnu/arm/5.4.1/bin/../lib/gcc/arm-none-eabi/5.4.1/../../../../arm-none-eabi/lib/armv7e-m/softfp\libm.a(lib_a-e_log.o)
 .bss           0x00000000        0x0 c:/program files (x86)/cypress/psoc creator/4.4/psoc creator/import/gnu/arm/5.4.1/bin/../lib/gcc/arm-none-eabi/5.4.1/../../../../arm-none-eabi/lib/armv7e-m/softfp\libm.a(lib_a-e_log.o)
 .text.__ieee754_log
                0x00000000      0x3e8 c:/program files (x86)/cypress/psoc creator/4.4/psoc creator/import/gnu/arm/5.4.1/bin/../lib/gcc/arm-none-eabi/5.4.1/../../../../arm-none-eabi/lib/armv7e-m/softfp\libm.a(lib_a-e_log.o)
 .debug_frame   0x00000000       0x54 c:/program files (x86)/cypress/psoc creator/4.4/psoc creator/import/gnu/arm/5.4.1/bin/../lib/gcc/arm-none-eabi/5.4.1/../../../../arm-none-eabi/lib/armv7e-m/softfp\libm.a(lib_a-e_log.o)
 .ARM.attributes
                0x00000000       0x32 c:/program files (x86)/cypress/psoc creator/4.4/psoc creator/import/gnu/arm/5.4.1/bin/../lib/gcc/arm-none-eabi/5.4.1/../../../../arm-none-eabi/lib/armv7e-m/softfp\libm.a(lib_a-e_log.o)
 .text          0x00000000        0x0 c:/program files (x86)/cypress/psoc creator/4.4/psoc creator/import/gnu/arm/5.4.1/bin/../lib/gcc/arm-none-eabi/5.4.1/../../../../arm-none-eabi/lib/armv7e-m/softfp\libm.a(lib_a-s_lib_ver.o)
 .data          0x00000000        0x0 c:/program files (x86)/cypress/psoc creator/4.4/psoc creator/import/gnu/arm/5.4.1/bin/../lib/gcc/arm-none-eabi/5.4.1/../../../../arm-none-eabi/lib/armv7e-m/softfp\libm.a(lib_a-s_lib_ver.o)
 .bss           0x00000000        0x0 c:/program files (x86)/cypress/psoc creator/4.4/psoc creator/import/gnu/arm/5.4.1/bin/../lib/gcc/arm-none-eabi/5.4.1/../../../../arm-none-eabi/lib/armv7e-m/softfp\libm.a(lib_a-s_lib_ver.o)
 .data.__fdlib_version
                0x00000000        0x1 c:/program files (x86)/cypress/psoc creator/4.4/psoc creator/import/gnu/arm/5.4.1/bin/../lib/gcc/arm-none-eabi/5.4.1/../../../../arm-none-eabi/lib/armv7e-m/softfp\libm.a(lib_a-s_lib_ver.o)
 .ARM.attributes
                0x00000000       0x32 c:/program files (x86)/cypress/psoc creator/4.4/psoc creator/import/gnu/arm/5.4.1/bin/../lib/gcc/arm-none-eabi/5.4.1/../../../../arm-none-eabi/lib/armv7e-m/softfp\libm.a(lib_a-s_lib_ver.o)
 .text          0x00000000        0x0 c:/program files (x86)/cypress/psoc creator/4.4/psoc creator/import/gnu/arm/5.4.1/bin/../lib/gcc/arm-none-eabi/5.4.1/../../../../arm-none-eabi/lib/armv7e-m/softfp\libm.a(lib_a-s_matherr.o)
 .data          0x00000000        0x0 c:/program files (x86)/cypress/psoc creator/4.4/psoc creator/import/gnu/arm/5.4.1/bin/../lib/gcc/arm-none-eabi/5.4.1/../../../../arm-none-eabi/lib/armv7e-m/softfp\libm.a(lib_a-s_matherr.o)
 .bss           0x00000000        0x0 c:/program files (x86)/cypress/psoc creator/4.4/psoc creator/import/gnu/arm/5.4.1/bin/../lib/gcc/arm-none-eabi/5.4.1/../../../../arm-none-eabi/lib/armv7e-m/softfp\libm.a(lib_a-s_matherr.o)
 .text.matherr  0x00000000        0x4 c:/program files (x86)/cypress/psoc creator/4.4/psoc creator/import/gnu/arm/5.4.1/bin/../lib/gcc/arm-none-eabi/5.4.1/../../../../arm-none-eabi/lib/armv7e-m/softfp\libm.a(lib_a-s_matherr.o)
 .debug_frame   0x00000000       0x20 c:/program files (x86)/cypress/psoc creator/4.4/psoc creator/import/gnu/arm/5.4.1/bin/../lib/gcc/arm-none-eabi/5.4.1/../../../../arm-none-eabi/lib/armv7e-m/softfp\libm.a(lib_a-s_matherr.o)
 .ARM.attributes
                0x00000000       0x32 c:/program files (x86)/cypress/psoc creator/4.4/psoc creator/import/gnu/arm/5.4.1/bin/../lib/gcc/arm-none-eabi/5.4.1/../../../../arm-none-eabi/lib/armv7e-m/softfp\libm.a(lib_a-s_matherr.o)
 .text          0x00000000        0x0 c:/program files (x86)/cypress/psoc creator/4.4/psoc creator/import/gnu/arm/5.4.1/bin/../lib/gcc/arm-none-eabi/5.4.1/../../../../arm-none-eabi/lib/armv7e-m/softfp\libm.a(lib_a-s_nan.o)
 .data          0x00000000        0x0 c:/program files (x86)/cypress/psoc creator/4.4/psoc creator/import/gnu/arm/5.4.1/bin/../lib/gcc/arm-none-eabi/5.4.1/../../../../arm-none-eabi/lib/armv7e-m/softfp\libm.a(lib_a-s_nan.o)
 .bss           0x00000000        0x0 c:/program files (x86)/cypress/psoc creator/4.4/psoc creator/import/gnu/arm/5.4.1/bin/../lib/gcc/arm-none-eabi/5.4.1/../../../../arm-none-eabi/lib/armv7e-m/softfp\libm.a(lib_a-s_nan.o)
 .text.nan      0x00000000        0xc c:/program files (x86)/cypress/psoc creator/4.4/psoc creator/import/gnu/arm/5.4.1/bin/../lib/gcc/arm-none-eabi/5.4.1/../../../../arm-none-eabi/lib/armv7e-m/softfp\libm.a(lib_a-s_nan.o)
 .debug_frame   0x00000000       0x20 c:/program files (x86)/cypress/psoc creator/4.4/psoc creator/import/gnu/arm/5.4.1/bin/../lib/gcc/arm-none-eabi/5.4.1/../../../../arm-none-eabi/lib/armv7e-m/softfp\libm.a(lib_a-s_nan.o)
 .ARM.attributes
                0x00000000       0x32 c:/program files (x86)/cypress/psoc creator/4.4/psoc creator/import/gnu/arm/5.4.1/bin/../lib/gcc/arm-none-eabi/5.4.1/../../../../arm-none-eabi/lib/armv7e-m/softfp\libm.a(lib_a-s_nan.o)
 .text          0x00000000        0x0 c:/program files (x86)/cypress/psoc creator/4.4/psoc creator/import/gnu/arm/5.4.1/bin/../lib/gcc/arm-none-eabi/5.4.1/../../../../arm-none-eabi/lib/armv7e-m/softfp\libc.a(lib_a-errno.o)
 .data          0x00000000        0x0 c:/program files (x86)/cypress/psoc creator/4.4/psoc creator/import/gnu/arm/5.4.1/bin/../lib/gcc/arm-none-eabi/5.4.1/../../../../arm-none-eabi/lib/armv7e-m/softfp\libc.a(lib_a-errno.o)
 .bss           0x00000000        0x0 c:/program files (x86)/cypress/psoc creator/4.4/psoc creator/import/gnu/arm/5.4.1/bin/../lib/gcc/arm-none-eabi/5.4.1/../../../../arm-none-eabi/lib/armv7e-m/softfp\libc.a(lib_a-errno.o)
 .text.__errno  0x00000000        0xc c:/program files (x86)/cypress/psoc creator/4.4/psoc creator/import/gnu/arm/5.4.1/bin/../lib/gcc/arm-none-eabi/5.4.1/../../../../arm-none-eabi/lib/armv7e-m/softfp\libc.a(lib_a-errno.o)
 .debug_frame   0x00000000       0x20 c:/program files (x86)/cypress/psoc creator/4.4/psoc creator/import/gnu/arm/5.4.1/bin/../lib/gcc/arm-none-eabi/5.4.1/../../../../arm-none-eabi/lib/armv7e-m/softfp\libc.a(lib_a-errno.o)
 .ARM.attributes
                0x00000000       0x32 c:/program files (x86)/cypress/psoc creator/4.4/psoc creator/import/gnu/arm/5.4.1/bin/../lib/gcc/arm-none-eabi/5.4.1/../../../../arm-none-eabi/lib/armv7e-m/softfp\libc.a(lib_a-errno.o)

Memory Configuration

Name             Origin             Length             Attributes
ram              0x08024000         0x00023800         xrw
flash            0x10080000         0x00080000         xr
em_eeprom        0x14000000         0x00008000         xr
sflash_user_data 0x16000800         0x00000800         xr
sflash_nar       0x16001a00         0x00000200         xr
sflash_public_key 0x16005a00         0x00000c00         xr
sflash_toc_2     0x16007c00         0x00000200         xr
sflash_rtoc_2    0x16007e00         0x00000200         xr
xip              0x18000000         0x08000000         xr
efuse            0x90700000         0x00100000         r
*default*        0x00000000         0xffffffff

Linker script and memory map

LOAD c:/program files (x86)/cypress/psoc creator/4.4/psoc creator/import/gnu/arm/5.4.1/bin/../lib/gcc/arm-none-eabi/5.4.1/armv7e-m/softfp/crti.o
LOAD c:/program files (x86)/cypress/psoc creator/4.4/psoc creator/import/gnu/arm/5.4.1/bin/../lib/gcc/arm-none-eabi/5.4.1/armv7e-m/softfp/crtbegin.o
LOAD c:/program files (x86)/cypress/psoc creator/4.4/psoc creator/import/gnu/arm/5.4.1/bin/../lib/gcc/arm-none-eabi/5.4.1/../../../../arm-none-eabi/lib/armv7e-m/softfp/crt0.o
START GROUP
LOAD .\CortexM4\ARM_GCC_541\Release\startup_psoc6_01_cm4.o
LOAD .\CortexM4\ARM_GCC_541\Release\main_cm4.o
LOAD .\CortexM4\ARM_GCC_541\Release\system_psoc6_cm4.o
LOAD .\CortexM4\ARM_GCC_541\Release\command_parse.o
LOAD .\CortexM4\ARM_GCC_541\Release\command_queue.o
LOAD .\CortexM4\ARM_GCC_541\Release\stdio_user.o
LOAD .\CortexM4\ARM_GCC_541\Release\cyfitter_sysint_cfg.o
LOAD .\CortexM4\ARM_GCC_541\Release\cymetadata.o
LOAD .\CortexM4\ARM_GCC_541\Release\Timer.o
LOAD .\CortexM4\ARM_GCC_541\Release\UART.o
LOAD .\CortexM4\ARM_GCC_541\Release\cy_efuse.o
LOAD .\CortexM4\ARM_GCC_541\Release\cy_flash.o
LOAD .\CortexM4\ARM_GCC_541\Release\cy_gpio.o
LOAD .\CortexM4\ARM_GCC_541\Release\cy_ipc_drv.o
LOAD .\CortexM4\ARM_GCC_541\Release\cy_ipc_sema.o
LOAD .\CortexM4\ARM_GCC_541\Release\cy_ipc_pipe.o
LOAD .\CortexM4\ARM_GCC_541\Release\cy_lvd.o
LOAD .\CortexM4\ARM_GCC_541\Release\cy_profile.o
LOAD .\CortexM4\ARM_GCC_541\Release\cy_prot.o
LOAD .\CortexM4\ARM_GCC_541\Release\cy_scb_common.o
LOAD .\CortexM4\ARM_GCC_541\Release\cy_scb_i2c.o
LOAD .\CortexM4\ARM_GCC_541\Release\cy_scb_ezi2c.o
LOAD .\CortexM4\ARM_GCC_541\Release\cy_scb_spi.o
LOAD .\CortexM4\ARM_GCC_541\Release\cy_scb_uart.o
LOAD .\CortexM4\ARM_GCC_541\Release\cy_sysanalog.o
LOAD .\CortexM4\ARM_GCC_541\Release\cy_sysclk.o
LOAD .\CortexM4\ARM_GCC_541\Release\cy_sysint.o
LOAD .\CortexM4\ARM_GCC_541\Release\cy_syslib.o
LOAD .\CortexM4\ARM_GCC_541\Release\cy_syslib_gcc.o
LOAD .\CortexM4\ARM_GCC_541\Release\cy_syspm.o
LOAD .\CortexM4\ARM_GCC_541\Release\cy_systick.o
LOAD .\CortexM4\ARM_GCC_541\Release\cy_tcpwm_counter.o
LOAD .\CortexM4\ARM_GCC_541\Release\cy_tcpwm_pwm.o
LOAD .\CortexM4\ARM_GCC_541\Release\cy_tcpwm_quaddec.o
LOAD .\CortexM4\ARM_GCC_541\Release\cy_trigmux.o
LOAD .\CortexM4\ARM_GCC_541\Release\cy_wdt.o
LOAD .\CortexM4\ARM_GCC_541\Release\cy_device.o
LOAD .\CortexM4\ARM_GCC_541\Release\cy_ctb.o
LOAD .\CortexM4\ARM_GCC_541\Release\cy_ctdac.o
LOAD .\CortexM4\ARM_GCC_541\Release\cy_ble_clk.o
LOAD .\CortexM4\ARM_GCC_541\Release\retarget.o
LOAD .\CortexM4\ARM_GCC_541\Release\VDAC_1.o
END GROUP
START GROUP
LOAD c:/program files (x86)/cypress/psoc creator/4.4/psoc creator/import/gnu/arm/5.4.1/bin/../lib/gcc/arm-none-eabi/5.4.1/armv7e-m/softfp\libgcc.a
LOAD c:/program files (x86)/cypress/psoc creator/4.4/psoc creator/import/gnu/arm/5.4.1/bin/../lib/gcc/arm-none-eabi/5.4.1/../../../../arm-none-eabi/lib/armv7e-m/softfp\libg_nano.a
LOAD c:/program files (x86)/cypress/psoc creator/4.4/psoc creator/import/gnu/arm/5.4.1/bin/../lib/gcc/arm-none-eabi/5.4.1/../../../../arm-none-eabi/lib/armv7e-m/softfp\libc_nano.a
END GROUP
START GROUP
LOAD c:/program files (x86)/cypress/psoc creator/4.4/psoc creator/import/gnu/arm/5.4.1/bin/../lib/gcc/arm-none-eabi/5.4.1/armv7e-m/softfp\libgcc.a
LOAD c:/program files (x86)/cypress/psoc creator/4.4/psoc creator/import/gnu/arm/5.4.1/bin/../lib/gcc/arm-none-eabi/5.4.1/../../../../arm-none-eabi/lib/armv7e-m/softfp\libc_nano.a
END GROUP
LOAD c:/program files (x86)/cypress/psoc creator/4.4/psoc creator/import/gnu/arm/5.4.1/bin/../lib/gcc/arm-none-eabi/5.4.1/armv7e-m/softfp/crtend.o
LOAD c:/program files (x86)/cypress/psoc creator/4.4/psoc creator/import/gnu/arm/5.4.1/bin/../lib/gcc/arm-none-eabi/5.4.1/armv7e-m/softfp/crtn.o
START GROUP
LOAD c:/program files (x86)/cypress/psoc creator/4.4/psoc creator/import/gnu/arm/5.4.1/bin/../lib/gcc/arm-none-eabi/5.4.1/armv7e-m/softfp\libgcc.a
LOAD c:/program files (x86)/cypress/psoc creator/4.4/psoc creator/import/gnu/arm/5.4.1/bin/../lib/gcc/arm-none-eabi/5.4.1/../../../../arm-none-eabi/lib/armv7e-m/softfp\libc.a
LOAD c:/program files (x86)/cypress/psoc creator/4.4/psoc creator/import/gnu/arm/5.4.1/bin/../lib/gcc/arm-none-eabi/5.4.1/../../../../arm-none-eabi/lib/armv7e-m/softfp\libnosys.a
END GROUP
START GROUP
LOAD c:/program files (x86)/cypress/psoc creator/4.4/psoc creator/import/gnu/arm/5.4.1/bin/../lib/gcc/arm-none-eabi/5.4.1/armv7e-m/softfp\libgcc.a
LOAD c:/program files (x86)/cypress/psoc creator/4.4/psoc creator/import/gnu/arm/5.4.1/bin/../lib/gcc/arm-none-eabi/5.4.1/../../../../arm-none-eabi/lib/armv7e-m/softfp\libc.a
LOAD c:/program files (x86)/cypress/psoc creator/4.4/psoc creator/import/gnu/arm/5.4.1/bin/../lib/gcc/arm-none-eabi/5.4.1/../../../../arm-none-eabi/lib/armv7e-m/softfp\libm.a
LOAD c:/program files (x86)/cypress/psoc creator/4.4/psoc creator/import/gnu/arm/5.4.1/bin/../lib/gcc/arm-none-eabi/5.4.1/../../../../arm-none-eabi/lib/armv7e-m/softfp\libnosys.a
END GROUP

.text           0x10080000     0x4f60
                0x10080000                . = ALIGN (0x4)
                0x10080000                __Vectors = .
 *(.vectors)
 .vectors       0x10080000      0x28c .\CortexM4\ARM_GCC_541\Release\startup_psoc6_01_cm4.o
                0x1008028c                . = ALIGN (0x4)
                0x1008028c                __Vectors_End = .
                0x0000028c                __Vectors_Size = (__Vectors_End - __Vectors)
                0x1008028c                __end__ = .
                0x1008028c                . = ALIGN (0x4)
 *(.text*)
 .text          0x1008028c       0x5c c:/program files (x86)/cypress/psoc creator/4.4/psoc creator/import/gnu/arm/5.4.1/bin/../lib/gcc/arm-none-eabi/5.4.1/armv7e-m/softfp/crtbegin.o
 .text          0x100802e8       0x84 .\CortexM4\ARM_GCC_541\Release\startup_psoc6_01_cm4.o
                0x100802e8                Cy_OnResetUser
                0x100802ea                Reset_Handler
                0x1008034c                cpuss_interrupts_ipc_6_IRQHandler
                0x1008034c                DebugMon_Handler
                0x1008034c                tcpwm_1_interrupts_11_IRQHandler
                0x1008034c                cpuss_interrupts_ipc_0_IRQHandler
                0x1008034c                tcpwm_1_interrupts_15_IRQHandler
                0x1008034c                ioss_interrupts_gpio_13_IRQHandler
                0x1008034c                tcpwm_1_interrupts_13_IRQHandler
                0x1008034c                cpuss_interrupts_dw1_8_IRQHandler
                0x1008034c                tcpwm_0_interrupts_0_IRQHandler
                0x1008034c                SysTick_Handler
                0x1008034c                cpuss_interrupt_fm_IRQHandler
                0x1008034c                cpuss_interrupts_ipc_7_IRQHandler
                0x1008034c                tcpwm_1_interrupts_14_IRQHandler
                0x1008034c                cpuss_interrupts_dw0_5_IRQHandler
                0x1008034c                tcpwm_1_interrupts_9_IRQHandler
                0x1008034c                cpuss_interrupts_cm0_cti_1_IRQHandler
                0x1008034c                tcpwm_1_interrupts_22_IRQHandler
                0x1008034c                cpuss_interrupts_dw0_4_IRQHandler
                0x1008034c                PendSV_Handler
                0x1008034c                NMI_Handler
                0x1008034c                cpuss_interrupts_dw1_12_IRQHandler
                0x1008034c                tcpwm_1_interrupts_12_IRQHandler
                0x1008034c                smif_interrupt_IRQHandler
                0x1008034c                tcpwm_1_interrupts_2_IRQHandler
                0x1008034c                cpuss_interrupts_ipc_13_IRQHandler
                0x1008034c                udb_interrupts_11_IRQHandler
                0x1008034c                tcpwm_1_interrupts_18_IRQHandler
                0x1008034c                cpuss_interrupts_dw0_11_IRQHandler
                0x1008034c                tcpwm_0_interrupts_2_IRQHandler
                0x1008034c                cpuss_interrupts_dw0_13_IRQHandler
                0x1008034c                udb_interrupts_2_IRQHandler
                0x1008034c                cpuss_interrupts_dw1_7_IRQHandler
                0x1008034c                ioss_interrupts_gpio_1_IRQHandler
                0x1008034c                ioss_interrupts_gpio_7_IRQHandler
                0x1008034c                scb_5_interrupt_IRQHandler
                0x1008034c                udb_interrupts_6_IRQHandler
                0x1008034c                cpuss_interrupts_fault_1_IRQHandler
                0x1008034c                cpuss_interrupts_ipc_4_IRQHandler
                0x1008034c                cpuss_interrupts_ipc_5_IRQHandler
                0x1008034c                cpuss_interrupts_dw1_10_IRQHandler
                0x1008034c                udb_interrupts_0_IRQHandler
                0x1008034c                tcpwm_1_interrupts_6_IRQHandler
                0x1008034c                scb_4_interrupt_IRQHandler
                0x1008034c                pass_interrupt_dacs_IRQHandler
                0x1008034c                ioss_interrupts_gpio_2_IRQHandler
                0x1008034c                cpuss_interrupts_dw1_9_IRQHandler
                0x1008034c                cpuss_interrupts_dw1_13_IRQHandler
                0x1008034c                scb_2_interrupt_IRQHandler
                0x1008034c                cpuss_interrupts_cm0_cti_0_IRQHandler
                0x1008034c                udb_interrupts_5_IRQHandler
                0x1008034c                srss_interrupt_IRQHandler
                0x1008034c                udb_interrupts_12_IRQHandler
                0x1008034c                scb_0_interrupt_IRQHandler
                0x1008034c                csd_interrupt_IRQHandler
                0x1008034c                udb_interrupts_1_IRQHandler
                0x1008034c                profile_interrupt_IRQHandler
                0x1008034c                tcpwm_1_interrupts_1_IRQHandler
                0x1008034c                cpuss_interrupts_ipc_12_IRQHandler
                0x1008034c                tcpwm_1_interrupts_3_IRQHandler
                0x1008034c                tcpwm_0_interrupts_7_IRQHandler
                0x1008034c                cpuss_interrupts_dw1_1_IRQHandler
                0x1008034c                cpuss_interrupts_dw1_0_IRQHandler
                0x1008034c                cpuss_interrupts_dw0_9_IRQHandler
                0x1008034c                lpcomp_interrupt_IRQHandler
                0x1008034c                tcpwm_1_interrupts_23_IRQHandler
                0x1008034c                udb_interrupts_4_IRQHandler
                0x1008034c                tcpwm_1_interrupts_20_IRQHandler
                0x1008034c                ioss_interrupt_gpio_IRQHandler
                0x1008034c                tcpwm_0_interrupts_1_IRQHandler
                0x1008034c                ioss_interrupts_gpio_8_IRQHandler
                0x1008034c                tcpwm_0_interrupts_6_IRQHandler
                0x1008034c                scb_7_interrupt_IRQHandler
                0x1008034c                tcpwm_1_interrupts_7_IRQHandler
                0x1008034c                cpuss_interrupts_ipc_11_IRQHandler
                0x1008034c                udb_interrupts_13_IRQHandler
                0x1008034c                cpuss_interrupts_dw0_15_IRQHandler
                0x1008034c                udb_interrupts_7_IRQHandler
                0x1008034c                cpuss_interrupts_dw1_6_IRQHandler
                0x1008034c                cpuss_interrupt_crypto_IRQHandler
                0x1008034c                scb_1_interrupt_IRQHandler
                0x1008034c                Default_Handler
                0x1008034c                usb_interrupt_hi_IRQHandler
                0x1008034c                tcpwm_1_interrupts_0_IRQHandler
                0x1008034c                udb_interrupts_9_IRQHandler
                0x1008034c                audioss_interrupt_pdm_IRQHandler
                0x1008034c                srss_interrupt_mcwdt_0_IRQHandler
                0x1008034c                scb_3_interrupt_IRQHandler
                0x1008034c                pass_interrupt_ctbs_IRQHandler
                0x1008034c                udb_interrupts_8_IRQHandler
                0x1008034c                ioss_interrupts_gpio_3_IRQHandler
                0x1008034c                scb_6_interrupt_IRQHandler
                0x1008034c                cpuss_interrupts_cm4_cti_0_IRQHandler
                0x1008034c                cpuss_interrupts_dw1_3_IRQHandler
                0x1008034c                pass_interrupt_sar_IRQHandler
                0x1008034c                ioss_interrupts_gpio_0_IRQHandler
                0x1008034c                ioss_interrupts_gpio_14_IRQHandler
                0x1008034c                tcpwm_0_interrupts_4_IRQHandler
                0x1008034c                udb_interrupts_3_IRQHandler
                0x1008034c                tcpwm_0_interrupts_5_IRQHandler
                0x1008034c                cpuss_interrupts_ipc_15_IRQHandler
                0x1008034c                cpuss_interrupts_cm4_cti_1_IRQHandler
                0x1008034c                scb_8_interrupt_IRQHandler
                0x1008034c                srss_interrupt_mcwdt_1_IRQHandler
                0x1008034c                cpuss_interrupts_dw1_2_IRQHandler
                0x1008034c                SVC_Handler
                0x1008034c                cpuss_interrupts_dw1_5_IRQHandler
                0x1008034c                cpuss_interrupts_ipc_1_IRQHandler
                0x1008034c                cpuss_interrupts_dw0_0_IRQHandler
                0x1008034c                ioss_interrupts_gpio_12_IRQHandler
                0x1008034c                cpuss_interrupts_ipc_3_IRQHandler
                0x1008034c                tcpwm_1_interrupts_17_IRQHandler
                0x1008034c                srss_interrupt_backup_IRQHandler
                0x1008034c                bless_interrupt_IRQHandler
                0x1008034c                cpuss_interrupts_ipc_10_IRQHandler
                0x1008034c                cpuss_interrupts_ipc_9_IRQHandler
                0x1008034c                cpuss_interrupts_dw0_14_IRQHandler
                0x1008034c                tcpwm_1_interrupts_4_IRQHandler
                0x1008034c                tcpwm_0_interrupts_3_IRQHandler
                0x1008034c                cpuss_interrupts_dw1_15_IRQHandler
                0x1008034c                ioss_interrupts_gpio_10_IRQHandler
                0x1008034c                udb_interrupts_10_IRQHandler
                0x1008034c                cpuss_interrupts_dw0_8_IRQHandler
                0x1008034c                ioss_interrupts_gpio_11_IRQHandler
                0x1008034c                cpuss_interrupts_ipc_14_IRQHandler
                0x1008034c                ioss_interrupts_gpio_5_IRQHandler
                0x1008034c                ioss_interrupts_gpio_4_IRQHandler
                0x1008034c                tcpwm_1_interrupts_8_IRQHandler
                0x1008034c                cpuss_interrupts_dw1_14_IRQHandler
                0x1008034c                usb_interrupt_med_IRQHandler
                0x1008034c                cpuss_interrupts_dw0_2_IRQHandler
                0x1008034c                tcpwm_1_interrupts_10_IRQHandler
                0x1008034c                cpuss_interrupts_fault_0_IRQHandler
                0x1008034c                cpuss_interrupts_dw0_12_IRQHandler
                0x1008034c                ioss_interrupts_gpio_6_IRQHandler
                0x1008034c                tcpwm_1_interrupts_21_IRQHandler
                0x1008034c                tcpwm_1_interrupts_16_IRQHandler
                0x1008034c                cpuss_interrupts_dw1_4_IRQHandler
                0x1008034c                udb_interrupts_15_IRQHandler
                0x1008034c                cpuss_interrupts_dw1_11_IRQHandler
                0x1008034c                cpuss_interrupts_dw0_6_IRQHandler
                0x1008034c                ioss_interrupt_vdd_IRQHandler
                0x1008034c                cpuss_interrupts_dw0_7_IRQHandler
                0x1008034c                audioss_interrupt_i2s_IRQHandler
                0x1008034c                tcpwm_1_interrupts_5_IRQHandler
                0x1008034c                cpuss_interrupts_ipc_2_IRQHandler
                0x1008034c                cpuss_interrupts_dw0_10_IRQHandler
                0x1008034c                tcpwm_1_interrupts_19_IRQHandler
                0x1008034c                cpuss_interrupts_dw0_1_IRQHandler
                0x1008034c                ioss_interrupts_gpio_9_IRQHandler
                0x1008034c                usb_interrupt_lo_IRQHandler
                0x1008034c                cpuss_interrupts_ipc_8_IRQHandler
                0x1008034c                udb_interrupts_14_IRQHandler
                0x1008034c                cpuss_interrupts_dw0_3_IRQHandler
                0x10080350                UsageFault_Handler
                0x10080350                HardFault_Handler
                0x10080350                MemManage_Handler
                0x10080350                BusFault_Handler
 .text.TimerInterruptHandler
                0x1008036c       0xa8 .\CortexM4\ARM_GCC_541\Release\main_cm4.o
                0x1008036c                TimerInterruptHandler
 .text.startup.main
                0x10080414       0xd8 .\CortexM4\ARM_GCC_541\Release\main_cm4.o
                0x10080414                main
 .text.Cy_SysIpcPipeIsrCm4
                0x100804ec        0x6 .\CortexM4\ARM_GCC_541\Release\system_psoc6_cm4.o
                0x100804ec                Cy_SysIpcPipeIsrCm4
 .text.Cy_SystemInit
                0x100804f2        0x2 .\CortexM4\ARM_GCC_541\Release\system_psoc6_cm4.o
                0x100804f2                Cy_SystemInit
 .text.SystemCoreClockUpdate
                0x100804f4      0x160 .\CortexM4\ARM_GCC_541\Release\system_psoc6_cm4.o
                0x100804f4                SystemCoreClockUpdate
 .text.SystemInit
                0x10080654       0x48 .\CortexM4\ARM_GCC_541\Release\system_psoc6_cm4.o
                0x10080654                SystemInit
 .text.Cy_SystemInitFpuEnable
                0x1008069c       0x28 .\CortexM4\ARM_GCC_541\Release\system_psoc6_cm4.o
                0x1008069c                Cy_SystemInitFpuEnable
 .text.execute_command
                0x100806c4       0x84 .\CortexM4\ARM_GCC_541\Release\command_parse.o
                0x100806c4                execute_command
 .text.IsEmptyQueue
                0x10080748        0xc .\CortexM4\ARM_GCC_541\Release\command_queue.o
                0x10080748                IsEmptyQueue
 .text.DeQueue  0x10080754       0x28 .\CortexM4\ARM_GCC_541\Release\command_queue.o
                0x10080754                DeQueue
 .text.STDIO_PutChar
                0x1008077c       0x18 .\CortexM4\ARM_GCC_541\Release\stdio_user.o
                0x1008077c                STDIO_PutChar
 .text.STDIO_GetChar
                0x10080794       0x1c .\CortexM4\ARM_GCC_541\Release\stdio_user.o
                0x10080794                STDIO_GetChar
 .text.UART_Interrupt
                0x100807b0       0x10 .\CortexM4\ARM_GCC_541\Release\UART.o
 .text.UART_Start
                0x100807c0       0x64 .\CortexM4\ARM_GCC_541\Release\UART.o
                0x100807c0                UART_Start
 .text.Cy_SysClk_ClkPeriGetDivider
                0x10080824       0x14 .\CortexM4\ARM_GCC_541\Release\cy_flash.o
 .text.Cy_SysClk_ClkSlowGetDivider
                0x10080838       0x18 .\CortexM4\ARM_GCC_541\Release\cy_flash.o
 .text.Cy_IPC_Drv_GetIpcBaseAddress
                0x10080850       0x14 .\CortexM4\ARM_GCC_541\Release\cy_flash.o
 .text.Cy_IPC_Drv_IsLockAcquired
                0x10080864       0x14 .\CortexM4\ARM_GCC_541\Release\cy_flash.o
 .text.Cy_Flash_ProcessOpcode
                0x10080878       0xa4 .\CortexM4\ARM_GCC_541\Release\cy_flash.o
 .text.Cy_Flash_OperationStatus
                0x1008091c       0x38 .\CortexM4\ARM_GCC_541\Release\cy_flash.o
 .text.Cy_Flash_InitExt
                0x10080954       0x78 .\CortexM4\ARM_GCC_541\Release\cy_flash.o
                0x10080954                Cy_Flash_InitExt
 .text.Cy_Flash_Init
                0x100809cc        0xc .\CortexM4\ARM_GCC_541\Release\cy_flash.o
                0x100809cc                Cy_Flash_Init
 .text.Cy_IPC_Drv_LockRelease
                0x100809d8       0x20 .\CortexM4\ARM_GCC_541\Release\cy_ipc_drv.o
                0x100809d8                Cy_IPC_Drv_LockRelease
 .text.Cy_IPC_Drv_SendMsgWord
                0x100809f8       0x18 .\CortexM4\ARM_GCC_541\Release\cy_ipc_drv.o
                0x100809f8                Cy_IPC_Drv_SendMsgWord
 .text.Cy_IPC_Drv_ReadMsgWord
                0x10080a10       0x20 .\CortexM4\ARM_GCC_541\Release\cy_ipc_drv.o
                0x10080a10                Cy_IPC_Drv_ReadMsgWord
 .text.Cy_IPC_Sema_InitExt
                0x10080a30       0x68 .\CortexM4\ARM_GCC_541\Release\cy_ipc_sema.o
                0x10080a30                Cy_IPC_Sema_InitExt
 .text.Cy_IPC_Sema_Init
                0x10080a98       0x44 .\CortexM4\ARM_GCC_541\Release\cy_ipc_sema.o
                0x10080a98                Cy_IPC_Sema_Init
 .text.Cy_IPC_Sema_Clear
                0x10080adc       0x84 .\CortexM4\ARM_GCC_541\Release\cy_ipc_sema.o
                0x10080adc                Cy_IPC_Sema_Clear
 .text.Cy_IPC_Sema_Status
                0x10080b60       0x40 .\CortexM4\ARM_GCC_541\Release\cy_ipc_sema.o
                0x10080b60                Cy_IPC_Sema_Status
 .text.Cy_IPC_Pipe_Config
                0x10080ba0       0x10 .\CortexM4\ARM_GCC_541\Release\cy_ipc_pipe.o
                0x10080ba0                Cy_IPC_Pipe_Config
 .text.Cy_IPC_Pipe_EndpointInit
                0x10080bb0       0x60 .\CortexM4\ARM_GCC_541\Release\cy_ipc_pipe.o
                0x10080bb0                Cy_IPC_Pipe_EndpointInit
 .text.Cy_IPC_Pipe_Init
                0x10080c10       0x68 .\CortexM4\ARM_GCC_541\Release\cy_ipc_pipe.o
                0x10080c10                Cy_IPC_Pipe_Init
 .text.Cy_IPC_Pipe_SendMessage
                0x10080c78       0x58 .\CortexM4\ARM_GCC_541\Release\cy_ipc_pipe.o
                0x10080c78                Cy_IPC_Pipe_SendMessage
 .text.Cy_IPC_Pipe_RegisterCallback
                0x10080cd0       0x28 .\CortexM4\ARM_GCC_541\Release\cy_ipc_pipe.o
                0x10080cd0                Cy_IPC_Pipe_RegisterCallback
 .text.Cy_IPC_Pipe_ExecCallback
                0x10080cf8       0x78 .\CortexM4\ARM_GCC_541\Release\cy_ipc_pipe.o
                0x10080cf8                Cy_IPC_Pipe_ExecCallback
 .text.Cy_IPC_Pipe_ExecuteCallback
                0x10080d70       0x14 .\CortexM4\ARM_GCC_541\Release\cy_ipc_pipe.o
                0x10080d70                Cy_IPC_Pipe_ExecuteCallback
 .text.Cy_SCB_ReadArrayNoCheck
                0x10080d84       0x36 .\CortexM4\ARM_GCC_541\Release\cy_scb_common.o
                0x10080d84                Cy_SCB_ReadArrayNoCheck
 .text.Cy_SCB_ReadArray
                0x10080dba       0x1a .\CortexM4\ARM_GCC_541\Release\cy_scb_common.o
                0x10080dba                Cy_SCB_ReadArray
 .text.Cy_SCB_Write
                0x10080dd4       0x22 .\CortexM4\ARM_GCC_541\Release\cy_scb_common.o
                0x10080dd4                Cy_SCB_Write
 .text.Cy_SCB_WriteArrayNoCheck
                0x10080df6       0x36 .\CortexM4\ARM_GCC_541\Release\cy_scb_common.o
                0x10080df6                Cy_SCB_WriteArrayNoCheck
 .text.Cy_SCB_WriteArray
                0x10080e2c       0x28 .\CortexM4\ARM_GCC_541\Release\cy_scb_common.o
                0x10080e2c                Cy_SCB_WriteArray
 .text.Cy_SCB_UART_Init
                0x10080e54      0x1c4 .\CortexM4\ARM_GCC_541\Release\cy_scb_uart.o
                0x10080e54                Cy_SCB_UART_Init
 .text.Cy_SCB_UART_GetNumInRingBuffer
                0x10081018       0x18 .\CortexM4\ARM_GCC_541\Release\cy_scb_uart.o
                0x10081018                Cy_SCB_UART_GetNumInRingBuffer
 .text.Cy_SCB_UART_Interrupt
                0x10081030      0x282 .\CortexM4\ARM_GCC_541\Release\cy_scb_uart.o
                0x10081030                Cy_SCB_UART_Interrupt
 *fill*         0x100812b2        0x2 
 .text.Cy_SysInt_SetVector
                0x100812b4       0x2c .\CortexM4\ARM_GCC_541\Release\cy_sysint.o
                0x100812b4                Cy_SysInt_SetVector
 .text.Cy_SysInt_Init
                0x100812e0       0x5c .\CortexM4\ARM_GCC_541\Release\cy_sysint.o
                0x100812e0                Cy_SysInt_Init
 .text.Cy_SysLib_ProcessingFault
                0x1008133c        0x2 .\CortexM4\ARM_GCC_541\Release\cy_syslib.o
                0x1008133c                Cy_SysLib_ProcessingFault
 *fill*         0x1008133e        0x2 
 .text.Cy_SysLib_FaultHandler
                0x10081340       0x98 .\CortexM4\ARM_GCC_541\Release\cy_syslib.o
                0x10081340                Cy_SysLib_FaultHandler
 .text          0x100813d8       0x20 .\CortexM4\ARM_GCC_541\Release\cy_syslib_gcc.o
                0x100813d8                Cy_SysLib_DelayCycles
                0x100813ea                Cy_SysLib_EnterCriticalSection
                0x100813f2                Cy_SysLib_ExitCriticalSection
 .text.Cy_SysLib_GetDeviceRevision
                0x100813f8       0x12 .\CortexM4\ARM_GCC_541\Release\cy_syspm.o
 *fill*         0x1008140a        0x2 
 .text.Cy_TCPWM_Counter_Init
                0x1008140c       0xe0 .\CortexM4\ARM_GCC_541\Release\cy_tcpwm_counter.o
                0x1008140c                Cy_TCPWM_Counter_Init
 .text.Cy_PDL_Init
                0x100814ec        0xc .\CortexM4\ARM_GCC_541\Release\cy_device.o
                0x100814ec                Cy_PDL_Init
 .text.Cy_CTB_OpampInit
                0x100814f8       0x9c .\CortexM4\ARM_GCC_541\Release\cy_ctb.o
                0x100814f8                Cy_CTB_OpampInit
 .text.Cy_SysClk_PeriphSetDivider
                0x10081594       0x70 .\CortexM4\ARM_GCC_541\Release\cy_ctdac.o
 .text.Cy_SysClk_PeriphSetFracDivider
                0x10081604       0x94 .\CortexM4\ARM_GCC_541\Release\cy_ctdac.o
 .text.Cy_SysClk_PeriphEnableDivider
                0x10081698       0x68 .\CortexM4\ARM_GCC_541\Release\cy_ctdac.o
 .text.Cy_SysClk_PeriphDisableDivider
                0x10081700       0x50 .\CortexM4\ARM_GCC_541\Release\cy_ctdac.o
 .text.Cy_SysClk_PeriphAssignDivider.constprop.5
                0x10081750       0x54 .\CortexM4\ARM_GCC_541\Release\cy_ctdac.o
 .text.Cy_CTDAC_Init
                0x100817a4       0xf8 .\CortexM4\ARM_GCC_541\Release\cy_ctdac.o
                0x100817a4                Cy_CTDAC_Init
 .text._write   0x1008189c       0x24 .\CortexM4\ARM_GCC_541\Release\retarget.o
                0x1008189c                _write
 .text._read    0x100818c0       0x2a .\CortexM4\ARM_GCC_541\Release\retarget.o
                0x100818c0                _read
 *fill*         0x100818ea        0x2 
 .text.VDAC_1_Start
                0x100818ec       0x4c .\CortexM4\ARM_GCC_541\Release\VDAC_1.o
                0x100818ec                VDAC_1_Start
 .text          0x10081938      0x370 c:/program files (x86)/cypress/psoc creator/4.4/psoc creator/import/gnu/arm/5.4.1/bin/../lib/gcc/arm-none-eabi/5.4.1/armv7e-m/softfp\libgcc.a(_arm_addsubdf3.o)
                0x10081938                __aeabi_drsub
                0x10081940                __aeabi_dsub
                0x10081940                __subdf3
                0x10081944                __aeabi_dadd
                0x10081944                __adddf3
                0x10081bbc                __floatunsidf
                0x10081bbc                __aeabi_ui2d
                0x10081bdc                __floatsidf
                0x10081bdc                __aeabi_i2d
                0x10081c00                __aeabi_f2d
                0x10081c00                __extendsfdf2
                0x10081c3c                __floatundidf
                0x10081c3c                __aeabi_ul2d
                0x10081c4c                __floatdidf
                0x10081c4c                __aeabi_l2d
 .text          0x10081ca8      0x424 c:/program files (x86)/cypress/psoc creator/4.4/psoc creator/import/gnu/arm/5.4.1/bin/../lib/gcc/arm-none-eabi/5.4.1/armv7e-m/softfp\libgcc.a(_arm_muldivdf3.o)
                0x10081ca8                __aeabi_dmul
                0x10081ca8                __muldf3
                0x10081efc                __divdf3
                0x10081efc                __aeabi_ddiv
 .text.calloc   0x100820cc       0x10 c:/program files (x86)/cypress/psoc creator/4.4/psoc creator/import/gnu/arm/5.4.1/bin/../lib/gcc/arm-none-eabi/5.4.1/../../../../arm-none-eabi/lib/armv7e-m/softfp\libg_nano.a(lib_a-calloc.o)
                0x100820cc                calloc
 .text.malloc   0x100820dc       0x10 c:/program files (x86)/cypress/psoc creator/4.4/psoc creator/import/gnu/arm/5.4.1/bin/../lib/gcc/arm-none-eabi/5.4.1/../../../../arm-none-eabi/lib/armv7e-m/softfp\libg_nano.a(lib_a-malloc.o)
                0x100820dc                malloc
 .text.free     0x100820ec       0x10 c:/program files (x86)/cypress/psoc creator/4.4/psoc creator/import/gnu/arm/5.4.1/bin/../lib/gcc/arm-none-eabi/5.4.1/../../../../arm-none-eabi/lib/armv7e-m/softfp\libg_nano.a(lib_a-malloc.o)
                0x100820ec                free
 .text.memcpy   0x100820fc       0x16 c:/program files (x86)/cypress/psoc creator/4.4/psoc creator/import/gnu/arm/5.4.1/bin/../lib/gcc/arm-none-eabi/5.4.1/../../../../arm-none-eabi/lib/armv7e-m/softfp\libg_nano.a(lib_a-memcpy-stub.o)
                0x100820fc                memcpy
 .text.memset   0x10082112       0x10 c:/program files (x86)/cypress/psoc creator/4.4/psoc creator/import/gnu/arm/5.4.1/bin/../lib/gcc/arm-none-eabi/5.4.1/../../../../arm-none-eabi/lib/armv7e-m/softfp\libg_nano.a(lib_a-memset.o)
                0x10082112                memset
 .text._calloc_r
                0x10082122       0x1c c:/program files (x86)/cypress/psoc creator/4.4/psoc creator/import/gnu/arm/5.4.1/bin/../lib/gcc/arm-none-eabi/5.4.1/../../../../arm-none-eabi/lib/armv7e-m/softfp\libg_nano.a(lib_a-nano-callocr.o)
                0x10082122                _calloc_r
 *fill*         0x1008213e        0x2 
 .text._free_r  0x10082140       0x9c c:/program files (x86)/cypress/psoc creator/4.4/psoc creator/import/gnu/arm/5.4.1/bin/../lib/gcc/arm-none-eabi/5.4.1/../../../../arm-none-eabi/lib/armv7e-m/softfp\libg_nano.a(lib_a-nano-freer.o)
                0x10082140                _free_r
 .text._malloc_r
                0x100821dc       0xbc c:/program files (x86)/cypress/psoc creator/4.4/psoc creator/import/gnu/arm/5.4.1/bin/../lib/gcc/arm-none-eabi/5.4.1/../../../../arm-none-eabi/lib/armv7e-m/softfp\libg_nano.a(lib_a-nano-mallocr.o)
                0x100821dc                _malloc_r
 .text.__cvt    0x10082298       0xc2 c:/program files (x86)/cypress/psoc creator/4.4/psoc creator/import/gnu/arm/5.4.1/bin/../lib/gcc/arm-none-eabi/5.4.1/../../../../arm-none-eabi/lib/armv7e-m/softfp\libg_nano.a(lib_a-nano-vfprintf_float.o)
                0x10082298                __cvt
 .text.__exponent
                0x1008235a       0x60 c:/program files (x86)/cypress/psoc creator/4.4/psoc creator/import/gnu/arm/5.4.1/bin/../lib/gcc/arm-none-eabi/5.4.1/../../../../arm-none-eabi/lib/armv7e-m/softfp\libg_nano.a(lib_a-nano-vfprintf_float.o)
                0x1008235a                __exponent
 *fill*         0x100823ba        0x2 
 .text._printf_float
                0x100823bc      0x488 c:/program files (x86)/cypress/psoc creator/4.4/psoc creator/import/gnu/arm/5.4.1/bin/../lib/gcc/arm-none-eabi/5.4.1/../../../../arm-none-eabi/lib/armv7e-m/softfp\libg_nano.a(lib_a-nano-vfprintf_float.o)
                0x100823bc                _printf_float
 .text._printf_common
                0x10082844       0xec c:/program files (x86)/cypress/psoc creator/4.4/psoc creator/import/gnu/arm/5.4.1/bin/../lib/gcc/arm-none-eabi/5.4.1/../../../../arm-none-eabi/lib/armv7e-m/softfp\libg_nano.a(lib_a-nano-vfprintf_i.o)
                0x10082844                _printf_common
 .text._printf_i
                0x10082930      0x24c c:/program files (x86)/cypress/psoc creator/4.4/psoc creator/import/gnu/arm/5.4.1/bin/../lib/gcc/arm-none-eabi/5.4.1/../../../../arm-none-eabi/lib/armv7e-m/softfp\libg_nano.a(lib_a-nano-vfprintf_i.o)
                0x10082930                _printf_i
 .text.printf   0x10082b7c       0x30 c:/program files (x86)/cypress/psoc creator/4.4/psoc creator/import/gnu/arm/5.4.1/bin/../lib/gcc/arm-none-eabi/5.4.1/../../../../arm-none-eabi/lib/armv7e-m/softfp\libg_nano.a(lib_a-printf.o)
                0x10082b7c                iprintf
                0x10082b7c                printf
 .text._sbrk_r  0x10082bac       0x20 c:/program files (x86)/cypress/psoc creator/4.4/psoc creator/import/gnu/arm/5.4.1/bin/../lib/gcc/arm-none-eabi/5.4.1/../../../../arm-none-eabi/lib/armv7e-m/softfp\libg_nano.a(lib_a-sbrkr.o)
                0x10082bac                _sbrk_r
 .text.setvbuf  0x10082bcc      0x154 c:/program files (x86)/cypress/psoc creator/4.4/psoc creator/import/gnu/arm/5.4.1/bin/../lib/gcc/arm-none-eabi/5.4.1/../../../../arm-none-eabi/lib/armv7e-m/softfp\libg_nano.a(lib_a-setvbuf.o)
                0x10082bcc                setvbuf
 .text          0x10082d20       0x10 c:/program files (x86)/cypress/psoc creator/4.4/psoc creator/import/gnu/arm/5.4.1/bin/../lib/gcc/arm-none-eabi/5.4.1/../../../../arm-none-eabi/lib/armv7e-m/softfp\libg_nano.a(lib_a-strlen.o)
                0x10082d20                strlen
 .text.quorem   0x10082d30      0x11e c:/program files (x86)/cypress/psoc creator/4.4/psoc creator/import/gnu/arm/5.4.1/bin/../lib/gcc/arm-none-eabi/5.4.1/../../../../arm-none-eabi/lib/armv7e-m/softfp\libg_nano.a(lib_a-dtoa.o)
 *fill*         0x10082e4e        0x2 
 .text._dtoa_r  0x10082e50      0xb38 c:/program files (x86)/cypress/psoc creator/4.4/psoc creator/import/gnu/arm/5.4.1/bin/../lib/gcc/arm-none-eabi/5.4.1/../../../../arm-none-eabi/lib/armv7e-m/softfp\libg_nano.a(lib_a-dtoa.o)
                0x10082e50                _dtoa_r
 .text.__sflush_r
                0x10083988      0x110 c:/program files (x86)/cypress/psoc creator/4.4/psoc creator/import/gnu/arm/5.4.1/bin/../lib/gcc/arm-none-eabi/5.4.1/../../../../arm-none-eabi/lib/armv7e-m/softfp\libg_nano.a(lib_a-fflush.o)
                0x10083988                __sflush_r
 .text._fflush_r
                0x10083a98       0x54 c:/program files (x86)/cypress/psoc creator/4.4/psoc creator/import/gnu/arm/5.4.1/bin/../lib/gcc/arm-none-eabi/5.4.1/../../../../arm-none-eabi/lib/armv7e-m/softfp\libg_nano.a(lib_a-fflush.o)
                0x10083a98                _fflush_r
 .text._cleanup_r
                0x10083aec        0xc c:/program files (x86)/cypress/psoc creator/4.4/psoc creator/import/gnu/arm/5.4.1/bin/../lib/gcc/arm-none-eabi/5.4.1/../../../../arm-none-eabi/lib/armv7e-m/softfp\libg_nano.a(lib_a-findfp.o)
                0x10083aec                _cleanup_r
 .text.std.isra.0
                0x10083af8       0x48 c:/program files (x86)/cypress/psoc creator/4.4/psoc creator/import/gnu/arm/5.4.1/bin/../lib/gcc/arm-none-eabi/5.4.1/../../../../arm-none-eabi/lib/armv7e-m/softfp\libg_nano.a(lib_a-findfp.o)
 .text.__sfmoreglue
                0x10083b40       0x2c c:/program files (x86)/cypress/psoc creator/4.4/psoc creator/import/gnu/arm/5.4.1/bin/../lib/gcc/arm-none-eabi/5.4.1/../../../../arm-none-eabi/lib/armv7e-m/softfp\libg_nano.a(lib_a-findfp.o)
                0x10083b40                __sfmoreglue
 .text.__sinit  0x10083b6c       0x60 c:/program files (x86)/cypress/psoc creator/4.4/psoc creator/import/gnu/arm/5.4.1/bin/../lib/gcc/arm-none-eabi/5.4.1/../../../../arm-none-eabi/lib/armv7e-m/softfp\libg_nano.a(lib_a-findfp.o)
                0x10083b6c                __sinit
 .text.__sfp    0x10083bcc       0x78 c:/program files (x86)/cypress/psoc creator/4.4/psoc creator/import/gnu/arm/5.4.1/bin/../lib/gcc/arm-none-eabi/5.4.1/../../../../arm-none-eabi/lib/armv7e-m/softfp\libg_nano.a(lib_a-findfp.o)
                0x10083bcc                __sfp
 .text._fwalk_reent
                0x10083c44       0x3c c:/program files (x86)/cypress/psoc creator/4.4/psoc creator/import/gnu/arm/5.4.1/bin/../lib/gcc/arm-none-eabi/5.4.1/../../../../arm-none-eabi/lib/armv7e-m/softfp\libg_nano.a(lib_a-fwalk.o)
                0x10083c44                _fwalk_reent
 .text._localeconv_r
                0x10083c80        0x8 c:/program files (x86)/cypress/psoc creator/4.4/psoc creator/import/gnu/arm/5.4.1/bin/../lib/gcc/arm-none-eabi/5.4.1/../../../../arm-none-eabi/lib/armv7e-m/softfp\libg_nano.a(lib_a-locale.o)
                0x10083c80                _localeconv_r
 .text.__swhatbuf_r
                0x10083c88       0x46 c:/program files (x86)/cypress/psoc creator/4.4/psoc creator/import/gnu/arm/5.4.1/bin/../lib/gcc/arm-none-eabi/5.4.1/../../../../arm-none-eabi/lib/armv7e-m/softfp\libg_nano.a(lib_a-makebuf.o)
                0x10083c88                __swhatbuf_r
 *fill*         0x10083cce        0x2 
 .text.__smakebuf_r
                0x10083cd0       0x78 c:/program files (x86)/cypress/psoc creator/4.4/psoc creator/import/gnu/arm/5.4.1/bin/../lib/gcc/arm-none-eabi/5.4.1/../../../../arm-none-eabi/lib/armv7e-m/softfp\libg_nano.a(lib_a-makebuf.o)
                0x10083cd0                __smakebuf_r
 *fill*         0x10083d48        0x8 
 .text          0x10083d50       0xa0 c:/program files (x86)/cypress/psoc creator/4.4/psoc creator/import/gnu/arm/5.4.1/bin/../lib/gcc/arm-none-eabi/5.4.1/../../../../arm-none-eabi/lib/armv7e-m/softfp\libg_nano.a(lib_a-memchr.o)
                0x10083d50                memchr
 .text.__malloc_lock
                0x10083df0        0x2 c:/program files (x86)/cypress/psoc creator/4.4/psoc creator/import/gnu/arm/5.4.1/bin/../lib/gcc/arm-none-eabi/5.4.1/../../../../arm-none-eabi/lib/armv7e-m/softfp\libg_nano.a(lib_a-mlock.o)
                0x10083df0                __malloc_lock
 .text.__malloc_unlock
                0x10083df2        0x2 c:/program files (x86)/cypress/psoc creator/4.4/psoc creator/import/gnu/arm/5.4.1/bin/../lib/gcc/arm-none-eabi/5.4.1/../../../../arm-none-eabi/lib/armv7e-m/softfp\libg_nano.a(lib_a-mlock.o)
                0x10083df2                __malloc_unlock
 .text._Balloc  0x10083df4       0x6a c:/program files (x86)/cypress/psoc creator/4.4/psoc creator/import/gnu/arm/5.4.1/bin/../lib/gcc/arm-none-eabi/5.4.1/../../../../arm-none-eabi/lib/armv7e-m/softfp\libg_nano.a(lib_a-mprec.o)
                0x10083df4                _Balloc
 .text._Bfree   0x10083e5e       0x2e c:/program files (x86)/cypress/psoc creator/4.4/psoc creator/import/gnu/arm/5.4.1/bin/../lib/gcc/arm-none-eabi/5.4.1/../../../../arm-none-eabi/lib/armv7e-m/softfp\libg_nano.a(lib_a-mprec.o)
                0x10083e5e                _Bfree
 .text.__multadd
                0x10083e8c       0x76 c:/program files (x86)/cypress/psoc creator/4.4/psoc creator/import/gnu/arm/5.4.1/bin/../lib/gcc/arm-none-eabi/5.4.1/../../../../arm-none-eabi/lib/armv7e-m/softfp\libg_nano.a(lib_a-mprec.o)
                0x10083e8c                __multadd
 .text.__hi0bits
                0x10083f02       0x40 c:/program files (x86)/cypress/psoc creator/4.4/psoc creator/import/gnu/arm/5.4.1/bin/../lib/gcc/arm-none-eabi/5.4.1/../../../../arm-none-eabi/lib/armv7e-m/softfp\libg_nano.a(lib_a-mprec.o)
                0x10083f02                __hi0bits
 .text.__lo0bits
                0x10083f42       0x5a c:/program files (x86)/cypress/psoc creator/4.4/psoc creator/import/gnu/arm/5.4.1/bin/../lib/gcc/arm-none-eabi/5.4.1/../../../../arm-none-eabi/lib/armv7e-m/softfp\libg_nano.a(lib_a-mprec.o)
                0x10083f42                __lo0bits
 .text.__i2b    0x10083f9c       0x12 c:/program files (x86)/cypress/psoc creator/4.4/psoc creator/import/gnu/arm/5.4.1/bin/../lib/gcc/arm-none-eabi/5.4.1/../../../../arm-none-eabi/lib/armv7e-m/softfp\libg_nano.a(lib_a-mprec.o)
                0x10083f9c                __i2b
 .text.__multiply
                0x10083fae      0x122 c:/program files (x86)/cypress/psoc creator/4.4/psoc creator/import/gnu/arm/5.4.1/bin/../lib/gcc/arm-none-eabi/5.4.1/../../../../arm-none-eabi/lib/armv7e-m/softfp\libg_nano.a(lib_a-mprec.o)
                0x10083fae                __multiply
 .text.__pow5mult
                0x100840d0       0x9c c:/program files (x86)/cypress/psoc creator/4.4/psoc creator/import/gnu/arm/5.4.1/bin/../lib/gcc/arm-none-eabi/5.4.1/../../../../arm-none-eabi/lib/armv7e-m/softfp\libg_nano.a(lib_a-mprec.o)
                0x100840d0                __pow5mult
 .text.__lshift
                0x1008416c       0xa2 c:/program files (x86)/cypress/psoc creator/4.4/psoc creator/import/gnu/arm/5.4.1/bin/../lib/gcc/arm-none-eabi/5.4.1/../../../../arm-none-eabi/lib/armv7e-m/softfp\libg_nano.a(lib_a-mprec.o)
                0x1008416c                __lshift
 .text.__mcmp   0x1008420e       0x38 c:/program files (x86)/cypress/psoc creator/4.4/psoc creator/import/gnu/arm/5.4.1/bin/../lib/gcc/arm-none-eabi/5.4.1/../../../../arm-none-eabi/lib/armv7e-m/softfp\libg_nano.a(lib_a-mprec.o)
                0x1008420e                __mcmp
 .text.__mdiff  0x10084246       0xbe c:/program files (x86)/cypress/psoc creator/4.4/psoc creator/import/gnu/arm/5.4.1/bin/../lib/gcc/arm-none-eabi/5.4.1/../../../../arm-none-eabi/lib/armv7e-m/softfp\libg_nano.a(lib_a-mprec.o)
                0x10084246                __mdiff
 .text.__d2b    0x10084304       0x9c c:/program files (x86)/cypress/psoc creator/4.4/psoc creator/import/gnu/arm/5.4.1/bin/../lib/gcc/arm-none-eabi/5.4.1/../../../../arm-none-eabi/lib/armv7e-m/softfp\libg_nano.a(lib_a-mprec.o)
                0x10084304                __d2b
 .text.__sfputc_r
                0x100843a0       0x30 c:/program files (x86)/cypress/psoc creator/4.4/psoc creator/import/gnu/arm/5.4.1/bin/../lib/gcc/arm-none-eabi/5.4.1/../../../../arm-none-eabi/lib/armv7e-m/softfp\libg_nano.a(lib_a-nano-vfprintf.o)
 .text.__sfputs_r
                0x100843d0       0x24 c:/program files (x86)/cypress/psoc creator/4.4/psoc creator/import/gnu/arm/5.4.1/bin/../lib/gcc/arm-none-eabi/5.4.1/../../../../arm-none-eabi/lib/armv7e-m/softfp\libg_nano.a(lib_a-nano-vfprintf.o)
                0x100843d0                __sfputs_r
 .text._vfprintf_r
                0x100843f4      0x238 c:/program files (x86)/cypress/psoc creator/4.4/psoc creator/import/gnu/arm/5.4.1/bin/../lib/gcc/arm-none-eabi/5.4.1/../../../../arm-none-eabi/lib/armv7e-m/softfp\libg_nano.a(lib_a-nano-vfprintf.o)
                0x100843f4                _vfprintf_r
                0x100843f4                _vfiprintf_r
 .text.__sread  0x1008462c       0x22 c:/program files (x86)/cypress/psoc creator/4.4/psoc creator/import/gnu/arm/5.4.1/bin/../lib/gcc/arm-none-eabi/5.4.1/../../../../arm-none-eabi/lib/armv7e-m/softfp\libg_nano.a(lib_a-stdio.o)
                0x1008462c                __sread
 .text.__swrite
                0x1008464e       0x38 c:/program files (x86)/cypress/psoc creator/4.4/psoc creator/import/gnu/arm/5.4.1/bin/../lib/gcc/arm-none-eabi/5.4.1/../../../../arm-none-eabi/lib/armv7e-m/softfp\libg_nano.a(lib_a-stdio.o)
                0x1008464e                __swrite
 .text.__sseek  0x10084686       0x24 c:/program files (x86)/cypress/psoc creator/4.4/psoc creator/import/gnu/arm/5.4.1/bin/../lib/gcc/arm-none-eabi/5.4.1/../../../../arm-none-eabi/lib/armv7e-m/softfp\libg_nano.a(lib_a-stdio.o)
                0x10084686                __sseek
 .text.__sclose
                0x100846aa        0x8 c:/program files (x86)/cypress/psoc creator/4.4/psoc creator/import/gnu/arm/5.4.1/bin/../lib/gcc/arm-none-eabi/5.4.1/../../../../arm-none-eabi/lib/armv7e-m/softfp\libg_nano.a(lib_a-stdio.o)
                0x100846aa                __sclose
 *fill*         0x100846b2        0x2 
 .text.__swbuf_r
                0x100846b4       0xa8 c:/program files (x86)/cypress/psoc creator/4.4/psoc creator/import/gnu/arm/5.4.1/bin/../lib/gcc/arm-none-eabi/5.4.1/../../../../arm-none-eabi/lib/armv7e-m/softfp\libg_nano.a(lib_a-wbuf.o)
                0x100846b4                __swbuf_r
 .text._write_r
                0x1008475c       0x24 c:/program files (x86)/cypress/psoc creator/4.4/psoc creator/import/gnu/arm/5.4.1/bin/../lib/gcc/arm-none-eabi/5.4.1/../../../../arm-none-eabi/lib/armv7e-m/softfp\libg_nano.a(lib_a-writer.o)
                0x1008475c                _write_r
 .text.__swsetup_r
                0x10084780       0xdc c:/program files (x86)/cypress/psoc creator/4.4/psoc creator/import/gnu/arm/5.4.1/bin/../lib/gcc/arm-none-eabi/5.4.1/../../../../arm-none-eabi/lib/armv7e-m/softfp\libg_nano.a(lib_a-wsetup.o)
                0x10084780                __swsetup_r
 .text._close_r
                0x1008485c       0x20 c:/program files (x86)/cypress/psoc creator/4.4/psoc creator/import/gnu/arm/5.4.1/bin/../lib/gcc/arm-none-eabi/5.4.1/../../../../arm-none-eabi/lib/armv7e-m/softfp\libg_nano.a(lib_a-closer.o)
                0x1008485c                _close_r
 .text._fstat_r
                0x1008487c       0x24 c:/program files (x86)/cypress/psoc creator/4.4/psoc creator/import/gnu/arm/5.4.1/bin/../lib/gcc/arm-none-eabi/5.4.1/../../../../arm-none-eabi/lib/armv7e-m/softfp\libg_nano.a(lib_a-fstatr.o)
                0x1008487c                _fstat_r
 .text._isatty_r
                0x100848a0       0x20 c:/program files (x86)/cypress/psoc creator/4.4/psoc creator/import/gnu/arm/5.4.1/bin/../lib/gcc/arm-none-eabi/5.4.1/../../../../arm-none-eabi/lib/armv7e-m/softfp\libg_nano.a(lib_a-isattyr.o)
                0x100848a0                _isatty_r
 .text._lseek_r
                0x100848c0       0x24 c:/program files (x86)/cypress/psoc creator/4.4/psoc creator/import/gnu/arm/5.4.1/bin/../lib/gcc/arm-none-eabi/5.4.1/../../../../arm-none-eabi/lib/armv7e-m/softfp\libg_nano.a(lib_a-lseekr.o)
                0x100848c0                _lseek_r
 .text._read_r  0x100848e4       0x24 c:/program files (x86)/cypress/psoc creator/4.4/psoc creator/import/gnu/arm/5.4.1/bin/../lib/gcc/arm-none-eabi/5.4.1/../../../../arm-none-eabi/lib/armv7e-m/softfp\libg_nano.a(lib_a-readr.o)
                0x100848e4                _read_r
 .text          0x10084908      0x110 c:/program files (x86)/cypress/psoc creator/4.4/psoc creator/import/gnu/arm/5.4.1/bin/../lib/gcc/arm-none-eabi/5.4.1/armv7e-m/softfp\libgcc.a(_arm_cmpdf2.o)
                0x10084908                __gtdf2
                0x10084908                __gedf2
                0x10084910                __ltdf2
                0x10084910                __ledf2
                0x10084918                __nedf2
                0x10084918                __eqdf2
                0x10084918                __cmpdf2
                0x10084994                __aeabi_cdrcmple
                0x100849a4                __aeabi_cdcmpeq
                0x100849a4                __aeabi_cdcmple
                0x100849b4                __aeabi_dcmpeq
                0x100849c8                __aeabi_dcmplt
                0x100849dc                __aeabi_dcmple
                0x100849f0                __aeabi_dcmpge
                0x10084a04                __aeabi_dcmpgt
 .text          0x10084a18       0x2c c:/program files (x86)/cypress/psoc creator/4.4/psoc creator/import/gnu/arm/5.4.1/bin/../lib/gcc/arm-none-eabi/5.4.1/armv7e-m/softfp\libgcc.a(_arm_unorddf2.o)
                0x10084a18                __unorddf2
                0x10084a18                __aeabi_dcmpun
 .text          0x10084a44       0x50 c:/program files (x86)/cypress/psoc creator/4.4/psoc creator/import/gnu/arm/5.4.1/bin/../lib/gcc/arm-none-eabi/5.4.1/armv7e-m/softfp\libgcc.a(_arm_fixdfsi.o)
                0x10084a44                __aeabi_d2iz
                0x10084a44                __fixdfsi
 .text._close   0x10084a94       0x10 c:/program files (x86)/cypress/psoc creator/4.4/psoc creator/import/gnu/arm/5.4.1/bin/../lib/gcc/arm-none-eabi/5.4.1/../../../../arm-none-eabi/lib/armv7e-m/softfp\libnosys.a(close.o)
                0x10084a94                _close
 .text._fstat   0x10084aa4       0x10 c:/program files (x86)/cypress/psoc creator/4.4/psoc creator/import/gnu/arm/5.4.1/bin/../lib/gcc/arm-none-eabi/5.4.1/../../../../arm-none-eabi/lib/armv7e-m/softfp\libnosys.a(fstat.o)
                0x10084aa4                _fstat
 .text._isatty  0x10084ab4       0x10 c:/program files (x86)/cypress/psoc creator/4.4/psoc creator/import/gnu/arm/5.4.1/bin/../lib/gcc/arm-none-eabi/5.4.1/../../../../arm-none-eabi/lib/armv7e-m/softfp\libnosys.a(isatty.o)
                0x10084ab4                _isatty
 .text._lseek   0x10084ac4       0x10 c:/program files (x86)/cypress/psoc creator/4.4/psoc creator/import/gnu/arm/5.4.1/bin/../lib/gcc/arm-none-eabi/5.4.1/../../../../arm-none-eabi/lib/armv7e-m/softfp\libnosys.a(lseek.o)
                0x10084ac4                _lseek
 .text._sbrk    0x10084ad4       0x1c c:/program files (x86)/cypress/psoc creator/4.4/psoc creator/import/gnu/arm/5.4.1/bin/../lib/gcc/arm-none-eabi/5.4.1/../../../../arm-none-eabi/lib/armv7e-m/softfp\libnosys.a(sbrk.o)
                0x10084ad4                _sbrk
 *(.init)
 .init          0x10084af0        0x4 c:/program files (x86)/cypress/psoc creator/4.4/psoc creator/import/gnu/arm/5.4.1/bin/../lib/gcc/arm-none-eabi/5.4.1/armv7e-m/softfp/crti.o
                0x10084af0                _init
 .init          0x10084af4        0x8 c:/program files (x86)/cypress/psoc creator/4.4/psoc creator/import/gnu/arm/5.4.1/bin/../lib/gcc/arm-none-eabi/5.4.1/armv7e-m/softfp/crtn.o
 *(.fini)
 .fini          0x10084afc        0x4 c:/program files (x86)/cypress/psoc creator/4.4/psoc creator/import/gnu/arm/5.4.1/bin/../lib/gcc/arm-none-eabi/5.4.1/armv7e-m/softfp/crti.o
                0x10084afc                _fini
 .fini          0x10084b00        0x8 c:/program files (x86)/cypress/psoc creator/4.4/psoc creator/import/gnu/arm/5.4.1/bin/../lib/gcc/arm-none-eabi/5.4.1/armv7e-m/softfp/crtn.o
 *crtbegin.o(.ctors)
 *crtbegin?.o(.ctors)
 *(EXCLUDE_FILE(*crtend.o *crtend?.o) .ctors)
 *(SORT(.ctors.*))
 *(.ctors)
 *crtbegin.o(.dtors)
 *crtbegin?.o(.dtors)
 *(EXCLUDE_FILE(*crtend.o *crtend?.o) .dtors)
 *(SORT(.dtors.*))
 *(.dtors)
 *(.rodata .rodata.* .constdata .constdata.* .conststring .conststring.*)
 .rodata.str1.1
                0x10084b08        0x6 .\CortexM4\ARM_GCC_541\Release\main_cm4.o
 *fill*         0x10084b0e        0x2 
 .rodata        0x10084b10       0x34 .\CortexM4\ARM_GCC_541\Release\system_psoc6_cm4.o
 .rodata        0x10084b44       0x10 .\CortexM4\ARM_GCC_541\Release\cyfitter_sysint_cfg.o
                0x10084b44                isrTimer_cfg
                0x10084b4c                UART_SCB_IRQ_cfg
 .rodata        0x10084b54       0x4c .\CortexM4\ARM_GCC_541\Release\Timer.o
                0x10084b54                Timer_config
 .rodata        0x10084ba0       0x40 .\CortexM4\ARM_GCC_541\Release\UART.o
                0x10084ba0                UART_config
 .rodata        0x10084be0      0x170 .\CortexM4\ARM_GCC_541\Release\cy_device.o
                0x10084be0                cy_deviceIpBlockCfgPSoC6_02
                0x10084c98                cy_deviceIpBlockCfgPSoC6_01
 .rodata        0x10084d50       0x44 .\CortexM4\ARM_GCC_541\Release\VDAC_1.o
                0x10084d50                VDAC_1_ctdacConfig
                0x10084d84                VDAC_1_refBufferConfig
 .rodata.str1.1
                0x10084d94        0x2 c:/program files (x86)/cypress/psoc creator/4.4/psoc creator/import/gnu/arm/5.4.1/bin/../lib/gcc/arm-none-eabi/5.4.1/../../../../arm-none-eabi/lib/armv7e-m/softfp\libg_nano.a(lib_a-impure.o)
 *fill*         0x10084d96        0x2 
 .rodata._global_impure_ptr
                0x10084d98        0x4 c:/program files (x86)/cypress/psoc creator/4.4/psoc creator/import/gnu/arm/5.4.1/bin/../lib/gcc/arm-none-eabi/5.4.1/../../../../arm-none-eabi/lib/armv7e-m/softfp\libg_nano.a(lib_a-impure.o)
                0x10084d98                _global_impure_ptr
 .rodata.str1.1
                0x10084d9c       0x12 c:/program files (x86)/cypress/psoc creator/4.4/psoc creator/import/gnu/arm/5.4.1/bin/../lib/gcc/arm-none-eabi/5.4.1/../../../../arm-none-eabi/lib/armv7e-m/softfp\libg_nano.a(lib_a-nano-vfprintf_float.o)
 .rodata.str1.1
                0x10084dae       0x22 c:/program files (x86)/cypress/psoc creator/4.4/psoc creator/import/gnu/arm/5.4.1/bin/../lib/gcc/arm-none-eabi/5.4.1/../../../../arm-none-eabi/lib/armv7e-m/softfp\libg_nano.a(lib_a-nano-vfprintf_i.o)
 .rodata.str1.1
                0x10084dd0        0xd c:/program files (x86)/cypress/psoc creator/4.4/psoc creator/import/gnu/arm/5.4.1/bin/../lib/gcc/arm-none-eabi/5.4.1/../../../../arm-none-eabi/lib/armv7e-m/softfp\libg_nano.a(lib_a-dtoa.o)
                                  0xf (size before relaxing)
 *fill*         0x10084ddd        0x3 
 .rodata.__sf_fake_stdin
                0x10084de0       0x20 c:/program files (x86)/cypress/psoc creator/4.4/psoc creator/import/gnu/arm/5.4.1/bin/../lib/gcc/arm-none-eabi/5.4.1/../../../../arm-none-eabi/lib/armv7e-m/softfp\libg_nano.a(lib_a-findfp.o)
                0x10084de0                __sf_fake_stdin
 .rodata.__sf_fake_stdout
                0x10084e00       0x20 c:/program files (x86)/cypress/psoc creator/4.4/psoc creator/import/gnu/arm/5.4.1/bin/../lib/gcc/arm-none-eabi/5.4.1/../../../../arm-none-eabi/lib/armv7e-m/softfp\libg_nano.a(lib_a-findfp.o)
                0x10084e00                __sf_fake_stdout
 .rodata.__sf_fake_stderr
                0x10084e20       0x20 c:/program files (x86)/cypress/psoc creator/4.4/psoc creator/import/gnu/arm/5.4.1/bin/../lib/gcc/arm-none-eabi/5.4.1/../../../../arm-none-eabi/lib/armv7e-m/softfp\libg_nano.a(lib_a-findfp.o)
                0x10084e20                __sf_fake_stderr
 .rodata.str1.1
                0x10084e40        0x8 c:/program files (x86)/cypress/psoc creator/4.4/psoc creator/import/gnu/arm/5.4.1/bin/../lib/gcc/arm-none-eabi/5.4.1/../../../../arm-none-eabi/lib/armv7e-m/softfp\libg_nano.a(lib_a-locale.o)
                                  0xb (size before relaxing)
 .rodata.p05.5410
                0x10084e48        0xc c:/program files (x86)/cypress/psoc creator/4.4/psoc creator/import/gnu/arm/5.4.1/bin/../lib/gcc/arm-none-eabi/5.4.1/../../../../arm-none-eabi/lib/armv7e-m/softfp\libg_nano.a(lib_a-mprec.o)
 *fill*         0x10084e54        0x4 
 .rodata.__mprec_bigtens
                0x10084e58       0x28 c:/program files (x86)/cypress/psoc creator/4.4/psoc creator/import/gnu/arm/5.4.1/bin/../lib/gcc/arm-none-eabi/5.4.1/../../../../arm-none-eabi/lib/armv7e-m/softfp\libg_nano.a(lib_a-mprec.o)
                0x10084e58                __mprec_bigtens
 .rodata.__mprec_tens
                0x10084e80       0xc8 c:/program files (x86)/cypress/psoc creator/4.4/psoc creator/import/gnu/arm/5.4.1/bin/../lib/gcc/arm-none-eabi/5.4.1/../../../../arm-none-eabi/lib/armv7e-m/softfp\libg_nano.a(lib_a-mprec.o)
                0x10084e80                __mprec_tens
 .rodata.str1.1
                0x10084f48       0x11 c:/program files (x86)/cypress/psoc creator/4.4/psoc creator/import/gnu/arm/5.4.1/bin/../lib/gcc/arm-none-eabi/5.4.1/../../../../arm-none-eabi/lib/armv7e-m/softfp\libg_nano.a(lib_a-nano-vfprintf.o)
 *(.eh_frame*)
 *fill*         0x10084f59        0x3 
 .eh_frame      0x10084f5c        0x0 c:/program files (x86)/cypress/psoc creator/4.4/psoc creator/import/gnu/arm/5.4.1/bin/../lib/gcc/arm-none-eabi/5.4.1/armv7e-m/softfp/crtbegin.o
 .eh_frame      0x10084f5c        0x4 c:/program files (x86)/cypress/psoc creator/4.4/psoc creator/import/gnu/arm/5.4.1/bin/../lib/gcc/arm-none-eabi/5.4.1/armv7e-m/softfp/crtend.o

.glue_7         0x10084f60        0x0
 .glue_7        0x10084f60        0x0 linker stubs

.glue_7t        0x10084f60        0x0
 .glue_7t       0x10084f60        0x0 linker stubs

.vfp11_veneer   0x10084f60        0x0
 .vfp11_veneer  0x10084f60        0x0 linker stubs

.v4_bx          0x10084f60        0x0
 .v4_bx         0x10084f60        0x0 linker stubs

.iplt           0x10084f60        0x0
 .iplt          0x10084f60        0x0 c:/program files (x86)/cypress/psoc creator/4.4/psoc creator/import/gnu/arm/5.4.1/bin/../lib/gcc/arm-none-eabi/5.4.1/armv7e-m/softfp/crtbegin.o

.ARM.extab
 *(.ARM.extab* .gnu.linkonce.armextab.*)
                0x10084f60                __exidx_start = .

.ARM.exidx
 *(.ARM.exidx* .gnu.linkonce.armexidx.*)
                0x10084f60                __exidx_end = .

.copy.table     0x10084f60       0x18
                0x10084f60                . = ALIGN (0x4)
                0x10084f60                __copy_table_start__ = .
                0x10084f60        0x4 LONG 0x10080000 __Vectors
                0x10084f64        0x4 LONG 0x8024000 __ram_vectors_start__
                0x10084f68        0x4 LONG 0x28c (__Vectors_End - __Vectors)
                0x10084f6c        0x4 LONG 0x10084f80 __etext
                0x10084f70        0x4 LONG 0x802428c __data_start__
                0x10084f74        0x4 LONG 0x59c (__data_end__ - __data_start__)
                0x10084f78                __copy_table_end__ = .

.zero.table     0x10084f78        0x8
                0x10084f78                . = ALIGN (0x4)
                0x10084f78                __zero_table_start__ = .
                0x10084f78        0x4 LONG 0x80248a0 __bss_start__
                0x10084f7c        0x4 LONG 0x294 (__bss_end__ - __bss_start__)
                0x10084f80                __zero_table_end__ = .
                0x10084f80                __etext = .

.ramVectors     0x08024000      0x28c
                0x08024000                __ram_vectors_start__ = .
 *(.ram_vectors)
 .ram_vectors   0x08024000      0x28c .\CortexM4\ARM_GCC_541\Release\startup_psoc6_01_cm4.o
                0x08024000                __ramVectors
                0x0802428c                __ram_vectors_end__ = .

.data           0x0802428c      0x59c load address 0x10084f80
                0x0802428c                __data_start__ = .
 *(vtable)
 *(.data*)
 .data          0x0802428c       0x20 .\CortexM4\ARM_GCC_541\Release\system_psoc6_cm4.o
                0x0802428c                cy_BleEcoClockFreqHz
                0x08024290                cy_Hfclk0FreqHz
                0x08024294                cy_PeriClkFreqHz
                0x08024298                SystemCoreClock
                0x0802429c                cy_delayFreqHz
                0x080242a0                cy_delayFreqMhz
                0x080242a4                cy_delayFreqKhz
                0x080242a8                cy_delay32kMs
 .data.impure_data
                0x080242ac       0x60 c:/program files (x86)/cypress/psoc creator/4.4/psoc creator/import/gnu/arm/5.4.1/bin/../lib/gcc/arm-none-eabi/5.4.1/../../../../arm-none-eabi/lib/armv7e-m/softfp\libg_nano.a(lib_a-impure.o)
 .data._impure_ptr
                0x0802430c        0x4 c:/program files (x86)/cypress/psoc creator/4.4/psoc creator/import/gnu/arm/5.4.1/bin/../lib/gcc/arm-none-eabi/5.4.1/../../../../arm-none-eabi/lib/armv7e-m/softfp\libg_nano.a(lib_a-impure.o)
                0x0802430c                _impure_ptr
 .data.lconv    0x08024310       0x38 c:/program files (x86)/cypress/psoc creator/4.4/psoc creator/import/gnu/arm/5.4.1/bin/../lib/gcc/arm-none-eabi/5.4.1/../../../../arm-none-eabi/lib/armv7e-m/softfp\libg_nano.a(lib_a-locale.o)
                0x08024348                . = ALIGN (0x4)
                0x08024348                PROVIDE (__preinit_array_start, .)
 *(.preinit_array)
                0x08024348                PROVIDE (__preinit_array_end, .)
                0x08024348                . = ALIGN (0x4)
                0x08024348                PROVIDE (__init_array_start, .)
 *(SORT(.init_array.*))
 *(.init_array)
 .init_array    0x08024348        0x4 c:/program files (x86)/cypress/psoc creator/4.4/psoc creator/import/gnu/arm/5.4.1/bin/../lib/gcc/arm-none-eabi/5.4.1/armv7e-m/softfp/crtbegin.o
                0x0802434c                PROVIDE (__init_array_end, .)
                0x0802434c                . = ALIGN (0x4)
                [!provide]                PROVIDE (__fini_array_start, .)
 *(SORT(.fini_array.*))
 *(.fini_array)
 .fini_array    0x0802434c        0x4 c:/program files (x86)/cypress/psoc creator/4.4/psoc creator/import/gnu/arm/5.4.1/bin/../lib/gcc/arm-none-eabi/5.4.1/armv7e-m/softfp/crtbegin.o
                [!provide]                PROVIDE (__fini_array_end, .)
 *(.jcr*)
 .jcr           0x08024350        0x0 c:/program files (x86)/cypress/psoc creator/4.4/psoc creator/import/gnu/arm/5.4.1/bin/../lib/gcc/arm-none-eabi/5.4.1/armv7e-m/softfp/crtbegin.o
 .jcr           0x08024350        0x4 c:/program files (x86)/cypress/psoc creator/4.4/psoc creator/import/gnu/arm/5.4.1/bin/../lib/gcc/arm-none-eabi/5.4.1/armv7e-m/softfp/crtend.o
                0x08024354                . = ALIGN (0x4)
 *(.cy_ramfunc*)
 .cy_ramfunc    0x08024354      0x240 .\CortexM4\ARM_GCC_541\Release\cy_flash.o
                0x080243de                Cy_Flash_ResumeIrqHandler
 .cy_ramfunc    0x08024594      0x1d4 .\CortexM4\ARM_GCC_541\Release\cy_syspm.o
 .cy_ramfunc.__stub
                0x08024768       0xc0 linker stubs
                0x08024828                . = ALIGN (0x4)
                0x08024828                __data_end__ = .

.igot.plt       0x08024828        0x0 load address 0x1008551c
 .igot.plt      0x08024828        0x0 c:/program files (x86)/cypress/psoc creator/4.4/psoc creator/import/gnu/arm/5.4.1/bin/../lib/gcc/arm-none-eabi/5.4.1/armv7e-m/softfp/crtbegin.o

.noinit         0x08024828       0x78 load address 0x10085520
 *(.noinit)
 .noinit        0x08024828       0x78 .\CortexM4\ARM_GCC_541\Release\cy_syslib.o
                0x08024828                cy_faultFrame

.bss            0x080248a0      0x294 load address 0x10085598
                0x080248a0                . = ALIGN (0x4)
                0x080248a0                __bss_start__ = .
 *(.bss*)
 .bss           0x080248a0       0x1c c:/program files (x86)/cypress/psoc creator/4.4/psoc creator/import/gnu/arm/5.4.1/bin/../lib/gcc/arm-none-eabi/5.4.1/armv7e-m/softfp/crtbegin.o
 .bss           0x080248bc       0x10 .\CortexM4\ARM_GCC_541\Release\main_cm4.o
                0x080248bc                compare_value
                0x080248c0                current_phase
                0x080248c4                dac_write
                0x080248c8                curr_num_pulses
 .bss           0x080248cc      0x180 .\CortexM4\ARM_GCC_541\Release\system_psoc6_cm4.o
 .bss           0x08024a4c        0x1 .\CortexM4\ARM_GCC_541\Release\UART.o
                0x08024a4c                UART_initVar
 *fill*         0x08024a4d        0x3 
 .bss           0x08024a50       0x18 .\CortexM4\ARM_GCC_541\Release\cy_flash.o
 .bss           0x08024a68        0xc .\CortexM4\ARM_GCC_541\Release\cy_ipc_sema.o
 .bss           0x08024a74        0x4 .\CortexM4\ARM_GCC_541\Release\cy_ipc_pipe.o
 .bss           0x08024a78       0x3c .\CortexM4\ARM_GCC_541\Release\cy_syspm.o
 .bss           0x08024ab4        0x8 .\CortexM4\ARM_GCC_541\Release\VDAC_1.o
                0x08024ab4                VDAC_1_initVar
 .bss.__malloc_sbrk_start
                0x08024abc        0x4 c:/program files (x86)/cypress/psoc creator/4.4/psoc creator/import/gnu/arm/5.4.1/bin/../lib/gcc/arm-none-eabi/5.4.1/../../../../arm-none-eabi/lib/armv7e-m/softfp\libg_nano.a(lib_a-nano-mallocr.o)
                0x08024abc                __malloc_sbrk_start
 .bss.__malloc_free_list
                0x08024ac0        0x4 c:/program files (x86)/cypress/psoc creator/4.4/psoc creator/import/gnu/arm/5.4.1/bin/../lib/gcc/arm-none-eabi/5.4.1/../../../../arm-none-eabi/lib/armv7e-m/softfp\libg_nano.a(lib_a-nano-mallocr.o)
                0x08024ac0                __malloc_free_list
 .bss.heap_end.4169
                0x08024ac4        0x4 c:/program files (x86)/cypress/psoc creator/4.4/psoc creator/import/gnu/arm/5.4.1/bin/../lib/gcc/arm-none-eabi/5.4.1/../../../../arm-none-eabi/lib/armv7e-m/softfp\libnosys.a(sbrk.o)
 *(COMMON)
 COMMON         0x08024ac8       0x2d .\CortexM4\ARM_GCC_541\Release\main_cm4.o
                0x08024ac8                dac_phase_two
                0x08024acc                COMMAND_QUEUE
                0x08024ad4                dac_gap
                0x08024ad8                pulse_num_in_one_burst
                0x08024adc                ramp_up
                0x08024ade                stim_amp
                0x08024ae0                burst_num
                0x08024ae4                stim_status
                0x08024ae8                short_electrode
                0x08024ae9                stim_type
                0x08024aea                dac_phase_one
                0x08024aec                inter_burst_delay
                0x08024af0                num_pulses
                0x08024af4                anodic_cathodic
 *fill*         0x08024af5        0x3 
 COMMON         0x08024af8       0x34 .\CortexM4\ARM_GCC_541\Release\UART.o
                0x08024af8                UART_context
 COMMON         0x08024b2c        0x4 .\CortexM4\ARM_GCC_541\Release\cy_device.o
                0x08024b2c                cy_device
 COMMON         0x08024b30        0x4 c:/program files (x86)/cypress/psoc creator/4.4/psoc creator/import/gnu/arm/5.4.1/bin/../lib/gcc/arm-none-eabi/5.4.1/../../../../arm-none-eabi/lib/armv7e-m/softfp\libg_nano.a(lib_a-reent.o)
                0x08024b30                errno
                0x08024b34                . = ALIGN (0x4)
                0x08024b34                __bss_end__ = .

.heap           0x08024b38      0x400
                0x08024b38                __HeapBase = .
                0x08024b38                __end__ = .
                0x08024b38                end = __end__
 *(.heap*)
 .heap          0x08024b38      0x400 .\CortexM4\ARM_GCC_541\Release\startup_psoc6_01_cm4.o
                0x08024f38                __HeapLimit = .

.stack_dummy    0x08024b38     0x1000
 *(.stack*)
 .stack         0x08024b38     0x1000 .\CortexM4\ARM_GCC_541\Release\startup_psoc6_01_cm4.o
                0x08047800                __StackTop = (ORIGIN (ram) + LENGTH (ram))
                0x08046800                __StackLimit = (__StackTop - SIZEOF (.stack_dummy))
                0x08047800                PROVIDE (__stack, __StackTop)
                0x00000001                ASSERT ((__StackLimit >= __HeapLimit), region RAM overflowed with stack)

.cy_app_signature
 *(.cy_app_signature)

.cy_em_eeprom
 *(.cy_em_eeprom)

.cy_sflash_user_data
 *(.cy_sflash_user_data)

.cy_sflash_nar
 *(.cy_sflash_nar)

.cy_sflash_public_key
 *(.cy_sflash_public_key)

.cy_toc_part2
 *(.cy_toc_part2)

.cy_rtoc_part2
 *(.cy_rtoc_part2)

.cy_xip
 *(.cy_xip)

.cy_efuse
 *(.cy_efuse)

.cymeta         0x90500000        0xc
 *(.cymeta)
 .cymeta        0x90500000        0xc .\CortexM4\ARM_GCC_541\Release\cymetadata.o
                0x90500000                cy_metadata
                0x10000000                __cy_memory_0_start = 0x10000000
                0x00100000                __cy_memory_0_length = 0x100000
                0x00000200                __cy_memory_0_row_size = 0x200
                0x14000000                __cy_memory_1_start = 0x14000000
                0x00008000                __cy_memory_1_length = 0x8000
                0x00000200                __cy_memory_1_row_size = 0x200
                0x16000000                __cy_memory_2_start = 0x16000000
                0x00008000                __cy_memory_2_length = 0x8000
                0x00000200                __cy_memory_2_row_size = 0x200
                0x18000000                __cy_memory_3_start = 0x18000000
                0x08000000                __cy_memory_3_length = 0x8000000
                0x00000200                __cy_memory_3_row_size = 0x200
                0x90700000                __cy_memory_4_start = 0x90700000
                0x00100000                __cy_memory_4_length = 0x100000
                0x00000001                __cy_memory_4_row_size = 0x1
OUTPUT(C:\Users\cmila\uni\projects\Neural-Stimulator-Firmware\new\PSOC6\TIMER\DAC_BLE.cydsn\CortexM4\ARM_GCC_541\Release\DAC_BLE_link.elf elf32-littlearm)

.rel.dyn        0x08024b34        0x0 load address 0x98560d04
 .rel.iplt      0x08024b34        0x0 c:/program files (x86)/cypress/psoc creator/4.4/psoc creator/import/gnu/arm/5.4.1/bin/../lib/gcc/arm-none-eabi/5.4.1/armv7e-m/softfp/crtbegin.o

.ARM.attributes
                0x00000000       0x2e
 .ARM.attributes
                0x00000000       0x22 c:/program files (x86)/cypress/psoc creator/4.4/psoc creator/import/gnu/arm/5.4.1/bin/../lib/gcc/arm-none-eabi/5.4.1/armv7e-m/softfp/crti.o
 .ARM.attributes
                0x00000022       0x32 c:/program files (x86)/cypress/psoc creator/4.4/psoc creator/import/gnu/arm/5.4.1/bin/../lib/gcc/arm-none-eabi/5.4.1/armv7e-m/softfp/crtbegin.o
 .ARM.attributes
                0x00000054       0x1f .\CortexM4\ARM_GCC_541\Release\startup_psoc6_01_cm4.o
 .ARM.attributes
                0x00000073       0x37 .\CortexM4\ARM_GCC_541\Release\main_cm4.o
 .ARM.attributes
                0x000000aa       0x37 .\CortexM4\ARM_GCC_541\Release\system_psoc6_cm4.o
 .ARM.attributes
                0x000000e1       0x37 .\CortexM4\ARM_GCC_541\Release\command_parse.o
 .ARM.attributes
                0x00000118       0x37 .\CortexM4\ARM_GCC_541\Release\command_queue.o
 .ARM.attributes
                0x0000014f       0x37 .\CortexM4\ARM_GCC_541\Release\stdio_user.o
 .ARM.attributes
                0x00000186       0x37 .\CortexM4\ARM_GCC_541\Release\cyfitter_sysint_cfg.o
 .ARM.attributes
                0x000001bd       0x37 .\CortexM4\ARM_GCC_541\Release\cymetadata.o
 .ARM.attributes
                0x000001f4       0x37 .\CortexM4\ARM_GCC_541\Release\Timer.o
 .ARM.attributes
                0x0000022b       0x37 .\CortexM4\ARM_GCC_541\Release\UART.o
 .ARM.attributes
                0x00000262       0x37 .\CortexM4\ARM_GCC_541\Release\cy_flash.o
 .ARM.attributes
                0x00000299       0x37 .\CortexM4\ARM_GCC_541\Release\cy_ipc_drv.o
 .ARM.attributes
                0x000002d0       0x37 .\CortexM4\ARM_GCC_541\Release\cy_ipc_sema.o
 .ARM.attributes
                0x00000307       0x37 .\CortexM4\ARM_GCC_541\Release\cy_ipc_pipe.o
 .ARM.attributes
                0x0000033e       0x37 .\CortexM4\ARM_GCC_541\Release\cy_scb_common.o
 .ARM.attributes
                0x00000375       0x37 .\CortexM4\ARM_GCC_541\Release\cy_scb_uart.o
 .ARM.attributes
                0x000003ac       0x37 .\CortexM4\ARM_GCC_541\Release\cy_sysint.o
 .ARM.attributes
                0x000003e3       0x37 .\CortexM4\ARM_GCC_541\Release\cy_syslib.o
 .ARM.attributes
                0x0000041a       0x25 .\CortexM4\ARM_GCC_541\Release\cy_syslib_gcc.o
 .ARM.attributes
                0x0000043f       0x37 .\CortexM4\ARM_GCC_541\Release\cy_syspm.o
 .ARM.attributes
                0x00000476       0x37 .\CortexM4\ARM_GCC_541\Release\cy_tcpwm_counter.o
 .ARM.attributes
                0x000004ad       0x37 .\CortexM4\ARM_GCC_541\Release\cy_device.o
 .ARM.attributes
                0x000004e4       0x37 .\CortexM4\ARM_GCC_541\Release\cy_ctb.o
 .ARM.attributes
                0x0000051b       0x37 .\CortexM4\ARM_GCC_541\Release\cy_ctdac.o
 .ARM.attributes
                0x00000552       0x37 .\CortexM4\ARM_GCC_541\Release\retarget.o
 .ARM.attributes
                0x00000589       0x37 .\CortexM4\ARM_GCC_541\Release\VDAC_1.o
 .ARM.attributes
                0x000005c0       0x22 c:/program files (x86)/cypress/psoc creator/4.4/psoc creator/import/gnu/arm/5.4.1/bin/../lib/gcc/arm-none-eabi/5.4.1/armv7e-m/softfp\libgcc.a(_arm_addsubdf3.o)
 .ARM.attributes
                0x000005e2       0x22 c:/program files (x86)/cypress/psoc creator/4.4/psoc creator/import/gnu/arm/5.4.1/bin/../lib/gcc/arm-none-eabi/5.4.1/armv7e-m/softfp\libgcc.a(_arm_muldivdf3.o)
 .ARM.attributes
                0x00000604       0x32 c:/program files (x86)/cypress/psoc creator/4.4/psoc creator/import/gnu/arm/5.4.1/bin/../lib/gcc/arm-none-eabi/5.4.1/../../../../arm-none-eabi/lib/armv7e-m/softfp\libg_nano.a(lib_a-calloc.o)
 .ARM.attributes
                0x00000636       0x32 c:/program files (x86)/cypress/psoc creator/4.4/psoc creator/import/gnu/arm/5.4.1/bin/../lib/gcc/arm-none-eabi/5.4.1/../../../../arm-none-eabi/lib/armv7e-m/softfp\libg_nano.a(lib_a-impure.o)
 .ARM.attributes
                0x00000668       0x32 c:/program files (x86)/cypress/psoc creator/4.4/psoc creator/import/gnu/arm/5.4.1/bin/../lib/gcc/arm-none-eabi/5.4.1/../../../../arm-none-eabi/lib/armv7e-m/softfp\libg_nano.a(lib_a-malloc.o)
 .ARM.attributes
                0x0000069a       0x32 c:/program files (x86)/cypress/psoc creator/4.4/psoc creator/import/gnu/arm/5.4.1/bin/../lib/gcc/arm-none-eabi/5.4.1/../../../../arm-none-eabi/lib/armv7e-m/softfp\libg_nano.a(lib_a-memcpy-stub.o)
 .ARM.attributes
                0x000006cc       0x32 c:/program files (x86)/cypress/psoc creator/4.4/psoc creator/import/gnu/arm/5.4.1/bin/../lib/gcc/arm-none-eabi/5.4.1/../../../../arm-none-eabi/lib/armv7e-m/softfp\libg_nano.a(lib_a-memset.o)
 .ARM.attributes
                0x000006fe       0x32 c:/program files (x86)/cypress/psoc creator/4.4/psoc creator/import/gnu/arm/5.4.1/bin/../lib/gcc/arm-none-eabi/5.4.1/../../../../arm-none-eabi/lib/armv7e-m/softfp\libg_nano.a(lib_a-nano-callocr.o)
 .ARM.attributes
                0x00000730       0x32 c:/program files (x86)/cypress/psoc creator/4.4/psoc creator/import/gnu/arm/5.4.1/bin/../lib/gcc/arm-none-eabi/5.4.1/../../../../arm-none-eabi/lib/armv7e-m/softfp\libg_nano.a(lib_a-nano-freer.o)
 .ARM.attributes
                0x00000762       0x32 c:/program files (x86)/cypress/psoc creator/4.4/psoc creator/import/gnu/arm/5.4.1/bin/../lib/gcc/arm-none-eabi/5.4.1/../../../../arm-none-eabi/lib/armv7e-m/softfp\libg_nano.a(lib_a-nano-mallocr.o)
 .ARM.attributes
                0x00000794       0x32 c:/program files (x86)/cypress/psoc creator/4.4/psoc creator/import/gnu/arm/5.4.1/bin/../lib/gcc/arm-none-eabi/5.4.1/../../../../arm-none-eabi/lib/armv7e-m/softfp\libg_nano.a(lib_a-nano-vfprintf_float.o)
 .ARM.attributes
                0x000007c6       0x32 c:/program files (x86)/cypress/psoc creator/4.4/psoc creator/import/gnu/arm/5.4.1/bin/../lib/gcc/arm-none-eabi/5.4.1/../../../../arm-none-eabi/lib/armv7e-m/softfp\libg_nano.a(lib_a-nano-vfprintf_i.o)
 .ARM.attributes
                0x000007f8       0x32 c:/program files (x86)/cypress/psoc creator/4.4/psoc creator/import/gnu/arm/5.4.1/bin/../lib/gcc/arm-none-eabi/5.4.1/../../../../arm-none-eabi/lib/armv7e-m/softfp\libg_nano.a(lib_a-printf.o)
 .ARM.attributes
                0x0000082a       0x32 c:/program files (x86)/cypress/psoc creator/4.4/psoc creator/import/gnu/arm/5.4.1/bin/../lib/gcc/arm-none-eabi/5.4.1/../../../../arm-none-eabi/lib/armv7e-m/softfp\libg_nano.a(lib_a-sbrkr.o)
 .ARM.attributes
                0x0000085c       0x32 c:/program files (x86)/cypress/psoc creator/4.4/psoc creator/import/gnu/arm/5.4.1/bin/../lib/gcc/arm-none-eabi/5.4.1/../../../../arm-none-eabi/lib/armv7e-m/softfp\libg_nano.a(lib_a-setvbuf.o)
 .ARM.attributes
                0x0000088e       0x1b c:/program files (x86)/cypress/psoc creator/4.4/psoc creator/import/gnu/arm/5.4.1/bin/../lib/gcc/arm-none-eabi/5.4.1/../../../../arm-none-eabi/lib/armv7e-m/softfp\libg_nano.a(lib_a-strlen.o)
 .ARM.attributes
                0x000008a9       0x32 c:/program files (x86)/cypress/psoc creator/4.4/psoc creator/import/gnu/arm/5.4.1/bin/../lib/gcc/arm-none-eabi/5.4.1/../../../../arm-none-eabi/lib/armv7e-m/softfp\libg_nano.a(lib_a-dtoa.o)
 .ARM.attributes
                0x000008db       0x32 c:/program files (x86)/cypress/psoc creator/4.4/psoc creator/import/gnu/arm/5.4.1/bin/../lib/gcc/arm-none-eabi/5.4.1/../../../../arm-none-eabi/lib/armv7e-m/softfp\libg_nano.a(lib_a-fflush.o)
 .ARM.attributes
                0x0000090d       0x32 c:/program files (x86)/cypress/psoc creator/4.4/psoc creator/import/gnu/arm/5.4.1/bin/../lib/gcc/arm-none-eabi/5.4.1/../../../../arm-none-eabi/lib/armv7e-m/softfp\libg_nano.a(lib_a-findfp.o)
 .ARM.attributes
                0x0000093f       0x32 c:/program files (x86)/cypress/psoc creator/4.4/psoc creator/import/gnu/arm/5.4.1/bin/../lib/gcc/arm-none-eabi/5.4.1/../../../../arm-none-eabi/lib/armv7e-m/softfp\libg_nano.a(lib_a-fwalk.o)
 .ARM.attributes
                0x00000971       0x32 c:/program files (x86)/cypress/psoc creator/4.4/psoc creator/import/gnu/arm/5.4.1/bin/../lib/gcc/arm-none-eabi/5.4.1/../../../../arm-none-eabi/lib/armv7e-m/softfp\libg_nano.a(lib_a-locale.o)
 .ARM.attributes
                0x000009a3       0x32 c:/program files (x86)/cypress/psoc creator/4.4/psoc creator/import/gnu/arm/5.4.1/bin/../lib/gcc/arm-none-eabi/5.4.1/../../../../arm-none-eabi/lib/armv7e-m/softfp\libg_nano.a(lib_a-makebuf.o)
 .ARM.attributes
                0x000009d5       0x20 c:/program files (x86)/cypress/psoc creator/4.4/psoc creator/import/gnu/arm/5.4.1/bin/../lib/gcc/arm-none-eabi/5.4.1/../../../../arm-none-eabi/lib/armv7e-m/softfp\libg_nano.a(lib_a-memchr.o)
 .ARM.attributes
                0x000009f5       0x32 c:/program files (x86)/cypress/psoc creator/4.4/psoc creator/import/gnu/arm/5.4.1/bin/../lib/gcc/arm-none-eabi/5.4.1/../../../../arm-none-eabi/lib/armv7e-m/softfp\libg_nano.a(lib_a-mlock.o)
 .ARM.attributes
                0x00000a27       0x32 c:/program files (x86)/cypress/psoc creator/4.4/psoc creator/import/gnu/arm/5.4.1/bin/../lib/gcc/arm-none-eabi/5.4.1/../../../../arm-none-eabi/lib/armv7e-m/softfp\libg_nano.a(lib_a-mprec.o)
 .ARM.attributes
                0x00000a59       0x32 c:/program files (x86)/cypress/psoc creator/4.4/psoc creator/import/gnu/arm/5.4.1/bin/../lib/gcc/arm-none-eabi/5.4.1/../../../../arm-none-eabi/lib/armv7e-m/softfp\libg_nano.a(lib_a-nano-vfprintf.o)
 .ARM.attributes
                0x00000a8b       0x32 c:/program files (x86)/cypress/psoc creator/4.4/psoc creator/import/gnu/arm/5.4.1/bin/../lib/gcc/arm-none-eabi/5.4.1/../../../../arm-none-eabi/lib/armv7e-m/softfp\libg_nano.a(lib_a-reent.o)
 .ARM.attributes
                0x00000abd       0x32 c:/program files (x86)/cypress/psoc creator/4.4/psoc creator/import/gnu/arm/5.4.1/bin/../lib/gcc/arm-none-eabi/5.4.1/../../../../arm-none-eabi/lib/armv7e-m/softfp\libg_nano.a(lib_a-stdio.o)
 .ARM.attributes
                0x00000aef       0x32 c:/program files (x86)/cypress/psoc creator/4.4/psoc creator/import/gnu/arm/5.4.1/bin/../lib/gcc/arm-none-eabi/5.4.1/../../../../arm-none-eabi/lib/armv7e-m/softfp\libg_nano.a(lib_a-wbuf.o)
 .ARM.attributes
                0x00000b21       0x32 c:/program files (x86)/cypress/psoc creator/4.4/psoc creator/import/gnu/arm/5.4.1/bin/../lib/gcc/arm-none-eabi/5.4.1/../../../../arm-none-eabi/lib/armv7e-m/softfp\libg_nano.a(lib_a-writer.o)
 .ARM.attributes
                0x00000b53       0x32 c:/program files (x86)/cypress/psoc creator/4.4/psoc creator/import/gnu/arm/5.4.1/bin/../lib/gcc/arm-none-eabi/5.4.1/../../../../arm-none-eabi/lib/armv7e-m/softfp\libg_nano.a(lib_a-wsetup.o)
 .ARM.attributes
                0x00000b85       0x32 c:/program files (x86)/cypress/psoc creator/4.4/psoc creator/import/gnu/arm/5.4.1/bin/../lib/gcc/arm-none-eabi/5.4.1/../../../../arm-none-eabi/lib/armv7e-m/softfp\libg_nano.a(lib_a-closer.o)
 .ARM.attributes
                0x00000bb7       0x32 c:/program files (x86)/cypress/psoc creator/4.4/psoc creator/import/gnu/arm/5.4.1/bin/../lib/gcc/arm-none-eabi/5.4.1/../../../../arm-none-eabi/lib/armv7e-m/softfp\libg_nano.a(lib_a-fstatr.o)
 .ARM.attributes
                0x00000be9       0x32 c:/program files (x86)/cypress/psoc creator/4.4/psoc creator/import/gnu/arm/5.4.1/bin/../lib/gcc/arm-none-eabi/5.4.1/../../../../arm-none-eabi/lib/armv7e-m/softfp\libg_nano.a(lib_a-isattyr.o)
 .ARM.attributes
                0x00000c1b       0x32 c:/program files (x86)/cypress/psoc creator/4.4/psoc creator/import/gnu/arm/5.4.1/bin/../lib/gcc/arm-none-eabi/5.4.1/../../../../arm-none-eabi/lib/armv7e-m/softfp\libg_nano.a(lib_a-lseekr.o)
 .ARM.attributes
                0x00000c4d       0x32 c:/program files (x86)/cypress/psoc creator/4.4/psoc creator/import/gnu/arm/5.4.1/bin/../lib/gcc/arm-none-eabi/5.4.1/../../../../arm-none-eabi/lib/armv7e-m/softfp\libg_nano.a(lib_a-readr.o)
 .ARM.attributes
                0x00000c7f       0x22 c:/program files (x86)/cypress/psoc creator/4.4/psoc creator/import/gnu/arm/5.4.1/bin/../lib/gcc/arm-none-eabi/5.4.1/armv7e-m/softfp\libgcc.a(_arm_cmpdf2.o)
 .ARM.attributes
                0x00000ca1       0x22 c:/program files (x86)/cypress/psoc creator/4.4/psoc creator/import/gnu/arm/5.4.1/bin/../lib/gcc/arm-none-eabi/5.4.1/armv7e-m/softfp\libgcc.a(_arm_unorddf2.o)
 .ARM.attributes
                0x00000cc3       0x22 c:/program files (x86)/cypress/psoc creator/4.4/psoc creator/import/gnu/arm/5.4.1/bin/../lib/gcc/arm-none-eabi/5.4.1/armv7e-m/softfp\libgcc.a(_arm_fixdfsi.o)
 .ARM.attributes
                0x00000ce5       0x32 c:/program files (x86)/cypress/psoc creator/4.4/psoc creator/import/gnu/arm/5.4.1/bin/../lib/gcc/arm-none-eabi/5.4.1/armv7e-m/softfp/crtend.o
 .ARM.attributes
                0x00000d17       0x22 c:/program files (x86)/cypress/psoc creator/4.4/psoc creator/import/gnu/arm/5.4.1/bin/../lib/gcc/arm-none-eabi/5.4.1/armv7e-m/softfp/crtn.o
 .ARM.attributes
                0x00000d39       0x32 c:/program files (x86)/cypress/psoc creator/4.4/psoc creator/import/gnu/arm/5.4.1/bin/../lib/gcc/arm-none-eabi/5.4.1/../../../../arm-none-eabi/lib/armv7e-m/softfp\libnosys.a(close.o)
 .ARM.attributes
                0x00000d6b       0x32 c:/program files (x86)/cypress/psoc creator/4.4/psoc creator/import/gnu/arm/5.4.1/bin/../lib/gcc/arm-none-eabi/5.4.1/../../../../arm-none-eabi/lib/armv7e-m/softfp\libnosys.a(fstat.o)
 .ARM.attributes
                0x00000d9d       0x32 c:/program files (x86)/cypress/psoc creator/4.4/psoc creator/import/gnu/arm/5.4.1/bin/../lib/gcc/arm-none-eabi/5.4.1/../../../../arm-none-eabi/lib/armv7e-m/softfp\libnosys.a(isatty.o)
 .ARM.attributes
                0x00000dcf       0x32 c:/program files (x86)/cypress/psoc creator/4.4/psoc creator/import/gnu/arm/5.4.1/bin/../lib/gcc/arm-none-eabi/5.4.1/../../../../arm-none-eabi/lib/armv7e-m/softfp\libnosys.a(lseek.o)
 .ARM.attributes
                0x00000e01       0x32 c:/program files (x86)/cypress/psoc creator/4.4/psoc creator/import/gnu/arm/5.4.1/bin/../lib/gcc/arm-none-eabi/5.4.1/../../../../arm-none-eabi/lib/armv7e-m/softfp\libnosys.a(sbrk.o)

.comment        0x00000000       0x6e
 .comment       0x00000000       0x6e .\CortexM4\ARM_GCC_541\Release\main_cm4.o
                                 0x6f (size before relaxing)
 .comment       0x0000006e       0x6f .\CortexM4\ARM_GCC_541\Release\system_psoc6_cm4.o
 .comment       0x0000006e       0x6f .\CortexM4\ARM_GCC_541\Release\command_parse.o
 .comment       0x0000006e       0x6f .\CortexM4\ARM_GCC_541\Release\command_queue.o
 .comment       0x0000006e       0x6f .\CortexM4\ARM_GCC_541\Release\stdio_user.o
 .comment       0x0000006e       0x6f .\CortexM4\ARM_GCC_541\Release\cyfitter_sysint_cfg.o
 .comment       0x0000006e       0x6f .\CortexM4\ARM_GCC_541\Release\cymetadata.o
 .comment       0x0000006e       0x6f .\CortexM4\ARM_GCC_541\Release\Timer.o
 .comment       0x0000006e       0x6f .\CortexM4\ARM_GCC_541\Release\UART.o
 .comment       0x0000006e       0x6f .\CortexM4\ARM_GCC_541\Release\cy_flash.o
 .comment       0x0000006e       0x6f .\CortexM4\ARM_GCC_541\Release\cy_ipc_drv.o
 .comment       0x0000006e       0x6f .\CortexM4\ARM_GCC_541\Release\cy_ipc_sema.o
 .comment       0x0000006e       0x6f .\CortexM4\ARM_GCC_541\Release\cy_ipc_pipe.o
 .comment       0x0000006e       0x6f .\CortexM4\ARM_GCC_541\Release\cy_scb_common.o
 .comment       0x0000006e       0x6f .\CortexM4\ARM_GCC_541\Release\cy_scb_uart.o
 .comment       0x0000006e       0x6f .\CortexM4\ARM_GCC_541\Release\cy_sysint.o
 .comment       0x0000006e       0x6f .\CortexM4\ARM_GCC_541\Release\cy_syslib.o
 .comment       0x0000006e       0x6f .\CortexM4\ARM_GCC_541\Release\cy_syspm.o
 .comment       0x0000006e       0x6f .\CortexM4\ARM_GCC_541\Release\cy_tcpwm_counter.o
 .comment       0x0000006e       0x6f .\CortexM4\ARM_GCC_541\Release\cy_device.o
 .comment       0x0000006e       0x6f .\CortexM4\ARM_GCC_541\Release\cy_ctb.o
 .comment       0x0000006e       0x6f .\CortexM4\ARM_GCC_541\Release\cy_ctdac.o
 .comment       0x0000006e       0x6f .\CortexM4\ARM_GCC_541\Release\retarget.o
 .comment       0x0000006e       0x6f .\CortexM4\ARM_GCC_541\Release\VDAC_1.o

.debug_line     0x00000000     0x66d4
 .debug_line    0x00000000       0x8e .\CortexM4\ARM_GCC_541\Release\startup_psoc6_01_cm4.o
 .debug_line    0x0000008e      0x699 .\CortexM4\ARM_GCC_541\Release\main_cm4.o
 .debug_line    0x00000727      0x428 .\CortexM4\ARM_GCC_541\Release\system_psoc6_cm4.o
 .debug_line    0x00000b4f      0x36d .\CortexM4\ARM_GCC_541\Release\command_parse.o
 .debug_line    0x00000ebc      0x21d .\CortexM4\ARM_GCC_541\Release\command_queue.o
 .debug_line    0x000010d9      0x41f .\CortexM4\ARM_GCC_541\Release\stdio_user.o
 .debug_line    0x000014f8      0x24f .\CortexM4\ARM_GCC_541\Release\cyfitter_sysint_cfg.o
 .debug_line    0x00001747      0x141 .\CortexM4\ARM_GCC_541\Release\cymetadata.o
 .debug_line    0x00001888      0x271 .\CortexM4\ARM_GCC_541\Release\Timer.o
 .debug_line    0x00001af9      0x332 .\CortexM4\ARM_GCC_541\Release\UART.o
 .debug_line    0x00001e2b      0x796 .\CortexM4\ARM_GCC_541\Release\cy_flash.o
 .debug_line    0x000025c1      0x2f3 .\CortexM4\ARM_GCC_541\Release\cy_ipc_drv.o
 .debug_line    0x000028b4      0x425 .\CortexM4\ARM_GCC_541\Release\cy_ipc_sema.o
 .debug_line    0x00002cd9      0x539 .\CortexM4\ARM_GCC_541\Release\cy_ipc_pipe.o
 .debug_line    0x00003212      0x4be .\CortexM4\ARM_GCC_541\Release\cy_scb_common.o
 .debug_line    0x000036d0      0x86b .\CortexM4\ARM_GCC_541\Release\cy_scb_uart.o
 .debug_line    0x00003f3b      0x2ca .\CortexM4\ARM_GCC_541\Release\cy_sysint.o
 .debug_line    0x00004205      0x3e7 .\CortexM4\ARM_GCC_541\Release\cy_syslib.o
 .debug_line    0x000045ec       0x89 .\CortexM4\ARM_GCC_541\Release\cy_syslib_gcc.o
 .debug_line    0x00004675      0x9c0 .\CortexM4\ARM_GCC_541\Release\cy_syspm.o
 .debug_line    0x00005035      0x2a3 .\CortexM4\ARM_GCC_541\Release\cy_tcpwm_counter.o
 .debug_line    0x000052d8      0x17e .\CortexM4\ARM_GCC_541\Release\cy_device.o
 .debug_line    0x00005456      0x5a8 .\CortexM4\ARM_GCC_541\Release\cy_ctb.o
 .debug_line    0x000059fe      0x563 .\CortexM4\ARM_GCC_541\Release\cy_ctdac.o
 .debug_line    0x00005f61      0x3b6 .\CortexM4\ARM_GCC_541\Release\retarget.o
 .debug_line    0x00006317      0x3bd .\CortexM4\ARM_GCC_541\Release\VDAC_1.o

.debug_info     0x00000000    0x1d49c
 .debug_info    0x00000000       0x98 .\CortexM4\ARM_GCC_541\Release\startup_psoc6_01_cm4.o
 .debug_info    0x00000098     0x2268 .\CortexM4\ARM_GCC_541\Release\main_cm4.o
 .debug_info    0x00002300     0x1bb7 .\CortexM4\ARM_GCC_541\Release\system_psoc6_cm4.o
 .debug_info    0x00003eb7      0xd67 .\CortexM4\ARM_GCC_541\Release\command_parse.o
 .debug_info    0x00004c1e      0x2d5 .\CortexM4\ARM_GCC_541\Release\command_queue.o
 .debug_info    0x00004ef3     0x122f .\CortexM4\ARM_GCC_541\Release\stdio_user.o
 .debug_info    0x00006122      0x95b .\CortexM4\ARM_GCC_541\Release\cyfitter_sysint_cfg.o
 .debug_info    0x00006a7d       0xac .\CortexM4\ARM_GCC_541\Release\cymetadata.o
 .debug_info    0x00006b29      0x488 .\CortexM4\ARM_GCC_541\Release\Timer.o
 .debug_info    0x00006fb1     0x13ce .\CortexM4\ARM_GCC_541\Release\UART.o
 .debug_info    0x0000837f     0x279e .\CortexM4\ARM_GCC_541\Release\cy_flash.o
 .debug_info    0x0000ab1d      0x889 .\CortexM4\ARM_GCC_541\Release\cy_ipc_drv.o
 .debug_info    0x0000b3a6      0xbee .\CortexM4\ARM_GCC_541\Release\cy_ipc_sema.o
 .debug_info    0x0000bf94     0x168f .\CortexM4\ARM_GCC_541\Release\cy_ipc_pipe.o
 .debug_info    0x0000d623     0x12dd .\CortexM4\ARM_GCC_541\Release\cy_scb_common.o
 .debug_info    0x0000e900     0x24de .\CortexM4\ARM_GCC_541\Release\cy_scb_uart.o
 .debug_info    0x00010dde      0xdbd .\CortexM4\ARM_GCC_541\Release\cy_sysint.o
 .debug_info    0x00011b9b     0x2445 .\CortexM4\ARM_GCC_541\Release\cy_syslib.o
 .debug_info    0x00013fe0       0xc6 .\CortexM4\ARM_GCC_541\Release\cy_syslib_gcc.o
 .debug_info    0x000140a6     0x3e56 .\CortexM4\ARM_GCC_541\Release\cy_syspm.o
 .debug_info    0x00017efc      0x43f .\CortexM4\ARM_GCC_541\Release\cy_tcpwm_counter.o
 .debug_info    0x0001833b      0x551 .\CortexM4\ARM_GCC_541\Release\cy_device.o
 .debug_info    0x0001888c     0x1722 .\CortexM4\ARM_GCC_541\Release\cy_ctb.o
 .debug_info    0x00019fae     0x1805 .\CortexM4\ARM_GCC_541\Release\cy_ctdac.o
 .debug_info    0x0001b7b3      0xc8f .\CortexM4\ARM_GCC_541\Release\retarget.o
 .debug_info    0x0001c442     0x105a .\CortexM4\ARM_GCC_541\Release\VDAC_1.o

.debug_abbrev   0x00000000     0x3630
 .debug_abbrev  0x00000000       0x14 .\CortexM4\ARM_GCC_541\Release\startup_psoc6_01_cm4.o
 .debug_abbrev  0x00000014      0x36f .\CortexM4\ARM_GCC_541\Release\main_cm4.o
 .debug_abbrev  0x00000383      0x242 .\CortexM4\ARM_GCC_541\Release\system_psoc6_cm4.o
 .debug_abbrev  0x000005c5      0x16f .\CortexM4\ARM_GCC_541\Release\command_parse.o
 .debug_abbrev  0x00000734      0x15a .\CortexM4\ARM_GCC_541\Release\command_queue.o
 .debug_abbrev  0x0000088e      0x210 .\CortexM4\ARM_GCC_541\Release\stdio_user.o
 .debug_abbrev  0x00000a9e       0xe3 .\CortexM4\ARM_GCC_541\Release\cyfitter_sysint_cfg.o
 .debug_abbrev  0x00000b81       0x5d .\CortexM4\ARM_GCC_541\Release\cymetadata.o
 .debug_abbrev  0x00000bde      0x15f .\CortexM4\ARM_GCC_541\Release\Timer.o
 .debug_abbrev  0x00000d3d      0x22b .\CortexM4\ARM_GCC_541\Release\UART.o
 .debug_abbrev  0x00000f68      0x3ce .\CortexM4\ARM_GCC_541\Release\cy_flash.o
 .debug_abbrev  0x00001336      0x187 .\CortexM4\ARM_GCC_541\Release\cy_ipc_drv.o
 .debug_abbrev  0x000014bd      0x296 .\CortexM4\ARM_GCC_541\Release\cy_ipc_sema.o
 .debug_abbrev  0x00001753      0x38c .\CortexM4\ARM_GCC_541\Release\cy_ipc_pipe.o
 .debug_abbrev  0x00001adf      0x341 .\CortexM4\ARM_GCC_541\Release\cy_scb_common.o
 .debug_abbrev  0x00001e20      0x3bf .\CortexM4\ARM_GCC_541\Release\cy_scb_uart.o
 .debug_abbrev  0x000021df      0x221 .\CortexM4\ARM_GCC_541\Release\cy_sysint.o
 .debug_abbrev  0x00002400      0x301 .\CortexM4\ARM_GCC_541\Release\cy_syslib.o
 .debug_abbrev  0x00002701       0x14 .\CortexM4\ARM_GCC_541\Release\cy_syslib_gcc.o
 .debug_abbrev  0x00002715      0x3b0 .\CortexM4\ARM_GCC_541\Release\cy_syspm.o
 .debug_abbrev  0x00002ac5      0x158 .\CortexM4\ARM_GCC_541\Release\cy_tcpwm_counter.o
 .debug_abbrev  0x00002c1d       0x9d .\CortexM4\ARM_GCC_541\Release\cy_device.o
 .debug_abbrev  0x00002cba      0x2dd .\CortexM4\ARM_GCC_541\Release\cy_ctb.o
 .debug_abbrev  0x00002f97      0x2f6 .\CortexM4\ARM_GCC_541\Release\cy_ctdac.o
 .debug_abbrev  0x0000328d      0x16a .\CortexM4\ARM_GCC_541\Release\retarget.o
 .debug_abbrev  0x000033f7      0x239 .\CortexM4\ARM_GCC_541\Release\VDAC_1.o

.debug_aranges  0x00000000      0x838
 .debug_aranges
                0x00000000       0x20 .\CortexM4\ARM_GCC_541\Release\startup_psoc6_01_cm4.o
 .debug_aranges
                0x00000020       0x28 .\CortexM4\ARM_GCC_541\Release\main_cm4.o
 .debug_aranges
                0x00000048       0x40 .\CortexM4\ARM_GCC_541\Release\system_psoc6_cm4.o
 .debug_aranges
                0x00000088       0x20 .\CortexM4\ARM_GCC_541\Release\command_parse.o
 .debug_aranges
                0x000000a8       0x40 .\CortexM4\ARM_GCC_541\Release\command_queue.o
 .debug_aranges
                0x000000e8       0x28 .\CortexM4\ARM_GCC_541\Release\stdio_user.o
 .debug_aranges
                0x00000110       0x18 .\CortexM4\ARM_GCC_541\Release\cyfitter_sysint_cfg.o
 .debug_aranges
                0x00000128       0x18 .\CortexM4\ARM_GCC_541\Release\cymetadata.o
 .debug_aranges
                0x00000140       0x20 .\CortexM4\ARM_GCC_541\Release\Timer.o
 .debug_aranges
                0x00000160       0x28 .\CortexM4\ARM_GCC_541\Release\UART.o
 .debug_aranges
                0x00000188       0xc8 .\CortexM4\ARM_GCC_541\Release\cy_flash.o
 .debug_aranges
                0x00000250       0x30 .\CortexM4\ARM_GCC_541\Release\cy_ipc_drv.o
 .debug_aranges
                0x00000280       0x48 .\CortexM4\ARM_GCC_541\Release\cy_ipc_sema.o
 .debug_aranges
                0x000002c8       0x68 .\CortexM4\ARM_GCC_541\Release\cy_ipc_pipe.o
 .debug_aranges
                0x00000330       0x68 .\CortexM4\ARM_GCC_541\Release\cy_scb_common.o
 .debug_aranges
                0x00000398       0xb0 .\CortexM4\ARM_GCC_541\Release\cy_scb_uart.o
 .debug_aranges
                0x00000448       0x30 .\CortexM4\ARM_GCC_541\Release\cy_sysint.o
 .debug_aranges
                0x00000478       0x70 .\CortexM4\ARM_GCC_541\Release\cy_syslib.o
 .debug_aranges
                0x000004e8       0x20 .\CortexM4\ARM_GCC_541\Release\cy_syslib_gcc.o
 .debug_aranges
                0x00000508      0x138 .\CortexM4\ARM_GCC_541\Release\cy_syspm.o
 .debug_aranges
                0x00000640       0x28 .\CortexM4\ARM_GCC_541\Release\cy_tcpwm_counter.o
 .debug_aranges
                0x00000668       0x20 .\CortexM4\ARM_GCC_541\Release\cy_device.o
 .debug_aranges
                0x00000688       0xb8 .\CortexM4\ARM_GCC_541\Release\cy_ctb.o
 .debug_aranges
                0x00000740       0x98 .\CortexM4\ARM_GCC_541\Release\cy_ctdac.o
 .debug_aranges
                0x000007d8       0x28 .\CortexM4\ARM_GCC_541\Release\retarget.o
 .debug_aranges
                0x00000800       0x38 .\CortexM4\ARM_GCC_541\Release\VDAC_1.o

.debug_loc      0x00000000     0x68da
 .debug_loc     0x00000000      0x1f9 .\CortexM4\ARM_GCC_541\Release\main_cm4.o
 .debug_loc     0x000001f9      0x251 .\CortexM4\ARM_GCC_541\Release\system_psoc6_cm4.o
 .debug_loc     0x0000044a      0x140 .\CortexM4\ARM_GCC_541\Release\command_queue.o
 .debug_loc     0x0000058a       0x87 .\CortexM4\ARM_GCC_541\Release\stdio_user.o
 .debug_loc     0x00000611       0x58 .\CortexM4\ARM_GCC_541\Release\Timer.o
 .debug_loc     0x00000669       0x2b .\CortexM4\ARM_GCC_541\Release\UART.o
 .debug_loc     0x00000694      0xced .\CortexM4\ARM_GCC_541\Release\cy_flash.o
 .debug_loc     0x00001381      0x190 .\CortexM4\ARM_GCC_541\Release\cy_ipc_drv.o
 .debug_loc     0x00001511      0x908 .\CortexM4\ARM_GCC_541\Release\cy_ipc_sema.o
 .debug_loc     0x00001e19      0x723 .\CortexM4\ARM_GCC_541\Release\cy_ipc_pipe.o
 .debug_loc     0x0000253c      0x634 .\CortexM4\ARM_GCC_541\Release\cy_scb_common.o
 .debug_loc     0x00002b70     0x106d .\CortexM4\ARM_GCC_541\Release\cy_scb_uart.o
 .debug_loc     0x00003bdd      0x113 .\CortexM4\ARM_GCC_541\Release\cy_sysint.o
 .debug_loc     0x00003cf0      0x439 .\CortexM4\ARM_GCC_541\Release\cy_syslib.o
 .debug_loc     0x00004129      0xdb8 .\CortexM4\ARM_GCC_541\Release\cy_syspm.o
 .debug_loc     0x00004ee1       0xe7 .\CortexM4\ARM_GCC_541\Release\cy_tcpwm_counter.o
 .debug_loc     0x00004fc8      0x9fe .\CortexM4\ARM_GCC_541\Release\cy_ctb.o
 .debug_loc     0x000059c6      0xd6d .\CortexM4\ARM_GCC_541\Release\cy_ctdac.o
 .debug_loc     0x00006733      0x177 .\CortexM4\ARM_GCC_541\Release\retarget.o
 .debug_loc     0x000068aa       0x30 .\CortexM4\ARM_GCC_541\Release\VDAC_1.o

.debug_ranges   0x00000000      0xb50
 .debug_ranges  0x00000000       0x78 .\CortexM4\ARM_GCC_541\Release\main_cm4.o
 .debug_ranges  0x00000078       0x30 .\CortexM4\ARM_GCC_541\Release\system_psoc6_cm4.o
 .debug_ranges  0x000000a8       0x10 .\CortexM4\ARM_GCC_541\Release\command_parse.o
 .debug_ranges  0x000000b8       0x30 .\CortexM4\ARM_GCC_541\Release\command_queue.o
 .debug_ranges  0x000000e8       0x18 .\CortexM4\ARM_GCC_541\Release\stdio_user.o
 .debug_ranges  0x00000100       0x10 .\CortexM4\ARM_GCC_541\Release\Timer.o
 .debug_ranges  0x00000110       0x18 .\CortexM4\ARM_GCC_541\Release\UART.o
 .debug_ranges  0x00000128       0xe8 .\CortexM4\ARM_GCC_541\Release\cy_flash.o
 .debug_ranges  0x00000210       0x38 .\CortexM4\ARM_GCC_541\Release\cy_ipc_drv.o
 .debug_ranges  0x00000248       0x50 .\CortexM4\ARM_GCC_541\Release\cy_ipc_sema.o
 .debug_ranges  0x00000298       0xc0 .\CortexM4\ARM_GCC_541\Release\cy_ipc_pipe.o
 .debug_ranges  0x00000358       0xe8 .\CortexM4\ARM_GCC_541\Release\cy_scb_common.o
 .debug_ranges  0x00000440      0x260 .\CortexM4\ARM_GCC_541\Release\cy_scb_uart.o
 .debug_ranges  0x000006a0       0x20 .\CortexM4\ARM_GCC_541\Release\cy_sysint.o
 .debug_ranges  0x000006c0       0x60 .\CortexM4\ARM_GCC_541\Release\cy_syslib.o
 .debug_ranges  0x00000720      0x260 .\CortexM4\ARM_GCC_541\Release\cy_syspm.o
 .debug_ranges  0x00000980       0x18 .\CortexM4\ARM_GCC_541\Release\cy_tcpwm_counter.o
 .debug_ranges  0x00000998       0x10 .\CortexM4\ARM_GCC_541\Release\cy_device.o
 .debug_ranges  0x000009a8       0xa8 .\CortexM4\ARM_GCC_541\Release\cy_ctb.o
 .debug_ranges  0x00000a50       0xc0 .\CortexM4\ARM_GCC_541\Release\cy_ctdac.o
 .debug_ranges  0x00000b10       0x18 .\CortexM4\ARM_GCC_541\Release\retarget.o
 .debug_ranges  0x00000b28       0x28 .\CortexM4\ARM_GCC_541\Release\VDAC_1.o

.debug_str      0x00000000     0x902f
 .debug_str     0x00000000     0x28b3 .\CortexM4\ARM_GCC_541\Release\main_cm4.o
                               0x2994 (size before relaxing)
 .debug_str     0x000028b3      0xbd7 .\CortexM4\ARM_GCC_541\Release\system_psoc6_cm4.o
                               0x23ee (size before relaxing)
 .debug_str     0x0000348a       0x10 .\CortexM4\ARM_GCC_541\Release\command_parse.o
                               0x123d (size before relaxing)
 .debug_str     0x0000349a       0x5e .\CortexM4\ARM_GCC_541\Release\command_queue.o
                                0x262 (size before relaxing)
 .debug_str     0x000034f8      0x2df .\CortexM4\ARM_GCC_541\Release\stdio_user.o
                               0x14e1 (size before relaxing)
 .debug_str     0x000037d7       0x3e .\CortexM4\ARM_GCC_541\Release\cyfitter_sysint_cfg.o
                               0x17ce (size before relaxing)
 .debug_str     0x00003815       0x30 .\CortexM4\ARM_GCC_541\Release\cymetadata.o
                                0x1d7 (size before relaxing)
 .debug_str     0x00003845       0x4f .\CortexM4\ARM_GCC_541\Release\Timer.o
                                0x4bd (size before relaxing)
 .debug_str     0x00003894      0x3e8 .\CortexM4\ARM_GCC_541\Release\UART.o
                               0x2010 (size before relaxing)
 .debug_str     0x00003c7c     0x1073 .\CortexM4\ARM_GCC_541\Release\cy_flash.o
                               0x2db8 (size before relaxing)
 .debug_str     0x00004cef       0xfd .\CortexM4\ARM_GCC_541\Release\cy_ipc_drv.o
                                0x97a (size before relaxing)
 .debug_str     0x00004dec       0xe7 .\CortexM4\ARM_GCC_541\Release\cy_ipc_sema.o
                                0xb67 (size before relaxing)
 .debug_str     0x00004ed3      0x318 .\CortexM4\ARM_GCC_541\Release\cy_ipc_pipe.o
                               0x2089 (size before relaxing)
 .debug_str     0x000051eb      0x1c5 .\CortexM4\ARM_GCC_541\Release\cy_scb_common.o
                                0xcc1 (size before relaxing)
 .debug_str     0x000053b0      0x616 .\CortexM4\ARM_GCC_541\Release\cy_scb_uart.o
                               0x16cb (size before relaxing)
 .debug_str     0x000059c6       0xf0 .\CortexM4\ARM_GCC_541\Release\cy_sysint.o
                               0x195a (size before relaxing)
 .debug_str     0x00005ab6      0xa89 .\CortexM4\ARM_GCC_541\Release\cy_syslib.o
                               0x1c7b (size before relaxing)
 .debug_str     0x0000653f     0x118d .\CortexM4\ARM_GCC_541\Release\cy_syspm.o
                               0x2b74 (size before relaxing)
 .debug_str     0x000076cc       0x98 .\CortexM4\ARM_GCC_541\Release\cy_tcpwm_counter.o
                                0x4da (size before relaxing)
 .debug_str     0x00007764       0x5d .\CortexM4\ARM_GCC_541\Release\cy_device.o
                                0x7e5 (size before relaxing)
 .debug_str     0x000077c1      0xe6a .\CortexM4\ARM_GCC_541\Release\cy_ctb.o
                               0x198f (size before relaxing)
 .debug_str     0x0000862b      0x867 .\CortexM4\ARM_GCC_541\Release\cy_ctdac.o
                               0x1747 (size before relaxing)
 .debug_str     0x00008e92       0x43 .\CortexM4\ARM_GCC_541\Release\retarget.o
                               0x1182 (size before relaxing)
 .debug_str     0x00008ed5      0x15a .\CortexM4\ARM_GCC_541\Release\VDAC_1.o
                               0x14ae (size before relaxing)

.debug_frame    0x00000000     0x1fc8
 .debug_frame   0x00000000       0x4c .\CortexM4\ARM_GCC_541\Release\main_cm4.o
 .debug_frame   0x0000004c       0x8c .\CortexM4\ARM_GCC_541\Release\system_psoc6_cm4.o
 .debug_frame   0x000000d8       0x20 .\CortexM4\ARM_GCC_541\Release\command_parse.o
 .debug_frame   0x000000f8       0x90 .\CortexM4\ARM_GCC_541\Release\command_queue.o
 .debug_frame   0x00000188       0x3c .\CortexM4\ARM_GCC_541\Release\stdio_user.o
 .debug_frame   0x000001c4       0x2c .\CortexM4\ARM_GCC_541\Release\Timer.o
 .debug_frame   0x000001f0       0x3c .\CortexM4\ARM_GCC_541\Release\UART.o
 .debug_frame   0x0000022c      0x2dc .\CortexM4\ARM_GCC_541\Release\cy_flash.o
 .debug_frame   0x00000508       0x40 .\CortexM4\ARM_GCC_541\Release\cy_ipc_drv.o
 .debug_frame   0x00000548       0xcc .\CortexM4\ARM_GCC_541\Release\cy_ipc_sema.o
 .debug_frame   0x00000614      0x110 .\CortexM4\ARM_GCC_541\Release\cy_ipc_pipe.o
 .debug_frame   0x00000724      0x110 .\CortexM4\ARM_GCC_541\Release\cy_scb_common.o
 .debug_frame   0x00000834      0x1d4 .\CortexM4\ARM_GCC_541\Release\cy_scb_uart.o
 .debug_frame   0x00000a08       0x4c .\CortexM4\ARM_GCC_541\Release\cy_sysint.o
 .debug_frame   0x00000a54      0x10c .\CortexM4\ARM_GCC_541\Release\cy_syslib.o
 .debug_frame   0x00000b60      0x3e8 .\CortexM4\ARM_GCC_541\Release\cy_syspm.o
 .debug_frame   0x00000f48       0x4c .\CortexM4\ARM_GCC_541\Release\cy_tcpwm_counter.o
 .debug_frame   0x00000f94       0x20 .\CortexM4\ARM_GCC_541\Release\cy_device.o
 .debug_frame   0x00000fb4      0x1c0 .\CortexM4\ARM_GCC_541\Release\cy_ctb.o
 .debug_frame   0x00001174      0x184 .\CortexM4\ARM_GCC_541\Release\cy_ctdac.o
 .debug_frame   0x000012f8       0x50 .\CortexM4\ARM_GCC_541\Release\retarget.o
 .debug_frame   0x00001348       0x5c .\CortexM4\ARM_GCC_541\Release\VDAC_1.o
 .debug_frame   0x000013a4       0x20 c:/program files (x86)/cypress/psoc creator/4.4/psoc creator/import/gnu/arm/5.4.1/bin/../lib/gcc/arm-none-eabi/5.4.1/../../../../arm-none-eabi/lib/armv7e-m/softfp\libg_nano.a(lib_a-calloc.o)
 .debug_frame   0x000013c4       0x30 c:/program files (x86)/cypress/psoc creator/4.4/psoc creator/import/gnu/arm/5.4.1/bin/../lib/gcc/arm-none-eabi/5.4.1/../../../../arm-none-eabi/lib/armv7e-m/softfp\libg_nano.a(lib_a-malloc.o)
 .debug_frame   0x000013f4       0x28 c:/program files (x86)/cypress/psoc creator/4.4/psoc creator/import/gnu/arm/5.4.1/bin/../lib/gcc/arm-none-eabi/5.4.1/../../../../arm-none-eabi/lib/armv7e-m/softfp\libg_nano.a(lib_a-memcpy-stub.o)
 .debug_frame   0x0000141c       0x20 c:/program files (x86)/cypress/psoc creator/4.4/psoc creator/import/gnu/arm/5.4.1/bin/../lib/gcc/arm-none-eabi/5.4.1/../../../../arm-none-eabi/lib/armv7e-m/softfp\libg_nano.a(lib_a-memset.o)
 .debug_frame   0x0000143c       0x2c c:/program files (x86)/cypress/psoc creator/4.4/psoc creator/import/gnu/arm/5.4.1/bin/../lib/gcc/arm-none-eabi/5.4.1/../../../../arm-none-eabi/lib/armv7e-m/softfp\libg_nano.a(lib_a-nano-callocr.o)
 .debug_frame   0x00001468       0x38 c:/program files (x86)/cypress/psoc creator/4.4/psoc creator/import/gnu/arm/5.4.1/bin/../lib/gcc/arm-none-eabi/5.4.1/../../../../arm-none-eabi/lib/armv7e-m/softfp\libg_nano.a(lib_a-nano-freer.o)
 .debug_frame   0x000014a0       0x2c c:/program files (x86)/cypress/psoc creator/4.4/psoc creator/import/gnu/arm/5.4.1/bin/../lib/gcc/arm-none-eabi/5.4.1/../../../../arm-none-eabi/lib/armv7e-m/softfp\libg_nano.a(lib_a-nano-mallocr.o)
 .debug_frame   0x000014cc       0x8c c:/program files (x86)/cypress/psoc creator/4.4/psoc creator/import/gnu/arm/5.4.1/bin/../lib/gcc/arm-none-eabi/5.4.1/../../../../arm-none-eabi/lib/armv7e-m/softfp\libg_nano.a(lib_a-nano-vfprintf_float.o)
 .debug_frame   0x00001558       0x60 c:/program files (x86)/cypress/psoc creator/4.4/psoc creator/import/gnu/arm/5.4.1/bin/../lib/gcc/arm-none-eabi/5.4.1/../../../../arm-none-eabi/lib/armv7e-m/softfp\libg_nano.a(lib_a-nano-vfprintf_i.o)
 .debug_frame   0x000015b8       0x74 c:/program files (x86)/cypress/psoc creator/4.4/psoc creator/import/gnu/arm/5.4.1/bin/../lib/gcc/arm-none-eabi/5.4.1/../../../../arm-none-eabi/lib/armv7e-m/softfp\libg_nano.a(lib_a-printf.o)
 .debug_frame   0x0000162c       0x2c c:/program files (x86)/cypress/psoc creator/4.4/psoc creator/import/gnu/arm/5.4.1/bin/../lib/gcc/arm-none-eabi/5.4.1/../../../../arm-none-eabi/lib/armv7e-m/softfp\libg_nano.a(lib_a-sbrkr.o)
 .debug_frame   0x00001658       0x38 c:/program files (x86)/cypress/psoc creator/4.4/psoc creator/import/gnu/arm/5.4.1/bin/../lib/gcc/arm-none-eabi/5.4.1/../../../../arm-none-eabi/lib/armv7e-m/softfp\libg_nano.a(lib_a-setvbuf.o)
 .debug_frame   0x00001690       0x6c c:/program files (x86)/cypress/psoc creator/4.4/psoc creator/import/gnu/arm/5.4.1/bin/../lib/gcc/arm-none-eabi/5.4.1/../../../../arm-none-eabi/lib/armv7e-m/softfp\libg_nano.a(lib_a-dtoa.o)
 .debug_frame   0x000016fc       0x68 c:/program files (x86)/cypress/psoc creator/4.4/psoc creator/import/gnu/arm/5.4.1/bin/../lib/gcc/arm-none-eabi/5.4.1/../../../../arm-none-eabi/lib/armv7e-m/softfp\libg_nano.a(lib_a-fflush.o)
 .debug_frame   0x00001764      0x11c c:/program files (x86)/cypress/psoc creator/4.4/psoc creator/import/gnu/arm/5.4.1/bin/../lib/gcc/arm-none-eabi/5.4.1/../../../../arm-none-eabi/lib/armv7e-m/softfp\libg_nano.a(lib_a-findfp.o)
 .debug_frame   0x00001880       0x54 c:/program files (x86)/cypress/psoc creator/4.4/psoc creator/import/gnu/arm/5.4.1/bin/../lib/gcc/arm-none-eabi/5.4.1/../../../../arm-none-eabi/lib/armv7e-m/softfp\libg_nano.a(lib_a-fwalk.o)
 .debug_frame   0x000018d4       0x98 c:/program files (x86)/cypress/psoc creator/4.4/psoc creator/import/gnu/arm/5.4.1/bin/../lib/gcc/arm-none-eabi/5.4.1/../../../../arm-none-eabi/lib/armv7e-m/softfp\libg_nano.a(lib_a-locale.o)
 .debug_frame   0x0000196c       0x54 c:/program files (x86)/cypress/psoc creator/4.4/psoc creator/import/gnu/arm/5.4.1/bin/../lib/gcc/arm-none-eabi/5.4.1/../../../../arm-none-eabi/lib/armv7e-m/softfp\libg_nano.a(lib_a-makebuf.o)
 .debug_frame   0x000019c0       0x30 c:/program files (x86)/cypress/psoc creator/4.4/psoc creator/import/gnu/arm/5.4.1/bin/../lib/gcc/arm-none-eabi/5.4.1/../../../../arm-none-eabi/lib/armv7e-m/softfp\libg_nano.a(lib_a-mlock.o)
 .debug_frame   0x000019f0      0x234 c:/program files (x86)/cypress/psoc creator/4.4/psoc creator/import/gnu/arm/5.4.1/bin/../lib/gcc/arm-none-eabi/5.4.1/../../../../arm-none-eabi/lib/armv7e-m/softfp\libg_nano.a(lib_a-mprec.o)
 .debug_frame   0x00001c24       0xac c:/program files (x86)/cypress/psoc creator/4.4/psoc creator/import/gnu/arm/5.4.1/bin/../lib/gcc/arm-none-eabi/5.4.1/../../../../arm-none-eabi/lib/armv7e-m/softfp\libg_nano.a(lib_a-nano-vfprintf.o)
 .debug_frame   0x00001cd0       0x5c c:/program files (x86)/cypress/psoc creator/4.4/psoc creator/import/gnu/arm/5.4.1/bin/../lib/gcc/arm-none-eabi/5.4.1/../../../../arm-none-eabi/lib/armv7e-m/softfp\libg_nano.a(lib_a-reent.o)
 .debug_frame   0x00001d2c       0x88 c:/program files (x86)/cypress/psoc creator/4.4/psoc creator/import/gnu/arm/5.4.1/bin/../lib/gcc/arm-none-eabi/5.4.1/../../../../arm-none-eabi/lib/armv7e-m/softfp\libg_nano.a(lib_a-stdio.o)
 .debug_frame   0x00001db4       0x40 c:/program files (x86)/cypress/psoc creator/4.4/psoc creator/import/gnu/arm/5.4.1/bin/../lib/gcc/arm-none-eabi/5.4.1/../../../../arm-none-eabi/lib/armv7e-m/softfp\libg_nano.a(lib_a-wbuf.o)
 .debug_frame   0x00001df4       0x2c c:/program files (x86)/cypress/psoc creator/4.4/psoc creator/import/gnu/arm/5.4.1/bin/../lib/gcc/arm-none-eabi/5.4.1/../../../../arm-none-eabi/lib/armv7e-m/softfp\libg_nano.a(lib_a-writer.o)
 .debug_frame   0x00001e20       0x2c c:/program files (x86)/cypress/psoc creator/4.4/psoc creator/import/gnu/arm/5.4.1/bin/../lib/gcc/arm-none-eabi/5.4.1/../../../../arm-none-eabi/lib/armv7e-m/softfp\libg_nano.a(lib_a-wsetup.o)
 .debug_frame   0x00001e4c       0x2c c:/program files (x86)/cypress/psoc creator/4.4/psoc creator/import/gnu/arm/5.4.1/bin/../lib/gcc/arm-none-eabi/5.4.1/../../../../arm-none-eabi/lib/armv7e-m/softfp\libg_nano.a(lib_a-closer.o)
 .debug_frame   0x00001e78       0x2c c:/program files (x86)/cypress/psoc creator/4.4/psoc creator/import/gnu/arm/5.4.1/bin/../lib/gcc/arm-none-eabi/5.4.1/../../../../arm-none-eabi/lib/armv7e-m/softfp\libg_nano.a(lib_a-fstatr.o)
 .debug_frame   0x00001ea4       0x2c c:/program files (x86)/cypress/psoc creator/4.4/psoc creator/import/gnu/arm/5.4.1/bin/../lib/gcc/arm-none-eabi/5.4.1/../../../../arm-none-eabi/lib/armv7e-m/softfp\libg_nano.a(lib_a-isattyr.o)
 .debug_frame   0x00001ed0       0x2c c:/program files (x86)/cypress/psoc creator/4.4/psoc creator/import/gnu/arm/5.4.1/bin/../lib/gcc/arm-none-eabi/5.4.1/../../../../arm-none-eabi/lib/armv7e-m/softfp\libg_nano.a(lib_a-lseekr.o)
 .debug_frame   0x00001efc       0x2c c:/program files (x86)/cypress/psoc creator/4.4/psoc creator/import/gnu/arm/5.4.1/bin/../lib/gcc/arm-none-eabi/5.4.1/../../../../arm-none-eabi/lib/armv7e-m/softfp\libg_nano.a(lib_a-readr.o)
 .debug_frame   0x00001f28       0x20 c:/program files (x86)/cypress/psoc creator/4.4/psoc creator/import/gnu/arm/5.4.1/bin/../lib/gcc/arm-none-eabi/5.4.1/../../../../arm-none-eabi/lib/armv7e-m/softfp\libnosys.a(close.o)
 .debug_frame   0x00001f48       0x20 c:/program files (x86)/cypress/psoc creator/4.4/psoc creator/import/gnu/arm/5.4.1/bin/../lib/gcc/arm-none-eabi/5.4.1/../../../../arm-none-eabi/lib/armv7e-m/softfp\libnosys.a(fstat.o)
 .debug_frame   0x00001f68       0x20 c:/program files (x86)/cypress/psoc creator/4.4/psoc creator/import/gnu/arm/5.4.1/bin/../lib/gcc/arm-none-eabi/5.4.1/../../../../arm-none-eabi/lib/armv7e-m/softfp\libnosys.a(isatty.o)
 .debug_frame   0x00001f88       0x20 c:/program files (x86)/cypress/psoc creator/4.4/psoc creator/import/gnu/arm/5.4.1/bin/../lib/gcc/arm-none-eabi/5.4.1/../../../../arm-none-eabi/lib/armv7e-m/softfp\libnosys.a(lseek.o)
 .debug_frame   0x00001fa8       0x20 c:/program files (x86)/cypress/psoc creator/4.4/psoc creator/import/gnu/arm/5.4.1/bin/../lib/gcc/arm-none-eabi/5.4.1/../../../../arm-none-eabi/lib/armv7e-m/softfp\libnosys.a(sbrk.o)

.stab           0x00000000       0x6c
 .stab          0x00000000       0x24 c:/program files (x86)/cypress/psoc creator/4.4/psoc creator/import/gnu/arm/5.4.1/bin/../lib/gcc/arm-none-eabi/5.4.1/../../../../arm-none-eabi/lib/armv7e-m/softfp\libnosys.a(close.o)
 .stab          0x00000024       0x18 c:/program files (x86)/cypress/psoc creator/4.4/psoc creator/import/gnu/arm/5.4.1/bin/../lib/gcc/arm-none-eabi/5.4.1/../../../../arm-none-eabi/lib/armv7e-m/softfp\libnosys.a(fstat.o)
                                 0x24 (size before relaxing)
 .stab          0x0000003c       0x18 c:/program files (x86)/cypress/psoc creator/4.4/psoc creator/import/gnu/arm/5.4.1/bin/../lib/gcc/arm-none-eabi/5.4.1/../../../../arm-none-eabi/lib/armv7e-m/softfp\libnosys.a(isatty.o)
                                 0x24 (size before relaxing)
 .stab          0x00000054       0x18 c:/program files (x86)/cypress/psoc creator/4.4/psoc creator/import/gnu/arm/5.4.1/bin/../lib/gcc/arm-none-eabi/5.4.1/../../../../arm-none-eabi/lib/armv7e-m/softfp\libnosys.a(lseek.o)
                                 0x24 (size before relaxing)

.stabstr        0x00000000       0xe3
 .stabstr       0x00000000       0xe3 c:/program files (x86)/cypress/psoc creator/4.4/psoc creator/import/gnu/arm/5.4.1/bin/../lib/gcc/arm-none-eabi/5.4.1/../../../../arm-none-eabi/lib/armv7e-m/softfp\libnosys.a(close.o)
