ARM GAS  C:\Users\SEANIL~1\AppData\Local\Temp\cc2EyAez.s 			page 1


   1              		.syntax unified
   2              		.cpu cortex-m4
   3              		.eabi_attribute 27, 1
   4              		.fpu fpv4-sp-d16
   5              		.eabi_attribute 20, 1
   6              		.eabi_attribute 21, 1
   7              		.eabi_attribute 23, 3
   8              		.eabi_attribute 24, 1
   9              		.eabi_attribute 25, 1
  10              		.eabi_attribute 26, 1
  11              		.eabi_attribute 30, 1
  12              		.eabi_attribute 34, 1
  13              		.eabi_attribute 18, 4
  14              		.thumb
  15              		.syntax unified
  16              		.file	"heap_2.c"
  17              		.text
  18              	.Ltext0:
  19              		.cfi_sections	.debug_frame
  20              		.section	.text.prvHeapInit,"ax",%progbits
  21              		.align	2
  22              		.thumb
  23              		.thumb_func
  24              		.type	prvHeapInit, %function
  25              	prvHeapInit:
  26              	.LFB140:
  27              		.file 1 "Generated_Source\\PSoC6\\pdl\\rtos\\FreeRTOS\\10.0.1\\Source\\portable\\MemMang\\heap_2.c
   1:Generated_Source\PSoC6\pdl\rtos\FreeRTOS\10.0.1\Source\portable\MemMang/heap_2.c **** /*
   2:Generated_Source\PSoC6\pdl\rtos\FreeRTOS\10.0.1\Source\portable\MemMang/heap_2.c ****  * FreeRTOS Kernel V10.0.1
   3:Generated_Source\PSoC6\pdl\rtos\FreeRTOS\10.0.1\Source\portable\MemMang/heap_2.c ****  * Copyright (C) 2017 Amazon.com, Inc. or its affiliates.  All Rights Reserved.
   4:Generated_Source\PSoC6\pdl\rtos\FreeRTOS\10.0.1\Source\portable\MemMang/heap_2.c ****  *
   5:Generated_Source\PSoC6\pdl\rtos\FreeRTOS\10.0.1\Source\portable\MemMang/heap_2.c ****  * Permission is hereby granted, free of charge, to any person obtaining a copy of
   6:Generated_Source\PSoC6\pdl\rtos\FreeRTOS\10.0.1\Source\portable\MemMang/heap_2.c ****  * this software and associated documentation files (the "Software"), to deal in
   7:Generated_Source\PSoC6\pdl\rtos\FreeRTOS\10.0.1\Source\portable\MemMang/heap_2.c ****  * the Software without restriction, including without limitation the rights to
   8:Generated_Source\PSoC6\pdl\rtos\FreeRTOS\10.0.1\Source\portable\MemMang/heap_2.c ****  * use, copy, modify, merge, publish, distribute, sublicense, and/or sell copies of
   9:Generated_Source\PSoC6\pdl\rtos\FreeRTOS\10.0.1\Source\portable\MemMang/heap_2.c ****  * the Software, and to permit persons to whom the Software is furnished to do so,
  10:Generated_Source\PSoC6\pdl\rtos\FreeRTOS\10.0.1\Source\portable\MemMang/heap_2.c ****  * subject to the following conditions:
  11:Generated_Source\PSoC6\pdl\rtos\FreeRTOS\10.0.1\Source\portable\MemMang/heap_2.c ****  *
  12:Generated_Source\PSoC6\pdl\rtos\FreeRTOS\10.0.1\Source\portable\MemMang/heap_2.c ****  * The above copyright notice and this permission notice shall be included in all
  13:Generated_Source\PSoC6\pdl\rtos\FreeRTOS\10.0.1\Source\portable\MemMang/heap_2.c ****  * copies or substantial portions of the Software.
  14:Generated_Source\PSoC6\pdl\rtos\FreeRTOS\10.0.1\Source\portable\MemMang/heap_2.c ****  *
  15:Generated_Source\PSoC6\pdl\rtos\FreeRTOS\10.0.1\Source\portable\MemMang/heap_2.c ****  * THE SOFTWARE IS PROVIDED "AS IS", WITHOUT WARRANTY OF ANY KIND, EXPRESS OR
  16:Generated_Source\PSoC6\pdl\rtos\FreeRTOS\10.0.1\Source\portable\MemMang/heap_2.c ****  * IMPLIED, INCLUDING BUT NOT LIMITED TO THE WARRANTIES OF MERCHANTABILITY, FITNESS
  17:Generated_Source\PSoC6\pdl\rtos\FreeRTOS\10.0.1\Source\portable\MemMang/heap_2.c ****  * FOR A PARTICULAR PURPOSE AND NONINFRINGEMENT. IN NO EVENT SHALL THE AUTHORS OR
  18:Generated_Source\PSoC6\pdl\rtos\FreeRTOS\10.0.1\Source\portable\MemMang/heap_2.c ****  * COPYRIGHT HOLDERS BE LIABLE FOR ANY CLAIM, DAMAGES OR OTHER LIABILITY, WHETHER
  19:Generated_Source\PSoC6\pdl\rtos\FreeRTOS\10.0.1\Source\portable\MemMang/heap_2.c ****  * IN AN ACTION OF CONTRACT, TORT OR OTHERWISE, ARISING FROM, OUT OF OR IN
  20:Generated_Source\PSoC6\pdl\rtos\FreeRTOS\10.0.1\Source\portable\MemMang/heap_2.c ****  * CONNECTION WITH THE SOFTWARE OR THE USE OR OTHER DEALINGS IN THE SOFTWARE.
  21:Generated_Source\PSoC6\pdl\rtos\FreeRTOS\10.0.1\Source\portable\MemMang/heap_2.c ****  *
  22:Generated_Source\PSoC6\pdl\rtos\FreeRTOS\10.0.1\Source\portable\MemMang/heap_2.c ****  * http://www.FreeRTOS.org
  23:Generated_Source\PSoC6\pdl\rtos\FreeRTOS\10.0.1\Source\portable\MemMang/heap_2.c ****  * http://aws.amazon.com/freertos
  24:Generated_Source\PSoC6\pdl\rtos\FreeRTOS\10.0.1\Source\portable\MemMang/heap_2.c ****  *
  25:Generated_Source\PSoC6\pdl\rtos\FreeRTOS\10.0.1\Source\portable\MemMang/heap_2.c ****  * 1 tab == 4 spaces!
  26:Generated_Source\PSoC6\pdl\rtos\FreeRTOS\10.0.1\Source\portable\MemMang/heap_2.c ****  */
  27:Generated_Source\PSoC6\pdl\rtos\FreeRTOS\10.0.1\Source\portable\MemMang/heap_2.c **** 
  28:Generated_Source\PSoC6\pdl\rtos\FreeRTOS\10.0.1\Source\portable\MemMang/heap_2.c **** /*
  29:Generated_Source\PSoC6\pdl\rtos\FreeRTOS\10.0.1\Source\portable\MemMang/heap_2.c ****  * A sample implementation of pvPortMalloc() and vPortFree() that permits
  30:Generated_Source\PSoC6\pdl\rtos\FreeRTOS\10.0.1\Source\portable\MemMang/heap_2.c ****  * allocated blocks to be freed, but does not combine adjacent free blocks
ARM GAS  C:\Users\SEANIL~1\AppData\Local\Temp\cc2EyAez.s 			page 2


  31:Generated_Source\PSoC6\pdl\rtos\FreeRTOS\10.0.1\Source\portable\MemMang/heap_2.c ****  * into a single larger block (and so will fragment memory).  See heap_4.c for
  32:Generated_Source\PSoC6\pdl\rtos\FreeRTOS\10.0.1\Source\portable\MemMang/heap_2.c ****  * an equivalent that does combine adjacent blocks into single larger blocks.
  33:Generated_Source\PSoC6\pdl\rtos\FreeRTOS\10.0.1\Source\portable\MemMang/heap_2.c ****  *
  34:Generated_Source\PSoC6\pdl\rtos\FreeRTOS\10.0.1\Source\portable\MemMang/heap_2.c ****  * See heap_1.c, heap_3.c and heap_4.c for alternative implementations, and the
  35:Generated_Source\PSoC6\pdl\rtos\FreeRTOS\10.0.1\Source\portable\MemMang/heap_2.c ****  * memory management pages of http://www.FreeRTOS.org for more information.
  36:Generated_Source\PSoC6\pdl\rtos\FreeRTOS\10.0.1\Source\portable\MemMang/heap_2.c ****  */
  37:Generated_Source\PSoC6\pdl\rtos\FreeRTOS\10.0.1\Source\portable\MemMang/heap_2.c **** #include <stdlib.h>
  38:Generated_Source\PSoC6\pdl\rtos\FreeRTOS\10.0.1\Source\portable\MemMang/heap_2.c **** 
  39:Generated_Source\PSoC6\pdl\rtos\FreeRTOS\10.0.1\Source\portable\MemMang/heap_2.c **** /* Defining MPU_WRAPPERS_INCLUDED_FROM_API_FILE prevents task.h from redefining
  40:Generated_Source\PSoC6\pdl\rtos\FreeRTOS\10.0.1\Source\portable\MemMang/heap_2.c **** all the API functions to use the MPU wrappers.  That should only be done when
  41:Generated_Source\PSoC6\pdl\rtos\FreeRTOS\10.0.1\Source\portable\MemMang/heap_2.c **** task.h is included from an application file. */
  42:Generated_Source\PSoC6\pdl\rtos\FreeRTOS\10.0.1\Source\portable\MemMang/heap_2.c **** #define MPU_WRAPPERS_INCLUDED_FROM_API_FILE
  43:Generated_Source\PSoC6\pdl\rtos\FreeRTOS\10.0.1\Source\portable\MemMang/heap_2.c **** 
  44:Generated_Source\PSoC6\pdl\rtos\FreeRTOS\10.0.1\Source\portable\MemMang/heap_2.c **** #include "FreeRTOS.h"
  45:Generated_Source\PSoC6\pdl\rtos\FreeRTOS\10.0.1\Source\portable\MemMang/heap_2.c **** #include "task.h"
  46:Generated_Source\PSoC6\pdl\rtos\FreeRTOS\10.0.1\Source\portable\MemMang/heap_2.c **** 
  47:Generated_Source\PSoC6\pdl\rtos\FreeRTOS\10.0.1\Source\portable\MemMang/heap_2.c **** #undef MPU_WRAPPERS_INCLUDED_FROM_API_FILE
  48:Generated_Source\PSoC6\pdl\rtos\FreeRTOS\10.0.1\Source\portable\MemMang/heap_2.c **** 
  49:Generated_Source\PSoC6\pdl\rtos\FreeRTOS\10.0.1\Source\portable\MemMang/heap_2.c **** #if( configSUPPORT_DYNAMIC_ALLOCATION == 0 )
  50:Generated_Source\PSoC6\pdl\rtos\FreeRTOS\10.0.1\Source\portable\MemMang/heap_2.c **** 	#error This file must not be used if configSUPPORT_DYNAMIC_ALLOCATION is 0
  51:Generated_Source\PSoC6\pdl\rtos\FreeRTOS\10.0.1\Source\portable\MemMang/heap_2.c **** #endif
  52:Generated_Source\PSoC6\pdl\rtos\FreeRTOS\10.0.1\Source\portable\MemMang/heap_2.c **** 
  53:Generated_Source\PSoC6\pdl\rtos\FreeRTOS\10.0.1\Source\portable\MemMang/heap_2.c **** /* A few bytes might be lost to byte aligning the heap start address. */
  54:Generated_Source\PSoC6\pdl\rtos\FreeRTOS\10.0.1\Source\portable\MemMang/heap_2.c **** #define configADJUSTED_HEAP_SIZE	( configTOTAL_HEAP_SIZE - portBYTE_ALIGNMENT )
  55:Generated_Source\PSoC6\pdl\rtos\FreeRTOS\10.0.1\Source\portable\MemMang/heap_2.c **** 
  56:Generated_Source\PSoC6\pdl\rtos\FreeRTOS\10.0.1\Source\portable\MemMang/heap_2.c **** /*
  57:Generated_Source\PSoC6\pdl\rtos\FreeRTOS\10.0.1\Source\portable\MemMang/heap_2.c ****  * Initialises the heap structures before their first use.
  58:Generated_Source\PSoC6\pdl\rtos\FreeRTOS\10.0.1\Source\portable\MemMang/heap_2.c ****  */
  59:Generated_Source\PSoC6\pdl\rtos\FreeRTOS\10.0.1\Source\portable\MemMang/heap_2.c **** static void prvHeapInit( void );
  60:Generated_Source\PSoC6\pdl\rtos\FreeRTOS\10.0.1\Source\portable\MemMang/heap_2.c **** 
  61:Generated_Source\PSoC6\pdl\rtos\FreeRTOS\10.0.1\Source\portable\MemMang/heap_2.c **** /* Allocate the memory for the heap. */
  62:Generated_Source\PSoC6\pdl\rtos\FreeRTOS\10.0.1\Source\portable\MemMang/heap_2.c **** #if( configAPPLICATION_ALLOCATED_HEAP == 1 )
  63:Generated_Source\PSoC6\pdl\rtos\FreeRTOS\10.0.1\Source\portable\MemMang/heap_2.c **** 	/* The application writer has already defined the array used for the RTOS
  64:Generated_Source\PSoC6\pdl\rtos\FreeRTOS\10.0.1\Source\portable\MemMang/heap_2.c **** 	heap - probably so it can be placed in a special segment or address. */
  65:Generated_Source\PSoC6\pdl\rtos\FreeRTOS\10.0.1\Source\portable\MemMang/heap_2.c **** 	extern uint8_t ucHeap[ configTOTAL_HEAP_SIZE ];
  66:Generated_Source\PSoC6\pdl\rtos\FreeRTOS\10.0.1\Source\portable\MemMang/heap_2.c **** #else
  67:Generated_Source\PSoC6\pdl\rtos\FreeRTOS\10.0.1\Source\portable\MemMang/heap_2.c **** 	static uint8_t ucHeap[ configTOTAL_HEAP_SIZE ];
  68:Generated_Source\PSoC6\pdl\rtos\FreeRTOS\10.0.1\Source\portable\MemMang/heap_2.c **** #endif /* configAPPLICATION_ALLOCATED_HEAP */
  69:Generated_Source\PSoC6\pdl\rtos\FreeRTOS\10.0.1\Source\portable\MemMang/heap_2.c **** 
  70:Generated_Source\PSoC6\pdl\rtos\FreeRTOS\10.0.1\Source\portable\MemMang/heap_2.c **** 
  71:Generated_Source\PSoC6\pdl\rtos\FreeRTOS\10.0.1\Source\portable\MemMang/heap_2.c **** /* Define the linked list structure.  This is used to link free blocks in order
  72:Generated_Source\PSoC6\pdl\rtos\FreeRTOS\10.0.1\Source\portable\MemMang/heap_2.c **** of their size. */
  73:Generated_Source\PSoC6\pdl\rtos\FreeRTOS\10.0.1\Source\portable\MemMang/heap_2.c **** typedef struct A_BLOCK_LINK
  74:Generated_Source\PSoC6\pdl\rtos\FreeRTOS\10.0.1\Source\portable\MemMang/heap_2.c **** {
  75:Generated_Source\PSoC6\pdl\rtos\FreeRTOS\10.0.1\Source\portable\MemMang/heap_2.c **** 	struct A_BLOCK_LINK *pxNextFreeBlock;	/*<< The next free block in the list. */
  76:Generated_Source\PSoC6\pdl\rtos\FreeRTOS\10.0.1\Source\portable\MemMang/heap_2.c **** 	size_t xBlockSize;						/*<< The size of the free block. */
  77:Generated_Source\PSoC6\pdl\rtos\FreeRTOS\10.0.1\Source\portable\MemMang/heap_2.c **** } BlockLink_t;
  78:Generated_Source\PSoC6\pdl\rtos\FreeRTOS\10.0.1\Source\portable\MemMang/heap_2.c **** 
  79:Generated_Source\PSoC6\pdl\rtos\FreeRTOS\10.0.1\Source\portable\MemMang/heap_2.c **** 
  80:Generated_Source\PSoC6\pdl\rtos\FreeRTOS\10.0.1\Source\portable\MemMang/heap_2.c **** static const uint16_t heapSTRUCT_SIZE	= ( ( sizeof ( BlockLink_t ) + ( portBYTE_ALIGNMENT - 1 ) ) &
  81:Generated_Source\PSoC6\pdl\rtos\FreeRTOS\10.0.1\Source\portable\MemMang/heap_2.c **** #define heapMINIMUM_BLOCK_SIZE	( ( size_t ) ( heapSTRUCT_SIZE * 2 ) )
  82:Generated_Source\PSoC6\pdl\rtos\FreeRTOS\10.0.1\Source\portable\MemMang/heap_2.c **** 
  83:Generated_Source\PSoC6\pdl\rtos\FreeRTOS\10.0.1\Source\portable\MemMang/heap_2.c **** /* Create a couple of list links to mark the start and end of the list. */
  84:Generated_Source\PSoC6\pdl\rtos\FreeRTOS\10.0.1\Source\portable\MemMang/heap_2.c **** static BlockLink_t xStart, xEnd;
  85:Generated_Source\PSoC6\pdl\rtos\FreeRTOS\10.0.1\Source\portable\MemMang/heap_2.c **** 
  86:Generated_Source\PSoC6\pdl\rtos\FreeRTOS\10.0.1\Source\portable\MemMang/heap_2.c **** /* Keeps track of the number of free bytes remaining, but says nothing about
  87:Generated_Source\PSoC6\pdl\rtos\FreeRTOS\10.0.1\Source\portable\MemMang/heap_2.c **** fragmentation. */
ARM GAS  C:\Users\SEANIL~1\AppData\Local\Temp\cc2EyAez.s 			page 3


  88:Generated_Source\PSoC6\pdl\rtos\FreeRTOS\10.0.1\Source\portable\MemMang/heap_2.c **** static size_t xFreeBytesRemaining = configADJUSTED_HEAP_SIZE;
  89:Generated_Source\PSoC6\pdl\rtos\FreeRTOS\10.0.1\Source\portable\MemMang/heap_2.c **** 
  90:Generated_Source\PSoC6\pdl\rtos\FreeRTOS\10.0.1\Source\portable\MemMang/heap_2.c **** /* STATIC FUNCTIONS ARE DEFINED AS MACROS TO MINIMIZE THE FUNCTION CALL DEPTH. */
  91:Generated_Source\PSoC6\pdl\rtos\FreeRTOS\10.0.1\Source\portable\MemMang/heap_2.c **** 
  92:Generated_Source\PSoC6\pdl\rtos\FreeRTOS\10.0.1\Source\portable\MemMang/heap_2.c **** /*
  93:Generated_Source\PSoC6\pdl\rtos\FreeRTOS\10.0.1\Source\portable\MemMang/heap_2.c ****  * Insert a block into the list of free blocks - which is ordered by size of
  94:Generated_Source\PSoC6\pdl\rtos\FreeRTOS\10.0.1\Source\portable\MemMang/heap_2.c ****  * the block.  Small blocks at the start of the list and large blocks at the end
  95:Generated_Source\PSoC6\pdl\rtos\FreeRTOS\10.0.1\Source\portable\MemMang/heap_2.c ****  * of the list.
  96:Generated_Source\PSoC6\pdl\rtos\FreeRTOS\10.0.1\Source\portable\MemMang/heap_2.c ****  */
  97:Generated_Source\PSoC6\pdl\rtos\FreeRTOS\10.0.1\Source\portable\MemMang/heap_2.c **** #define prvInsertBlockIntoFreeList( pxBlockToInsert )								\
  98:Generated_Source\PSoC6\pdl\rtos\FreeRTOS\10.0.1\Source\portable\MemMang/heap_2.c **** {																					\
  99:Generated_Source\PSoC6\pdl\rtos\FreeRTOS\10.0.1\Source\portable\MemMang/heap_2.c **** BlockLink_t *pxIterator;															\
 100:Generated_Source\PSoC6\pdl\rtos\FreeRTOS\10.0.1\Source\portable\MemMang/heap_2.c **** size_t xBlockSize;																	\
 101:Generated_Source\PSoC6\pdl\rtos\FreeRTOS\10.0.1\Source\portable\MemMang/heap_2.c **** 																					\
 102:Generated_Source\PSoC6\pdl\rtos\FreeRTOS\10.0.1\Source\portable\MemMang/heap_2.c **** 	xBlockSize = pxBlockToInsert->xBlockSize;										\
 103:Generated_Source\PSoC6\pdl\rtos\FreeRTOS\10.0.1\Source\portable\MemMang/heap_2.c **** 																					\
 104:Generated_Source\PSoC6\pdl\rtos\FreeRTOS\10.0.1\Source\portable\MemMang/heap_2.c **** 	/* Iterate through the list until a block is found that has a larger size */	\
 105:Generated_Source\PSoC6\pdl\rtos\FreeRTOS\10.0.1\Source\portable\MemMang/heap_2.c **** 	/* than the block we are inserting. */											\
 106:Generated_Source\PSoC6\pdl\rtos\FreeRTOS\10.0.1\Source\portable\MemMang/heap_2.c **** 	for( pxIterator = &xStart; pxIterator->pxNextFreeBlock->xBlockSize < xBlockSize; pxIterator = pxIt
 107:Generated_Source\PSoC6\pdl\rtos\FreeRTOS\10.0.1\Source\portable\MemMang/heap_2.c **** 	{																				\
 108:Generated_Source\PSoC6\pdl\rtos\FreeRTOS\10.0.1\Source\portable\MemMang/heap_2.c **** 		/* There is nothing to do here - just iterate to the correct position. */	\
 109:Generated_Source\PSoC6\pdl\rtos\FreeRTOS\10.0.1\Source\portable\MemMang/heap_2.c **** 	}																				\
 110:Generated_Source\PSoC6\pdl\rtos\FreeRTOS\10.0.1\Source\portable\MemMang/heap_2.c **** 																					\
 111:Generated_Source\PSoC6\pdl\rtos\FreeRTOS\10.0.1\Source\portable\MemMang/heap_2.c **** 	/* Update the list to include the block being inserted in the correct */		\
 112:Generated_Source\PSoC6\pdl\rtos\FreeRTOS\10.0.1\Source\portable\MemMang/heap_2.c **** 	/* position. */																	\
 113:Generated_Source\PSoC6\pdl\rtos\FreeRTOS\10.0.1\Source\portable\MemMang/heap_2.c **** 	pxBlockToInsert->pxNextFreeBlock = pxIterator->pxNextFreeBlock;					\
 114:Generated_Source\PSoC6\pdl\rtos\FreeRTOS\10.0.1\Source\portable\MemMang/heap_2.c **** 	pxIterator->pxNextFreeBlock = pxBlockToInsert;									\
 115:Generated_Source\PSoC6\pdl\rtos\FreeRTOS\10.0.1\Source\portable\MemMang/heap_2.c **** }
 116:Generated_Source\PSoC6\pdl\rtos\FreeRTOS\10.0.1\Source\portable\MemMang/heap_2.c **** /*-----------------------------------------------------------*/
 117:Generated_Source\PSoC6\pdl\rtos\FreeRTOS\10.0.1\Source\portable\MemMang/heap_2.c **** 
 118:Generated_Source\PSoC6\pdl\rtos\FreeRTOS\10.0.1\Source\portable\MemMang/heap_2.c **** void *pvPortMalloc( size_t xWantedSize )
 119:Generated_Source\PSoC6\pdl\rtos\FreeRTOS\10.0.1\Source\portable\MemMang/heap_2.c **** {
 120:Generated_Source\PSoC6\pdl\rtos\FreeRTOS\10.0.1\Source\portable\MemMang/heap_2.c **** BlockLink_t *pxBlock, *pxPreviousBlock, *pxNewBlockLink;
 121:Generated_Source\PSoC6\pdl\rtos\FreeRTOS\10.0.1\Source\portable\MemMang/heap_2.c **** static BaseType_t xHeapHasBeenInitialised = pdFALSE;
 122:Generated_Source\PSoC6\pdl\rtos\FreeRTOS\10.0.1\Source\portable\MemMang/heap_2.c **** void *pvReturn = NULL;
 123:Generated_Source\PSoC6\pdl\rtos\FreeRTOS\10.0.1\Source\portable\MemMang/heap_2.c **** 
 124:Generated_Source\PSoC6\pdl\rtos\FreeRTOS\10.0.1\Source\portable\MemMang/heap_2.c **** 	vTaskSuspendAll();
 125:Generated_Source\PSoC6\pdl\rtos\FreeRTOS\10.0.1\Source\portable\MemMang/heap_2.c **** 	{
 126:Generated_Source\PSoC6\pdl\rtos\FreeRTOS\10.0.1\Source\portable\MemMang/heap_2.c **** 		/* If this is the first call to malloc then the heap will require
 127:Generated_Source\PSoC6\pdl\rtos\FreeRTOS\10.0.1\Source\portable\MemMang/heap_2.c **** 		initialisation to setup the list of free blocks. */
 128:Generated_Source\PSoC6\pdl\rtos\FreeRTOS\10.0.1\Source\portable\MemMang/heap_2.c **** 		if( xHeapHasBeenInitialised == pdFALSE )
 129:Generated_Source\PSoC6\pdl\rtos\FreeRTOS\10.0.1\Source\portable\MemMang/heap_2.c **** 		{
 130:Generated_Source\PSoC6\pdl\rtos\FreeRTOS\10.0.1\Source\portable\MemMang/heap_2.c **** 			prvHeapInit();
 131:Generated_Source\PSoC6\pdl\rtos\FreeRTOS\10.0.1\Source\portable\MemMang/heap_2.c **** 			xHeapHasBeenInitialised = pdTRUE;
 132:Generated_Source\PSoC6\pdl\rtos\FreeRTOS\10.0.1\Source\portable\MemMang/heap_2.c **** 		}
 133:Generated_Source\PSoC6\pdl\rtos\FreeRTOS\10.0.1\Source\portable\MemMang/heap_2.c **** 
 134:Generated_Source\PSoC6\pdl\rtos\FreeRTOS\10.0.1\Source\portable\MemMang/heap_2.c **** 		/* The wanted size is increased so it can contain a BlockLink_t
 135:Generated_Source\PSoC6\pdl\rtos\FreeRTOS\10.0.1\Source\portable\MemMang/heap_2.c **** 		structure in addition to the requested amount of bytes. */
 136:Generated_Source\PSoC6\pdl\rtos\FreeRTOS\10.0.1\Source\portable\MemMang/heap_2.c **** 		if( xWantedSize > 0 )
 137:Generated_Source\PSoC6\pdl\rtos\FreeRTOS\10.0.1\Source\portable\MemMang/heap_2.c **** 		{
 138:Generated_Source\PSoC6\pdl\rtos\FreeRTOS\10.0.1\Source\portable\MemMang/heap_2.c **** 			xWantedSize += heapSTRUCT_SIZE;
 139:Generated_Source\PSoC6\pdl\rtos\FreeRTOS\10.0.1\Source\portable\MemMang/heap_2.c **** 
 140:Generated_Source\PSoC6\pdl\rtos\FreeRTOS\10.0.1\Source\portable\MemMang/heap_2.c **** 			/* Ensure that blocks are always aligned to the required number of bytes. */
 141:Generated_Source\PSoC6\pdl\rtos\FreeRTOS\10.0.1\Source\portable\MemMang/heap_2.c **** 			if( ( xWantedSize & portBYTE_ALIGNMENT_MASK ) != 0 )
 142:Generated_Source\PSoC6\pdl\rtos\FreeRTOS\10.0.1\Source\portable\MemMang/heap_2.c **** 			{
 143:Generated_Source\PSoC6\pdl\rtos\FreeRTOS\10.0.1\Source\portable\MemMang/heap_2.c **** 				/* Byte alignment required. */
 144:Generated_Source\PSoC6\pdl\rtos\FreeRTOS\10.0.1\Source\portable\MemMang/heap_2.c **** 				xWantedSize += ( portBYTE_ALIGNMENT - ( xWantedSize & portBYTE_ALIGNMENT_MASK ) );
ARM GAS  C:\Users\SEANIL~1\AppData\Local\Temp\cc2EyAez.s 			page 4


 145:Generated_Source\PSoC6\pdl\rtos\FreeRTOS\10.0.1\Source\portable\MemMang/heap_2.c **** 			}
 146:Generated_Source\PSoC6\pdl\rtos\FreeRTOS\10.0.1\Source\portable\MemMang/heap_2.c **** 		}
 147:Generated_Source\PSoC6\pdl\rtos\FreeRTOS\10.0.1\Source\portable\MemMang/heap_2.c **** 
 148:Generated_Source\PSoC6\pdl\rtos\FreeRTOS\10.0.1\Source\portable\MemMang/heap_2.c **** 		if( ( xWantedSize > 0 ) && ( xWantedSize < configADJUSTED_HEAP_SIZE ) )
 149:Generated_Source\PSoC6\pdl\rtos\FreeRTOS\10.0.1\Source\portable\MemMang/heap_2.c **** 		{
 150:Generated_Source\PSoC6\pdl\rtos\FreeRTOS\10.0.1\Source\portable\MemMang/heap_2.c **** 			/* Blocks are stored in byte order - traverse the list from the start
 151:Generated_Source\PSoC6\pdl\rtos\FreeRTOS\10.0.1\Source\portable\MemMang/heap_2.c **** 			(smallest) block until one of adequate size is found. */
 152:Generated_Source\PSoC6\pdl\rtos\FreeRTOS\10.0.1\Source\portable\MemMang/heap_2.c **** 			pxPreviousBlock = &xStart;
 153:Generated_Source\PSoC6\pdl\rtos\FreeRTOS\10.0.1\Source\portable\MemMang/heap_2.c **** 			pxBlock = xStart.pxNextFreeBlock;
 154:Generated_Source\PSoC6\pdl\rtos\FreeRTOS\10.0.1\Source\portable\MemMang/heap_2.c **** 			while( ( pxBlock->xBlockSize < xWantedSize ) && ( pxBlock->pxNextFreeBlock != NULL ) )
 155:Generated_Source\PSoC6\pdl\rtos\FreeRTOS\10.0.1\Source\portable\MemMang/heap_2.c **** 			{
 156:Generated_Source\PSoC6\pdl\rtos\FreeRTOS\10.0.1\Source\portable\MemMang/heap_2.c **** 				pxPreviousBlock = pxBlock;
 157:Generated_Source\PSoC6\pdl\rtos\FreeRTOS\10.0.1\Source\portable\MemMang/heap_2.c **** 				pxBlock = pxBlock->pxNextFreeBlock;
 158:Generated_Source\PSoC6\pdl\rtos\FreeRTOS\10.0.1\Source\portable\MemMang/heap_2.c **** 			}
 159:Generated_Source\PSoC6\pdl\rtos\FreeRTOS\10.0.1\Source\portable\MemMang/heap_2.c **** 
 160:Generated_Source\PSoC6\pdl\rtos\FreeRTOS\10.0.1\Source\portable\MemMang/heap_2.c **** 			/* If we found the end marker then a block of adequate size was not found. */
 161:Generated_Source\PSoC6\pdl\rtos\FreeRTOS\10.0.1\Source\portable\MemMang/heap_2.c **** 			if( pxBlock != &xEnd )
 162:Generated_Source\PSoC6\pdl\rtos\FreeRTOS\10.0.1\Source\portable\MemMang/heap_2.c **** 			{
 163:Generated_Source\PSoC6\pdl\rtos\FreeRTOS\10.0.1\Source\portable\MemMang/heap_2.c **** 				/* Return the memory space - jumping over the BlockLink_t structure
 164:Generated_Source\PSoC6\pdl\rtos\FreeRTOS\10.0.1\Source\portable\MemMang/heap_2.c **** 				at its start. */
 165:Generated_Source\PSoC6\pdl\rtos\FreeRTOS\10.0.1\Source\portable\MemMang/heap_2.c **** 				pvReturn = ( void * ) ( ( ( uint8_t * ) pxPreviousBlock->pxNextFreeBlock ) + heapSTRUCT_SIZE );
 166:Generated_Source\PSoC6\pdl\rtos\FreeRTOS\10.0.1\Source\portable\MemMang/heap_2.c **** 
 167:Generated_Source\PSoC6\pdl\rtos\FreeRTOS\10.0.1\Source\portable\MemMang/heap_2.c **** 				/* This block is being returned for use so must be taken out of the
 168:Generated_Source\PSoC6\pdl\rtos\FreeRTOS\10.0.1\Source\portable\MemMang/heap_2.c **** 				list of free blocks. */
 169:Generated_Source\PSoC6\pdl\rtos\FreeRTOS\10.0.1\Source\portable\MemMang/heap_2.c **** 				pxPreviousBlock->pxNextFreeBlock = pxBlock->pxNextFreeBlock;
 170:Generated_Source\PSoC6\pdl\rtos\FreeRTOS\10.0.1\Source\portable\MemMang/heap_2.c **** 
 171:Generated_Source\PSoC6\pdl\rtos\FreeRTOS\10.0.1\Source\portable\MemMang/heap_2.c **** 				/* If the block is larger than required it can be split into two. */
 172:Generated_Source\PSoC6\pdl\rtos\FreeRTOS\10.0.1\Source\portable\MemMang/heap_2.c **** 				if( ( pxBlock->xBlockSize - xWantedSize ) > heapMINIMUM_BLOCK_SIZE )
 173:Generated_Source\PSoC6\pdl\rtos\FreeRTOS\10.0.1\Source\portable\MemMang/heap_2.c **** 				{
 174:Generated_Source\PSoC6\pdl\rtos\FreeRTOS\10.0.1\Source\portable\MemMang/heap_2.c **** 					/* This block is to be split into two.  Create a new block
 175:Generated_Source\PSoC6\pdl\rtos\FreeRTOS\10.0.1\Source\portable\MemMang/heap_2.c **** 					following the number of bytes requested. The void cast is
 176:Generated_Source\PSoC6\pdl\rtos\FreeRTOS\10.0.1\Source\portable\MemMang/heap_2.c **** 					used to prevent byte alignment warnings from the compiler. */
 177:Generated_Source\PSoC6\pdl\rtos\FreeRTOS\10.0.1\Source\portable\MemMang/heap_2.c **** 					pxNewBlockLink = ( void * ) ( ( ( uint8_t * ) pxBlock ) + xWantedSize );
 178:Generated_Source\PSoC6\pdl\rtos\FreeRTOS\10.0.1\Source\portable\MemMang/heap_2.c **** 
 179:Generated_Source\PSoC6\pdl\rtos\FreeRTOS\10.0.1\Source\portable\MemMang/heap_2.c **** 					/* Calculate the sizes of two blocks split from the single
 180:Generated_Source\PSoC6\pdl\rtos\FreeRTOS\10.0.1\Source\portable\MemMang/heap_2.c **** 					block. */
 181:Generated_Source\PSoC6\pdl\rtos\FreeRTOS\10.0.1\Source\portable\MemMang/heap_2.c **** 					pxNewBlockLink->xBlockSize = pxBlock->xBlockSize - xWantedSize;
 182:Generated_Source\PSoC6\pdl\rtos\FreeRTOS\10.0.1\Source\portable\MemMang/heap_2.c **** 					pxBlock->xBlockSize = xWantedSize;
 183:Generated_Source\PSoC6\pdl\rtos\FreeRTOS\10.0.1\Source\portable\MemMang/heap_2.c **** 
 184:Generated_Source\PSoC6\pdl\rtos\FreeRTOS\10.0.1\Source\portable\MemMang/heap_2.c **** 					/* Insert the new block into the list of free blocks. */
 185:Generated_Source\PSoC6\pdl\rtos\FreeRTOS\10.0.1\Source\portable\MemMang/heap_2.c **** 					prvInsertBlockIntoFreeList( ( pxNewBlockLink ) );
 186:Generated_Source\PSoC6\pdl\rtos\FreeRTOS\10.0.1\Source\portable\MemMang/heap_2.c **** 				}
 187:Generated_Source\PSoC6\pdl\rtos\FreeRTOS\10.0.1\Source\portable\MemMang/heap_2.c **** 
 188:Generated_Source\PSoC6\pdl\rtos\FreeRTOS\10.0.1\Source\portable\MemMang/heap_2.c **** 				xFreeBytesRemaining -= pxBlock->xBlockSize;
 189:Generated_Source\PSoC6\pdl\rtos\FreeRTOS\10.0.1\Source\portable\MemMang/heap_2.c **** 			}
 190:Generated_Source\PSoC6\pdl\rtos\FreeRTOS\10.0.1\Source\portable\MemMang/heap_2.c **** 		}
 191:Generated_Source\PSoC6\pdl\rtos\FreeRTOS\10.0.1\Source\portable\MemMang/heap_2.c **** 
 192:Generated_Source\PSoC6\pdl\rtos\FreeRTOS\10.0.1\Source\portable\MemMang/heap_2.c **** 		traceMALLOC( pvReturn, xWantedSize );
 193:Generated_Source\PSoC6\pdl\rtos\FreeRTOS\10.0.1\Source\portable\MemMang/heap_2.c **** 	}
 194:Generated_Source\PSoC6\pdl\rtos\FreeRTOS\10.0.1\Source\portable\MemMang/heap_2.c **** 	( void ) xTaskResumeAll();
 195:Generated_Source\PSoC6\pdl\rtos\FreeRTOS\10.0.1\Source\portable\MemMang/heap_2.c **** 
 196:Generated_Source\PSoC6\pdl\rtos\FreeRTOS\10.0.1\Source\portable\MemMang/heap_2.c **** 	#if( configUSE_MALLOC_FAILED_HOOK == 1 )
 197:Generated_Source\PSoC6\pdl\rtos\FreeRTOS\10.0.1\Source\portable\MemMang/heap_2.c **** 	{
 198:Generated_Source\PSoC6\pdl\rtos\FreeRTOS\10.0.1\Source\portable\MemMang/heap_2.c **** 		if( pvReturn == NULL )
 199:Generated_Source\PSoC6\pdl\rtos\FreeRTOS\10.0.1\Source\portable\MemMang/heap_2.c **** 		{
 200:Generated_Source\PSoC6\pdl\rtos\FreeRTOS\10.0.1\Source\portable\MemMang/heap_2.c **** 			extern void vApplicationMallocFailedHook( void );
 201:Generated_Source\PSoC6\pdl\rtos\FreeRTOS\10.0.1\Source\portable\MemMang/heap_2.c **** 			vApplicationMallocFailedHook();
ARM GAS  C:\Users\SEANIL~1\AppData\Local\Temp\cc2EyAez.s 			page 5


 202:Generated_Source\PSoC6\pdl\rtos\FreeRTOS\10.0.1\Source\portable\MemMang/heap_2.c **** 		}
 203:Generated_Source\PSoC6\pdl\rtos\FreeRTOS\10.0.1\Source\portable\MemMang/heap_2.c **** 	}
 204:Generated_Source\PSoC6\pdl\rtos\FreeRTOS\10.0.1\Source\portable\MemMang/heap_2.c **** 	#endif
 205:Generated_Source\PSoC6\pdl\rtos\FreeRTOS\10.0.1\Source\portable\MemMang/heap_2.c **** 
 206:Generated_Source\PSoC6\pdl\rtos\FreeRTOS\10.0.1\Source\portable\MemMang/heap_2.c **** 	return pvReturn;
 207:Generated_Source\PSoC6\pdl\rtos\FreeRTOS\10.0.1\Source\portable\MemMang/heap_2.c **** }
 208:Generated_Source\PSoC6\pdl\rtos\FreeRTOS\10.0.1\Source\portable\MemMang/heap_2.c **** /*-----------------------------------------------------------*/
 209:Generated_Source\PSoC6\pdl\rtos\FreeRTOS\10.0.1\Source\portable\MemMang/heap_2.c **** 
 210:Generated_Source\PSoC6\pdl\rtos\FreeRTOS\10.0.1\Source\portable\MemMang/heap_2.c **** void vPortFree( void *pv )
 211:Generated_Source\PSoC6\pdl\rtos\FreeRTOS\10.0.1\Source\portable\MemMang/heap_2.c **** {
 212:Generated_Source\PSoC6\pdl\rtos\FreeRTOS\10.0.1\Source\portable\MemMang/heap_2.c **** uint8_t *puc = ( uint8_t * ) pv;
 213:Generated_Source\PSoC6\pdl\rtos\FreeRTOS\10.0.1\Source\portable\MemMang/heap_2.c **** BlockLink_t *pxLink;
 214:Generated_Source\PSoC6\pdl\rtos\FreeRTOS\10.0.1\Source\portable\MemMang/heap_2.c **** 
 215:Generated_Source\PSoC6\pdl\rtos\FreeRTOS\10.0.1\Source\portable\MemMang/heap_2.c **** 	if( pv != NULL )
 216:Generated_Source\PSoC6\pdl\rtos\FreeRTOS\10.0.1\Source\portable\MemMang/heap_2.c **** 	{
 217:Generated_Source\PSoC6\pdl\rtos\FreeRTOS\10.0.1\Source\portable\MemMang/heap_2.c **** 		/* The memory being freed will have an BlockLink_t structure immediately
 218:Generated_Source\PSoC6\pdl\rtos\FreeRTOS\10.0.1\Source\portable\MemMang/heap_2.c **** 		before it. */
 219:Generated_Source\PSoC6\pdl\rtos\FreeRTOS\10.0.1\Source\portable\MemMang/heap_2.c **** 		puc -= heapSTRUCT_SIZE;
 220:Generated_Source\PSoC6\pdl\rtos\FreeRTOS\10.0.1\Source\portable\MemMang/heap_2.c **** 
 221:Generated_Source\PSoC6\pdl\rtos\FreeRTOS\10.0.1\Source\portable\MemMang/heap_2.c **** 		/* This unexpected casting is to keep some compilers from issuing
 222:Generated_Source\PSoC6\pdl\rtos\FreeRTOS\10.0.1\Source\portable\MemMang/heap_2.c **** 		byte alignment warnings. */
 223:Generated_Source\PSoC6\pdl\rtos\FreeRTOS\10.0.1\Source\portable\MemMang/heap_2.c **** 		pxLink = ( void * ) puc;
 224:Generated_Source\PSoC6\pdl\rtos\FreeRTOS\10.0.1\Source\portable\MemMang/heap_2.c **** 
 225:Generated_Source\PSoC6\pdl\rtos\FreeRTOS\10.0.1\Source\portable\MemMang/heap_2.c **** 		vTaskSuspendAll();
 226:Generated_Source\PSoC6\pdl\rtos\FreeRTOS\10.0.1\Source\portable\MemMang/heap_2.c **** 		{
 227:Generated_Source\PSoC6\pdl\rtos\FreeRTOS\10.0.1\Source\portable\MemMang/heap_2.c **** 			/* Add this block to the list of free blocks. */
 228:Generated_Source\PSoC6\pdl\rtos\FreeRTOS\10.0.1\Source\portable\MemMang/heap_2.c **** 			prvInsertBlockIntoFreeList( ( ( BlockLink_t * ) pxLink ) );
 229:Generated_Source\PSoC6\pdl\rtos\FreeRTOS\10.0.1\Source\portable\MemMang/heap_2.c **** 			xFreeBytesRemaining += pxLink->xBlockSize;
 230:Generated_Source\PSoC6\pdl\rtos\FreeRTOS\10.0.1\Source\portable\MemMang/heap_2.c **** 			traceFREE( pv, pxLink->xBlockSize );
 231:Generated_Source\PSoC6\pdl\rtos\FreeRTOS\10.0.1\Source\portable\MemMang/heap_2.c **** 		}
 232:Generated_Source\PSoC6\pdl\rtos\FreeRTOS\10.0.1\Source\portable\MemMang/heap_2.c **** 		( void ) xTaskResumeAll();
 233:Generated_Source\PSoC6\pdl\rtos\FreeRTOS\10.0.1\Source\portable\MemMang/heap_2.c **** 	}
 234:Generated_Source\PSoC6\pdl\rtos\FreeRTOS\10.0.1\Source\portable\MemMang/heap_2.c **** }
 235:Generated_Source\PSoC6\pdl\rtos\FreeRTOS\10.0.1\Source\portable\MemMang/heap_2.c **** /*-----------------------------------------------------------*/
 236:Generated_Source\PSoC6\pdl\rtos\FreeRTOS\10.0.1\Source\portable\MemMang/heap_2.c **** 
 237:Generated_Source\PSoC6\pdl\rtos\FreeRTOS\10.0.1\Source\portable\MemMang/heap_2.c **** size_t xPortGetFreeHeapSize( void )
 238:Generated_Source\PSoC6\pdl\rtos\FreeRTOS\10.0.1\Source\portable\MemMang/heap_2.c **** {
 239:Generated_Source\PSoC6\pdl\rtos\FreeRTOS\10.0.1\Source\portable\MemMang/heap_2.c **** 	return xFreeBytesRemaining;
 240:Generated_Source\PSoC6\pdl\rtos\FreeRTOS\10.0.1\Source\portable\MemMang/heap_2.c **** }
 241:Generated_Source\PSoC6\pdl\rtos\FreeRTOS\10.0.1\Source\portable\MemMang/heap_2.c **** /*-----------------------------------------------------------*/
 242:Generated_Source\PSoC6\pdl\rtos\FreeRTOS\10.0.1\Source\portable\MemMang/heap_2.c **** 
 243:Generated_Source\PSoC6\pdl\rtos\FreeRTOS\10.0.1\Source\portable\MemMang/heap_2.c **** void vPortInitialiseBlocks( void )
 244:Generated_Source\PSoC6\pdl\rtos\FreeRTOS\10.0.1\Source\portable\MemMang/heap_2.c **** {
 245:Generated_Source\PSoC6\pdl\rtos\FreeRTOS\10.0.1\Source\portable\MemMang/heap_2.c **** 	/* This just exists to keep the linker quiet. */
 246:Generated_Source\PSoC6\pdl\rtos\FreeRTOS\10.0.1\Source\portable\MemMang/heap_2.c **** }
 247:Generated_Source\PSoC6\pdl\rtos\FreeRTOS\10.0.1\Source\portable\MemMang/heap_2.c **** /*-----------------------------------------------------------*/
 248:Generated_Source\PSoC6\pdl\rtos\FreeRTOS\10.0.1\Source\portable\MemMang/heap_2.c **** 
 249:Generated_Source\PSoC6\pdl\rtos\FreeRTOS\10.0.1\Source\portable\MemMang/heap_2.c **** static void prvHeapInit( void )
 250:Generated_Source\PSoC6\pdl\rtos\FreeRTOS\10.0.1\Source\portable\MemMang/heap_2.c **** {
  28              		.loc 1 250 0
  29              		.cfi_startproc
  30              		@ args = 0, pretend = 0, frame = 0
  31              		@ frame_needed = 0, uses_anonymous_args = 0
  32              		@ link register save eliminated.
 251:Generated_Source\PSoC6\pdl\rtos\FreeRTOS\10.0.1\Source\portable\MemMang/heap_2.c **** BlockLink_t *pxFirstFreeBlock;
 252:Generated_Source\PSoC6\pdl\rtos\FreeRTOS\10.0.1\Source\portable\MemMang/heap_2.c **** uint8_t *pucAlignedHeap;
 253:Generated_Source\PSoC6\pdl\rtos\FreeRTOS\10.0.1\Source\portable\MemMang/heap_2.c **** 
ARM GAS  C:\Users\SEANIL~1\AppData\Local\Temp\cc2EyAez.s 			page 6


 254:Generated_Source\PSoC6\pdl\rtos\FreeRTOS\10.0.1\Source\portable\MemMang/heap_2.c **** 	/* Ensure the heap starts on a correctly aligned boundary. */
 255:Generated_Source\PSoC6\pdl\rtos\FreeRTOS\10.0.1\Source\portable\MemMang/heap_2.c **** 	pucAlignedHeap = ( uint8_t * ) ( ( ( portPOINTER_SIZE_TYPE ) &ucHeap[ portBYTE_ALIGNMENT ] ) & ( ~
  33              		.loc 1 255 0
  34 0000 094A     		ldr	r2, .L2
  35 0002 22F00702 		bic	r2, r2, #7
  36              	.LVL0:
 256:Generated_Source\PSoC6\pdl\rtos\FreeRTOS\10.0.1\Source\portable\MemMang/heap_2.c **** 
 257:Generated_Source\PSoC6\pdl\rtos\FreeRTOS\10.0.1\Source\portable\MemMang/heap_2.c **** 	/* xStart is used to hold a pointer to the first item in the list of free
 258:Generated_Source\PSoC6\pdl\rtos\FreeRTOS\10.0.1\Source\portable\MemMang/heap_2.c **** 	blocks.  The void cast is used to prevent compiler warnings. */
 259:Generated_Source\PSoC6\pdl\rtos\FreeRTOS\10.0.1\Source\portable\MemMang/heap_2.c **** 	xStart.pxNextFreeBlock = ( void * ) pucAlignedHeap;
  37              		.loc 1 259 0
  38 0006 094B     		ldr	r3, .L2+4
  39 0008 C3F81026 		str	r2, [r3, #1552]
 260:Generated_Source\PSoC6\pdl\rtos\FreeRTOS\10.0.1\Source\portable\MemMang/heap_2.c **** 	xStart.xBlockSize = ( size_t ) 0;
  40              		.loc 1 260 0
  41 000c 0020     		movs	r0, #0
  42 000e C3F81406 		str	r0, [r3, #1556]
 261:Generated_Source\PSoC6\pdl\rtos\FreeRTOS\10.0.1\Source\portable\MemMang/heap_2.c **** 
 262:Generated_Source\PSoC6\pdl\rtos\FreeRTOS\10.0.1\Source\portable\MemMang/heap_2.c **** 	/* xEnd is used to mark the end of the list of free blocks. */
 263:Generated_Source\PSoC6\pdl\rtos\FreeRTOS\10.0.1\Source\portable\MemMang/heap_2.c **** 	xEnd.xBlockSize = configADJUSTED_HEAP_SIZE;
  43              		.loc 1 263 0
  44 0012 42F2F871 		movw	r1, #10232
  45 0016 C3F81C16 		str	r1, [r3, #1564]
 264:Generated_Source\PSoC6\pdl\rtos\FreeRTOS\10.0.1\Source\portable\MemMang/heap_2.c **** 	xEnd.pxNextFreeBlock = NULL;
  46              		.loc 1 264 0
  47 001a C3F81806 		str	r0, [r3, #1560]
  48              	.LVL1:
 265:Generated_Source\PSoC6\pdl\rtos\FreeRTOS\10.0.1\Source\portable\MemMang/heap_2.c **** 
 266:Generated_Source\PSoC6\pdl\rtos\FreeRTOS\10.0.1\Source\portable\MemMang/heap_2.c **** 	/* To start with there is a single free block that is sized to take up the
 267:Generated_Source\PSoC6\pdl\rtos\FreeRTOS\10.0.1\Source\portable\MemMang/heap_2.c **** 	entire heap space. */
 268:Generated_Source\PSoC6\pdl\rtos\FreeRTOS\10.0.1\Source\portable\MemMang/heap_2.c **** 	pxFirstFreeBlock = ( void * ) pucAlignedHeap;
 269:Generated_Source\PSoC6\pdl\rtos\FreeRTOS\10.0.1\Source\portable\MemMang/heap_2.c **** 	pxFirstFreeBlock->xBlockSize = configADJUSTED_HEAP_SIZE;
  49              		.loc 1 269 0
  50 001e 5160     		str	r1, [r2, #4]
 270:Generated_Source\PSoC6\pdl\rtos\FreeRTOS\10.0.1\Source\portable\MemMang/heap_2.c **** 	pxFirstFreeBlock->pxNextFreeBlock = &xEnd;
  51              		.loc 1 270 0
  52 0020 03F5C363 		add	r3, r3, #1560
  53 0024 1360     		str	r3, [r2]
  54 0026 7047     		bx	lr
  55              	.L3:
  56              		.align	2
  57              	.L2:
  58 0028 08000000 		.word	.LANCHOR0+8
  59 002c F0210000 		.word	.LANCHOR1
  60              		.cfi_endproc
  61              	.LFE140:
  62              		.size	prvHeapInit, .-prvHeapInit
  63              		.section	.text.pvPortMalloc,"ax",%progbits
  64              		.align	2
  65              		.global	pvPortMalloc
  66              		.thumb
  67              		.thumb_func
  68              		.type	pvPortMalloc, %function
  69              	pvPortMalloc:
  70              	.LFB136:
 119:Generated_Source\PSoC6\pdl\rtos\FreeRTOS\10.0.1\Source\portable\MemMang/heap_2.c **** BlockLink_t *pxBlock, *pxPreviousBlock, *pxNewBlockLink;
  71              		.loc 1 119 0
ARM GAS  C:\Users\SEANIL~1\AppData\Local\Temp\cc2EyAez.s 			page 7


  72              		.cfi_startproc
  73              		@ args = 0, pretend = 0, frame = 0
  74              		@ frame_needed = 0, uses_anonymous_args = 0
  75              	.LVL2:
  76 0000 70B5     		push	{r4, r5, r6, lr}
  77              		.cfi_def_cfa_offset 16
  78              		.cfi_offset 4, -16
  79              		.cfi_offset 5, -12
  80              		.cfi_offset 6, -8
  81              		.cfi_offset 14, -4
  82 0002 0446     		mov	r4, r0
  83              	.LVL3:
 124:Generated_Source\PSoC6\pdl\rtos\FreeRTOS\10.0.1\Source\portable\MemMang/heap_2.c **** 	{
  84              		.loc 1 124 0
  85 0004 FFF7FEFF 		bl	vTaskSuspendAll
  86              	.LVL4:
 128:Generated_Source\PSoC6\pdl\rtos\FreeRTOS\10.0.1\Source\portable\MemMang/heap_2.c **** 		{
  87              		.loc 1 128 0
  88 0008 244B     		ldr	r3, .L17
  89 000a D3F82036 		ldr	r3, [r3, #1568]
  90 000e 2BB9     		cbnz	r3, .L5
 130:Generated_Source\PSoC6\pdl\rtos\FreeRTOS\10.0.1\Source\portable\MemMang/heap_2.c **** 			xHeapHasBeenInitialised = pdTRUE;
  91              		.loc 1 130 0
  92 0010 FFF7FEFF 		bl	prvHeapInit
  93              	.LVL5:
 131:Generated_Source\PSoC6\pdl\rtos\FreeRTOS\10.0.1\Source\portable\MemMang/heap_2.c **** 		}
  94              		.loc 1 131 0
  95 0014 0122     		movs	r2, #1
  96 0016 214B     		ldr	r3, .L17
  97 0018 C3F82026 		str	r2, [r3, #1568]
  98              	.L5:
 136:Generated_Source\PSoC6\pdl\rtos\FreeRTOS\10.0.1\Source\portable\MemMang/heap_2.c **** 		{
  99              		.loc 1 136 0
 100 001c 34B1     		cbz	r4, .L6
 138:Generated_Source\PSoC6\pdl\rtos\FreeRTOS\10.0.1\Source\portable\MemMang/heap_2.c **** 
 101              		.loc 1 138 0
 102 001e 0834     		adds	r4, r4, #8
 103              	.LVL6:
 141:Generated_Source\PSoC6\pdl\rtos\FreeRTOS\10.0.1\Source\portable\MemMang/heap_2.c **** 			{
 104              		.loc 1 141 0
 105 0020 14F0070F 		tst	r4, #7
 106 0024 02D0     		beq	.L6
 144:Generated_Source\PSoC6\pdl\rtos\FreeRTOS\10.0.1\Source\portable\MemMang/heap_2.c **** 			}
 107              		.loc 1 144 0
 108 0026 24F00704 		bic	r4, r4, #7
 109              	.LVL7:
 110 002a 0834     		adds	r4, r4, #8
 111              	.LVL8:
 112              	.L6:
 148:Generated_Source\PSoC6\pdl\rtos\FreeRTOS\10.0.1\Source\portable\MemMang/heap_2.c **** 		{
 113              		.loc 1 148 0
 114 002c 621E     		subs	r2, r4, #1
 115 002e 42F2F673 		movw	r3, #10230
 116 0032 9A42     		cmp	r2, r3
 117 0034 2BD8     		bhi	.L12
 118              	.LVL9:
 153:Generated_Source\PSoC6\pdl\rtos\FreeRTOS\10.0.1\Source\portable\MemMang/heap_2.c **** 			while( ( pxBlock->xBlockSize < xWantedSize ) && ( pxBlock->pxNextFreeBlock != NULL ) )
ARM GAS  C:\Users\SEANIL~1\AppData\Local\Temp\cc2EyAez.s 			page 8


 119              		.loc 1 153 0
 120 0036 1949     		ldr	r1, .L17
 121 0038 D1F81036 		ldr	r3, [r1, #1552]
 122              	.LVL10:
 152:Generated_Source\PSoC6\pdl\rtos\FreeRTOS\10.0.1\Source\portable\MemMang/heap_2.c **** 			pxBlock = xStart.pxNextFreeBlock;
 123              		.loc 1 152 0
 124 003c 01F5C261 		add	r1, r1, #1552
 154:Generated_Source\PSoC6\pdl\rtos\FreeRTOS\10.0.1\Source\portable\MemMang/heap_2.c **** 			{
 125              		.loc 1 154 0
 126 0040 01E0     		b	.L9
 127              	.LVL11:
 128              	.L13:
 156:Generated_Source\PSoC6\pdl\rtos\FreeRTOS\10.0.1\Source\portable\MemMang/heap_2.c **** 				pxBlock = pxBlock->pxNextFreeBlock;
 129              		.loc 1 156 0
 130 0042 1946     		mov	r1, r3
 131              	.LVL12:
 157:Generated_Source\PSoC6\pdl\rtos\FreeRTOS\10.0.1\Source\portable\MemMang/heap_2.c **** 			}
 132              		.loc 1 157 0
 133 0044 1346     		mov	r3, r2
 134              	.LVL13:
 135              	.L9:
 154:Generated_Source\PSoC6\pdl\rtos\FreeRTOS\10.0.1\Source\portable\MemMang/heap_2.c **** 			{
 136              		.loc 1 154 0
 137 0046 5A68     		ldr	r2, [r3, #4]
 138 0048 9442     		cmp	r4, r2
 139 004a 02D9     		bls	.L8
 154:Generated_Source\PSoC6\pdl\rtos\FreeRTOS\10.0.1\Source\portable\MemMang/heap_2.c **** 			{
 140              		.loc 1 154 0 is_stmt 0 discriminator 1
 141 004c 1A68     		ldr	r2, [r3]
 142 004e 002A     		cmp	r2, #0
 143 0050 F7D1     		bne	.L13
 144              	.L8:
 161:Generated_Source\PSoC6\pdl\rtos\FreeRTOS\10.0.1\Source\portable\MemMang/heap_2.c **** 			{
 145              		.loc 1 161 0 is_stmt 1
 146 0052 134A     		ldr	r2, .L17+4
 147 0054 9342     		cmp	r3, r2
 148 0056 1CD0     		beq	.L14
 165:Generated_Source\PSoC6\pdl\rtos\FreeRTOS\10.0.1\Source\portable\MemMang/heap_2.c **** 
 149              		.loc 1 165 0
 150 0058 0D68     		ldr	r5, [r1]
 151 005a 0835     		adds	r5, r5, #8
 152              	.LVL14:
 169:Generated_Source\PSoC6\pdl\rtos\FreeRTOS\10.0.1\Source\portable\MemMang/heap_2.c **** 
 153              		.loc 1 169 0
 154 005c 1A68     		ldr	r2, [r3]
 155 005e 0A60     		str	r2, [r1]
 172:Generated_Source\PSoC6\pdl\rtos\FreeRTOS\10.0.1\Source\portable\MemMang/heap_2.c **** 				{
 156              		.loc 1 172 0
 157 0060 5A68     		ldr	r2, [r3, #4]
 158 0062 121B     		subs	r2, r2, r4
 159 0064 102A     		cmp	r2, #16
 160 0066 0CD9     		bls	.L10
 177:Generated_Source\PSoC6\pdl\rtos\FreeRTOS\10.0.1\Source\portable\MemMang/heap_2.c **** 
 161              		.loc 1 177 0
 162 0068 1E19     		adds	r6, r3, r4
 163              	.LVL15:
 181:Generated_Source\PSoC6\pdl\rtos\FreeRTOS\10.0.1\Source\portable\MemMang/heap_2.c **** 					pxBlock->xBlockSize = xWantedSize;
ARM GAS  C:\Users\SEANIL~1\AppData\Local\Temp\cc2EyAez.s 			page 9


 164              		.loc 1 181 0
 165 006a 7260     		str	r2, [r6, #4]
 182:Generated_Source\PSoC6\pdl\rtos\FreeRTOS\10.0.1\Source\portable\MemMang/heap_2.c **** 
 166              		.loc 1 182 0
 167 006c 5C60     		str	r4, [r3, #4]
 168              	.LBB2:
 185:Generated_Source\PSoC6\pdl\rtos\FreeRTOS\10.0.1\Source\portable\MemMang/heap_2.c **** 				}
 169              		.loc 1 185 0
 170 006e 7468     		ldr	r4, [r6, #4]
 171              	.LVL16:
 172 0070 0C49     		ldr	r1, .L17+8
 173              	.LVL17:
 174 0072 00E0     		b	.L11
 175              	.LVL18:
 176              	.L15:
 177 0074 1146     		mov	r1, r2
 178              	.LVL19:
 179              	.L11:
 185:Generated_Source\PSoC6\pdl\rtos\FreeRTOS\10.0.1\Source\portable\MemMang/heap_2.c **** 				}
 180              		.loc 1 185 0 is_stmt 0 discriminator 1
 181 0076 0A68     		ldr	r2, [r1]
 182 0078 5068     		ldr	r0, [r2, #4]
 183 007a 8442     		cmp	r4, r0
 184 007c FAD8     		bhi	.L15
 185:Generated_Source\PSoC6\pdl\rtos\FreeRTOS\10.0.1\Source\portable\MemMang/heap_2.c **** 				}
 185              		.loc 1 185 0 discriminator 4
 186 007e 3260     		str	r2, [r6]
 187              	.LVL20:
 188 0080 0E60     		str	r6, [r1]
 189              	.LVL21:
 190              	.L10:
 191              	.LBE2:
 188:Generated_Source\PSoC6\pdl\rtos\FreeRTOS\10.0.1\Source\portable\MemMang/heap_2.c **** 			}
 192              		.loc 1 188 0 is_stmt 1
 193 0082 5968     		ldr	r1, [r3, #4]
 194 0084 084A     		ldr	r2, .L17+12
 195 0086 1368     		ldr	r3, [r2]
 196              	.LVL22:
 197 0088 5B1A     		subs	r3, r3, r1
 198 008a 1360     		str	r3, [r2]
 199 008c 02E0     		b	.L7
 200              	.LVL23:
 201              	.L12:
 122:Generated_Source\PSoC6\pdl\rtos\FreeRTOS\10.0.1\Source\portable\MemMang/heap_2.c **** 
 202              		.loc 1 122 0
 203 008e 0025     		movs	r5, #0
 204 0090 00E0     		b	.L7
 205              	.LVL24:
 206              	.L14:
 207 0092 0025     		movs	r5, #0
 208              	.LVL25:
 209              	.L7:
 194:Generated_Source\PSoC6\pdl\rtos\FreeRTOS\10.0.1\Source\portable\MemMang/heap_2.c **** 
 210              		.loc 1 194 0
 211 0094 FFF7FEFF 		bl	xTaskResumeAll
 212              	.LVL26:
 207:Generated_Source\PSoC6\pdl\rtos\FreeRTOS\10.0.1\Source\portable\MemMang/heap_2.c **** /*-----------------------------------------------------------*/
ARM GAS  C:\Users\SEANIL~1\AppData\Local\Temp\cc2EyAez.s 			page 10


 213              		.loc 1 207 0
 214 0098 2846     		mov	r0, r5
 215 009a 70BD     		pop	{r4, r5, r6, pc}
 216              	.LVL27:
 217              	.L18:
 218              		.align	2
 219              	.L17:
 220 009c F0210000 		.word	.LANCHOR1
 221 00a0 08280000 		.word	.LANCHOR1+1560
 222 00a4 00280000 		.word	.LANCHOR1+1552
 223 00a8 00000000 		.word	.LANCHOR2
 224              		.cfi_endproc
 225              	.LFE136:
 226              		.size	pvPortMalloc, .-pvPortMalloc
 227              		.section	.text.vPortFree,"ax",%progbits
 228              		.align	2
 229              		.global	vPortFree
 230              		.thumb
 231              		.thumb_func
 232              		.type	vPortFree, %function
 233              	vPortFree:
 234              	.LFB137:
 211:Generated_Source\PSoC6\pdl\rtos\FreeRTOS\10.0.1\Source\portable\MemMang/heap_2.c **** uint8_t *puc = ( uint8_t * ) pv;
 235              		.loc 1 211 0
 236              		.cfi_startproc
 237              		@ args = 0, pretend = 0, frame = 0
 238              		@ frame_needed = 0, uses_anonymous_args = 0
 239              	.LVL28:
 215:Generated_Source\PSoC6\pdl\rtos\FreeRTOS\10.0.1\Source\portable\MemMang/heap_2.c **** 	{
 240              		.loc 1 215 0
 241 0000 D0B1     		cbz	r0, .L24
 211:Generated_Source\PSoC6\pdl\rtos\FreeRTOS\10.0.1\Source\portable\MemMang/heap_2.c **** uint8_t *puc = ( uint8_t * ) pv;
 242              		.loc 1 211 0
 243 0002 70B5     		push	{r4, r5, r6, lr}
 244              		.cfi_def_cfa_offset 16
 245              		.cfi_offset 4, -16
 246              		.cfi_offset 5, -12
 247              		.cfi_offset 6, -8
 248              		.cfi_offset 14, -4
 249 0004 0546     		mov	r5, r0
 219:Generated_Source\PSoC6\pdl\rtos\FreeRTOS\10.0.1\Source\portable\MemMang/heap_2.c **** 
 250              		.loc 1 219 0
 251 0006 A0F10806 		sub	r6, r0, #8
 252              	.LVL29:
 225:Generated_Source\PSoC6\pdl\rtos\FreeRTOS\10.0.1\Source\portable\MemMang/heap_2.c **** 		{
 253              		.loc 1 225 0
 254 000a FFF7FEFF 		bl	vTaskSuspendAll
 255              	.LVL30:
 256              	.LBB3:
 228:Generated_Source\PSoC6\pdl\rtos\FreeRTOS\10.0.1\Source\portable\MemMang/heap_2.c **** 			xFreeBytesRemaining += pxLink->xBlockSize;
 257              		.loc 1 228 0
 258 000e 55F8044C 		ldr	r4, [r5, #-4]
 259              	.LVL31:
 260 0012 0A4A     		ldr	r2, .L25
 261 0014 00E0     		b	.L21
 262              	.LVL32:
 263              	.L22:
ARM GAS  C:\Users\SEANIL~1\AppData\Local\Temp\cc2EyAez.s 			page 11


 264 0016 1A46     		mov	r2, r3
 265              	.LVL33:
 266              	.L21:
 228:Generated_Source\PSoC6\pdl\rtos\FreeRTOS\10.0.1\Source\portable\MemMang/heap_2.c **** 			xFreeBytesRemaining += pxLink->xBlockSize;
 267              		.loc 1 228 0 is_stmt 0 discriminator 1
 268 0018 1368     		ldr	r3, [r2]
 269 001a 5968     		ldr	r1, [r3, #4]
 270 001c 8C42     		cmp	r4, r1
 271 001e FAD8     		bhi	.L22
 228:Generated_Source\PSoC6\pdl\rtos\FreeRTOS\10.0.1\Source\portable\MemMang/heap_2.c **** 			xFreeBytesRemaining += pxLink->xBlockSize;
 272              		.loc 1 228 0 discriminator 4
 273 0020 45F8083C 		str	r3, [r5, #-8]
 274 0024 1660     		str	r6, [r2]
 275              	.LBE3:
 229:Generated_Source\PSoC6\pdl\rtos\FreeRTOS\10.0.1\Source\portable\MemMang/heap_2.c **** 			traceFREE( pv, pxLink->xBlockSize );
 276              		.loc 1 229 0 is_stmt 1 discriminator 4
 277 0026 55F8043C 		ldr	r3, [r5, #-4]
 278 002a 054A     		ldr	r2, .L25+4
 279              	.LVL34:
 280 002c 1168     		ldr	r1, [r2]
 281 002e 0B44     		add	r3, r3, r1
 282 0030 1360     		str	r3, [r2]
 232:Generated_Source\PSoC6\pdl\rtos\FreeRTOS\10.0.1\Source\portable\MemMang/heap_2.c **** 	}
 283              		.loc 1 232 0 discriminator 4
 284 0032 FFF7FEFF 		bl	xTaskResumeAll
 285              	.LVL35:
 286 0036 70BD     		pop	{r4, r5, r6, pc}
 287              	.LVL36:
 288              	.L24:
 289              		.cfi_def_cfa_offset 0
 290              		.cfi_restore 4
 291              		.cfi_restore 5
 292              		.cfi_restore 6
 293              		.cfi_restore 14
 294 0038 7047     		bx	lr
 295              	.L26:
 296 003a 00BF     		.align	2
 297              	.L25:
 298 003c 00280000 		.word	.LANCHOR1+1552
 299 0040 00000000 		.word	.LANCHOR2
 300              		.cfi_endproc
 301              	.LFE137:
 302              		.size	vPortFree, .-vPortFree
 303              		.section	.text.xPortGetFreeHeapSize,"ax",%progbits
 304              		.align	2
 305              		.global	xPortGetFreeHeapSize
 306              		.thumb
 307              		.thumb_func
 308              		.type	xPortGetFreeHeapSize, %function
 309              	xPortGetFreeHeapSize:
 310              	.LFB138:
 238:Generated_Source\PSoC6\pdl\rtos\FreeRTOS\10.0.1\Source\portable\MemMang/heap_2.c **** 	return xFreeBytesRemaining;
 311              		.loc 1 238 0
 312              		.cfi_startproc
 313              		@ args = 0, pretend = 0, frame = 0
 314              		@ frame_needed = 0, uses_anonymous_args = 0
 315              		@ link register save eliminated.
ARM GAS  C:\Users\SEANIL~1\AppData\Local\Temp\cc2EyAez.s 			page 12


 240:Generated_Source\PSoC6\pdl\rtos\FreeRTOS\10.0.1\Source\portable\MemMang/heap_2.c **** /*-----------------------------------------------------------*/
 316              		.loc 1 240 0
 317 0000 014B     		ldr	r3, .L28
 318 0002 1868     		ldr	r0, [r3]
 319 0004 7047     		bx	lr
 320              	.L29:
 321 0006 00BF     		.align	2
 322              	.L28:
 323 0008 00000000 		.word	.LANCHOR2
 324              		.cfi_endproc
 325              	.LFE138:
 326              		.size	xPortGetFreeHeapSize, .-xPortGetFreeHeapSize
 327              		.section	.text.vPortInitialiseBlocks,"ax",%progbits
 328              		.align	2
 329              		.global	vPortInitialiseBlocks
 330              		.thumb
 331              		.thumb_func
 332              		.type	vPortInitialiseBlocks, %function
 333              	vPortInitialiseBlocks:
 334              	.LFB139:
 244:Generated_Source\PSoC6\pdl\rtos\FreeRTOS\10.0.1\Source\portable\MemMang/heap_2.c **** 	/* This just exists to keep the linker quiet. */
 335              		.loc 1 244 0
 336              		.cfi_startproc
 337              		@ args = 0, pretend = 0, frame = 0
 338              		@ frame_needed = 0, uses_anonymous_args = 0
 339              		@ link register save eliminated.
 340 0000 7047     		bx	lr
 341              		.cfi_endproc
 342              	.LFE139:
 343              		.size	vPortInitialiseBlocks, .-vPortInitialiseBlocks
 344 0002 00BF     		.data
 345              		.align	2
 346              		.set	.LANCHOR2,. + 0
 347              		.type	xFreeBytesRemaining, %object
 348              		.size	xFreeBytesRemaining, 4
 349              	xFreeBytesRemaining:
 350 0000 F8270000 		.word	10232
 351              		.bss
 352              		.align	2
 353              		.set	.LANCHOR0,. + 0
 354              		.set	.LANCHOR1,. + 8688
 355              		.type	ucHeap, %object
 356              		.size	ucHeap, 10240
 357              	ucHeap:
 358 0000 00000000 		.space	10240
 358      00000000 
 358      00000000 
 358      00000000 
 358      00000000 
 359              		.type	xStart, %object
 360              		.size	xStart, 8
 361              	xStart:
 362 2800 00000000 		.space	8
 362      00000000 
 363              		.type	xEnd, %object
 364              		.size	xEnd, 8
 365              	xEnd:
ARM GAS  C:\Users\SEANIL~1\AppData\Local\Temp\cc2EyAez.s 			page 13


 366 2808 00000000 		.space	8
 366      00000000 
 367              		.type	xHeapHasBeenInitialised.11068, %object
 368              		.size	xHeapHasBeenInitialised.11068, 4
 369              	xHeapHasBeenInitialised.11068:
 370 2810 00000000 		.space	4
 371              		.text
 372              	.Letext0:
 373              		.file 2 "c:\\program files (x86)\\cypress\\psoc creator\\4.4\\psoc creator\\import\\gnu\\arm\\5.4.
 374              		.file 3 "c:\\program files (x86)\\cypress\\psoc creator\\4.4\\psoc creator\\import\\gnu\\arm\\5.4.
 375              		.file 4 "c:\\program files (x86)\\cypress\\psoc creator\\4.4\\psoc creator\\import\\gnu\\arm\\5.4.
 376              		.file 5 "Generated_Source\\PSoC6\\pdl\\rtos/FreeRTOS/10.0.1/Source/portable/GCC/CM4F/portmacro.h"
 377              		.file 6 "Generated_Source\\PSoC6\\pdl\\rtos/FreeRTOS/10.0.1/Source/include/task.h"
 378              		.file 7 "Generated_Source\\PSoC6\\pdl\\cmsis/include/core_cm4.h"