ARM GAS  C:\Users\cmila\AppData\Local\Temp\ccqwXksn.s 			page 1


   1              		.syntax unified
   2              		.cpu cortex-m4
   3              		.eabi_attribute 27, 1
   4              		.fpu fpv4-sp-d16
   5              		.eabi_attribute 20, 1
   6              		.eabi_attribute 21, 1
   7              		.eabi_attribute 23, 3
   8              		.eabi_attribute 24, 1
   9              		.eabi_attribute 25, 1
  10              		.eabi_attribute 26, 1
  11              		.eabi_attribute 30, 1
  12              		.eabi_attribute 34, 1
  13              		.eabi_attribute 18, 4
  14              		.thumb
  15              		.syntax unified
  16              		.file	"main_cm4.c"
  17              		.text
  18              	.Ltext0:
  19              		.cfi_sections	.debug_frame
  20              		.section	.text.start_dac,"ax",%progbits
  21              		.align	2
  22              		.global	start_dac
  23              		.thumb
  24              		.thumb_func
  25              		.type	start_dac, %function
  26              	start_dac:
  27              	.LFB580:
  28              		.file 1 "main_cm4.c"
   1:main_cm4.c    **** /* ========================================
   2:main_cm4.c    ****  *
   3:main_cm4.c    ****  * Copyright YOUR COMPANY, THE YEAR
   4:main_cm4.c    ****  * All Rights Reserved
   5:main_cm4.c    ****  * UNPUBLISHED, LICENSED SOFTWARE.
   6:main_cm4.c    ****  *
   7:main_cm4.c    ****  * CONFIDENTIAL AND PROPRIETARY INFORMATION
   8:main_cm4.c    ****  * WHICH IS THE PROPERTY OF your company.
   9:main_cm4.c    ****  *
  10:main_cm4.c    ****  * ========================================
  11:main_cm4.c    **** */
  12:main_cm4.c    **** #include "project.h"
  13:main_cm4.c    **** #include <stdio.h>
  14:main_cm4.c    **** #include "FreeRTOS.h"
  15:main_cm4.c    **** #include "task.h"
  16:main_cm4.c    **** #include <time.h>
  17:main_cm4.c    **** #include "ctdac/cy_ctdac.h"
  18:main_cm4.c    **** 
  19:main_cm4.c    **** // Make an RTOS task which makes the dac send biphasic pulses
  20:main_cm4.c    **** 
  21:main_cm4.c    **** void start_dac(void *p1/*, void *p2, void *p3, void *p4*/) {
  29              		.loc 1 21 0
  30              		.cfi_startproc
  31              		@ args = 0, pretend = 0, frame = 0
  32              		@ frame_needed = 0, uses_anonymous_args = 0
  33              	.LVL0:
  34 0000 2DE9F041 		push	{r4, r5, r6, r7, r8, lr}
  35              		.cfi_def_cfa_offset 24
  36              		.cfi_offset 4, -24
ARM GAS  C:\Users\cmila\AppData\Local\Temp\ccqwXksn.s 			page 2


  37              		.cfi_offset 5, -20
  38              		.cfi_offset 6, -16
  39              		.cfi_offset 7, -12
  40              		.cfi_offset 8, -8
  41              		.cfi_offset 14, -4
  42              	.LVL1:
  43              	.L2:
  22:main_cm4.c    ****     /* uint16_t *phase1; // time stuck in phase 1
  23:main_cm4.c    ****     uint16_t *phase2; // time stuck in phase 2
  24:main_cm4.c    ****     uint16_t *inter_stim_delay; // delay between phase 1 and phase 2
  25:main_cm4.c    ****     uint16_t *stim_gap; // time delay between biphasic stimulation
  26:main_cm4.c    ****     phase1 = (uint16_t *) p1;
  27:main_cm4.c    ****     phase2 = (uint16_t *) p2;
  28:main_cm4.c    ****     inter_stim_delay = (uint16_t *) p3;
  29:main_cm4.c    ****     stim_gap = (uint16_t *) p4; */
  30:main_cm4.c    ****     
  31:main_cm4.c    ****     uint16_t phase1 = 15;
  32:main_cm4.c    ****     uint16_t phase2 = 15;
  33:main_cm4.c    ****     uint16_t inter_stim_delay = 15;
  34:main_cm4.c    ****     uint16_t stim_gap = 50;
  35:main_cm4.c    ****     
  36:main_cm4.c    ****     // continous biphasic
  37:main_cm4.c    ****     for (;;) {
  38:main_cm4.c    ****         // delay in microseconds
  39:main_cm4.c    ****         CyDelayUs(stim_gap);
  44              		.loc 1 39 0 discriminator 1
  45 0004 3220     		movs	r0, #50
  46 0006 FFF7FEFF 		bl	Cy_SysLib_DelayUs
  47              	.LVL2:
  48              	.LBB68:
  49              	.LBB69:
  50              		.file 2 "Generated_Source\\PSoC6\\pdl\\drivers/peripheral/ctdac/cy_ctdac.h"
   1:Generated_Source\PSoC6\pdl\drivers/peripheral/ctdac/cy_ctdac.h **** /***************************************************************************//**
   2:Generated_Source\PSoC6\pdl\drivers/peripheral/ctdac/cy_ctdac.h **** * \file cy_ctdac.h
   3:Generated_Source\PSoC6\pdl\drivers/peripheral/ctdac/cy_ctdac.h **** * \version 2.0
   4:Generated_Source\PSoC6\pdl\drivers/peripheral/ctdac/cy_ctdac.h **** *
   5:Generated_Source\PSoC6\pdl\drivers/peripheral/ctdac/cy_ctdac.h **** * Header file for the CTDAC driver
   6:Generated_Source\PSoC6\pdl\drivers/peripheral/ctdac/cy_ctdac.h **** *
   7:Generated_Source\PSoC6\pdl\drivers/peripheral/ctdac/cy_ctdac.h **** ********************************************************************************
   8:Generated_Source\PSoC6\pdl\drivers/peripheral/ctdac/cy_ctdac.h **** * \copyright
   9:Generated_Source\PSoC6\pdl\drivers/peripheral/ctdac/cy_ctdac.h **** * Copyright 2017-2018, Cypress Semiconductor Corporation. All rights reserved.
  10:Generated_Source\PSoC6\pdl\drivers/peripheral/ctdac/cy_ctdac.h **** * You may use this file only in accordance with the license, terms, conditions,
  11:Generated_Source\PSoC6\pdl\drivers/peripheral/ctdac/cy_ctdac.h **** * disclaimers, and limitations in the end user license agreement accompanying
  12:Generated_Source\PSoC6\pdl\drivers/peripheral/ctdac/cy_ctdac.h **** * the software package with which this file was provided.
  13:Generated_Source\PSoC6\pdl\drivers/peripheral/ctdac/cy_ctdac.h **** *******************************************************************************/
  14:Generated_Source\PSoC6\pdl\drivers/peripheral/ctdac/cy_ctdac.h **** 
  15:Generated_Source\PSoC6\pdl\drivers/peripheral/ctdac/cy_ctdac.h **** /**
  16:Generated_Source\PSoC6\pdl\drivers/peripheral/ctdac/cy_ctdac.h **** * \addtogroup group_ctdac
  17:Generated_Source\PSoC6\pdl\drivers/peripheral/ctdac/cy_ctdac.h **** * \{
  18:Generated_Source\PSoC6\pdl\drivers/peripheral/ctdac/cy_ctdac.h **** * The CTDAC driver provides APIs to configure the 12-bit Continuous-Time DAC.
  19:Generated_Source\PSoC6\pdl\drivers/peripheral/ctdac/cy_ctdac.h **** *
  20:Generated_Source\PSoC6\pdl\drivers/peripheral/ctdac/cy_ctdac.h **** * The functions and other declarations used in this driver are in cy_ctdac.h. 
  21:Generated_Source\PSoC6\pdl\drivers/peripheral/ctdac/cy_ctdac.h **** * You can include cy_pdl.h (ModusToolbox only) to get access to all functions 
  22:Generated_Source\PSoC6\pdl\drivers/peripheral/ctdac/cy_ctdac.h **** * and declarations in the PDL.
  23:Generated_Source\PSoC6\pdl\drivers/peripheral/ctdac/cy_ctdac.h **** *
  24:Generated_Source\PSoC6\pdl\drivers/peripheral/ctdac/cy_ctdac.h **** * - 12-bit continuous time output
  25:Generated_Source\PSoC6\pdl\drivers/peripheral/ctdac/cy_ctdac.h **** * - 2 us settling time for a 25 pF load when output buffered through Opamp0 of \ref group_ctb "CTB"
ARM GAS  C:\Users\cmila\AppData\Local\Temp\ccqwXksn.s 			page 3


  26:Generated_Source\PSoC6\pdl\drivers/peripheral/ctdac/cy_ctdac.h **** * - Can be enabled in Deep Sleep power mode
  27:Generated_Source\PSoC6\pdl\drivers/peripheral/ctdac/cy_ctdac.h **** * - Selectable voltage reference:
  28:Generated_Source\PSoC6\pdl\drivers/peripheral/ctdac/cy_ctdac.h **** *       - VDDA
  29:Generated_Source\PSoC6\pdl\drivers/peripheral/ctdac/cy_ctdac.h **** *       - Internal analog reference buffered through Opamp1 of \ref group_ctb "CTB"
  30:Generated_Source\PSoC6\pdl\drivers/peripheral/ctdac/cy_ctdac.h **** *       - External reference buffered through Opamp1 of \ref group_ctb "CTB"
  31:Generated_Source\PSoC6\pdl\drivers/peripheral/ctdac/cy_ctdac.h **** * - Selectable output paths:
  32:Generated_Source\PSoC6\pdl\drivers/peripheral/ctdac/cy_ctdac.h **** *       - Direct DAC output to a pin
  33:Generated_Source\PSoC6\pdl\drivers/peripheral/ctdac/cy_ctdac.h **** *       - Buffered DAC output through Opamp0 of \ref group_ctb "CTB"
  34:Generated_Source\PSoC6\pdl\drivers/peripheral/ctdac/cy_ctdac.h **** *       - Sample and hold output path through Opamp0 of \ref group_ctb "CTB"
  35:Generated_Source\PSoC6\pdl\drivers/peripheral/ctdac/cy_ctdac.h **** * - Selectable input modes:
  36:Generated_Source\PSoC6\pdl\drivers/peripheral/ctdac/cy_ctdac.h **** *       - Unsigned 12-bit mode
  37:Generated_Source\PSoC6\pdl\drivers/peripheral/ctdac/cy_ctdac.h **** *       - Virtual signed 12-bit mode
  38:Generated_Source\PSoC6\pdl\drivers/peripheral/ctdac/cy_ctdac.h **** * - Configurable update rate using clock or strobe signal
  39:Generated_Source\PSoC6\pdl\drivers/peripheral/ctdac/cy_ctdac.h **** * - Double buffered DAC voltage control register
  40:Generated_Source\PSoC6\pdl\drivers/peripheral/ctdac/cy_ctdac.h **** * - Interrupt and DMA trigger on DAC buffer empty
  41:Generated_Source\PSoC6\pdl\drivers/peripheral/ctdac/cy_ctdac.h **** * - Configurable as PGA along with Opamp1 of the \ref group_ctb "CTB"
  42:Generated_Source\PSoC6\pdl\drivers/peripheral/ctdac/cy_ctdac.h **** *
  43:Generated_Source\PSoC6\pdl\drivers/peripheral/ctdac/cy_ctdac.h **** * The CTDAC generates a 12-bit DAC output voltage from the reference.
  44:Generated_Source\PSoC6\pdl\drivers/peripheral/ctdac/cy_ctdac.h **** * The DAC reference can come from VDDA or from any signal buffered through Opamp0
  45:Generated_Source\PSoC6\pdl\drivers/peripheral/ctdac/cy_ctdac.h **** * of the CTB. This can be an external signal through a GPIO or from the internal
  46:Generated_Source\PSoC6\pdl\drivers/peripheral/ctdac/cy_ctdac.h **** * AREF. The CTDAC is closely integrated with the CTB block,
  47:Generated_Source\PSoC6\pdl\drivers/peripheral/ctdac/cy_ctdac.h **** * which provides easy buffering of the DAC output voltage,
  48:Generated_Source\PSoC6\pdl\drivers/peripheral/ctdac/cy_ctdac.h **** * buffered input reference voltage, and sample and hold for the DAC output.
  49:Generated_Source\PSoC6\pdl\drivers/peripheral/ctdac/cy_ctdac.h **** * The CTDAC control interface provides control of the DAC output through CPU or DMA.
  50:Generated_Source\PSoC6\pdl\drivers/peripheral/ctdac/cy_ctdac.h **** * This includes a double-buffered DAC voltage control register, clock input for programmable
  51:Generated_Source\PSoC6\pdl\drivers/peripheral/ctdac/cy_ctdac.h **** * update rate, interrupt on DAC buffer empty, and trigger to DMA.
  52:Generated_Source\PSoC6\pdl\drivers/peripheral/ctdac/cy_ctdac.h **** *
  53:Generated_Source\PSoC6\pdl\drivers/peripheral/ctdac/cy_ctdac.h **** * \image html ctdac_block_diagram.png
  54:Generated_Source\PSoC6\pdl\drivers/peripheral/ctdac/cy_ctdac.h **** * \image latex ctdac_block_diagram.png
  55:Generated_Source\PSoC6\pdl\drivers/peripheral/ctdac/cy_ctdac.h **** *
  56:Generated_Source\PSoC6\pdl\drivers/peripheral/ctdac/cy_ctdac.h **** * The CTDAC has two switches, CO6 for configuring the output path and
  57:Generated_Source\PSoC6\pdl\drivers/peripheral/ctdac/cy_ctdac.h **** * CVD for the reference source.
  58:Generated_Source\PSoC6\pdl\drivers/peripheral/ctdac/cy_ctdac.h **** *
  59:Generated_Source\PSoC6\pdl\drivers/peripheral/ctdac/cy_ctdac.h **** * \image html ctdac_switches.png
  60:Generated_Source\PSoC6\pdl\drivers/peripheral/ctdac/cy_ctdac.h **** * \image latex ctdac_switches.png
  61:Generated_Source\PSoC6\pdl\drivers/peripheral/ctdac/cy_ctdac.h **** *
  62:Generated_Source\PSoC6\pdl\drivers/peripheral/ctdac/cy_ctdac.h **** * \section group_ctdac_init Initialization
  63:Generated_Source\PSoC6\pdl\drivers/peripheral/ctdac/cy_ctdac.h **** *
  64:Generated_Source\PSoC6\pdl\drivers/peripheral/ctdac/cy_ctdac.h **** * Configure the CTDAC hardware block by calling \ref Cy_CTDAC_Init.
  65:Generated_Source\PSoC6\pdl\drivers/peripheral/ctdac/cy_ctdac.h **** * The base address of the CTDAC hardware can be found in the device-specific header file.
  66:Generated_Source\PSoC6\pdl\drivers/peripheral/ctdac/cy_ctdac.h **** * If the buffers in the CTB are used for the reference source or the output,
  67:Generated_Source\PSoC6\pdl\drivers/peripheral/ctdac/cy_ctdac.h **** * initialize the CTB hardware block. After both blocks are initialized,
  68:Generated_Source\PSoC6\pdl\drivers/peripheral/ctdac/cy_ctdac.h **** * enable the CTB block before enabling the CTDAC block.
  69:Generated_Source\PSoC6\pdl\drivers/peripheral/ctdac/cy_ctdac.h **** *
  70:Generated_Source\PSoC6\pdl\drivers/peripheral/ctdac/cy_ctdac.h **** * The driver also provides a \ref Cy_CTDAC_FastInit function for fast and easy initialization of th
  71:Generated_Source\PSoC6\pdl\drivers/peripheral/ctdac/cy_ctdac.h **** * The driver has pre-defined configuration structures for the four combinations of the reference an
  72:Generated_Source\PSoC6\pdl\drivers/peripheral/ctdac/cy_ctdac.h **** *
  73:Generated_Source\PSoC6\pdl\drivers/peripheral/ctdac/cy_ctdac.h **** * - \ref Cy_CTDAC_Fast_VddaRef_UnbufferedOut
  74:Generated_Source\PSoC6\pdl\drivers/peripheral/ctdac/cy_ctdac.h **** * - \ref Cy_CTDAC_Fast_VddaRef_BufferedOut
  75:Generated_Source\PSoC6\pdl\drivers/peripheral/ctdac/cy_ctdac.h **** * - \ref Cy_CTDAC_Fast_OA1Ref_UnbufferedOut
  76:Generated_Source\PSoC6\pdl\drivers/peripheral/ctdac/cy_ctdac.h **** * - \ref Cy_CTDAC_Fast_OA1Ref_BufferedOut
  77:Generated_Source\PSoC6\pdl\drivers/peripheral/ctdac/cy_ctdac.h **** *
  78:Generated_Source\PSoC6\pdl\drivers/peripheral/ctdac/cy_ctdac.h **** * After initialization, call \ref Cy_CTDAC_Enable to enable the hardware.
  79:Generated_Source\PSoC6\pdl\drivers/peripheral/ctdac/cy_ctdac.h **** *
  80:Generated_Source\PSoC6\pdl\drivers/peripheral/ctdac/cy_ctdac.h **** * \section group_ctdac_updatemode Update Modes
  81:Generated_Source\PSoC6\pdl\drivers/peripheral/ctdac/cy_ctdac.h **** * The CTDAC contains two registers:
  82:Generated_Source\PSoC6\pdl\drivers/peripheral/ctdac/cy_ctdac.h **** *   -# CTDAC_VAL
ARM GAS  C:\Users\cmila\AppData\Local\Temp\ccqwXksn.s 			page 4


  83:Generated_Source\PSoC6\pdl\drivers/peripheral/ctdac/cy_ctdac.h **** *
  84:Generated_Source\PSoC6\pdl\drivers/peripheral/ctdac/cy_ctdac.h **** *       For direct firmware writes to update the current DAC value immediately.
  85:Generated_Source\PSoC6\pdl\drivers/peripheral/ctdac/cy_ctdac.h **** *       This register is written with \ref Cy_CTDAC_SetValue.
  86:Generated_Source\PSoC6\pdl\drivers/peripheral/ctdac/cy_ctdac.h **** *   -# CTDAC_VAL_NXT
  87:Generated_Source\PSoC6\pdl\drivers/peripheral/ctdac/cy_ctdac.h **** *
  88:Generated_Source\PSoC6\pdl\drivers/peripheral/ctdac/cy_ctdac.h **** *       For buffered writes to update the DAC value at a
  89:Generated_Source\PSoC6\pdl\drivers/peripheral/ctdac/cy_ctdac.h **** *       periodic rate or with a strobe trigger input.
  90:Generated_Source\PSoC6\pdl\drivers/peripheral/ctdac/cy_ctdac.h **** *       This register is written with \ref Cy_CTDAC_SetValueBuffered.
  91:Generated_Source\PSoC6\pdl\drivers/peripheral/ctdac/cy_ctdac.h **** *
  92:Generated_Source\PSoC6\pdl\drivers/peripheral/ctdac/cy_ctdac.h **** * The update mode is
  93:Generated_Source\PSoC6\pdl\drivers/peripheral/ctdac/cy_ctdac.h **** * selected during initialization with the \ref cy_stc_ctdac_config_t.updateMode.
  94:Generated_Source\PSoC6\pdl\drivers/peripheral/ctdac/cy_ctdac.h **** * Four of these modes require a dedicated clock resource and the driver
  95:Generated_Source\PSoC6\pdl\drivers/peripheral/ctdac/cy_ctdac.h **** * can configure the clock during initialization (see \ref cy_stc_ctdac_config_t).
  96:Generated_Source\PSoC6\pdl\drivers/peripheral/ctdac/cy_ctdac.h **** *
  97:Generated_Source\PSoC6\pdl\drivers/peripheral/ctdac/cy_ctdac.h **** * Three of these modes use a strobe signal through the digital signal interface (DSI).
  98:Generated_Source\PSoC6\pdl\drivers/peripheral/ctdac/cy_ctdac.h **** * This allows control of the buffered update timing from an external source, for example, by anothe
  99:Generated_Source\PSoC6\pdl\drivers/peripheral/ctdac/cy_ctdac.h **** * chip peripheral or from an off-chip source.
 100:Generated_Source\PSoC6\pdl\drivers/peripheral/ctdac/cy_ctdac.h **** *
 101:Generated_Source\PSoC6\pdl\drivers/peripheral/ctdac/cy_ctdac.h **** * \subsection group_ctdac_updatemode_direct_write Direct write
 102:Generated_Source\PSoC6\pdl\drivers/peripheral/ctdac/cy_ctdac.h **** *
 103:Generated_Source\PSoC6\pdl\drivers/peripheral/ctdac/cy_ctdac.h **** * In this mode, the user writes directly into the CTDAC_VAL register
 104:Generated_Source\PSoC6\pdl\drivers/peripheral/ctdac/cy_ctdac.h **** * using \ref Cy_CTDAC_SetValue. The action of writing to this register
 105:Generated_Source\PSoC6\pdl\drivers/peripheral/ctdac/cy_ctdac.h **** * will update the DAC output. This mode does not generate an interrupt
 106:Generated_Source\PSoC6\pdl\drivers/peripheral/ctdac/cy_ctdac.h **** * or trigger signal.
 107:Generated_Source\PSoC6\pdl\drivers/peripheral/ctdac/cy_ctdac.h **** * In this mode, a clock must not be configured. Additionally, calling \ref
 108:Generated_Source\PSoC6\pdl\drivers/peripheral/ctdac/cy_ctdac.h **** * Cy_CTDAC_SetValueBuffered does not update the DAC output.
 109:Generated_Source\PSoC6\pdl\drivers/peripheral/ctdac/cy_ctdac.h **** *
 110:Generated_Source\PSoC6\pdl\drivers/peripheral/ctdac/cy_ctdac.h **** * \image html ctdac_update_mode_direct_write.png
 111:Generated_Source\PSoC6\pdl\drivers/peripheral/ctdac/cy_ctdac.h **** * \image latex ctdac_update_mode_direct_write.png
 112:Generated_Source\PSoC6\pdl\drivers/peripheral/ctdac/cy_ctdac.h **** *
 113:Generated_Source\PSoC6\pdl\drivers/peripheral/ctdac/cy_ctdac.h **** * \subsection group_ctdac_updatemode_buffered_write Buffered write
 114:Generated_Source\PSoC6\pdl\drivers/peripheral/ctdac/cy_ctdac.h **** *
 115:Generated_Source\PSoC6\pdl\drivers/peripheral/ctdac/cy_ctdac.h **** * In this mode, the user writes to the CTDAC_VAL_NXT register using
 116:Generated_Source\PSoC6\pdl\drivers/peripheral/ctdac/cy_ctdac.h **** * \ref Cy_CTDAC_SetValueBuffered. The rising edge of the clock
 117:Generated_Source\PSoC6\pdl\drivers/peripheral/ctdac/cy_ctdac.h **** * will update the DAC output and generate the interrupt and trigger signals.
 118:Generated_Source\PSoC6\pdl\drivers/peripheral/ctdac/cy_ctdac.h **** *
 119:Generated_Source\PSoC6\pdl\drivers/peripheral/ctdac/cy_ctdac.h **** * Whenever data is transferred from the CTDAC_VAL_NXT register,
 120:Generated_Source\PSoC6\pdl\drivers/peripheral/ctdac/cy_ctdac.h **** * an interrupt is asserted the same time as the trigger. But while
 121:Generated_Source\PSoC6\pdl\drivers/peripheral/ctdac/cy_ctdac.h **** * the trigger is automatically cleared after two PeriClk cycles, the
 122:Generated_Source\PSoC6\pdl\drivers/peripheral/ctdac/cy_ctdac.h **** * user must clear the interrupt with \ref Cy_CTDAC_ClearInterrupt.
 123:Generated_Source\PSoC6\pdl\drivers/peripheral/ctdac/cy_ctdac.h **** *
 124:Generated_Source\PSoC6\pdl\drivers/peripheral/ctdac/cy_ctdac.h **** * \image html ctdac_update_mode_buffered_write.png
 125:Generated_Source\PSoC6\pdl\drivers/peripheral/ctdac/cy_ctdac.h **** * \image latex ctdac_update_mode_buffered_write.png
 126:Generated_Source\PSoC6\pdl\drivers/peripheral/ctdac/cy_ctdac.h **** *
 127:Generated_Source\PSoC6\pdl\drivers/peripheral/ctdac/cy_ctdac.h **** * \subsection group_ctdac_updatemode_strobe_edge_sync Strobe edge sync
 128:Generated_Source\PSoC6\pdl\drivers/peripheral/ctdac/cy_ctdac.h **** *
 129:Generated_Source\PSoC6\pdl\drivers/peripheral/ctdac/cy_ctdac.h **** * In this mode, the user writes to the CTDAC_VAL_NXT register using
 130:Generated_Source\PSoC6\pdl\drivers/peripheral/ctdac/cy_ctdac.h **** * \ref Cy_CTDAC_SetValueBuffered.
 131:Generated_Source\PSoC6\pdl\drivers/peripheral/ctdac/cy_ctdac.h **** * Each rising edge of the DSI strobe input enables
 132:Generated_Source\PSoC6\pdl\drivers/peripheral/ctdac/cy_ctdac.h **** * one subsequent update from the next rising edge of the clock. The DSI
 133:Generated_Source\PSoC6\pdl\drivers/peripheral/ctdac/cy_ctdac.h **** * input must remain high for two PeriClk cycles and go low for
 134:Generated_Source\PSoC6\pdl\drivers/peripheral/ctdac/cy_ctdac.h **** * another two PeriClk cycles to allow for the next update.
 135:Generated_Source\PSoC6\pdl\drivers/peripheral/ctdac/cy_ctdac.h **** * This restricts the DSI strobe input frequency to the PeriClk frequency divided by four.
 136:Generated_Source\PSoC6\pdl\drivers/peripheral/ctdac/cy_ctdac.h **** *
 137:Generated_Source\PSoC6\pdl\drivers/peripheral/ctdac/cy_ctdac.h **** * \image html ctdac_update_mode_strobe_edge_sync.png
 138:Generated_Source\PSoC6\pdl\drivers/peripheral/ctdac/cy_ctdac.h **** * \image latex ctdac_update_mode_strobe_edge_sync.png
 139:Generated_Source\PSoC6\pdl\drivers/peripheral/ctdac/cy_ctdac.h **** *
ARM GAS  C:\Users\cmila\AppData\Local\Temp\ccqwXksn.s 			page 5


 140:Generated_Source\PSoC6\pdl\drivers/peripheral/ctdac/cy_ctdac.h **** * \subsection group_ctdac_updatemode_strobe_edge_immediate Strobe edge immediate
 141:Generated_Source\PSoC6\pdl\drivers/peripheral/ctdac/cy_ctdac.h **** *
 142:Generated_Source\PSoC6\pdl\drivers/peripheral/ctdac/cy_ctdac.h **** * In this mode, the user writes to the CTDAC_VAL_NXT register using
 143:Generated_Source\PSoC6\pdl\drivers/peripheral/ctdac/cy_ctdac.h **** * \ref Cy_CTDAC_SetValueBuffered.
 144:Generated_Source\PSoC6\pdl\drivers/peripheral/ctdac/cy_ctdac.h **** * The clock resource is used but set to a logic high.
 145:Generated_Source\PSoC6\pdl\drivers/peripheral/ctdac/cy_ctdac.h **** * Therefore, each rising edge of the DSI strobe input immediately
 146:Generated_Source\PSoC6\pdl\drivers/peripheral/ctdac/cy_ctdac.h **** * updates the DAC output.
 147:Generated_Source\PSoC6\pdl\drivers/peripheral/ctdac/cy_ctdac.h **** *
 148:Generated_Source\PSoC6\pdl\drivers/peripheral/ctdac/cy_ctdac.h **** * \image html ctdac_update_mode_strobe_edge_immediate.png
 149:Generated_Source\PSoC6\pdl\drivers/peripheral/ctdac/cy_ctdac.h **** * \image latex ctdac_update_mode_strobe_edge_immediate.png
 150:Generated_Source\PSoC6\pdl\drivers/peripheral/ctdac/cy_ctdac.h **** *
 151:Generated_Source\PSoC6\pdl\drivers/peripheral/ctdac/cy_ctdac.h **** * \subsection group_ctdac_updatemode_strobe_level Strobe level
 152:Generated_Source\PSoC6\pdl\drivers/peripheral/ctdac/cy_ctdac.h **** *
 153:Generated_Source\PSoC6\pdl\drivers/peripheral/ctdac/cy_ctdac.h **** * In this mode, the user writes to the CTDAC_VAL_NXT register using
 154:Generated_Source\PSoC6\pdl\drivers/peripheral/ctdac/cy_ctdac.h **** * \ref Cy_CTDAC_SetValueBuffered.
 155:Generated_Source\PSoC6\pdl\drivers/peripheral/ctdac/cy_ctdac.h **** * The DSI strobe input acts as a hardware enable signal.
 156:Generated_Source\PSoC6\pdl\drivers/peripheral/ctdac/cy_ctdac.h **** * While the DSI strobe input is high, the mode behaves
 157:Generated_Source\PSoC6\pdl\drivers/peripheral/ctdac/cy_ctdac.h **** * like the Buffered write mode. When the DSI strobe input is low,
 158:Generated_Source\PSoC6\pdl\drivers/peripheral/ctdac/cy_ctdac.h **** * updates are disabled.
 159:Generated_Source\PSoC6\pdl\drivers/peripheral/ctdac/cy_ctdac.h **** *
 160:Generated_Source\PSoC6\pdl\drivers/peripheral/ctdac/cy_ctdac.h **** * \image html ctdac_update_mode_strobe_level.png
 161:Generated_Source\PSoC6\pdl\drivers/peripheral/ctdac/cy_ctdac.h **** * \image latex ctdac_update_mode_strobe_level.png
 162:Generated_Source\PSoC6\pdl\drivers/peripheral/ctdac/cy_ctdac.h **** *
 163:Generated_Source\PSoC6\pdl\drivers/peripheral/ctdac/cy_ctdac.h **** * \section group_ctdac_dacmode DAC Modes
 164:Generated_Source\PSoC6\pdl\drivers/peripheral/ctdac/cy_ctdac.h **** *
 165:Generated_Source\PSoC6\pdl\drivers/peripheral/ctdac/cy_ctdac.h **** * The format of code stored in the CTDAC_VAL register can either be unsigned
 166:Generated_Source\PSoC6\pdl\drivers/peripheral/ctdac/cy_ctdac.h **** * or signed two's complemented.
 167:Generated_Source\PSoC6\pdl\drivers/peripheral/ctdac/cy_ctdac.h **** * Only the first 12 bits of the register are used by the DAC so there is
 168:Generated_Source\PSoC6\pdl\drivers/peripheral/ctdac/cy_ctdac.h **** * no need for sign extension. With the signed format, the DAC decodes
 169:Generated_Source\PSoC6\pdl\drivers/peripheral/ctdac/cy_ctdac.h **** * the code in the register by adding 0x800.
 170:Generated_Source\PSoC6\pdl\drivers/peripheral/ctdac/cy_ctdac.h **** * The DAC can output the register value or the register value plus 1 (see \ref Cy_CTDAC_SetOutputMo
 171:Generated_Source\PSoC6\pdl\drivers/peripheral/ctdac/cy_ctdac.h **** *
 172:Generated_Source\PSoC6\pdl\drivers/peripheral/ctdac/cy_ctdac.h **** * <table class="doxtable">
 173:Generated_Source\PSoC6\pdl\drivers/peripheral/ctdac/cy_ctdac.h **** *   <tr>
 174:Generated_Source\PSoC6\pdl\drivers/peripheral/ctdac/cy_ctdac.h **** *     <th>12-bit unsigned code</th>
 175:Generated_Source\PSoC6\pdl\drivers/peripheral/ctdac/cy_ctdac.h **** *     <th>12-bit two's complement signed code</th>
 176:Generated_Source\PSoC6\pdl\drivers/peripheral/ctdac/cy_ctdac.h **** *     <th>Vout (for \ref CY_CTDAC_OUTPUT_VALUE )</th>
 177:Generated_Source\PSoC6\pdl\drivers/peripheral/ctdac/cy_ctdac.h **** *     <th>Vout (for \ref CY_CTDAC_OUTPUT_VALUE_PLUS1 )</th>
 178:Generated_Source\PSoC6\pdl\drivers/peripheral/ctdac/cy_ctdac.h **** *   </tr>
 179:Generated_Source\PSoC6\pdl\drivers/peripheral/ctdac/cy_ctdac.h **** *   <tr>
 180:Generated_Source\PSoC6\pdl\drivers/peripheral/ctdac/cy_ctdac.h **** *     <td>0x000</td>
 181:Generated_Source\PSoC6\pdl\drivers/peripheral/ctdac/cy_ctdac.h **** *     <td>0x800</td>
 182:Generated_Source\PSoC6\pdl\drivers/peripheral/ctdac/cy_ctdac.h **** *     <td>0</td>
 183:Generated_Source\PSoC6\pdl\drivers/peripheral/ctdac/cy_ctdac.h **** *     <td>Vref/4096</td>
 184:Generated_Source\PSoC6\pdl\drivers/peripheral/ctdac/cy_ctdac.h **** *   </tr>
 185:Generated_Source\PSoC6\pdl\drivers/peripheral/ctdac/cy_ctdac.h **** *   <tr>
 186:Generated_Source\PSoC6\pdl\drivers/peripheral/ctdac/cy_ctdac.h **** *     <td>0x800</td>
 187:Generated_Source\PSoC6\pdl\drivers/peripheral/ctdac/cy_ctdac.h **** *     <td>0x000</td>
 188:Generated_Source\PSoC6\pdl\drivers/peripheral/ctdac/cy_ctdac.h **** *     <td>0.5 * Vref</td>
 189:Generated_Source\PSoC6\pdl\drivers/peripheral/ctdac/cy_ctdac.h **** *     <td>Vref * 2049 / 4096</td>
 190:Generated_Source\PSoC6\pdl\drivers/peripheral/ctdac/cy_ctdac.h **** *   </tr>
 191:Generated_Source\PSoC6\pdl\drivers/peripheral/ctdac/cy_ctdac.h **** *   <tr>
 192:Generated_Source\PSoC6\pdl\drivers/peripheral/ctdac/cy_ctdac.h **** *     <td>0xFFF</td>
 193:Generated_Source\PSoC6\pdl\drivers/peripheral/ctdac/cy_ctdac.h **** *     <td>0x7FF</td>
 194:Generated_Source\PSoC6\pdl\drivers/peripheral/ctdac/cy_ctdac.h **** *     <td>Vref * 4095 / 4096</td>
 195:Generated_Source\PSoC6\pdl\drivers/peripheral/ctdac/cy_ctdac.h **** *     <td>Vref</td>
 196:Generated_Source\PSoC6\pdl\drivers/peripheral/ctdac/cy_ctdac.h **** *   </tr>
ARM GAS  C:\Users\cmila\AppData\Local\Temp\ccqwXksn.s 			page 6


 197:Generated_Source\PSoC6\pdl\drivers/peripheral/ctdac/cy_ctdac.h **** * </table>
 198:Generated_Source\PSoC6\pdl\drivers/peripheral/ctdac/cy_ctdac.h **** *
 199:Generated_Source\PSoC6\pdl\drivers/peripheral/ctdac/cy_ctdac.h **** * The expressions in the above table are based on an unbuffered DAC output.
 200:Generated_Source\PSoC6\pdl\drivers/peripheral/ctdac/cy_ctdac.h **** * When the output is buffered, the input and output range of the buffer will affect the
 201:Generated_Source\PSoC6\pdl\drivers/peripheral/ctdac/cy_ctdac.h **** * output voltage. See \ref group_ctb_opamp_range in the CTB driver for more information.
 202:Generated_Source\PSoC6\pdl\drivers/peripheral/ctdac/cy_ctdac.h **** *
 203:Generated_Source\PSoC6\pdl\drivers/peripheral/ctdac/cy_ctdac.h **** * \section group_ctdac_trigger Interrupts and Trigger
 204:Generated_Source\PSoC6\pdl\drivers/peripheral/ctdac/cy_ctdac.h **** *
 205:Generated_Source\PSoC6\pdl\drivers/peripheral/ctdac/cy_ctdac.h **** * When data from the CTDAC_VAL_NXT is transferred to the CTDAC_VAL register,
 206:Generated_Source\PSoC6\pdl\drivers/peripheral/ctdac/cy_ctdac.h **** * an interrupt and trigger output are generated. The trigger output can be
 207:Generated_Source\PSoC6\pdl\drivers/peripheral/ctdac/cy_ctdac.h **** * used with a DMA block to update the CTDAC value register at high speeds without any CPU intervent
 208:Generated_Source\PSoC6\pdl\drivers/peripheral/ctdac/cy_ctdac.h **** * Alternatively, the interrupt output can be used when DMA is not available
 209:Generated_Source\PSoC6\pdl\drivers/peripheral/ctdac/cy_ctdac.h **** * to update the CTDAC value register, but at a slower speed.
 210:Generated_Source\PSoC6\pdl\drivers/peripheral/ctdac/cy_ctdac.h **** *
 211:Generated_Source\PSoC6\pdl\drivers/peripheral/ctdac/cy_ctdac.h **** * Recall with the \ref group_ctdac_updatemode, the interrupt and trigger output are available in al
 212:Generated_Source\PSoC6\pdl\drivers/peripheral/ctdac/cy_ctdac.h **** * \ref group_ctdac_updatemode_direct_write.
 213:Generated_Source\PSoC6\pdl\drivers/peripheral/ctdac/cy_ctdac.h **** *
 214:Generated_Source\PSoC6\pdl\drivers/peripheral/ctdac/cy_ctdac.h **** * \subsection group_ctdac_dma_trigger DMA Trigger
 215:Generated_Source\PSoC6\pdl\drivers/peripheral/ctdac/cy_ctdac.h **** *
 216:Generated_Source\PSoC6\pdl\drivers/peripheral/ctdac/cy_ctdac.h **** * The CTDAC trigger output signal can be routed to a DMA block using the \ref group_trigmux
 217:Generated_Source\PSoC6\pdl\drivers/peripheral/ctdac/cy_ctdac.h **** * to trigger an update to the CTDAC_VAL_NXT register.
 218:Generated_Source\PSoC6\pdl\drivers/peripheral/ctdac/cy_ctdac.h **** * When making the required \ref Cy_TrigMux_Connect calls, use the pre-defined enums, TRIG14_IN_PASS
 219:Generated_Source\PSoC6\pdl\drivers/peripheral/ctdac/cy_ctdac.h **** * and TRIGGER_TYPE_PASS_TR_CTDAC_EMPTY.
 220:Generated_Source\PSoC6\pdl\drivers/peripheral/ctdac/cy_ctdac.h **** *
 221:Generated_Source\PSoC6\pdl\drivers/peripheral/ctdac/cy_ctdac.h **** * \subsection group_ctdac_handling_interrupts Handling Interrupts
 222:Generated_Source\PSoC6\pdl\drivers/peripheral/ctdac/cy_ctdac.h **** *
 223:Generated_Source\PSoC6\pdl\drivers/peripheral/ctdac/cy_ctdac.h **** * The following code snippet demonstrates how to implement a routine to handle the interrupt.
 224:Generated_Source\PSoC6\pdl\drivers/peripheral/ctdac/cy_ctdac.h **** * The routine gets called when any CTDAC on the device generates an interrupt.
 225:Generated_Source\PSoC6\pdl\drivers/peripheral/ctdac/cy_ctdac.h **** *
 226:Generated_Source\PSoC6\pdl\drivers/peripheral/ctdac/cy_ctdac.h **** * \snippet ctdac_sut_01.cydsn/main_cm0p.c SNIPPET_CTDAC_ISR
 227:Generated_Source\PSoC6\pdl\drivers/peripheral/ctdac/cy_ctdac.h **** *
 228:Generated_Source\PSoC6\pdl\drivers/peripheral/ctdac/cy_ctdac.h **** * The following code snippet demonstrates how to configure and enable the interrupt.
 229:Generated_Source\PSoC6\pdl\drivers/peripheral/ctdac/cy_ctdac.h **** *
 230:Generated_Source\PSoC6\pdl\drivers/peripheral/ctdac/cy_ctdac.h **** * \snippet ctdac_sut_01.cydsn/main_cm0p.c SNIPPET_CTDAC_INTR_SETUP
 231:Generated_Source\PSoC6\pdl\drivers/peripheral/ctdac/cy_ctdac.h **** *
 232:Generated_Source\PSoC6\pdl\drivers/peripheral/ctdac/cy_ctdac.h **** * \snippet ctdac_sut_01.cydsn/main_cm4.c CTDAC_SNIPPET_DMA_TRIGGER
 233:Generated_Source\PSoC6\pdl\drivers/peripheral/ctdac/cy_ctdac.h **** *
 234:Generated_Source\PSoC6\pdl\drivers/peripheral/ctdac/cy_ctdac.h **** * \section group_ctdac_deglitch Deglitch
 235:Generated_Source\PSoC6\pdl\drivers/peripheral/ctdac/cy_ctdac.h **** *
 236:Generated_Source\PSoC6\pdl\drivers/peripheral/ctdac/cy_ctdac.h **** * The hardware has the ability to deglitch the output value every time it is updated.
 237:Generated_Source\PSoC6\pdl\drivers/peripheral/ctdac/cy_ctdac.h **** * This prevents small glitches in the DAC output during an update to propagate to
 238:Generated_Source\PSoC6\pdl\drivers/peripheral/ctdac/cy_ctdac.h **** * the pin or opamp input. When deglitch is enabled, a switch on the output path
 239:Generated_Source\PSoC6\pdl\drivers/peripheral/ctdac/cy_ctdac.h **** * is forced open for a configurable number of PeriClk cycles. This deglitch time
 240:Generated_Source\PSoC6\pdl\drivers/peripheral/ctdac/cy_ctdac.h **** * is calculated as:
 241:Generated_Source\PSoC6\pdl\drivers/peripheral/ctdac/cy_ctdac.h **** *
 242:Generated_Source\PSoC6\pdl\drivers/peripheral/ctdac/cy_ctdac.h **** *       (DEGLITCH_CNT + 1) / PERI_CLOCK_FREQ
 243:Generated_Source\PSoC6\pdl\drivers/peripheral/ctdac/cy_ctdac.h **** *
 244:Generated_Source\PSoC6\pdl\drivers/peripheral/ctdac/cy_ctdac.h **** * The optimal and recommended deglitch time is 700 ns. Call \ref Cy_CTDAC_SetDeglitchCycles to set 
 245:Generated_Source\PSoC6\pdl\drivers/peripheral/ctdac/cy_ctdac.h **** *
 246:Generated_Source\PSoC6\pdl\drivers/peripheral/ctdac/cy_ctdac.h **** * There are two switches used for deglitching.
 247:Generated_Source\PSoC6\pdl\drivers/peripheral/ctdac/cy_ctdac.h **** * - Switch COS in the CTB between the DAC output and the Opamp0 input
 248:Generated_Source\PSoC6\pdl\drivers/peripheral/ctdac/cy_ctdac.h **** * - Switch CO6 in the CTDAC between the DAC output and external pin
 249:Generated_Source\PSoC6\pdl\drivers/peripheral/ctdac/cy_ctdac.h **** *
 250:Generated_Source\PSoC6\pdl\drivers/peripheral/ctdac/cy_ctdac.h **** * Call \ref Cy_CTDAC_SetDeglitchMode to set the deglitch path. Match this with the output buffer se
 251:Generated_Source\PSoC6\pdl\drivers/peripheral/ctdac/cy_ctdac.h **** * If the output is buffered through the CTB, select \ref CY_CTDAC_DEGLITCHMODE_BUFFERED.
 252:Generated_Source\PSoC6\pdl\drivers/peripheral/ctdac/cy_ctdac.h **** * If the output is unbuffered to a direct pin, select \ref CY_CTDAC_DEGLITCHMODE_UNBUFFERED.
 253:Generated_Source\PSoC6\pdl\drivers/peripheral/ctdac/cy_ctdac.h **** *
ARM GAS  C:\Users\cmila\AppData\Local\Temp\ccqwXksn.s 			page 7


 254:Generated_Source\PSoC6\pdl\drivers/peripheral/ctdac/cy_ctdac.h **** * \note
 255:Generated_Source\PSoC6\pdl\drivers/peripheral/ctdac/cy_ctdac.h **** * If deglitching is enabled, the hardware does not force the deglitch switches into a closed
 256:Generated_Source\PSoC6\pdl\drivers/peripheral/ctdac/cy_ctdac.h **** * state during Deep Sleep mode. Therefore, there is a chance that the device enters
 257:Generated_Source\PSoC6\pdl\drivers/peripheral/ctdac/cy_ctdac.h **** * Deep Sleep mode while the hardware is deglitching and the switches on the output path remain open
 258:Generated_Source\PSoC6\pdl\drivers/peripheral/ctdac/cy_ctdac.h **** * To ensure the DAC will operate properly in Deep Sleep when enabled, make sure to
 259:Generated_Source\PSoC6\pdl\drivers/peripheral/ctdac/cy_ctdac.h **** * register the \ref Cy_CTDAC_DeepSleepCallback before entering Deep Sleep mode.
 260:Generated_Source\PSoC6\pdl\drivers/peripheral/ctdac/cy_ctdac.h **** *
 261:Generated_Source\PSoC6\pdl\drivers/peripheral/ctdac/cy_ctdac.h **** * \section group_ctdac_sample_hold Sample and Hold
 262:Generated_Source\PSoC6\pdl\drivers/peripheral/ctdac/cy_ctdac.h **** *
 263:Generated_Source\PSoC6\pdl\drivers/peripheral/ctdac/cy_ctdac.h **** * When buffering the DAC output, the CTB has a Sample and Hold (SH) feature that can be used for sa
 264:Generated_Source\PSoC6\pdl\drivers/peripheral/ctdac/cy_ctdac.h **** * The DAC output voltage is retained on an internal capacitor for a duration of time while the
 265:Generated_Source\PSoC6\pdl\drivers/peripheral/ctdac/cy_ctdac.h **** * DAC output can be turned off. The DAC hardware needs to be turned on in a periodic fashion
 266:Generated_Source\PSoC6\pdl\drivers/peripheral/ctdac/cy_ctdac.h **** * to recharge the hold capacitor. This feature is firmware controlled using a sequence of function 
 267:Generated_Source\PSoC6\pdl\drivers/peripheral/ctdac/cy_ctdac.h **** * See \ref Cy_CTB_DACSampleAndHold in the \ref group_ctb_sample_hold "CTB" driver.
 268:Generated_Source\PSoC6\pdl\drivers/peripheral/ctdac/cy_ctdac.h **** *
 269:Generated_Source\PSoC6\pdl\drivers/peripheral/ctdac/cy_ctdac.h **** * The hold time depends on the supply and reference voltages. The following hold times are based on
 270:Generated_Source\PSoC6\pdl\drivers/peripheral/ctdac/cy_ctdac.h **** * time it takes for the buffered output to change by 1 LSB.
 271:Generated_Source\PSoC6\pdl\drivers/peripheral/ctdac/cy_ctdac.h **** *
 272:Generated_Source\PSoC6\pdl\drivers/peripheral/ctdac/cy_ctdac.h **** *   - Hold time = 750 us @ Vref = VDDA , VDDA = 1.7 V
 273:Generated_Source\PSoC6\pdl\drivers/peripheral/ctdac/cy_ctdac.h **** *   - Hold time = 525 us @ Vref = VDDA , VDDA = 3.6 V
 274:Generated_Source\PSoC6\pdl\drivers/peripheral/ctdac/cy_ctdac.h **** *   - Hold time = 200 us @ Vref = 1.2 V, VDDA = 3.6 V
 275:Generated_Source\PSoC6\pdl\drivers/peripheral/ctdac/cy_ctdac.h **** *
 276:Generated_Source\PSoC6\pdl\drivers/peripheral/ctdac/cy_ctdac.h **** * \section group_ctdac_low_power Low Power Support
 277:Generated_Source\PSoC6\pdl\drivers/peripheral/ctdac/cy_ctdac.h **** *
 278:Generated_Source\PSoC6\pdl\drivers/peripheral/ctdac/cy_ctdac.h **** * The CTDAC driver provides a callback function to handle power mode transitions.
 279:Generated_Source\PSoC6\pdl\drivers/peripheral/ctdac/cy_ctdac.h **** * If the CTDAC is configured for Deep Sleep operation and \ref group_ctdac_deglitch "deglitching" i
 280:Generated_Source\PSoC6\pdl\drivers/peripheral/ctdac/cy_ctdac.h **** * the callback \ref Cy_CTDAC_DeepSleepCallback must be registered before calling
 281:Generated_Source\PSoC6\pdl\drivers/peripheral/ctdac/cy_ctdac.h **** * \ref Cy_SysPm_CpuEnterDeepSleep.
 282:Generated_Source\PSoC6\pdl\drivers/peripheral/ctdac/cy_ctdac.h **** * Refer to \ref group_syspm driver for more information about power mode transitions and
 283:Generated_Source\PSoC6\pdl\drivers/peripheral/ctdac/cy_ctdac.h **** * callback registration.
 284:Generated_Source\PSoC6\pdl\drivers/peripheral/ctdac/cy_ctdac.h **** *
 285:Generated_Source\PSoC6\pdl\drivers/peripheral/ctdac/cy_ctdac.h **** * \section group_ctdac_more_information More Information
 286:Generated_Source\PSoC6\pdl\drivers/peripheral/ctdac/cy_ctdac.h **** *
 287:Generated_Source\PSoC6\pdl\drivers/peripheral/ctdac/cy_ctdac.h **** * Refer to the technical reference manual (TRM) and the device datasheet.
 288:Generated_Source\PSoC6\pdl\drivers/peripheral/ctdac/cy_ctdac.h **** *
 289:Generated_Source\PSoC6\pdl\drivers/peripheral/ctdac/cy_ctdac.h **** * \section group_ctdac_MISRA MISRA-C Compliance]
 290:Generated_Source\PSoC6\pdl\drivers/peripheral/ctdac/cy_ctdac.h **** *
 291:Generated_Source\PSoC6\pdl\drivers/peripheral/ctdac/cy_ctdac.h **** * This driver has the following specific deviations:
 292:Generated_Source\PSoC6\pdl\drivers/peripheral/ctdac/cy_ctdac.h **** *
 293:Generated_Source\PSoC6\pdl\drivers/peripheral/ctdac/cy_ctdac.h **** * <table class="doxtable">
 294:Generated_Source\PSoC6\pdl\drivers/peripheral/ctdac/cy_ctdac.h **** *   <tr>
 295:Generated_Source\PSoC6\pdl\drivers/peripheral/ctdac/cy_ctdac.h **** *     <th>MISRA Rule</th>
 296:Generated_Source\PSoC6\pdl\drivers/peripheral/ctdac/cy_ctdac.h **** *     <th>Rule Class (Required/Advisory)</th>
 297:Generated_Source\PSoC6\pdl\drivers/peripheral/ctdac/cy_ctdac.h **** *     <th>Rule Description</th>
 298:Generated_Source\PSoC6\pdl\drivers/peripheral/ctdac/cy_ctdac.h **** *     <th>Description of Deviation(s)</th>
 299:Generated_Source\PSoC6\pdl\drivers/peripheral/ctdac/cy_ctdac.h **** *   </tr>
 300:Generated_Source\PSoC6\pdl\drivers/peripheral/ctdac/cy_ctdac.h **** *   <tr>
 301:Generated_Source\PSoC6\pdl\drivers/peripheral/ctdac/cy_ctdac.h **** *     <td>11.4</td>
 302:Generated_Source\PSoC6\pdl\drivers/peripheral/ctdac/cy_ctdac.h **** *     <td>Advisory</td>
 303:Generated_Source\PSoC6\pdl\drivers/peripheral/ctdac/cy_ctdac.h **** *     <td>A cast should not be performed between a pointer to object type and a different pointer t
 304:Generated_Source\PSoC6\pdl\drivers/peripheral/ctdac/cy_ctdac.h **** *     <td>The cy_syspm driver defines the pointer to void in the \ref cy_stc_syspm_callback_params_
 305:Generated_Source\PSoC6\pdl\drivers/peripheral/ctdac/cy_ctdac.h **** *       This CTDAC driver implements a Deep Sleep callback conforming to the cy_syspm driver requir
 306:Generated_Source\PSoC6\pdl\drivers/peripheral/ctdac/cy_ctdac.h **** *       When the callback is called, the base is cast to a pointer to CTDAC_Type.
 307:Generated_Source\PSoC6\pdl\drivers/peripheral/ctdac/cy_ctdac.h **** *     </td>
 308:Generated_Source\PSoC6\pdl\drivers/peripheral/ctdac/cy_ctdac.h **** *   </tr>
 309:Generated_Source\PSoC6\pdl\drivers/peripheral/ctdac/cy_ctdac.h **** * </table>
 310:Generated_Source\PSoC6\pdl\drivers/peripheral/ctdac/cy_ctdac.h **** *
ARM GAS  C:\Users\cmila\AppData\Local\Temp\ccqwXksn.s 			page 8


 311:Generated_Source\PSoC6\pdl\drivers/peripheral/ctdac/cy_ctdac.h **** * \section group_ctdac_changelog Changelog
 312:Generated_Source\PSoC6\pdl\drivers/peripheral/ctdac/cy_ctdac.h **** * <table class="doxtable">
 313:Generated_Source\PSoC6\pdl\drivers/peripheral/ctdac/cy_ctdac.h **** *   <tr><th>Version</th><th>Changes</th><th>Reason for Change</th></tr>
 314:Generated_Source\PSoC6\pdl\drivers/peripheral/ctdac/cy_ctdac.h **** *   <tr>
 315:Generated_Source\PSoC6\pdl\drivers/peripheral/ctdac/cy_ctdac.h **** *     <td rowspan="2">2.0</td>
 316:Generated_Source\PSoC6\pdl\drivers/peripheral/ctdac/cy_ctdac.h **** *     <td>Flattened the organization of the driver source code into the single 
 317:Generated_Source\PSoC6\pdl\drivers/peripheral/ctdac/cy_ctdac.h **** *         source directory and the single include directory.
 318:Generated_Source\PSoC6\pdl\drivers/peripheral/ctdac/cy_ctdac.h **** *     </td>
 319:Generated_Source\PSoC6\pdl\drivers/peripheral/ctdac/cy_ctdac.h **** *     <td>Driver library directory-structure simplification.</td>
 320:Generated_Source\PSoC6\pdl\drivers/peripheral/ctdac/cy_ctdac.h **** *   </tr>
 321:Generated_Source\PSoC6\pdl\drivers/peripheral/ctdac/cy_ctdac.h **** *   <tr>
 322:Generated_Source\PSoC6\pdl\drivers/peripheral/ctdac/cy_ctdac.h **** *     <td>Added register access layer. Use register access macros instead
 323:Generated_Source\PSoC6\pdl\drivers/peripheral/ctdac/cy_ctdac.h **** *         of direct register access using dereferenced pointers.</td>
 324:Generated_Source\PSoC6\pdl\drivers/peripheral/ctdac/cy_ctdac.h **** *     <td>Makes register access device-independent, so that the PDL does 
 325:Generated_Source\PSoC6\pdl\drivers/peripheral/ctdac/cy_ctdac.h **** *         not need to be recompiled for each supported part number.</td>
 326:Generated_Source\PSoC6\pdl\drivers/peripheral/ctdac/cy_ctdac.h **** *   </tr>
 327:Generated_Source\PSoC6\pdl\drivers/peripheral/ctdac/cy_ctdac.h **** *   <tr>
 328:Generated_Source\PSoC6\pdl\drivers/peripheral/ctdac/cy_ctdac.h **** *     <td>1.0.1</td>
 329:Generated_Source\PSoC6\pdl\drivers/peripheral/ctdac/cy_ctdac.h **** *     <td>Added low power support section. Minor documentation edits.</td>
 330:Generated_Source\PSoC6\pdl\drivers/peripheral/ctdac/cy_ctdac.h **** *     <td>Documentation update and clarification</td>
 331:Generated_Source\PSoC6\pdl\drivers/peripheral/ctdac/cy_ctdac.h **** *   </tr>
 332:Generated_Source\PSoC6\pdl\drivers/peripheral/ctdac/cy_ctdac.h **** *   <tr>
 333:Generated_Source\PSoC6\pdl\drivers/peripheral/ctdac/cy_ctdac.h **** *     <td>1.0</td>
 334:Generated_Source\PSoC6\pdl\drivers/peripheral/ctdac/cy_ctdac.h **** *     <td>Initial version</td>
 335:Generated_Source\PSoC6\pdl\drivers/peripheral/ctdac/cy_ctdac.h **** *     <td></td>
 336:Generated_Source\PSoC6\pdl\drivers/peripheral/ctdac/cy_ctdac.h **** *   </tr>
 337:Generated_Source\PSoC6\pdl\drivers/peripheral/ctdac/cy_ctdac.h **** * </table>
 338:Generated_Source\PSoC6\pdl\drivers/peripheral/ctdac/cy_ctdac.h **** *
 339:Generated_Source\PSoC6\pdl\drivers/peripheral/ctdac/cy_ctdac.h **** * \defgroup group_ctdac_macros Macros
 340:Generated_Source\PSoC6\pdl\drivers/peripheral/ctdac/cy_ctdac.h **** * \defgroup group_ctdac_functions Functions
 341:Generated_Source\PSoC6\pdl\drivers/peripheral/ctdac/cy_ctdac.h **** *   \{
 342:Generated_Source\PSoC6\pdl\drivers/peripheral/ctdac/cy_ctdac.h **** *       \defgroup group_ctdac_functions_init            Initialization Functions
 343:Generated_Source\PSoC6\pdl\drivers/peripheral/ctdac/cy_ctdac.h **** *       \defgroup group_ctdac_functions_basic           Basic Configuration Functions
 344:Generated_Source\PSoC6\pdl\drivers/peripheral/ctdac/cy_ctdac.h **** *       \defgroup group_ctdac_functions_switches        Switch Control Functions
 345:Generated_Source\PSoC6\pdl\drivers/peripheral/ctdac/cy_ctdac.h **** *       \defgroup group_ctdac_functions_interrupts      Interrupt Functions
 346:Generated_Source\PSoC6\pdl\drivers/peripheral/ctdac/cy_ctdac.h **** *       \defgroup group_ctdac_functions_syspm_callback  Low Power Callback
 347:Generated_Source\PSoC6\pdl\drivers/peripheral/ctdac/cy_ctdac.h **** *   \}
 348:Generated_Source\PSoC6\pdl\drivers/peripheral/ctdac/cy_ctdac.h **** * \defgroup group_ctdac_globals Global Variables
 349:Generated_Source\PSoC6\pdl\drivers/peripheral/ctdac/cy_ctdac.h **** * \defgroup group_ctdac_data_structures Data Structures
 350:Generated_Source\PSoC6\pdl\drivers/peripheral/ctdac/cy_ctdac.h **** * \defgroup group_ctdac_enums Enumerated Types
 351:Generated_Source\PSoC6\pdl\drivers/peripheral/ctdac/cy_ctdac.h **** */
 352:Generated_Source\PSoC6\pdl\drivers/peripheral/ctdac/cy_ctdac.h **** 
 353:Generated_Source\PSoC6\pdl\drivers/peripheral/ctdac/cy_ctdac.h **** #if !defined(CY_CTDAC_H)
 354:Generated_Source\PSoC6\pdl\drivers/peripheral/ctdac/cy_ctdac.h **** #define CY_CTDAC_H
 355:Generated_Source\PSoC6\pdl\drivers/peripheral/ctdac/cy_ctdac.h **** 
 356:Generated_Source\PSoC6\pdl\drivers/peripheral/ctdac/cy_ctdac.h **** #include <stdint.h>
 357:Generated_Source\PSoC6\pdl\drivers/peripheral/ctdac/cy_ctdac.h **** #include <stdbool.h>
 358:Generated_Source\PSoC6\pdl\drivers/peripheral/ctdac/cy_ctdac.h **** #include <stddef.h>
 359:Generated_Source\PSoC6\pdl\drivers/peripheral/ctdac/cy_ctdac.h **** #include "cy_device.h"
 360:Generated_Source\PSoC6\pdl\drivers/peripheral/ctdac/cy_ctdac.h **** #include "cy_device_headers.h"
 361:Generated_Source\PSoC6\pdl\drivers/peripheral/ctdac/cy_ctdac.h **** #include "cy_syspm.h"
 362:Generated_Source\PSoC6\pdl\drivers/peripheral/ctdac/cy_ctdac.h **** #include "cy_syslib.h"
 363:Generated_Source\PSoC6\pdl\drivers/peripheral/ctdac/cy_ctdac.h **** #include "cy_sysclk.h"
 364:Generated_Source\PSoC6\pdl\drivers/peripheral/ctdac/cy_ctdac.h **** 
 365:Generated_Source\PSoC6\pdl\drivers/peripheral/ctdac/cy_ctdac.h **** #ifdef CY_IP_MXS40PASS_CTDAC
 366:Generated_Source\PSoC6\pdl\drivers/peripheral/ctdac/cy_ctdac.h **** 
 367:Generated_Source\PSoC6\pdl\drivers/peripheral/ctdac/cy_ctdac.h **** #if defined(__cplusplus)
ARM GAS  C:\Users\cmila\AppData\Local\Temp\ccqwXksn.s 			page 9


 368:Generated_Source\PSoC6\pdl\drivers/peripheral/ctdac/cy_ctdac.h **** extern "C" {
 369:Generated_Source\PSoC6\pdl\drivers/peripheral/ctdac/cy_ctdac.h **** #endif
 370:Generated_Source\PSoC6\pdl\drivers/peripheral/ctdac/cy_ctdac.h **** 
 371:Generated_Source\PSoC6\pdl\drivers/peripheral/ctdac/cy_ctdac.h **** /** \addtogroup group_ctdac_macros
 372:Generated_Source\PSoC6\pdl\drivers/peripheral/ctdac/cy_ctdac.h **** * \{
 373:Generated_Source\PSoC6\pdl\drivers/peripheral/ctdac/cy_ctdac.h **** */
 374:Generated_Source\PSoC6\pdl\drivers/peripheral/ctdac/cy_ctdac.h **** 
 375:Generated_Source\PSoC6\pdl\drivers/peripheral/ctdac/cy_ctdac.h **** /** Driver major version */
 376:Generated_Source\PSoC6\pdl\drivers/peripheral/ctdac/cy_ctdac.h **** #define CY_CTDAC_DRV_VERSION_MAJOR       2
 377:Generated_Source\PSoC6\pdl\drivers/peripheral/ctdac/cy_ctdac.h **** 
 378:Generated_Source\PSoC6\pdl\drivers/peripheral/ctdac/cy_ctdac.h **** /** Driver minor version */
 379:Generated_Source\PSoC6\pdl\drivers/peripheral/ctdac/cy_ctdac.h **** #define CY_CTDAC_DRV_VERSION_MINOR       0
 380:Generated_Source\PSoC6\pdl\drivers/peripheral/ctdac/cy_ctdac.h **** 
 381:Generated_Source\PSoC6\pdl\drivers/peripheral/ctdac/cy_ctdac.h **** /** CTDAC driver identifier */
 382:Generated_Source\PSoC6\pdl\drivers/peripheral/ctdac/cy_ctdac.h **** #define CY_CTDAC_ID                       CY_PDL_DRV_ID(0x19u)
 383:Generated_Source\PSoC6\pdl\drivers/peripheral/ctdac/cy_ctdac.h **** 
 384:Generated_Source\PSoC6\pdl\drivers/peripheral/ctdac/cy_ctdac.h **** #define CY_CTDAC_DEINIT                         (0uL)                                              
 385:Generated_Source\PSoC6\pdl\drivers/peripheral/ctdac/cy_ctdac.h **** #define CY_CTDAC_UNSIGNED_MID_CODE_VALUE        (0x800uL)                                          
 386:Generated_Source\PSoC6\pdl\drivers/peripheral/ctdac/cy_ctdac.h **** #define CY_CTDAC_UNSIGNED_MAX_CODE_VALUE        (0xFFFuL)                                          
 387:Generated_Source\PSoC6\pdl\drivers/peripheral/ctdac/cy_ctdac.h **** #define CY_CTDAC_FAST_CLKCFG_TYPE               CY_SYSCLK_DIV_8_BIT                                
 388:Generated_Source\PSoC6\pdl\drivers/peripheral/ctdac/cy_ctdac.h **** #define CY_CTDAC_FAST_CLKCFG_NUM                (0uL)                                              
 389:Generated_Source\PSoC6\pdl\drivers/peripheral/ctdac/cy_ctdac.h **** #define CY_CTDAC_FAST_CLKCFG_DIV                (99uL)                                             
 390:Generated_Source\PSoC6\pdl\drivers/peripheral/ctdac/cy_ctdac.h **** 
 391:Generated_Source\PSoC6\pdl\drivers/peripheral/ctdac/cy_ctdac.h **** /** \cond INTERNAL */
 392:Generated_Source\PSoC6\pdl\drivers/peripheral/ctdac/cy_ctdac.h **** #define CY_CTDAC_DEINT_CTDAC_SW                 (CTDAC_CTDAC_SW_CLEAR_CTDD_CVD_Msk | CTDAC_CTDAC_SW
 393:Generated_Source\PSoC6\pdl\drivers/peripheral/ctdac/cy_ctdac.h **** #define CY_CTDAC_STROBE_EDGE_IMMEDIATE_DIV      (0uL)                                              
 394:Generated_Source\PSoC6\pdl\drivers/peripheral/ctdac/cy_ctdac.h **** #define CY_CTDAC_STROBE_EDGE_IMMEDIATE_DIV_FRAC (0uL)                                              
 395:Generated_Source\PSoC6\pdl\drivers/peripheral/ctdac/cy_ctdac.h **** #define CY_CTDAC_DEGLITCH_CYCLES_MAX            (63uL)
 396:Generated_Source\PSoC6\pdl\drivers/peripheral/ctdac/cy_ctdac.h **** 
 397:Generated_Source\PSoC6\pdl\drivers/peripheral/ctdac/cy_ctdac.h **** /**< Macros for conditions used by CY_ASSERT calls */
 398:Generated_Source\PSoC6\pdl\drivers/peripheral/ctdac/cy_ctdac.h **** #define CY_CTDAC_REFSOURCE(source)                  (((source) == CY_CTDAC_REFSOURCE_EXTERNAL) || (
 399:Generated_Source\PSoC6\pdl\drivers/peripheral/ctdac/cy_ctdac.h **** #define CY_CTDAC_FORMAT(mode)                       (((mode) == CY_CTDAC_FORMAT_UNSIGNED) || ((mode
 400:Generated_Source\PSoC6\pdl\drivers/peripheral/ctdac/cy_ctdac.h **** #define CY_CTDAC_UPDATE(mode)                       ((mode) <= CY_CTDAC_UPDATE_STROBE_LEVEL)
 401:Generated_Source\PSoC6\pdl\drivers/peripheral/ctdac/cy_ctdac.h **** #define CY_CTDAC_DEGLITCH(mode)                     (((mode) == CY_CTDAC_DEGLITCHMODE_NONE) \
 402:Generated_Source\PSoC6\pdl\drivers/peripheral/ctdac/cy_ctdac.h ****                                                     || ((mode) == CY_CTDAC_DEGLITCHMODE_UNBUFFERED)
 403:Generated_Source\PSoC6\pdl\drivers/peripheral/ctdac/cy_ctdac.h ****                                                     || ((mode) == CY_CTDAC_DEGLITCHMODE_BUFFERED) \
 404:Generated_Source\PSoC6\pdl\drivers/peripheral/ctdac/cy_ctdac.h ****                                                     || ((mode) == CY_CTDAC_DEGLITCHMODE_BOTH))
 405:Generated_Source\PSoC6\pdl\drivers/peripheral/ctdac/cy_ctdac.h **** #define CY_CTDAC_OUTPUTMODE(mode)                   (((mode) == CY_CTDAC_OUTPUT_HIGHZ) \
 406:Generated_Source\PSoC6\pdl\drivers/peripheral/ctdac/cy_ctdac.h ****                                                     || ((mode) == CY_CTDAC_OUTPUT_VALUE) \
 407:Generated_Source\PSoC6\pdl\drivers/peripheral/ctdac/cy_ctdac.h ****                                                     || ((mode) == CY_CTDAC_OUTPUT_VALUE_PLUS1) \
 408:Generated_Source\PSoC6\pdl\drivers/peripheral/ctdac/cy_ctdac.h ****                                                     || ((mode) == CY_CTDAC_OUTPUT_VSSA) \
 409:Generated_Source\PSoC6\pdl\drivers/peripheral/ctdac/cy_ctdac.h ****                                                     || ((mode) == CY_CTDAC_OUTPUT_VREF))
 410:Generated_Source\PSoC6\pdl\drivers/peripheral/ctdac/cy_ctdac.h **** #define CY_CTDAC_OUTPUTBUFFER(buffer)               (((buffer) == CY_CTDAC_OUTPUT_UNBUFFERED) || ((
 411:Generated_Source\PSoC6\pdl\drivers/peripheral/ctdac/cy_ctdac.h **** #define CY_CTDAC_DEEPSLEEP(deepSleep)               (((deepSleep) == CY_CTDAC_DEEPSLEEP_DISABLE) ||
 412:Generated_Source\PSoC6\pdl\drivers/peripheral/ctdac/cy_ctdac.h **** #define CY_CTDAC_DEGLITCHCYCLES(cycles)             ((cycles) <= CY_CTDAC_DEGLITCH_CYCLES_MAX)
 413:Generated_Source\PSoC6\pdl\drivers/peripheral/ctdac/cy_ctdac.h **** #define CY_CTDAC_SWITCHMASK(mask)                   ((mask) <= (uint32_t) (CY_CTDAC_SWITCH_CVD_MASK
 414:Generated_Source\PSoC6\pdl\drivers/peripheral/ctdac/cy_ctdac.h **** #define CY_CTDAC_SWITCHSTATE(state)                 (((state) == CY_CTDAC_SWITCH_OPEN) || ((state) 
 415:Generated_Source\PSoC6\pdl\drivers/peripheral/ctdac/cy_ctdac.h **** #define CY_CTDAC_INTRMASK(mask)                     (((mask) == 0uL) || ((mask) == 1uL))
 416:Generated_Source\PSoC6\pdl\drivers/peripheral/ctdac/cy_ctdac.h **** /** \endcond */
 417:Generated_Source\PSoC6\pdl\drivers/peripheral/ctdac/cy_ctdac.h **** 
 418:Generated_Source\PSoC6\pdl\drivers/peripheral/ctdac/cy_ctdac.h **** /** \} group_ctdac_macros */
 419:Generated_Source\PSoC6\pdl\drivers/peripheral/ctdac/cy_ctdac.h **** 
 420:Generated_Source\PSoC6\pdl\drivers/peripheral/ctdac/cy_ctdac.h **** /***************************************
 421:Generated_Source\PSoC6\pdl\drivers/peripheral/ctdac/cy_ctdac.h **** *       Enumerated Types
 422:Generated_Source\PSoC6\pdl\drivers/peripheral/ctdac/cy_ctdac.h **** ***************************************/
 423:Generated_Source\PSoC6\pdl\drivers/peripheral/ctdac/cy_ctdac.h **** 
 424:Generated_Source\PSoC6\pdl\drivers/peripheral/ctdac/cy_ctdac.h **** /**
ARM GAS  C:\Users\cmila\AppData\Local\Temp\ccqwXksn.s 			page 10


 425:Generated_Source\PSoC6\pdl\drivers/peripheral/ctdac/cy_ctdac.h **** * \addtogroup group_ctdac_enums
 426:Generated_Source\PSoC6\pdl\drivers/peripheral/ctdac/cy_ctdac.h **** * \{
 427:Generated_Source\PSoC6\pdl\drivers/peripheral/ctdac/cy_ctdac.h **** */
 428:Generated_Source\PSoC6\pdl\drivers/peripheral/ctdac/cy_ctdac.h **** 
 429:Generated_Source\PSoC6\pdl\drivers/peripheral/ctdac/cy_ctdac.h **** /**
 430:Generated_Source\PSoC6\pdl\drivers/peripheral/ctdac/cy_ctdac.h **** * Configure the mode for how the DAC value is updated.
 431:Generated_Source\PSoC6\pdl\drivers/peripheral/ctdac/cy_ctdac.h **** * All the modes require a CTDAC clock except for \ref group_ctdac_updatemode_direct_write.
 432:Generated_Source\PSoC6\pdl\drivers/peripheral/ctdac/cy_ctdac.h **** */
 433:Generated_Source\PSoC6\pdl\drivers/peripheral/ctdac/cy_ctdac.h **** typedef enum {
 434:Generated_Source\PSoC6\pdl\drivers/peripheral/ctdac/cy_ctdac.h ****     CY_CTDAC_UPDATE_DIRECT_WRITE            = 0uL,  /**< DAC value is updated with a direct write b
 435:Generated_Source\PSoC6\pdl\drivers/peripheral/ctdac/cy_ctdac.h ****     CY_CTDAC_UPDATE_BUFFERED_WRITE          = 1uL,  /**< DAC value stored with \ref Cy_CTDAC_SetVal
 436:Generated_Source\PSoC6\pdl\drivers/peripheral/ctdac/cy_ctdac.h ****     CY_CTDAC_UPDATE_STROBE_EDGE_SYNC        = 2uL,  /**< DAC value stored with \ref Cy_CTDAC_SetVal
 437:Generated_Source\PSoC6\pdl\drivers/peripheral/ctdac/cy_ctdac.h ****     CY_CTDAC_UPDATE_STROBE_EDGE_IMMEDIATE   = 3uL,  /**< DAC value stored with \ref Cy_CTDAC_SetVal
 438:Generated_Source\PSoC6\pdl\drivers/peripheral/ctdac/cy_ctdac.h ****     CY_CTDAC_UPDATE_STROBE_LEVEL            = 4uL   /**< DAC value stored with \ref Cy_CTDAC_SetVal
 439:Generated_Source\PSoC6\pdl\drivers/peripheral/ctdac/cy_ctdac.h **** }cy_en_ctdac_update_t;
 440:Generated_Source\PSoC6\pdl\drivers/peripheral/ctdac/cy_ctdac.h **** 
 441:Generated_Source\PSoC6\pdl\drivers/peripheral/ctdac/cy_ctdac.h **** /**
 442:Generated_Source\PSoC6\pdl\drivers/peripheral/ctdac/cy_ctdac.h **** * Configure the format in which the DAC value register is decoded.
 443:Generated_Source\PSoC6\pdl\drivers/peripheral/ctdac/cy_ctdac.h **** */
 444:Generated_Source\PSoC6\pdl\drivers/peripheral/ctdac/cy_ctdac.h **** typedef enum {
 445:Generated_Source\PSoC6\pdl\drivers/peripheral/ctdac/cy_ctdac.h ****     CY_CTDAC_FORMAT_UNSIGNED    = 0uL,                                         /**< Unsigned 12-bit
 446:Generated_Source\PSoC6\pdl\drivers/peripheral/ctdac/cy_ctdac.h ****     CY_CTDAC_FORMAT_SIGNED      = 1uL << CTDAC_CTDAC_CTRL_CTDAC_MODE_Pos       /**< Virtual signed.
 447:Generated_Source\PSoC6\pdl\drivers/peripheral/ctdac/cy_ctdac.h **** }cy_en_ctdac_format_t;
 448:Generated_Source\PSoC6\pdl\drivers/peripheral/ctdac/cy_ctdac.h **** 
 449:Generated_Source\PSoC6\pdl\drivers/peripheral/ctdac/cy_ctdac.h **** /**
 450:Generated_Source\PSoC6\pdl\drivers/peripheral/ctdac/cy_ctdac.h **** * Enable or disable the CTDAC hardware during Deep Sleep.
 451:Generated_Source\PSoC6\pdl\drivers/peripheral/ctdac/cy_ctdac.h **** */
 452:Generated_Source\PSoC6\pdl\drivers/peripheral/ctdac/cy_ctdac.h **** typedef enum {
 453:Generated_Source\PSoC6\pdl\drivers/peripheral/ctdac/cy_ctdac.h ****     CY_CTDAC_DEEPSLEEP_DISABLE  = 0uL,                                  /**< DAC is disabled during
 454:Generated_Source\PSoC6\pdl\drivers/peripheral/ctdac/cy_ctdac.h ****     CY_CTDAC_DEEPSLEEP_ENABLE   = CTDAC_CTDAC_CTRL_DEEPSLEEP_ON_Msk     /**< DAC remains enabled du
 455:Generated_Source\PSoC6\pdl\drivers/peripheral/ctdac/cy_ctdac.h **** }cy_en_ctdac_deep_sleep_t;
 456:Generated_Source\PSoC6\pdl\drivers/peripheral/ctdac/cy_ctdac.h **** 
 457:Generated_Source\PSoC6\pdl\drivers/peripheral/ctdac/cy_ctdac.h **** /**
 458:Generated_Source\PSoC6\pdl\drivers/peripheral/ctdac/cy_ctdac.h **** * Configure the output state of the CTDAC.
 459:Generated_Source\PSoC6\pdl\drivers/peripheral/ctdac/cy_ctdac.h **** */
 460:Generated_Source\PSoC6\pdl\drivers/peripheral/ctdac/cy_ctdac.h **** typedef enum {
 461:Generated_Source\PSoC6\pdl\drivers/peripheral/ctdac/cy_ctdac.h ****     CY_CTDAC_OUTPUT_HIGHZ           = 0uL,                                  /**< DAC output is tri-
 462:Generated_Source\PSoC6\pdl\drivers/peripheral/ctdac/cy_ctdac.h ****     CY_CTDAC_OUTPUT_VALUE           = CTDAC_CTDAC_CTRL_OUT_EN_Msk,          /**< DAC Output is enab
 463:Generated_Source\PSoC6\pdl\drivers/peripheral/ctdac/cy_ctdac.h ****     CY_CTDAC_OUTPUT_VALUE_PLUS1     = CTDAC_CTDAC_CTRL_OUT_EN_Msk \
 464:Generated_Source\PSoC6\pdl\drivers/peripheral/ctdac/cy_ctdac.h ****                                       | CTDAC_CTDAC_CTRL_CTDAC_RANGE_Msk,   /**< DAC Output enabled
 465:Generated_Source\PSoC6\pdl\drivers/peripheral/ctdac/cy_ctdac.h ****     CY_CTDAC_OUTPUT_VSSA            = CTDAC_CTDAC_CTRL_DISABLED_MODE_Msk,   /**< Output is pulled t
 466:Generated_Source\PSoC6\pdl\drivers/peripheral/ctdac/cy_ctdac.h ****     CY_CTDAC_OUTPUT_VREF            = CTDAC_CTDAC_CTRL_DISABLED_MODE_Msk \
 467:Generated_Source\PSoC6\pdl\drivers/peripheral/ctdac/cy_ctdac.h ****                                       | CTDAC_CTDAC_CTRL_CTDAC_RANGE_Msk    /**< Output is pulled t
 468:Generated_Source\PSoC6\pdl\drivers/peripheral/ctdac/cy_ctdac.h **** }cy_en_ctdac_output_mode_t;
 469:Generated_Source\PSoC6\pdl\drivers/peripheral/ctdac/cy_ctdac.h **** 
 470:Generated_Source\PSoC6\pdl\drivers/peripheral/ctdac/cy_ctdac.h **** /**
 471:Generated_Source\PSoC6\pdl\drivers/peripheral/ctdac/cy_ctdac.h **** * Configure the deglitch mode. See the \ref group_ctdac_deglitch section for
 472:Generated_Source\PSoC6\pdl\drivers/peripheral/ctdac/cy_ctdac.h **** * more information on how deglitching works.
 473:Generated_Source\PSoC6\pdl\drivers/peripheral/ctdac/cy_ctdac.h **** */
 474:Generated_Source\PSoC6\pdl\drivers/peripheral/ctdac/cy_ctdac.h **** typedef enum {
 475:Generated_Source\PSoC6\pdl\drivers/peripheral/ctdac/cy_ctdac.h ****     CY_CTDAC_DEGLITCHMODE_NONE          = 0uL,                                  /**< Disable deglit
 476:Generated_Source\PSoC6\pdl\drivers/peripheral/ctdac/cy_ctdac.h ****     CY_CTDAC_DEGLITCHMODE_UNBUFFERED    = CTDAC_CTDAC_CTRL_DEGLITCH_CO6_Msk,    /**< Deglitch throu
 477:Generated_Source\PSoC6\pdl\drivers/peripheral/ctdac/cy_ctdac.h ****     CY_CTDAC_DEGLITCHMODE_BUFFERED      = CTDAC_CTDAC_CTRL_DEGLITCH_COS_Msk,    /**< Deglitch throu
 478:Generated_Source\PSoC6\pdl\drivers/peripheral/ctdac/cy_ctdac.h ****     CY_CTDAC_DEGLITCHMODE_BOTH          = CTDAC_CTDAC_CTRL_DEGLITCH_COS_Msk \
 479:Generated_Source\PSoC6\pdl\drivers/peripheral/ctdac/cy_ctdac.h ****                                           | CTDAC_CTDAC_CTRL_DEGLITCH_CO6_Msk   /**< Deglitch throu
 480:Generated_Source\PSoC6\pdl\drivers/peripheral/ctdac/cy_ctdac.h **** }cy_en_ctdac_deglitch_t;
 481:Generated_Source\PSoC6\pdl\drivers/peripheral/ctdac/cy_ctdac.h **** 
ARM GAS  C:\Users\cmila\AppData\Local\Temp\ccqwXksn.s 			page 11


 482:Generated_Source\PSoC6\pdl\drivers/peripheral/ctdac/cy_ctdac.h **** /**
 483:Generated_Source\PSoC6\pdl\drivers/peripheral/ctdac/cy_ctdac.h **** * Configure the reference source for the CTDAC
 484:Generated_Source\PSoC6\pdl\drivers/peripheral/ctdac/cy_ctdac.h **** *
 485:Generated_Source\PSoC6\pdl\drivers/peripheral/ctdac/cy_ctdac.h **** * The CVD switch is closed when Vdda is the reference source.
 486:Generated_Source\PSoC6\pdl\drivers/peripheral/ctdac/cy_ctdac.h **** */
 487:Generated_Source\PSoC6\pdl\drivers/peripheral/ctdac/cy_ctdac.h **** typedef enum {
 488:Generated_Source\PSoC6\pdl\drivers/peripheral/ctdac/cy_ctdac.h ****     CY_CTDAC_REFSOURCE_EXTERNAL     = 0uL,        /**< Use an external source from Opamp1 of the CT
 489:Generated_Source\PSoC6\pdl\drivers/peripheral/ctdac/cy_ctdac.h ****     CY_CTDAC_REFSOURCE_VDDA         = 1uL         /**< Use Vdda as the reference. CVD switch is clo
 490:Generated_Source\PSoC6\pdl\drivers/peripheral/ctdac/cy_ctdac.h **** }cy_en_ctdac_ref_source_t;
 491:Generated_Source\PSoC6\pdl\drivers/peripheral/ctdac/cy_ctdac.h **** 
 492:Generated_Source\PSoC6\pdl\drivers/peripheral/ctdac/cy_ctdac.h **** /** Configure the output to be buffered or unbuffered
 493:Generated_Source\PSoC6\pdl\drivers/peripheral/ctdac/cy_ctdac.h **** *
 494:Generated_Source\PSoC6\pdl\drivers/peripheral/ctdac/cy_ctdac.h **** * The CO6 switch is closed when the output is unbuffered to Pin 6 of the CTDAC port.
 495:Generated_Source\PSoC6\pdl\drivers/peripheral/ctdac/cy_ctdac.h **** * See the device datasheet for the CTDAC port.
 496:Generated_Source\PSoC6\pdl\drivers/peripheral/ctdac/cy_ctdac.h **** */
 497:Generated_Source\PSoC6\pdl\drivers/peripheral/ctdac/cy_ctdac.h **** typedef enum {
 498:Generated_Source\PSoC6\pdl\drivers/peripheral/ctdac/cy_ctdac.h ****     CY_CTDAC_OUTPUT_BUFFERED        = 0uL,      /**< Buffer the output through the CTB OA0 */
 499:Generated_Source\PSoC6\pdl\drivers/peripheral/ctdac/cy_ctdac.h ****     CY_CTDAC_OUTPUT_UNBUFFERED      = 1uL       /**< Send output to a direct pin */
 500:Generated_Source\PSoC6\pdl\drivers/peripheral/ctdac/cy_ctdac.h **** }cy_en_ctdac_output_buffer_t;
 501:Generated_Source\PSoC6\pdl\drivers/peripheral/ctdac/cy_ctdac.h **** 
 502:Generated_Source\PSoC6\pdl\drivers/peripheral/ctdac/cy_ctdac.h **** /** Switch state, either open or closed, to be used in \ref Cy_CTDAC_SetAnalogSwitch. */
 503:Generated_Source\PSoC6\pdl\drivers/peripheral/ctdac/cy_ctdac.h **** typedef enum
 504:Generated_Source\PSoC6\pdl\drivers/peripheral/ctdac/cy_ctdac.h **** {
 505:Generated_Source\PSoC6\pdl\drivers/peripheral/ctdac/cy_ctdac.h ****     CY_CTDAC_SWITCH_OPEN      = 0uL,    /**< Open the switch */
 506:Generated_Source\PSoC6\pdl\drivers/peripheral/ctdac/cy_ctdac.h ****     CY_CTDAC_SWITCH_CLOSE     = 1uL     /**< Close the switch */
 507:Generated_Source\PSoC6\pdl\drivers/peripheral/ctdac/cy_ctdac.h **** }cy_en_ctdac_switch_state_t;
 508:Generated_Source\PSoC6\pdl\drivers/peripheral/ctdac/cy_ctdac.h **** 
 509:Generated_Source\PSoC6\pdl\drivers/peripheral/ctdac/cy_ctdac.h **** /** Switch mask to be used in \ref Cy_CTDAC_SetAnalogSwitch */
 510:Generated_Source\PSoC6\pdl\drivers/peripheral/ctdac/cy_ctdac.h **** typedef enum
 511:Generated_Source\PSoC6\pdl\drivers/peripheral/ctdac/cy_ctdac.h **** {
 512:Generated_Source\PSoC6\pdl\drivers/peripheral/ctdac/cy_ctdac.h ****     CY_CTDAC_SWITCH_CVD_MASK     = CTDAC_CTDAC_SW_CTDD_CVD_Msk,    /**< Switch for the reference so
 513:Generated_Source\PSoC6\pdl\drivers/peripheral/ctdac/cy_ctdac.h ****     CY_CTDAC_SWITCH_CO6_MASK     = CTDAC_CTDAC_SW_CTDO_CO6_Msk     /**< Switch for the output, buff
 514:Generated_Source\PSoC6\pdl\drivers/peripheral/ctdac/cy_ctdac.h **** }cy_en_ctdac_switches_t;
 515:Generated_Source\PSoC6\pdl\drivers/peripheral/ctdac/cy_ctdac.h **** 
 516:Generated_Source\PSoC6\pdl\drivers/peripheral/ctdac/cy_ctdac.h **** /** Return states for \ref Cy_CTDAC_Init, \ref Cy_CTDAC_DeInit, and \ref Cy_CTDAC_FastInit */
 517:Generated_Source\PSoC6\pdl\drivers/peripheral/ctdac/cy_ctdac.h **** typedef enum {
 518:Generated_Source\PSoC6\pdl\drivers/peripheral/ctdac/cy_ctdac.h ****     CY_CTDAC_SUCCESS    = 0x00uL,                                         /**< Initialization compl
 519:Generated_Source\PSoC6\pdl\drivers/peripheral/ctdac/cy_ctdac.h ****     CY_CTDAC_BAD_PARAM  = CY_CTDAC_ID | CY_PDL_STATUS_ERROR | 0x01uL      /**< Input pointers were 
 520:Generated_Source\PSoC6\pdl\drivers/peripheral/ctdac/cy_ctdac.h **** }cy_en_ctdac_status_t;
 521:Generated_Source\PSoC6\pdl\drivers/peripheral/ctdac/cy_ctdac.h **** 
 522:Generated_Source\PSoC6\pdl\drivers/peripheral/ctdac/cy_ctdac.h **** /** \} group_ctdac_enums */
 523:Generated_Source\PSoC6\pdl\drivers/peripheral/ctdac/cy_ctdac.h **** 
 524:Generated_Source\PSoC6\pdl\drivers/peripheral/ctdac/cy_ctdac.h **** /***************************************
 525:Generated_Source\PSoC6\pdl\drivers/peripheral/ctdac/cy_ctdac.h **** *       Configuration Structures
 526:Generated_Source\PSoC6\pdl\drivers/peripheral/ctdac/cy_ctdac.h **** ***************************************/
 527:Generated_Source\PSoC6\pdl\drivers/peripheral/ctdac/cy_ctdac.h **** 
 528:Generated_Source\PSoC6\pdl\drivers/peripheral/ctdac/cy_ctdac.h **** /**
 529:Generated_Source\PSoC6\pdl\drivers/peripheral/ctdac/cy_ctdac.h **** * \addtogroup group_ctdac_data_structures
 530:Generated_Source\PSoC6\pdl\drivers/peripheral/ctdac/cy_ctdac.h **** * \{
 531:Generated_Source\PSoC6\pdl\drivers/peripheral/ctdac/cy_ctdac.h **** */
 532:Generated_Source\PSoC6\pdl\drivers/peripheral/ctdac/cy_ctdac.h **** 
 533:Generated_Source\PSoC6\pdl\drivers/peripheral/ctdac/cy_ctdac.h **** /** Configuration structure to set up the entire CTDAC block to be used with \ref Cy_CTDAC_Init
 534:Generated_Source\PSoC6\pdl\drivers/peripheral/ctdac/cy_ctdac.h **** */
 535:Generated_Source\PSoC6\pdl\drivers/peripheral/ctdac/cy_ctdac.h **** typedef struct
 536:Generated_Source\PSoC6\pdl\drivers/peripheral/ctdac/cy_ctdac.h **** {
 537:Generated_Source\PSoC6\pdl\drivers/peripheral/ctdac/cy_ctdac.h ****     cy_en_ctdac_ref_source_t    refSource;          /**< Reference source: Vdda or externally throu
 538:Generated_Source\PSoC6\pdl\drivers/peripheral/ctdac/cy_ctdac.h ****     cy_en_ctdac_format_t        formatMode;         /**< Format of DAC value: signed or unsigned */
ARM GAS  C:\Users\cmila\AppData\Local\Temp\ccqwXksn.s 			page 12


 539:Generated_Source\PSoC6\pdl\drivers/peripheral/ctdac/cy_ctdac.h ****     cy_en_ctdac_update_t        updateMode;         /**< Update mode: direct or buffered writes or 
 540:Generated_Source\PSoC6\pdl\drivers/peripheral/ctdac/cy_ctdac.h ****     cy_en_ctdac_deglitch_t      deglitchMode;       /**< Deglitch mode: disabled, buffered, unbuffe
 541:Generated_Source\PSoC6\pdl\drivers/peripheral/ctdac/cy_ctdac.h ****     cy_en_ctdac_output_mode_t   outputMode;         /**< Output mode: enabled (value or value + 1),
 542:Generated_Source\PSoC6\pdl\drivers/peripheral/ctdac/cy_ctdac.h ****     cy_en_ctdac_output_buffer_t outputBuffer;       /**< Output path: Buffered through Opamp0 of CT
 543:Generated_Source\PSoC6\pdl\drivers/peripheral/ctdac/cy_ctdac.h ****     cy_en_ctdac_deep_sleep_t    deepSleep;          /**< Enable or disable the CTDAC during Deep Sl
 544:Generated_Source\PSoC6\pdl\drivers/peripheral/ctdac/cy_ctdac.h ****     uint32_t                    deglitchCycles;     /**< Number of deglitch cycles from 0 to 63 */
 545:Generated_Source\PSoC6\pdl\drivers/peripheral/ctdac/cy_ctdac.h ****     int32_t                     value;              /**< Current DAC value */
 546:Generated_Source\PSoC6\pdl\drivers/peripheral/ctdac/cy_ctdac.h ****     int32_t                     nextValue;          /**< Next DAC value for double buffering */
 547:Generated_Source\PSoC6\pdl\drivers/peripheral/ctdac/cy_ctdac.h ****     bool                        enableInterrupt;    /**< If true, enable interrupt when next value 
 548:Generated_Source\PSoC6\pdl\drivers/peripheral/ctdac/cy_ctdac.h **** 
 549:Generated_Source\PSoC6\pdl\drivers/peripheral/ctdac/cy_ctdac.h ****     /* Configuring the clock */
 550:Generated_Source\PSoC6\pdl\drivers/peripheral/ctdac/cy_ctdac.h ****     bool                        configClock;        /**< Configure or ignore clock information */
 551:Generated_Source\PSoC6\pdl\drivers/peripheral/ctdac/cy_ctdac.h ****     cy_en_divider_types_t       dividerType;        /**< Specifies which type of divider to use. Ca
 552:Generated_Source\PSoC6\pdl\drivers/peripheral/ctdac/cy_ctdac.h ****     uint32_t                    dividerNum;         /**< Specifies which divider of the selected ty
 553:Generated_Source\PSoC6\pdl\drivers/peripheral/ctdac/cy_ctdac.h ****     uint32_t                    dividerIntValue;    /**< The integer divider value. The divider val
 554:Generated_Source\PSoC6\pdl\drivers/peripheral/ctdac/cy_ctdac.h ****     uint32_t                    dividerFracValue;   /**< The fractional divider value if using a fr
 555:Generated_Source\PSoC6\pdl\drivers/peripheral/ctdac/cy_ctdac.h **** }cy_stc_ctdac_config_t;
 556:Generated_Source\PSoC6\pdl\drivers/peripheral/ctdac/cy_ctdac.h **** 
 557:Generated_Source\PSoC6\pdl\drivers/peripheral/ctdac/cy_ctdac.h **** /** Configuration structure to quickly set up the CTDAC to be used with \ref Cy_CTDAC_FastInit
 558:Generated_Source\PSoC6\pdl\drivers/peripheral/ctdac/cy_ctdac.h **** * This structure provides a selection for the CTDAC reference source and output path.
 559:Generated_Source\PSoC6\pdl\drivers/peripheral/ctdac/cy_ctdac.h **** *
 560:Generated_Source\PSoC6\pdl\drivers/peripheral/ctdac/cy_ctdac.h **** * The other configuration options are set to:
 561:Generated_Source\PSoC6\pdl\drivers/peripheral/ctdac/cy_ctdac.h **** *   - .formatMode       = \ref CY_CTDAC_FORMAT_UNSIGNED
 562:Generated_Source\PSoC6\pdl\drivers/peripheral/ctdac/cy_ctdac.h **** *   - .updateMode       = \ref CY_CTDAC_UPDATE_BUFFERED_WRITE
 563:Generated_Source\PSoC6\pdl\drivers/peripheral/ctdac/cy_ctdac.h **** *   - .deglitchMode     = \ref CY_CTDAC_DEGLITCHMODE_NONE
 564:Generated_Source\PSoC6\pdl\drivers/peripheral/ctdac/cy_ctdac.h **** *   - .outputMode       = \ref CY_CTDAC_OUTPUT_VALUE
 565:Generated_Source\PSoC6\pdl\drivers/peripheral/ctdac/cy_ctdac.h **** *   - .deepSleep        = \ref CY_CTDAC_DEEPSLEEP_DISABLE
 566:Generated_Source\PSoC6\pdl\drivers/peripheral/ctdac/cy_ctdac.h **** *   - .deglitchCycles   = \ref CY_CTDAC_DEINIT
 567:Generated_Source\PSoC6\pdl\drivers/peripheral/ctdac/cy_ctdac.h **** *   - .value            = \ref CY_CTDAC_UNSIGNED_MID_CODE_VALUE
 568:Generated_Source\PSoC6\pdl\drivers/peripheral/ctdac/cy_ctdac.h **** *   - .nextValue        = \ref CY_CTDAC_UNSIGNED_MID_CODE_VALUE
 569:Generated_Source\PSoC6\pdl\drivers/peripheral/ctdac/cy_ctdac.h **** *   - .enableInterrupt  = true
 570:Generated_Source\PSoC6\pdl\drivers/peripheral/ctdac/cy_ctdac.h **** *   - .configClock      = true
 571:Generated_Source\PSoC6\pdl\drivers/peripheral/ctdac/cy_ctdac.h **** *   - .dividerType      = \ref CY_CTDAC_FAST_CLKCFG_TYPE
 572:Generated_Source\PSoC6\pdl\drivers/peripheral/ctdac/cy_ctdac.h **** *   - .dividerNum       = \ref CY_CTDAC_FAST_CLKCFG_NUM
 573:Generated_Source\PSoC6\pdl\drivers/peripheral/ctdac/cy_ctdac.h **** *   - .dividerInitValue = \ref CY_CTDAC_FAST_CLKCFG_DIV
 574:Generated_Source\PSoC6\pdl\drivers/peripheral/ctdac/cy_ctdac.h **** *   - .dividerFracValue = \ref CY_CTDAC_DEINIT
 575:Generated_Source\PSoC6\pdl\drivers/peripheral/ctdac/cy_ctdac.h **** */
 576:Generated_Source\PSoC6\pdl\drivers/peripheral/ctdac/cy_ctdac.h **** typedef struct
 577:Generated_Source\PSoC6\pdl\drivers/peripheral/ctdac/cy_ctdac.h **** {
 578:Generated_Source\PSoC6\pdl\drivers/peripheral/ctdac/cy_ctdac.h ****     cy_en_ctdac_ref_source_t    refSource;          /**< Reference source: Vdda or externally throu
 579:Generated_Source\PSoC6\pdl\drivers/peripheral/ctdac/cy_ctdac.h ****     cy_en_ctdac_output_buffer_t outputBuffer;       /**< Output path: Buffered through Opamp0 of CT
 580:Generated_Source\PSoC6\pdl\drivers/peripheral/ctdac/cy_ctdac.h **** }cy_stc_ctdac_fast_config_t;
 581:Generated_Source\PSoC6\pdl\drivers/peripheral/ctdac/cy_ctdac.h **** 
 582:Generated_Source\PSoC6\pdl\drivers/peripheral/ctdac/cy_ctdac.h **** /** CTDAC context structure.
 583:Generated_Source\PSoC6\pdl\drivers/peripheral/ctdac/cy_ctdac.h **** * All fields for the context structure are internal. Firmware never reads or
 584:Generated_Source\PSoC6\pdl\drivers/peripheral/ctdac/cy_ctdac.h **** * writes these values. Firmware allocates the structure and provides the
 585:Generated_Source\PSoC6\pdl\drivers/peripheral/ctdac/cy_ctdac.h **** * address of the structure when registering the \ref Cy_CTDAC_DeepSleepCallback.
 586:Generated_Source\PSoC6\pdl\drivers/peripheral/ctdac/cy_ctdac.h **** * Firmware must ensure that the defined instance of this structure remains in scope
 587:Generated_Source\PSoC6\pdl\drivers/peripheral/ctdac/cy_ctdac.h **** * while the drive is in use.
 588:Generated_Source\PSoC6\pdl\drivers/peripheral/ctdac/cy_ctdac.h **** */
 589:Generated_Source\PSoC6\pdl\drivers/peripheral/ctdac/cy_ctdac.h **** typedef struct
 590:Generated_Source\PSoC6\pdl\drivers/peripheral/ctdac/cy_ctdac.h **** {
 591:Generated_Source\PSoC6\pdl\drivers/peripheral/ctdac/cy_ctdac.h ****     uint32_t deglitchModeBeforeSleep;   /**< Tracks the state of the deglitch mode before sleep so 
 592:Generated_Source\PSoC6\pdl\drivers/peripheral/ctdac/cy_ctdac.h **** }cy_stc_ctdac_context_t;
 593:Generated_Source\PSoC6\pdl\drivers/peripheral/ctdac/cy_ctdac.h **** 
 594:Generated_Source\PSoC6\pdl\drivers/peripheral/ctdac/cy_ctdac.h **** /** \} group_ctdac_data_structures */
 595:Generated_Source\PSoC6\pdl\drivers/peripheral/ctdac/cy_ctdac.h **** 
ARM GAS  C:\Users\cmila\AppData\Local\Temp\ccqwXksn.s 			page 13


 596:Generated_Source\PSoC6\pdl\drivers/peripheral/ctdac/cy_ctdac.h **** /** \addtogroup group_ctdac_globals
 597:Generated_Source\PSoC6\pdl\drivers/peripheral/ctdac/cy_ctdac.h **** * \{
 598:Generated_Source\PSoC6\pdl\drivers/peripheral/ctdac/cy_ctdac.h **** */
 599:Generated_Source\PSoC6\pdl\drivers/peripheral/ctdac/cy_ctdac.h **** /***************************************
 600:Generated_Source\PSoC6\pdl\drivers/peripheral/ctdac/cy_ctdac.h **** *        Global Variables
 601:Generated_Source\PSoC6\pdl\drivers/peripheral/ctdac/cy_ctdac.h **** ***************************************/
 602:Generated_Source\PSoC6\pdl\drivers/peripheral/ctdac/cy_ctdac.h **** 
 603:Generated_Source\PSoC6\pdl\drivers/peripheral/ctdac/cy_ctdac.h **** /** Configure CTDAC to use Vdda reference and output unbuffered. See \ref Cy_CTDAC_FastInit. */
 604:Generated_Source\PSoC6\pdl\drivers/peripheral/ctdac/cy_ctdac.h **** extern const cy_stc_ctdac_fast_config_t Cy_CTDAC_Fast_VddaRef_UnbufferedOut;
 605:Generated_Source\PSoC6\pdl\drivers/peripheral/ctdac/cy_ctdac.h **** 
 606:Generated_Source\PSoC6\pdl\drivers/peripheral/ctdac/cy_ctdac.h **** /** Configure CTDAC to use Vdda reference and output buffered through Opamp0 of CTB. See \ref Cy_CT
 607:Generated_Source\PSoC6\pdl\drivers/peripheral/ctdac/cy_ctdac.h **** *
 608:Generated_Source\PSoC6\pdl\drivers/peripheral/ctdac/cy_ctdac.h **** * To quickly configure Opamp0, call with \ref Cy_CTB_FastInit
 609:Generated_Source\PSoC6\pdl\drivers/peripheral/ctdac/cy_ctdac.h **** * with \ref Cy_CTB_Fast_Opamp0_Vdac_Out or \ref Cy_CTB_Fast_Opamp0_Vdac_Out_SH.
 610:Generated_Source\PSoC6\pdl\drivers/peripheral/ctdac/cy_ctdac.h **** */
 611:Generated_Source\PSoC6\pdl\drivers/peripheral/ctdac/cy_ctdac.h **** extern const cy_stc_ctdac_fast_config_t Cy_CTDAC_Fast_VddaRef_BufferedOut;
 612:Generated_Source\PSoC6\pdl\drivers/peripheral/ctdac/cy_ctdac.h **** 
 613:Generated_Source\PSoC6\pdl\drivers/peripheral/ctdac/cy_ctdac.h **** /** Configure CTDAC to use a buffered reference from Opamp1 of CTB
 614:Generated_Source\PSoC6\pdl\drivers/peripheral/ctdac/cy_ctdac.h **** * and output unbuffered. See \ref Cy_CTDAC_FastInit.
 615:Generated_Source\PSoC6\pdl\drivers/peripheral/ctdac/cy_ctdac.h **** *
 616:Generated_Source\PSoC6\pdl\drivers/peripheral/ctdac/cy_ctdac.h **** * To use the reference from the Analog Reference (AREF),
 617:Generated_Source\PSoC6\pdl\drivers/peripheral/ctdac/cy_ctdac.h **** * call \ref Cy_CTB_FastInit with \ref Cy_CTB_Fast_Opamp1_Vdac_Ref_Aref.
 618:Generated_Source\PSoC6\pdl\drivers/peripheral/ctdac/cy_ctdac.h **** *
 619:Generated_Source\PSoC6\pdl\drivers/peripheral/ctdac/cy_ctdac.h **** * To use an external reference from a GPIO,
 620:Generated_Source\PSoC6\pdl\drivers/peripheral/ctdac/cy_ctdac.h **** * call \ref Cy_CTB_FastInit with \ref Cy_CTB_Fast_Opamp1_Vdac_Ref_Pin5
 621:Generated_Source\PSoC6\pdl\drivers/peripheral/ctdac/cy_ctdac.h **** * for Pin 5 on the CTB port.
 622:Generated_Source\PSoC6\pdl\drivers/peripheral/ctdac/cy_ctdac.h **** */
 623:Generated_Source\PSoC6\pdl\drivers/peripheral/ctdac/cy_ctdac.h **** extern const cy_stc_ctdac_fast_config_t Cy_CTDAC_Fast_OA1Ref_UnbufferedOut;
 624:Generated_Source\PSoC6\pdl\drivers/peripheral/ctdac/cy_ctdac.h **** 
 625:Generated_Source\PSoC6\pdl\drivers/peripheral/ctdac/cy_ctdac.h **** /** Configure CTDAC to use a buffered reference from Opamp1 of CTB
 626:Generated_Source\PSoC6\pdl\drivers/peripheral/ctdac/cy_ctdac.h **** * and output buffered through Opamp0 of CTB. See \ref Cy_CTDAC_FastInit.
 627:Generated_Source\PSoC6\pdl\drivers/peripheral/ctdac/cy_ctdac.h **** *
 628:Generated_Source\PSoC6\pdl\drivers/peripheral/ctdac/cy_ctdac.h **** * To quickly configure Opamp0, call with \ref Cy_CTB_FastInit
 629:Generated_Source\PSoC6\pdl\drivers/peripheral/ctdac/cy_ctdac.h **** * with \ref Cy_CTB_Fast_Opamp0_Vdac_Out or \ref Cy_CTB_Fast_Opamp0_Vdac_Out_SH.
 630:Generated_Source\PSoC6\pdl\drivers/peripheral/ctdac/cy_ctdac.h **** *
 631:Generated_Source\PSoC6\pdl\drivers/peripheral/ctdac/cy_ctdac.h **** * To use the reference from the Analog Reference (AREF),
 632:Generated_Source\PSoC6\pdl\drivers/peripheral/ctdac/cy_ctdac.h **** * call \ref Cy_CTB_FastInit with \ref Cy_CTB_Fast_Opamp1_Vdac_Ref_Aref.
 633:Generated_Source\PSoC6\pdl\drivers/peripheral/ctdac/cy_ctdac.h **** *
 634:Generated_Source\PSoC6\pdl\drivers/peripheral/ctdac/cy_ctdac.h **** * To use an external reference from a GPIO,
 635:Generated_Source\PSoC6\pdl\drivers/peripheral/ctdac/cy_ctdac.h **** * call \ref Cy_CTB_FastInit with \ref Cy_CTB_Fast_Opamp1_Vdac_Ref_Pin5
 636:Generated_Source\PSoC6\pdl\drivers/peripheral/ctdac/cy_ctdac.h **** * for Pins 5 on the CTB port.
 637:Generated_Source\PSoC6\pdl\drivers/peripheral/ctdac/cy_ctdac.h **** */
 638:Generated_Source\PSoC6\pdl\drivers/peripheral/ctdac/cy_ctdac.h **** extern const cy_stc_ctdac_fast_config_t Cy_CTDAC_Fast_OA1Ref_BufferedOut;
 639:Generated_Source\PSoC6\pdl\drivers/peripheral/ctdac/cy_ctdac.h **** 
 640:Generated_Source\PSoC6\pdl\drivers/peripheral/ctdac/cy_ctdac.h **** /** \} group_ctdac_globals */
 641:Generated_Source\PSoC6\pdl\drivers/peripheral/ctdac/cy_ctdac.h **** 
 642:Generated_Source\PSoC6\pdl\drivers/peripheral/ctdac/cy_ctdac.h **** /***************************************
 643:Generated_Source\PSoC6\pdl\drivers/peripheral/ctdac/cy_ctdac.h **** *        Function Prototypes
 644:Generated_Source\PSoC6\pdl\drivers/peripheral/ctdac/cy_ctdac.h **** ***************************************/
 645:Generated_Source\PSoC6\pdl\drivers/peripheral/ctdac/cy_ctdac.h **** 
 646:Generated_Source\PSoC6\pdl\drivers/peripheral/ctdac/cy_ctdac.h **** /**
 647:Generated_Source\PSoC6\pdl\drivers/peripheral/ctdac/cy_ctdac.h **** * \addtogroup group_ctdac_functions
 648:Generated_Source\PSoC6\pdl\drivers/peripheral/ctdac/cy_ctdac.h **** * \{
 649:Generated_Source\PSoC6\pdl\drivers/peripheral/ctdac/cy_ctdac.h **** */
 650:Generated_Source\PSoC6\pdl\drivers/peripheral/ctdac/cy_ctdac.h **** 
 651:Generated_Source\PSoC6\pdl\drivers/peripheral/ctdac/cy_ctdac.h **** /**
 652:Generated_Source\PSoC6\pdl\drivers/peripheral/ctdac/cy_ctdac.h **** * \addtogroup group_ctdac_functions_init
ARM GAS  C:\Users\cmila\AppData\Local\Temp\ccqwXksn.s 			page 14


 653:Generated_Source\PSoC6\pdl\drivers/peripheral/ctdac/cy_ctdac.h **** * This set of functions are for initializing, enabling, and disabling the CTDAC.
 654:Generated_Source\PSoC6\pdl\drivers/peripheral/ctdac/cy_ctdac.h **** * \{
 655:Generated_Source\PSoC6\pdl\drivers/peripheral/ctdac/cy_ctdac.h **** */
 656:Generated_Source\PSoC6\pdl\drivers/peripheral/ctdac/cy_ctdac.h **** cy_en_ctdac_status_t Cy_CTDAC_Init(CTDAC_Type *base, const cy_stc_ctdac_config_t *config);
 657:Generated_Source\PSoC6\pdl\drivers/peripheral/ctdac/cy_ctdac.h **** cy_en_ctdac_status_t Cy_CTDAC_DeInit(CTDAC_Type *base, bool deInitRouting);
 658:Generated_Source\PSoC6\pdl\drivers/peripheral/ctdac/cy_ctdac.h **** cy_en_ctdac_status_t Cy_CTDAC_FastInit(CTDAC_Type *base, const cy_stc_ctdac_fast_config_t *config);
 659:Generated_Source\PSoC6\pdl\drivers/peripheral/ctdac/cy_ctdac.h **** __STATIC_INLINE void Cy_CTDAC_Enable(CTDAC_Type *base);
 660:Generated_Source\PSoC6\pdl\drivers/peripheral/ctdac/cy_ctdac.h **** __STATIC_INLINE void Cy_CTDAC_Disable(CTDAC_Type *base);
 661:Generated_Source\PSoC6\pdl\drivers/peripheral/ctdac/cy_ctdac.h **** /** \} */
 662:Generated_Source\PSoC6\pdl\drivers/peripheral/ctdac/cy_ctdac.h **** 
 663:Generated_Source\PSoC6\pdl\drivers/peripheral/ctdac/cy_ctdac.h **** /**
 664:Generated_Source\PSoC6\pdl\drivers/peripheral/ctdac/cy_ctdac.h **** * \addtogroup group_ctdac_functions_basic
 665:Generated_Source\PSoC6\pdl\drivers/peripheral/ctdac/cy_ctdac.h **** * This set of functions are for configuring basic usage of the CTDAC.
 666:Generated_Source\PSoC6\pdl\drivers/peripheral/ctdac/cy_ctdac.h **** * \{
 667:Generated_Source\PSoC6\pdl\drivers/peripheral/ctdac/cy_ctdac.h **** */
 668:Generated_Source\PSoC6\pdl\drivers/peripheral/ctdac/cy_ctdac.h **** __STATIC_INLINE void Cy_CTDAC_SetValue(CTDAC_Type *base, int32_t value);
 669:Generated_Source\PSoC6\pdl\drivers/peripheral/ctdac/cy_ctdac.h **** __STATIC_INLINE void Cy_CTDAC_SetValueBuffered(CTDAC_Type *base, int32_t value);
 670:Generated_Source\PSoC6\pdl\drivers/peripheral/ctdac/cy_ctdac.h **** void Cy_CTDAC_SetSignMode(CTDAC_Type *base, cy_en_ctdac_format_t formatMode);
 671:Generated_Source\PSoC6\pdl\drivers/peripheral/ctdac/cy_ctdac.h **** void Cy_CTDAC_SetDeepSleepMode(CTDAC_Type *base, cy_en_ctdac_deep_sleep_t deepSleep);
 672:Generated_Source\PSoC6\pdl\drivers/peripheral/ctdac/cy_ctdac.h **** void Cy_CTDAC_SetOutputMode(CTDAC_Type *base, cy_en_ctdac_output_mode_t outputMode);
 673:Generated_Source\PSoC6\pdl\drivers/peripheral/ctdac/cy_ctdac.h **** void Cy_CTDAC_SetDeglitchMode(CTDAC_Type *base, cy_en_ctdac_deglitch_t deglitchMode);
 674:Generated_Source\PSoC6\pdl\drivers/peripheral/ctdac/cy_ctdac.h **** void Cy_CTDAC_SetDeglitchCycles(CTDAC_Type *base, uint32_t deglitchCycles);
 675:Generated_Source\PSoC6\pdl\drivers/peripheral/ctdac/cy_ctdac.h **** void Cy_CTDAC_SetRef(CTDAC_Type *base, cy_en_ctdac_ref_source_t refSource);
 676:Generated_Source\PSoC6\pdl\drivers/peripheral/ctdac/cy_ctdac.h **** /** \} */
 677:Generated_Source\PSoC6\pdl\drivers/peripheral/ctdac/cy_ctdac.h **** 
 678:Generated_Source\PSoC6\pdl\drivers/peripheral/ctdac/cy_ctdac.h **** /** \addtogroup group_ctdac_functions_switches
 679:Generated_Source\PSoC6\pdl\drivers/peripheral/ctdac/cy_ctdac.h **** *
 680:Generated_Source\PSoC6\pdl\drivers/peripheral/ctdac/cy_ctdac.h **** * This set of functions is for controlling the two CTDAC analog switches, CVD, and CO6.
 681:Generated_Source\PSoC6\pdl\drivers/peripheral/ctdac/cy_ctdac.h **** * These are advanced functions. The switches will be managed by the reference
 682:Generated_Source\PSoC6\pdl\drivers/peripheral/ctdac/cy_ctdac.h **** * source and output mode selections when initializing the hardware.
 683:Generated_Source\PSoC6\pdl\drivers/peripheral/ctdac/cy_ctdac.h **** * \{
 684:Generated_Source\PSoC6\pdl\drivers/peripheral/ctdac/cy_ctdac.h **** */
 685:Generated_Source\PSoC6\pdl\drivers/peripheral/ctdac/cy_ctdac.h **** void Cy_CTDAC_SetAnalogSwitch(CTDAC_Type *base, uint32_t switchMask, cy_en_ctdac_switch_state_t sta
 686:Generated_Source\PSoC6\pdl\drivers/peripheral/ctdac/cy_ctdac.h **** __STATIC_INLINE uint32_t Cy_CTDAC_GetAnalogSwitch(const CTDAC_Type *base);
 687:Generated_Source\PSoC6\pdl\drivers/peripheral/ctdac/cy_ctdac.h **** __STATIC_INLINE void Cy_CTDAC_SetSwitchCO6(CTDAC_Type *base, cy_en_ctdac_switch_state_t state);
 688:Generated_Source\PSoC6\pdl\drivers/peripheral/ctdac/cy_ctdac.h **** __STATIC_INLINE void Cy_CTDAC_OpenAllSwitches(CTDAC_Type *base);
 689:Generated_Source\PSoC6\pdl\drivers/peripheral/ctdac/cy_ctdac.h **** /** \} */
 690:Generated_Source\PSoC6\pdl\drivers/peripheral/ctdac/cy_ctdac.h **** 
 691:Generated_Source\PSoC6\pdl\drivers/peripheral/ctdac/cy_ctdac.h **** /** \addtogroup group_ctdac_functions_interrupts
 692:Generated_Source\PSoC6\pdl\drivers/peripheral/ctdac/cy_ctdac.h **** * This set of functions is related to the CTDAC interrupt
 693:Generated_Source\PSoC6\pdl\drivers/peripheral/ctdac/cy_ctdac.h **** * \{
 694:Generated_Source\PSoC6\pdl\drivers/peripheral/ctdac/cy_ctdac.h **** */
 695:Generated_Source\PSoC6\pdl\drivers/peripheral/ctdac/cy_ctdac.h **** __STATIC_INLINE uint32_t Cy_CTDAC_GetInterruptStatus(const CTDAC_Type *base);
 696:Generated_Source\PSoC6\pdl\drivers/peripheral/ctdac/cy_ctdac.h **** __STATIC_INLINE void Cy_CTDAC_ClearInterrupt(CTDAC_Type *base);
 697:Generated_Source\PSoC6\pdl\drivers/peripheral/ctdac/cy_ctdac.h **** __STATIC_INLINE void Cy_CTDAC_SetInterrupt(CTDAC_Type *base);
 698:Generated_Source\PSoC6\pdl\drivers/peripheral/ctdac/cy_ctdac.h **** __STATIC_INLINE void Cy_CTDAC_SetInterruptMask(CTDAC_Type *base, uint32_t mask);
 699:Generated_Source\PSoC6\pdl\drivers/peripheral/ctdac/cy_ctdac.h **** __STATIC_INLINE uint32_t Cy_CTDAC_GetInterruptMask(const CTDAC_Type *base);
 700:Generated_Source\PSoC6\pdl\drivers/peripheral/ctdac/cy_ctdac.h **** __STATIC_INLINE uint32_t Cy_CTDAC_GetInterruptStatusMasked(const CTDAC_Type *base);
 701:Generated_Source\PSoC6\pdl\drivers/peripheral/ctdac/cy_ctdac.h **** /** \} */
 702:Generated_Source\PSoC6\pdl\drivers/peripheral/ctdac/cy_ctdac.h **** 
 703:Generated_Source\PSoC6\pdl\drivers/peripheral/ctdac/cy_ctdac.h **** /** \addtogroup group_ctdac_functions_syspm_callback
 704:Generated_Source\PSoC6\pdl\drivers/peripheral/ctdac/cy_ctdac.h **** * This driver supports one SysPm callback for Deep Sleep transition.
 705:Generated_Source\PSoC6\pdl\drivers/peripheral/ctdac/cy_ctdac.h **** * \{
 706:Generated_Source\PSoC6\pdl\drivers/peripheral/ctdac/cy_ctdac.h **** */
 707:Generated_Source\PSoC6\pdl\drivers/peripheral/ctdac/cy_ctdac.h **** cy_en_syspm_status_t Cy_CTDAC_DeepSleepCallback(cy_stc_syspm_callback_params_t *callbackParams, cy_
 708:Generated_Source\PSoC6\pdl\drivers/peripheral/ctdac/cy_ctdac.h **** /** \} */
 709:Generated_Source\PSoC6\pdl\drivers/peripheral/ctdac/cy_ctdac.h **** 
ARM GAS  C:\Users\cmila\AppData\Local\Temp\ccqwXksn.s 			page 15


 710:Generated_Source\PSoC6\pdl\drivers/peripheral/ctdac/cy_ctdac.h **** /**
 711:Generated_Source\PSoC6\pdl\drivers/peripheral/ctdac/cy_ctdac.h **** * \addtogroup group_ctdac_functions_init
 712:Generated_Source\PSoC6\pdl\drivers/peripheral/ctdac/cy_ctdac.h **** * \{
 713:Generated_Source\PSoC6\pdl\drivers/peripheral/ctdac/cy_ctdac.h **** */
 714:Generated_Source\PSoC6\pdl\drivers/peripheral/ctdac/cy_ctdac.h **** /*******************************************************************************
 715:Generated_Source\PSoC6\pdl\drivers/peripheral/ctdac/cy_ctdac.h **** * Function Name: Cy_CTDAC_Enable
 716:Generated_Source\PSoC6\pdl\drivers/peripheral/ctdac/cy_ctdac.h **** ****************************************************************************//**
 717:Generated_Source\PSoC6\pdl\drivers/peripheral/ctdac/cy_ctdac.h **** *
 718:Generated_Source\PSoC6\pdl\drivers/peripheral/ctdac/cy_ctdac.h **** * Power up the CTDAC hardware block.
 719:Generated_Source\PSoC6\pdl\drivers/peripheral/ctdac/cy_ctdac.h **** *
 720:Generated_Source\PSoC6\pdl\drivers/peripheral/ctdac/cy_ctdac.h **** * \param base
 721:Generated_Source\PSoC6\pdl\drivers/peripheral/ctdac/cy_ctdac.h **** * Pointer to structure describing registers
 722:Generated_Source\PSoC6\pdl\drivers/peripheral/ctdac/cy_ctdac.h **** *
 723:Generated_Source\PSoC6\pdl\drivers/peripheral/ctdac/cy_ctdac.h **** * \return None
 724:Generated_Source\PSoC6\pdl\drivers/peripheral/ctdac/cy_ctdac.h **** *
 725:Generated_Source\PSoC6\pdl\drivers/peripheral/ctdac/cy_ctdac.h **** *******************************************************************************/
 726:Generated_Source\PSoC6\pdl\drivers/peripheral/ctdac/cy_ctdac.h **** __STATIC_INLINE void Cy_CTDAC_Enable(CTDAC_Type *base)
 727:Generated_Source\PSoC6\pdl\drivers/peripheral/ctdac/cy_ctdac.h **** {
 728:Generated_Source\PSoC6\pdl\drivers/peripheral/ctdac/cy_ctdac.h ****     CTDAC_CTDAC_CTRL(base) |= CTDAC_CTDAC_CTRL_ENABLED_Msk;
 729:Generated_Source\PSoC6\pdl\drivers/peripheral/ctdac/cy_ctdac.h **** }
 730:Generated_Source\PSoC6\pdl\drivers/peripheral/ctdac/cy_ctdac.h **** 
 731:Generated_Source\PSoC6\pdl\drivers/peripheral/ctdac/cy_ctdac.h **** /*******************************************************************************
 732:Generated_Source\PSoC6\pdl\drivers/peripheral/ctdac/cy_ctdac.h **** * Function Name: Cy_CTDAC_Disable
 733:Generated_Source\PSoC6\pdl\drivers/peripheral/ctdac/cy_ctdac.h **** ****************************************************************************//**
 734:Generated_Source\PSoC6\pdl\drivers/peripheral/ctdac/cy_ctdac.h **** *
 735:Generated_Source\PSoC6\pdl\drivers/peripheral/ctdac/cy_ctdac.h **** * Turn off the hardware block.
 736:Generated_Source\PSoC6\pdl\drivers/peripheral/ctdac/cy_ctdac.h **** *
 737:Generated_Source\PSoC6\pdl\drivers/peripheral/ctdac/cy_ctdac.h **** * \param base
 738:Generated_Source\PSoC6\pdl\drivers/peripheral/ctdac/cy_ctdac.h **** * Pointer to structure describing registers
 739:Generated_Source\PSoC6\pdl\drivers/peripheral/ctdac/cy_ctdac.h **** *
 740:Generated_Source\PSoC6\pdl\drivers/peripheral/ctdac/cy_ctdac.h **** * \return None
 741:Generated_Source\PSoC6\pdl\drivers/peripheral/ctdac/cy_ctdac.h **** *
 742:Generated_Source\PSoC6\pdl\drivers/peripheral/ctdac/cy_ctdac.h **** *******************************************************************************/
 743:Generated_Source\PSoC6\pdl\drivers/peripheral/ctdac/cy_ctdac.h **** __STATIC_INLINE void Cy_CTDAC_Disable(CTDAC_Type *base)
 744:Generated_Source\PSoC6\pdl\drivers/peripheral/ctdac/cy_ctdac.h **** {
 745:Generated_Source\PSoC6\pdl\drivers/peripheral/ctdac/cy_ctdac.h ****     CTDAC_CTDAC_CTRL(base) &= ~CTDAC_CTDAC_CTRL_ENABLED_Msk;
 746:Generated_Source\PSoC6\pdl\drivers/peripheral/ctdac/cy_ctdac.h **** }
 747:Generated_Source\PSoC6\pdl\drivers/peripheral/ctdac/cy_ctdac.h **** /** \} */
 748:Generated_Source\PSoC6\pdl\drivers/peripheral/ctdac/cy_ctdac.h **** 
 749:Generated_Source\PSoC6\pdl\drivers/peripheral/ctdac/cy_ctdac.h **** /**
 750:Generated_Source\PSoC6\pdl\drivers/peripheral/ctdac/cy_ctdac.h **** * \addtogroup group_ctdac_functions_basic
 751:Generated_Source\PSoC6\pdl\drivers/peripheral/ctdac/cy_ctdac.h **** * \{
 752:Generated_Source\PSoC6\pdl\drivers/peripheral/ctdac/cy_ctdac.h **** */
 753:Generated_Source\PSoC6\pdl\drivers/peripheral/ctdac/cy_ctdac.h **** /*******************************************************************************
 754:Generated_Source\PSoC6\pdl\drivers/peripheral/ctdac/cy_ctdac.h **** * Function Name: Cy_CTDAC_SetValue
 755:Generated_Source\PSoC6\pdl\drivers/peripheral/ctdac/cy_ctdac.h **** ****************************************************************************//**
 756:Generated_Source\PSoC6\pdl\drivers/peripheral/ctdac/cy_ctdac.h **** *
 757:Generated_Source\PSoC6\pdl\drivers/peripheral/ctdac/cy_ctdac.h **** * Set the CTDAC_VAL register (DAC hardware is
 758:Generated_Source\PSoC6\pdl\drivers/peripheral/ctdac/cy_ctdac.h **** * updated on the next PeriClk cycle).  Only the least significant 12 bits
 759:Generated_Source\PSoC6\pdl\drivers/peripheral/ctdac/cy_ctdac.h **** * have an effect. Sign extension of negative values is unnecessary and is
 760:Generated_Source\PSoC6\pdl\drivers/peripheral/ctdac/cy_ctdac.h **** * ignored by the hardware. The way in which the CTDAC interprets the 12-bit
 761:Generated_Source\PSoC6\pdl\drivers/peripheral/ctdac/cy_ctdac.h **** * data is controlled by \ref Cy_CTDAC_SetSignMode.
 762:Generated_Source\PSoC6\pdl\drivers/peripheral/ctdac/cy_ctdac.h **** *
 763:Generated_Source\PSoC6\pdl\drivers/peripheral/ctdac/cy_ctdac.h **** * \note
 764:Generated_Source\PSoC6\pdl\drivers/peripheral/ctdac/cy_ctdac.h **** * Call this function only when the update mode is set to \ref group_ctdac_updatemode_direct_write.
 765:Generated_Source\PSoC6\pdl\drivers/peripheral/ctdac/cy_ctdac.h **** * Calling this function for any other update mode will not have the intended effect.
 766:Generated_Source\PSoC6\pdl\drivers/peripheral/ctdac/cy_ctdac.h **** *
ARM GAS  C:\Users\cmila\AppData\Local\Temp\ccqwXksn.s 			page 16


 767:Generated_Source\PSoC6\pdl\drivers/peripheral/ctdac/cy_ctdac.h **** * \param base
 768:Generated_Source\PSoC6\pdl\drivers/peripheral/ctdac/cy_ctdac.h **** * Pointer to structure describing registers
 769:Generated_Source\PSoC6\pdl\drivers/peripheral/ctdac/cy_ctdac.h **** *
 770:Generated_Source\PSoC6\pdl\drivers/peripheral/ctdac/cy_ctdac.h **** * \param value
 771:Generated_Source\PSoC6\pdl\drivers/peripheral/ctdac/cy_ctdac.h **** * Value to write into the CTDAC_VAL register
 772:Generated_Source\PSoC6\pdl\drivers/peripheral/ctdac/cy_ctdac.h **** *
 773:Generated_Source\PSoC6\pdl\drivers/peripheral/ctdac/cy_ctdac.h **** * \return None
 774:Generated_Source\PSoC6\pdl\drivers/peripheral/ctdac/cy_ctdac.h **** *
 775:Generated_Source\PSoC6\pdl\drivers/peripheral/ctdac/cy_ctdac.h **** * \funcusage
 776:Generated_Source\PSoC6\pdl\drivers/peripheral/ctdac/cy_ctdac.h **** *
 777:Generated_Source\PSoC6\pdl\drivers/peripheral/ctdac/cy_ctdac.h **** * \snippet ctdac_sut_01.cydsn/main_cm4.c CTDAC_SNIPPET_SET_VALUE
 778:Generated_Source\PSoC6\pdl\drivers/peripheral/ctdac/cy_ctdac.h **** *
 779:Generated_Source\PSoC6\pdl\drivers/peripheral/ctdac/cy_ctdac.h **** *******************************************************************************/
 780:Generated_Source\PSoC6\pdl\drivers/peripheral/ctdac/cy_ctdac.h **** __STATIC_INLINE void Cy_CTDAC_SetValue(CTDAC_Type *base, int32_t value)
 781:Generated_Source\PSoC6\pdl\drivers/peripheral/ctdac/cy_ctdac.h **** {
 782:Generated_Source\PSoC6\pdl\drivers/peripheral/ctdac/cy_ctdac.h ****     CTDAC_CTDAC_VAL(base) = (((uint32_t)value) << CTDAC_CTDAC_VAL_VALUE_Pos) & CTDAC_CTDAC_VAL_VALU
 783:Generated_Source\PSoC6\pdl\drivers/peripheral/ctdac/cy_ctdac.h **** }
 784:Generated_Source\PSoC6\pdl\drivers/peripheral/ctdac/cy_ctdac.h **** 
 785:Generated_Source\PSoC6\pdl\drivers/peripheral/ctdac/cy_ctdac.h **** /*******************************************************************************
 786:Generated_Source\PSoC6\pdl\drivers/peripheral/ctdac/cy_ctdac.h **** * Function Name: Cy_CTDAC_SetValueBuffered
 787:Generated_Source\PSoC6\pdl\drivers/peripheral/ctdac/cy_ctdac.h **** ****************************************************************************//**
 788:Generated_Source\PSoC6\pdl\drivers/peripheral/ctdac/cy_ctdac.h **** *
 789:Generated_Source\PSoC6\pdl\drivers/peripheral/ctdac/cy_ctdac.h **** * Set the CTDAC_VAL_NEXT register. The value is transferred
 790:Generated_Source\PSoC6\pdl\drivers/peripheral/ctdac/cy_ctdac.h **** * to the CTDAC_VAL register on the next edge of the CTDAC clock.
 791:Generated_Source\PSoC6\pdl\drivers/peripheral/ctdac/cy_ctdac.h **** * Only the least significant 12 bits
 792:Generated_Source\PSoC6\pdl\drivers/peripheral/ctdac/cy_ctdac.h **** * have an effect. Sign extension of negative values is unnecessary and is
 793:Generated_Source\PSoC6\pdl\drivers/peripheral/ctdac/cy_ctdac.h **** * ignored by the hardware. The way in which the CTDAC interprets the 12-bit
 794:Generated_Source\PSoC6\pdl\drivers/peripheral/ctdac/cy_ctdac.h **** * data is controlled by \ref Cy_CTDAC_SetSignMode.
 795:Generated_Source\PSoC6\pdl\drivers/peripheral/ctdac/cy_ctdac.h **** *
 796:Generated_Source\PSoC6\pdl\drivers/peripheral/ctdac/cy_ctdac.h **** * \note
 797:Generated_Source\PSoC6\pdl\drivers/peripheral/ctdac/cy_ctdac.h **** * Calling this function in \ref group_ctdac_updatemode_direct_write mode will not update the DAC ou
 798:Generated_Source\PSoC6\pdl\drivers/peripheral/ctdac/cy_ctdac.h **** * Call this function for all modes that use buffered values (i.e. uses a clock).
 799:Generated_Source\PSoC6\pdl\drivers/peripheral/ctdac/cy_ctdac.h **** *
 800:Generated_Source\PSoC6\pdl\drivers/peripheral/ctdac/cy_ctdac.h **** * \param base
 801:Generated_Source\PSoC6\pdl\drivers/peripheral/ctdac/cy_ctdac.h **** * Pointer to structure describing registers
 802:Generated_Source\PSoC6\pdl\drivers/peripheral/ctdac/cy_ctdac.h **** *
 803:Generated_Source\PSoC6\pdl\drivers/peripheral/ctdac/cy_ctdac.h **** * \param value
 804:Generated_Source\PSoC6\pdl\drivers/peripheral/ctdac/cy_ctdac.h **** * Value to write into the CTDAC_VAL_NEXT register
 805:Generated_Source\PSoC6\pdl\drivers/peripheral/ctdac/cy_ctdac.h **** *
 806:Generated_Source\PSoC6\pdl\drivers/peripheral/ctdac/cy_ctdac.h **** * \return None
 807:Generated_Source\PSoC6\pdl\drivers/peripheral/ctdac/cy_ctdac.h **** *
 808:Generated_Source\PSoC6\pdl\drivers/peripheral/ctdac/cy_ctdac.h **** * \funcusage
 809:Generated_Source\PSoC6\pdl\drivers/peripheral/ctdac/cy_ctdac.h **** *
 810:Generated_Source\PSoC6\pdl\drivers/peripheral/ctdac/cy_ctdac.h **** * \snippet ctdac_sut_01.cydsn/main_cm4.c CTDAC_SNIPPET_SET_VALUE_BUFFERED
 811:Generated_Source\PSoC6\pdl\drivers/peripheral/ctdac/cy_ctdac.h **** *
 812:Generated_Source\PSoC6\pdl\drivers/peripheral/ctdac/cy_ctdac.h **** *******************************************************************************/
 813:Generated_Source\PSoC6\pdl\drivers/peripheral/ctdac/cy_ctdac.h **** __STATIC_INLINE void Cy_CTDAC_SetValueBuffered(CTDAC_Type *base, int32_t value)
 814:Generated_Source\PSoC6\pdl\drivers/peripheral/ctdac/cy_ctdac.h **** {
 815:Generated_Source\PSoC6\pdl\drivers/peripheral/ctdac/cy_ctdac.h ****     CTDAC_CTDAC_VAL_NXT(base) = (((uint32_t)value) << CTDAC_CTDAC_VAL_NXT_VALUE_Pos) & CTDAC_CTDAC_
  51              		.loc 2 815 0 discriminator 1
  52 000a 3A4C     		ldr	r4, .L4
  53 000c 4FF40066 		mov	r6, #2048
  54 0010 C4F80461 		str	r6, [r4, #260]
  55              	.LVL3:
  56              	.LBE69:
  57              	.LBE68:
  58              	.LBB70:
ARM GAS  C:\Users\cmila\AppData\Local\Temp\ccqwXksn.s 			page 17


  59              	.LBB71:
 816:Generated_Source\PSoC6\pdl\drivers/peripheral/ctdac/cy_ctdac.h **** }
 817:Generated_Source\PSoC6\pdl\drivers/peripheral/ctdac/cy_ctdac.h **** /** \} */
 818:Generated_Source\PSoC6\pdl\drivers/peripheral/ctdac/cy_ctdac.h **** 
 819:Generated_Source\PSoC6\pdl\drivers/peripheral/ctdac/cy_ctdac.h **** /**
 820:Generated_Source\PSoC6\pdl\drivers/peripheral/ctdac/cy_ctdac.h **** * \addtogroup group_ctdac_functions_switches
 821:Generated_Source\PSoC6\pdl\drivers/peripheral/ctdac/cy_ctdac.h **** * \{
 822:Generated_Source\PSoC6\pdl\drivers/peripheral/ctdac/cy_ctdac.h **** */
 823:Generated_Source\PSoC6\pdl\drivers/peripheral/ctdac/cy_ctdac.h **** /*******************************************************************************
 824:Generated_Source\PSoC6\pdl\drivers/peripheral/ctdac/cy_ctdac.h **** * Function Name: Cy_CTDAC_GetAnalogSwitch
 825:Generated_Source\PSoC6\pdl\drivers/peripheral/ctdac/cy_ctdac.h **** ****************************************************************************//**
 826:Generated_Source\PSoC6\pdl\drivers/peripheral/ctdac/cy_ctdac.h **** *
 827:Generated_Source\PSoC6\pdl\drivers/peripheral/ctdac/cy_ctdac.h **** * Return the state (open or close) of the CTDAC switches.
 828:Generated_Source\PSoC6\pdl\drivers/peripheral/ctdac/cy_ctdac.h **** *
 829:Generated_Source\PSoC6\pdl\drivers/peripheral/ctdac/cy_ctdac.h **** * \note
 830:Generated_Source\PSoC6\pdl\drivers/peripheral/ctdac/cy_ctdac.h **** * The switches will be managed by the reference
 831:Generated_Source\PSoC6\pdl\drivers/peripheral/ctdac/cy_ctdac.h **** * source and output mode selections when initializing the hardware.
 832:Generated_Source\PSoC6\pdl\drivers/peripheral/ctdac/cy_ctdac.h **** *
 833:Generated_Source\PSoC6\pdl\drivers/peripheral/ctdac/cy_ctdac.h **** * \param base
 834:Generated_Source\PSoC6\pdl\drivers/peripheral/ctdac/cy_ctdac.h **** * Pointer to structure describing registers
 835:Generated_Source\PSoC6\pdl\drivers/peripheral/ctdac/cy_ctdac.h **** *
 836:Generated_Source\PSoC6\pdl\drivers/peripheral/ctdac/cy_ctdac.h **** * \return
 837:Generated_Source\PSoC6\pdl\drivers/peripheral/ctdac/cy_ctdac.h **** * Switch state. Compare this value to the masks found in \ref cy_en_ctdac_switches_t.
 838:Generated_Source\PSoC6\pdl\drivers/peripheral/ctdac/cy_ctdac.h **** *
 839:Generated_Source\PSoC6\pdl\drivers/peripheral/ctdac/cy_ctdac.h **** *******************************************************************************/
 840:Generated_Source\PSoC6\pdl\drivers/peripheral/ctdac/cy_ctdac.h **** __STATIC_INLINE uint32_t Cy_CTDAC_GetAnalogSwitch(const CTDAC_Type *base)
 841:Generated_Source\PSoC6\pdl\drivers/peripheral/ctdac/cy_ctdac.h **** {
 842:Generated_Source\PSoC6\pdl\drivers/peripheral/ctdac/cy_ctdac.h ****     return CTDAC_CTDAC_SW(base);
 843:Generated_Source\PSoC6\pdl\drivers/peripheral/ctdac/cy_ctdac.h **** }
 844:Generated_Source\PSoC6\pdl\drivers/peripheral/ctdac/cy_ctdac.h **** 
 845:Generated_Source\PSoC6\pdl\drivers/peripheral/ctdac/cy_ctdac.h **** /*******************************************************************************
 846:Generated_Source\PSoC6\pdl\drivers/peripheral/ctdac/cy_ctdac.h **** * Function Name: Cy_CTDAC_SetSwitchCO6
 847:Generated_Source\PSoC6\pdl\drivers/peripheral/ctdac/cy_ctdac.h **** ****************************************************************************//**
 848:Generated_Source\PSoC6\pdl\drivers/peripheral/ctdac/cy_ctdac.h **** *
 849:Generated_Source\PSoC6\pdl\drivers/peripheral/ctdac/cy_ctdac.h **** * Open or close switch CO6 that controls whether the output gets routed
 850:Generated_Source\PSoC6\pdl\drivers/peripheral/ctdac/cy_ctdac.h **** * directly to a pin or through Opamp0 of the CTB. This function calls
 851:Generated_Source\PSoC6\pdl\drivers/peripheral/ctdac/cy_ctdac.h **** * \ref Cy_CTDAC_SetAnalogSwitch with the switchMask set to \ref CY_CTDAC_SWITCH_CO6_MASK.
 852:Generated_Source\PSoC6\pdl\drivers/peripheral/ctdac/cy_ctdac.h **** *
 853:Generated_Source\PSoC6\pdl\drivers/peripheral/ctdac/cy_ctdac.h **** * \note
 854:Generated_Source\PSoC6\pdl\drivers/peripheral/ctdac/cy_ctdac.h **** * The switches is configured by the output mode selections during initialization.
 855:Generated_Source\PSoC6\pdl\drivers/peripheral/ctdac/cy_ctdac.h **** *
 856:Generated_Source\PSoC6\pdl\drivers/peripheral/ctdac/cy_ctdac.h **** * \note
 857:Generated_Source\PSoC6\pdl\drivers/peripheral/ctdac/cy_ctdac.h **** * This switch will temporarily
 858:Generated_Source\PSoC6\pdl\drivers/peripheral/ctdac/cy_ctdac.h **** * be opened for deglitching if the deglitch mode is \ref CY_CTDAC_DEGLITCHMODE_UNBUFFERED or
 859:Generated_Source\PSoC6\pdl\drivers/peripheral/ctdac/cy_ctdac.h **** * \ref CY_CTDAC_DEGLITCHMODE_BOTH.
 860:Generated_Source\PSoC6\pdl\drivers/peripheral/ctdac/cy_ctdac.h **** *
 861:Generated_Source\PSoC6\pdl\drivers/peripheral/ctdac/cy_ctdac.h **** * \param base
 862:Generated_Source\PSoC6\pdl\drivers/peripheral/ctdac/cy_ctdac.h **** * Pointer to structure describing registers
 863:Generated_Source\PSoC6\pdl\drivers/peripheral/ctdac/cy_ctdac.h **** *
 864:Generated_Source\PSoC6\pdl\drivers/peripheral/ctdac/cy_ctdac.h **** * \param state
 865:Generated_Source\PSoC6\pdl\drivers/peripheral/ctdac/cy_ctdac.h **** * State of the switch, open or close.
 866:Generated_Source\PSoC6\pdl\drivers/peripheral/ctdac/cy_ctdac.h **** *
 867:Generated_Source\PSoC6\pdl\drivers/peripheral/ctdac/cy_ctdac.h **** * \return None
 868:Generated_Source\PSoC6\pdl\drivers/peripheral/ctdac/cy_ctdac.h **** *
 869:Generated_Source\PSoC6\pdl\drivers/peripheral/ctdac/cy_ctdac.h **** * \funcusage
 870:Generated_Source\PSoC6\pdl\drivers/peripheral/ctdac/cy_ctdac.h **** *
 871:Generated_Source\PSoC6\pdl\drivers/peripheral/ctdac/cy_ctdac.h **** * \snippet ctdac_sut_01.cydsn/main_cm4.c CTDAC_SNIPPET_SET_SWITCH_CO6
ARM GAS  C:\Users\cmila\AppData\Local\Temp\ccqwXksn.s 			page 18


 872:Generated_Source\PSoC6\pdl\drivers/peripheral/ctdac/cy_ctdac.h **** *
 873:Generated_Source\PSoC6\pdl\drivers/peripheral/ctdac/cy_ctdac.h **** *******************************************************************************/
 874:Generated_Source\PSoC6\pdl\drivers/peripheral/ctdac/cy_ctdac.h **** __STATIC_INLINE void Cy_CTDAC_SetSwitchCO6(CTDAC_Type *base, cy_en_ctdac_switch_state_t state)
 875:Generated_Source\PSoC6\pdl\drivers/peripheral/ctdac/cy_ctdac.h **** {
 876:Generated_Source\PSoC6\pdl\drivers/peripheral/ctdac/cy_ctdac.h ****     Cy_CTDAC_SetAnalogSwitch(base, (uint32_t) CY_CTDAC_SWITCH_CO6_MASK, state);
 877:Generated_Source\PSoC6\pdl\drivers/peripheral/ctdac/cy_ctdac.h **** }
 878:Generated_Source\PSoC6\pdl\drivers/peripheral/ctdac/cy_ctdac.h **** 
 879:Generated_Source\PSoC6\pdl\drivers/peripheral/ctdac/cy_ctdac.h **** /*******************************************************************************
 880:Generated_Source\PSoC6\pdl\drivers/peripheral/ctdac/cy_ctdac.h **** * Function Name: Cy_CTDAC_OpenAllSwitches
 881:Generated_Source\PSoC6\pdl\drivers/peripheral/ctdac/cy_ctdac.h **** ****************************************************************************//**
 882:Generated_Source\PSoC6\pdl\drivers/peripheral/ctdac/cy_ctdac.h **** *
 883:Generated_Source\PSoC6\pdl\drivers/peripheral/ctdac/cy_ctdac.h **** * Open all switches in the CTDAC (CO6 and CVD).
 884:Generated_Source\PSoC6\pdl\drivers/peripheral/ctdac/cy_ctdac.h **** *
 885:Generated_Source\PSoC6\pdl\drivers/peripheral/ctdac/cy_ctdac.h **** * \param base
 886:Generated_Source\PSoC6\pdl\drivers/peripheral/ctdac/cy_ctdac.h **** * Pointer to structure describing registers
 887:Generated_Source\PSoC6\pdl\drivers/peripheral/ctdac/cy_ctdac.h **** *
 888:Generated_Source\PSoC6\pdl\drivers/peripheral/ctdac/cy_ctdac.h **** * \return None
 889:Generated_Source\PSoC6\pdl\drivers/peripheral/ctdac/cy_ctdac.h **** *
 890:Generated_Source\PSoC6\pdl\drivers/peripheral/ctdac/cy_ctdac.h **** * \funcusage
 891:Generated_Source\PSoC6\pdl\drivers/peripheral/ctdac/cy_ctdac.h **** *
 892:Generated_Source\PSoC6\pdl\drivers/peripheral/ctdac/cy_ctdac.h **** * \snippet ctdac_sut_01.cydsn/main_cm4.c CTDAC_SNIPPET_OPEN_ALL_SWITCHES
 893:Generated_Source\PSoC6\pdl\drivers/peripheral/ctdac/cy_ctdac.h **** *
 894:Generated_Source\PSoC6\pdl\drivers/peripheral/ctdac/cy_ctdac.h **** *******************************************************************************/
 895:Generated_Source\PSoC6\pdl\drivers/peripheral/ctdac/cy_ctdac.h **** __STATIC_INLINE void Cy_CTDAC_OpenAllSwitches(CTDAC_Type *base)
 896:Generated_Source\PSoC6\pdl\drivers/peripheral/ctdac/cy_ctdac.h **** {
 897:Generated_Source\PSoC6\pdl\drivers/peripheral/ctdac/cy_ctdac.h ****     CTDAC_CTDAC_SW_CLEAR(base) = CY_CTDAC_DEINT_CTDAC_SW;
 898:Generated_Source\PSoC6\pdl\drivers/peripheral/ctdac/cy_ctdac.h **** }
 899:Generated_Source\PSoC6\pdl\drivers/peripheral/ctdac/cy_ctdac.h **** 
 900:Generated_Source\PSoC6\pdl\drivers/peripheral/ctdac/cy_ctdac.h **** /** \} */
 901:Generated_Source\PSoC6\pdl\drivers/peripheral/ctdac/cy_ctdac.h **** 
 902:Generated_Source\PSoC6\pdl\drivers/peripheral/ctdac/cy_ctdac.h **** /**
 903:Generated_Source\PSoC6\pdl\drivers/peripheral/ctdac/cy_ctdac.h **** * \addtogroup group_ctdac_functions_interrupts
 904:Generated_Source\PSoC6\pdl\drivers/peripheral/ctdac/cy_ctdac.h **** * \{
 905:Generated_Source\PSoC6\pdl\drivers/peripheral/ctdac/cy_ctdac.h **** */
 906:Generated_Source\PSoC6\pdl\drivers/peripheral/ctdac/cy_ctdac.h **** /*******************************************************************************
 907:Generated_Source\PSoC6\pdl\drivers/peripheral/ctdac/cy_ctdac.h **** * Function Name: Cy_CTDAC_GetInterruptStatus
 908:Generated_Source\PSoC6\pdl\drivers/peripheral/ctdac/cy_ctdac.h **** ****************************************************************************//**
 909:Generated_Source\PSoC6\pdl\drivers/peripheral/ctdac/cy_ctdac.h **** *
 910:Generated_Source\PSoC6\pdl\drivers/peripheral/ctdac/cy_ctdac.h **** * Return the interrupt status which gets set by the hardware
 911:Generated_Source\PSoC6\pdl\drivers/peripheral/ctdac/cy_ctdac.h **** * when the CTDAC_VAL_NXT register value is transferred to the CTDAC_VAL register.
 912:Generated_Source\PSoC6\pdl\drivers/peripheral/ctdac/cy_ctdac.h **** * Once set, the CTDAC_VAL_NXT register is ready to accept a new value.
 913:Generated_Source\PSoC6\pdl\drivers/peripheral/ctdac/cy_ctdac.h **** *
 914:Generated_Source\PSoC6\pdl\drivers/peripheral/ctdac/cy_ctdac.h **** * \note
 915:Generated_Source\PSoC6\pdl\drivers/peripheral/ctdac/cy_ctdac.h **** * Interrupts are available in all update modes except \ref group_ctdac_updatemode_direct_write.
 916:Generated_Source\PSoC6\pdl\drivers/peripheral/ctdac/cy_ctdac.h **** *
 917:Generated_Source\PSoC6\pdl\drivers/peripheral/ctdac/cy_ctdac.h **** * \param base
 918:Generated_Source\PSoC6\pdl\drivers/peripheral/ctdac/cy_ctdac.h **** * Pointer to structure describing registers
 919:Generated_Source\PSoC6\pdl\drivers/peripheral/ctdac/cy_ctdac.h **** *
 920:Generated_Source\PSoC6\pdl\drivers/peripheral/ctdac/cy_ctdac.h **** * \return
 921:Generated_Source\PSoC6\pdl\drivers/peripheral/ctdac/cy_ctdac.h **** * - 0: Value not moved from CTDAC_VAL_NXT to CTDAC_VAL
 922:Generated_Source\PSoC6\pdl\drivers/peripheral/ctdac/cy_ctdac.h **** * - 1: Value moved from CTDAC_VAL_NXT to CTDAC_VAL
 923:Generated_Source\PSoC6\pdl\drivers/peripheral/ctdac/cy_ctdac.h **** *
 924:Generated_Source\PSoC6\pdl\drivers/peripheral/ctdac/cy_ctdac.h **** * \funcusage
 925:Generated_Source\PSoC6\pdl\drivers/peripheral/ctdac/cy_ctdac.h **** *
 926:Generated_Source\PSoC6\pdl\drivers/peripheral/ctdac/cy_ctdac.h **** * \snippet ctdac_sut_01.cydsn/main_cm0p.c SNIPPET_CTDAC_GET_INTERRUPT_STATUS
 927:Generated_Source\PSoC6\pdl\drivers/peripheral/ctdac/cy_ctdac.h **** *
 928:Generated_Source\PSoC6\pdl\drivers/peripheral/ctdac/cy_ctdac.h **** *******************************************************************************/
ARM GAS  C:\Users\cmila\AppData\Local\Temp\ccqwXksn.s 			page 19


 929:Generated_Source\PSoC6\pdl\drivers/peripheral/ctdac/cy_ctdac.h **** __STATIC_INLINE  uint32_t Cy_CTDAC_GetInterruptStatus(const CTDAC_Type *base)
 930:Generated_Source\PSoC6\pdl\drivers/peripheral/ctdac/cy_ctdac.h **** {
 931:Generated_Source\PSoC6\pdl\drivers/peripheral/ctdac/cy_ctdac.h ****     return (CTDAC_INTR(base) & CTDAC_INTR_VDAC_EMPTY_Msk) >> CTDAC_INTR_VDAC_EMPTY_Pos;
 932:Generated_Source\PSoC6\pdl\drivers/peripheral/ctdac/cy_ctdac.h **** }
 933:Generated_Source\PSoC6\pdl\drivers/peripheral/ctdac/cy_ctdac.h **** 
 934:Generated_Source\PSoC6\pdl\drivers/peripheral/ctdac/cy_ctdac.h **** /*******************************************************************************
 935:Generated_Source\PSoC6\pdl\drivers/peripheral/ctdac/cy_ctdac.h **** * Function Name: Cy_CTDAC_ClearInterrupt
 936:Generated_Source\PSoC6\pdl\drivers/peripheral/ctdac/cy_ctdac.h **** ****************************************************************************//**
 937:Generated_Source\PSoC6\pdl\drivers/peripheral/ctdac/cy_ctdac.h **** *
 938:Generated_Source\PSoC6\pdl\drivers/peripheral/ctdac/cy_ctdac.h **** * Clear the interrupt that was set by the hardware when the
 939:Generated_Source\PSoC6\pdl\drivers/peripheral/ctdac/cy_ctdac.h **** * CTDAC_VAL_NXT register value is transferred to the CTDAC_VAL register.
 940:Generated_Source\PSoC6\pdl\drivers/peripheral/ctdac/cy_ctdac.h **** * The interrupt must be cleared with this function so that
 941:Generated_Source\PSoC6\pdl\drivers/peripheral/ctdac/cy_ctdac.h **** * the hardware can set subsequent interrupts and those interrupts
 942:Generated_Source\PSoC6\pdl\drivers/peripheral/ctdac/cy_ctdac.h **** * can be forwarded to the interrupt controller, if enabled.
 943:Generated_Source\PSoC6\pdl\drivers/peripheral/ctdac/cy_ctdac.h **** *
 944:Generated_Source\PSoC6\pdl\drivers/peripheral/ctdac/cy_ctdac.h **** * \note
 945:Generated_Source\PSoC6\pdl\drivers/peripheral/ctdac/cy_ctdac.h **** * Interrupts are available in all update modes except \ref group_ctdac_updatemode_direct_write.
 946:Generated_Source\PSoC6\pdl\drivers/peripheral/ctdac/cy_ctdac.h **** *
 947:Generated_Source\PSoC6\pdl\drivers/peripheral/ctdac/cy_ctdac.h **** * \param base
 948:Generated_Source\PSoC6\pdl\drivers/peripheral/ctdac/cy_ctdac.h **** * Pointer to structure describing registers
 949:Generated_Source\PSoC6\pdl\drivers/peripheral/ctdac/cy_ctdac.h **** *
 950:Generated_Source\PSoC6\pdl\drivers/peripheral/ctdac/cy_ctdac.h **** * \return None
 951:Generated_Source\PSoC6\pdl\drivers/peripheral/ctdac/cy_ctdac.h **** *
 952:Generated_Source\PSoC6\pdl\drivers/peripheral/ctdac/cy_ctdac.h **** *******************************************************************************/
 953:Generated_Source\PSoC6\pdl\drivers/peripheral/ctdac/cy_ctdac.h **** __STATIC_INLINE void Cy_CTDAC_ClearInterrupt(CTDAC_Type *base)
 954:Generated_Source\PSoC6\pdl\drivers/peripheral/ctdac/cy_ctdac.h **** {
 955:Generated_Source\PSoC6\pdl\drivers/peripheral/ctdac/cy_ctdac.h ****     CTDAC_INTR(base) = CTDAC_INTR_VDAC_EMPTY_Msk;
  60              		.loc 2 955 0 discriminator 1
  61 0014 0125     		movs	r5, #1
  62 0016 2562     		str	r5, [r4, #32]
 956:Generated_Source\PSoC6\pdl\drivers/peripheral/ctdac/cy_ctdac.h **** 
 957:Generated_Source\PSoC6\pdl\drivers/peripheral/ctdac/cy_ctdac.h ****     /* Dummy read for buffered writes. */
 958:Generated_Source\PSoC6\pdl\drivers/peripheral/ctdac/cy_ctdac.h ****     (void) CTDAC_INTR(base);
  63              		.loc 2 958 0 discriminator 1
  64 0018 236A     		ldr	r3, [r4, #32]
  65              	.LVL4:
  66              	.LBE71:
  67              	.LBE70:
  68              	.LBB72:
  69              	.LBB73:
 815:Generated_Source\PSoC6\pdl\drivers/peripheral/ctdac/cy_ctdac.h **** }
  70              		.loc 2 815 0 discriminator 1
  71 001a 40F60108 		movw	r8, #2049
  72 001e C4F80481 		str	r8, [r4, #260]
  73              	.LVL5:
  74              	.LBE73:
  75              	.LBE72:
  40:main_cm4.c    **** 
  41:main_cm4.c    ****         Cy_CTDAC_SetValueBuffered(VDAC_CTDAC_HW, 0x800);
  42:main_cm4.c    ****         Cy_CTDAC_ClearInterrupt(VDAC_CTDAC_HW);
  43:main_cm4.c    **** 
  44:main_cm4.c    ****         Cy_CTDAC_SetValueBuffered(VDAC_CTDAC_HW, -0x7FF);
  45:main_cm4.c    ****         CyDelayUs(phase1);
  76              		.loc 1 45 0 discriminator 1
  77 0022 0F20     		movs	r0, #15
  78 0024 FFF7FEFF 		bl	Cy_SysLib_DelayUs
  79              	.LVL6:
ARM GAS  C:\Users\cmila\AppData\Local\Temp\ccqwXksn.s 			page 20


  80              	.LBB74:
  81              	.LBB75:
 955:Generated_Source\PSoC6\pdl\drivers/peripheral/ctdac/cy_ctdac.h **** 
  82              		.loc 2 955 0 discriminator 1
  83 0028 2562     		str	r5, [r4, #32]
  84              		.loc 2 958 0 discriminator 1
  85 002a 236A     		ldr	r3, [r4, #32]
  86              	.LVL7:
  87              	.LBE75:
  88              	.LBE74:
  89              	.LBB76:
  90              	.LBB77:
 815:Generated_Source\PSoC6\pdl\drivers/peripheral/ctdac/cy_ctdac.h **** }
  91              		.loc 2 815 0 discriminator 1
  92 002c C4F80461 		str	r6, [r4, #260]
  93              	.LVL8:
  94              	.LBE77:
  95              	.LBE76:
  46:main_cm4.c    ****         Cy_CTDAC_ClearInterrupt(VDAC_CTDAC_HW);
  47:main_cm4.c    **** 
  48:main_cm4.c    ****         // Setting back to 0
  49:main_cm4.c    ****         Cy_CTDAC_SetValueBuffered(VDAC_CTDAC_HW, 0x800);
  50:main_cm4.c    ****         CyDelayUs(inter_stim_delay);
  96              		.loc 1 50 0 discriminator 1
  97 0030 0F20     		movs	r0, #15
  98 0032 FFF7FEFF 		bl	Cy_SysLib_DelayUs
  99              	.LVL9:
 100              	.LBB78:
 101              	.LBB79:
 955:Generated_Source\PSoC6\pdl\drivers/peripheral/ctdac/cy_ctdac.h **** 
 102              		.loc 2 955 0 discriminator 1
 103 0036 2562     		str	r5, [r4, #32]
 104              		.loc 2 958 0 discriminator 1
 105 0038 236A     		ldr	r3, [r4, #32]
 106              	.LVL10:
 107              	.LBE79:
 108              	.LBE78:
 109              	.LBB80:
 110              	.LBB81:
 815:Generated_Source\PSoC6\pdl\drivers/peripheral/ctdac/cy_ctdac.h **** }
 111              		.loc 2 815 0 discriminator 1
 112 003a 40F2FF77 		movw	r7, #2047
 113 003e C4F80471 		str	r7, [r4, #260]
 114              	.LVL11:
 115              	.LBE81:
 116              	.LBE80:
  51:main_cm4.c    ****         Cy_CTDAC_ClearInterrupt(VDAC_CTDAC_HW);
  52:main_cm4.c    **** 
  53:main_cm4.c    ****         // Setting to positive (phase 2)
  54:main_cm4.c    ****         Cy_CTDAC_SetValueBuffered(VDAC_CTDAC_HW, 0x7FF);
  55:main_cm4.c    ****         CyDelayUs(phase2); // phase 2 time
 117              		.loc 1 55 0 discriminator 1
 118 0042 0F20     		movs	r0, #15
 119 0044 FFF7FEFF 		bl	Cy_SysLib_DelayUs
 120              	.LVL12:
 121              	.LBB82:
 122              	.LBB83:
ARM GAS  C:\Users\cmila\AppData\Local\Temp\ccqwXksn.s 			page 21


 955:Generated_Source\PSoC6\pdl\drivers/peripheral/ctdac/cy_ctdac.h **** 
 123              		.loc 2 955 0 discriminator 1
 124 0048 2562     		str	r5, [r4, #32]
 125              		.loc 2 958 0 discriminator 1
 126 004a 236A     		ldr	r3, [r4, #32]
 127              	.LVL13:
 128              	.LBE83:
 129              	.LBE82:
 130              	.LBB84:
 131              	.LBB85:
 815:Generated_Source\PSoC6\pdl\drivers/peripheral/ctdac/cy_ctdac.h **** }
 132              		.loc 2 815 0 discriminator 1
 133 004c C4F80461 		str	r6, [r4, #260]
 134              	.LVL14:
 135              	.LBE85:
 136              	.LBE84:
 137              	.LBB86:
 138              	.LBB87:
 955:Generated_Source\PSoC6\pdl\drivers/peripheral/ctdac/cy_ctdac.h **** 
 139              		.loc 2 955 0 discriminator 1
 140 0050 2562     		str	r5, [r4, #32]
 141              		.loc 2 958 0 discriminator 1
 142 0052 236A     		ldr	r3, [r4, #32]
 143              	.LVL15:
 144              	.LBE87:
 145              	.LBE86:
  56:main_cm4.c    ****         Cy_CTDAC_ClearInterrupt(VDAC_CTDAC_HW);
  57:main_cm4.c    **** 
  58:main_cm4.c    ****         // Setting back to 0
  59:main_cm4.c    ****         Cy_CTDAC_SetValueBuffered(VDAC_CTDAC_HW, 0x800);
  60:main_cm4.c    ****         Cy_CTDAC_ClearInterrupt(VDAC_CTDAC_HW);
  61:main_cm4.c    **** 
  62:main_cm4.c    ****         CyDelayUs(stim_gap); // This could be our stimulation gap
 146              		.loc 1 62 0 discriminator 1
 147 0054 3220     		movs	r0, #50
 148 0056 FFF7FEFF 		bl	Cy_SysLib_DelayUs
 149              	.LVL16:
  63:main_cm4.c    ****         
  64:main_cm4.c    ****          /* Place your application code here. */
  65:main_cm4.c    ****         //////////////////////////////////////////////
  66:main_cm4.c    ****         //              biphasic pulse              //
  67:main_cm4.c    ****         //////////////////////////////////////////////
  68:main_cm4.c    ****         
  69:main_cm4.c    ****         // delay in microseconds
  70:main_cm4.c    ****         CyDelayUs(500);
 150              		.loc 1 70 0 discriminator 1
 151 005a 4FF4FA70 		mov	r0, #500
 152 005e FFF7FEFF 		bl	Cy_SysLib_DelayUs
 153              	.LVL17:
 154              	.LBB88:
 155              	.LBB89:
 815:Generated_Source\PSoC6\pdl\drivers/peripheral/ctdac/cy_ctdac.h **** }
 156              		.loc 2 815 0 discriminator 1
 157 0062 C4F80461 		str	r6, [r4, #260]
 158              	.LVL18:
 159              	.LBE89:
 160              	.LBE88:
ARM GAS  C:\Users\cmila\AppData\Local\Temp\ccqwXksn.s 			page 22


 161              	.LBB90:
 162              	.LBB91:
 955:Generated_Source\PSoC6\pdl\drivers/peripheral/ctdac/cy_ctdac.h **** 
 163              		.loc 2 955 0 discriminator 1
 164 0066 2562     		str	r5, [r4, #32]
 165              		.loc 2 958 0 discriminator 1
 166 0068 236A     		ldr	r3, [r4, #32]
 167              	.LVL19:
 168              	.LBE91:
 169              	.LBE90:
 170              	.LBB92:
 171              	.LBB93:
 815:Generated_Source\PSoC6\pdl\drivers/peripheral/ctdac/cy_ctdac.h **** }
 172              		.loc 2 815 0 discriminator 1
 173 006a C4F80481 		str	r8, [r4, #260]
 174              	.LVL20:
 175              	.LBE93:
 176              	.LBE92:
  71:main_cm4.c    ****         
  72:main_cm4.c    ****         // 0x800 sets DAC to 0 for 12-bit two's complement
  73:main_cm4.c    ****         Cy_CTDAC_SetValueBuffered(VDAC_CTDAC_HW, 0x800);
  74:main_cm4.c    ****         Cy_CTDAC_ClearInterrupt(VDAC_CTDAC_HW);
  75:main_cm4.c    ****         
  76:main_cm4.c    ****         
  77:main_cm4.c    ****         // 0x7FF sets to =~ vref value (3) just below it
  78:main_cm4.c    ****         // going in the negative (phase 1) lasts approx 10 u sec
  79:main_cm4.c    ****         // Not sure about -0x7FF
  80:main_cm4.c    ****         Cy_CTDAC_SetValueBuffered(VDAC_CTDAC_HW, -0x7FF);
  81:main_cm4.c    ****         CyDelayUs(10);
 177              		.loc 1 81 0 discriminator 1
 178 006e 0A20     		movs	r0, #10
 179 0070 FFF7FEFF 		bl	Cy_SysLib_DelayUs
 180              	.LVL21:
 181              	.LBB94:
 182              	.LBB95:
 955:Generated_Source\PSoC6\pdl\drivers/peripheral/ctdac/cy_ctdac.h **** 
 183              		.loc 2 955 0 discriminator 1
 184 0074 2562     		str	r5, [r4, #32]
 185              		.loc 2 958 0 discriminator 1
 186 0076 236A     		ldr	r3, [r4, #32]
 187              	.LVL22:
 188              	.LBE95:
 189              	.LBE94:
 190              	.LBB96:
 191              	.LBB97:
 815:Generated_Source\PSoC6\pdl\drivers/peripheral/ctdac/cy_ctdac.h **** }
 192              		.loc 2 815 0 discriminator 1
 193 0078 C4F80461 		str	r6, [r4, #260]
 194              	.LVL23:
 195              	.LBE97:
 196              	.LBE96:
 197              	.LBB98:
 198              	.LBB99:
 955:Generated_Source\PSoC6\pdl\drivers/peripheral/ctdac/cy_ctdac.h **** 
 199              		.loc 2 955 0 discriminator 1
 200 007c 2562     		str	r5, [r4, #32]
 201              		.loc 2 958 0 discriminator 1
ARM GAS  C:\Users\cmila\AppData\Local\Temp\ccqwXksn.s 			page 23


 202 007e 236A     		ldr	r3, [r4, #32]
 203              	.LVL24:
 204              	.LBE99:
 205              	.LBE98:
 206              	.LBB100:
 207              	.LBB101:
 815:Generated_Source\PSoC6\pdl\drivers/peripheral/ctdac/cy_ctdac.h **** }
 208              		.loc 2 815 0 discriminator 1
 209 0080 C4F80471 		str	r7, [r4, #260]
 210              	.LVL25:
 211              	.LBE101:
 212              	.LBE100:
  82:main_cm4.c    ****         Cy_CTDAC_ClearInterrupt(VDAC_CTDAC_HW);
  83:main_cm4.c    ****        
  84:main_cm4.c    ****         // Setting back to 0
  85:main_cm4.c    ****         Cy_CTDAC_SetValueBuffered(VDAC_CTDAC_HW, 0x800);
  86:main_cm4.c    ****         // delay here for inter_phase_gap
  87:main_cm4.c    ****         Cy_CTDAC_ClearInterrupt(VDAC_CTDAC_HW);
  88:main_cm4.c    ****         
  89:main_cm4.c    ****         // Setting to positive (phase 2)
  90:main_cm4.c    ****         Cy_CTDAC_SetValueBuffered(VDAC_CTDAC_HW, 0x7FF);
  91:main_cm4.c    ****         CyDelayUs(10); // phase 2 time
 213              		.loc 1 91 0 discriminator 1
 214 0084 0A20     		movs	r0, #10
 215 0086 FFF7FEFF 		bl	Cy_SysLib_DelayUs
 216              	.LVL26:
 217              	.LBB102:
 218              	.LBB103:
 955:Generated_Source\PSoC6\pdl\drivers/peripheral/ctdac/cy_ctdac.h **** 
 219              		.loc 2 955 0 discriminator 1
 220 008a 2562     		str	r5, [r4, #32]
 221              		.loc 2 958 0 discriminator 1
 222 008c 236A     		ldr	r3, [r4, #32]
 223              	.LVL27:
 224              	.LBE103:
 225              	.LBE102:
 226              	.LBB104:
 227              	.LBB105:
 815:Generated_Source\PSoC6\pdl\drivers/peripheral/ctdac/cy_ctdac.h **** }
 228              		.loc 2 815 0 discriminator 1
 229 008e C4F80461 		str	r6, [r4, #260]
 230              	.LVL28:
 231              	.LBE105:
 232              	.LBE104:
 233              	.LBB106:
 234              	.LBB107:
 955:Generated_Source\PSoC6\pdl\drivers/peripheral/ctdac/cy_ctdac.h **** 
 235              		.loc 2 955 0 discriminator 1
 236 0092 2562     		str	r5, [r4, #32]
 237              		.loc 2 958 0 discriminator 1
 238 0094 236A     		ldr	r3, [r4, #32]
 239              	.LVL29:
 240              	.LBE107:
 241              	.LBE106:
  92:main_cm4.c    ****         Cy_CTDAC_ClearInterrupt(VDAC_CTDAC_HW);
  93:main_cm4.c    ****         
  94:main_cm4.c    ****         // Setting back to 0
ARM GAS  C:\Users\cmila\AppData\Local\Temp\ccqwXksn.s 			page 24


  95:main_cm4.c    ****         Cy_CTDAC_SetValueBuffered(VDAC_CTDAC_HW, 0x800);
  96:main_cm4.c    ****         Cy_CTDAC_ClearInterrupt(VDAC_CTDAC_HW);
  97:main_cm4.c    **** 
  98:main_cm4.c    ****         CyDelayUs(500); // This could be our stimulation gap
 242              		.loc 1 98 0 discriminator 1
 243 0096 4FF4FA70 		mov	r0, #500
 244 009a FFF7FEFF 		bl	Cy_SysLib_DelayUs
 245              	.LVL30:
  99:main_cm4.c    **** 
 100:main_cm4.c    ****         
 101:main_cm4.c    ****         CyDelay(500);
 246              		.loc 1 101 0 discriminator 1
 247 009e 4FF4FA70 		mov	r0, #500
 248 00a2 FFF7FEFF 		bl	Cy_SysLib_Delay
 249              	.LVL31:
 102:main_cm4.c    ****         
 103:main_cm4.c    ****         //////////////////////////////////////////////////////////
 104:main_cm4.c    ****         // interphase gap (IPG) -- approx ~ 10u sec in our case //
 105:main_cm4.c    ****         //////////////////////////////////////////////////////////
 106:main_cm4.c    ****         
 107:main_cm4.c    ****         // delay in microseconds
 108:main_cm4.c    ****         CyDelayUs(500);
 250              		.loc 1 108 0 discriminator 1
 251 00a6 4FF4FA70 		mov	r0, #500
 252 00aa FFF7FEFF 		bl	Cy_SysLib_DelayUs
 253              	.LVL32:
 254              	.LBB108:
 255              	.LBB109:
 815:Generated_Source\PSoC6\pdl\drivers/peripheral/ctdac/cy_ctdac.h **** }
 256              		.loc 2 815 0 discriminator 1
 257 00ae C4F80461 		str	r6, [r4, #260]
 258              	.LVL33:
 259              	.LBE109:
 260              	.LBE108:
 261              	.LBB110:
 262              	.LBB111:
 955:Generated_Source\PSoC6\pdl\drivers/peripheral/ctdac/cy_ctdac.h **** 
 263              		.loc 2 955 0 discriminator 1
 264 00b2 2562     		str	r5, [r4, #32]
 265              		.loc 2 958 0 discriminator 1
 266 00b4 236A     		ldr	r3, [r4, #32]
 267              	.LVL34:
 268              	.LBE111:
 269              	.LBE110:
 270              	.LBB112:
 271              	.LBB113:
 815:Generated_Source\PSoC6\pdl\drivers/peripheral/ctdac/cy_ctdac.h **** }
 272              		.loc 2 815 0 discriminator 1
 273 00b6 C4F80481 		str	r8, [r4, #260]
 274              	.LVL35:
 275              	.LBE113:
 276              	.LBE112:
 109:main_cm4.c    ****         
 110:main_cm4.c    ****         Cy_CTDAC_SetValueBuffered(VDAC_CTDAC_HW, 0x800);
 111:main_cm4.c    ****         Cy_CTDAC_ClearInterrupt(VDAC_CTDAC_HW);
 112:main_cm4.c    ****         
 113:main_cm4.c    ****         // phase 1
ARM GAS  C:\Users\cmila\AppData\Local\Temp\ccqwXksn.s 			page 25


 114:main_cm4.c    ****         Cy_CTDAC_SetValueBuffered(VDAC_CTDAC_HW, -0x7FF);
 115:main_cm4.c    ****         CyDelayUs(10);
 277              		.loc 1 115 0 discriminator 1
 278 00ba 0A20     		movs	r0, #10
 279 00bc FFF7FEFF 		bl	Cy_SysLib_DelayUs
 280              	.LVL36:
 281              	.LBB114:
 282              	.LBB115:
 955:Generated_Source\PSoC6\pdl\drivers/peripheral/ctdac/cy_ctdac.h **** 
 283              		.loc 2 955 0 discriminator 1
 284 00c0 2562     		str	r5, [r4, #32]
 285              		.loc 2 958 0 discriminator 1
 286 00c2 236A     		ldr	r3, [r4, #32]
 287              	.LVL37:
 288              	.LBE115:
 289              	.LBE114:
 290              	.LBB116:
 291              	.LBB117:
 815:Generated_Source\PSoC6\pdl\drivers/peripheral/ctdac/cy_ctdac.h **** }
 292              		.loc 2 815 0 discriminator 1
 293 00c4 C4F80461 		str	r6, [r4, #260]
 294              	.LVL38:
 295              	.LBE117:
 296              	.LBE116:
 116:main_cm4.c    ****         Cy_CTDAC_ClearInterrupt(VDAC_CTDAC_HW);
 117:main_cm4.c    ****        
 118:main_cm4.c    ****         // Setting back to 0
 119:main_cm4.c    ****         Cy_CTDAC_SetValueBuffered(VDAC_CTDAC_HW, 0x800);
 120:main_cm4.c    ****         CyDelayUs(10); // default inter_stim_delay = 10 us
 297              		.loc 1 120 0 discriminator 1
 298 00c8 0A20     		movs	r0, #10
 299 00ca FFF7FEFF 		bl	Cy_SysLib_DelayUs
 300              	.LVL39:
 301              	.LBB118:
 302              	.LBB119:
 955:Generated_Source\PSoC6\pdl\drivers/peripheral/ctdac/cy_ctdac.h **** 
 303              		.loc 2 955 0 discriminator 1
 304 00ce 2562     		str	r5, [r4, #32]
 305              		.loc 2 958 0 discriminator 1
 306 00d0 236A     		ldr	r3, [r4, #32]
 307              	.LVL40:
 308              	.LBE119:
 309              	.LBE118:
 310              	.LBB120:
 311              	.LBB121:
 815:Generated_Source\PSoC6\pdl\drivers/peripheral/ctdac/cy_ctdac.h **** }
 312              		.loc 2 815 0 discriminator 1
 313 00d2 C4F80471 		str	r7, [r4, #260]
 314              	.LVL41:
 315              	.LBE121:
 316              	.LBE120:
 121:main_cm4.c    ****         Cy_CTDAC_ClearInterrupt(VDAC_CTDAC_HW);
 122:main_cm4.c    ****         
 123:main_cm4.c    ****         // phase 2
 124:main_cm4.c    ****         Cy_CTDAC_SetValueBuffered(VDAC_CTDAC_HW, 0x7FF);
 125:main_cm4.c    ****         CyDelayUs(10);
 317              		.loc 1 125 0 discriminator 1
ARM GAS  C:\Users\cmila\AppData\Local\Temp\ccqwXksn.s 			page 26


 318 00d6 0A20     		movs	r0, #10
 319 00d8 FFF7FEFF 		bl	Cy_SysLib_DelayUs
 320              	.LVL42:
 321              	.LBB122:
 322              	.LBB123:
 955:Generated_Source\PSoC6\pdl\drivers/peripheral/ctdac/cy_ctdac.h **** 
 323              		.loc 2 955 0 discriminator 1
 324 00dc 2562     		str	r5, [r4, #32]
 325              		.loc 2 958 0 discriminator 1
 326 00de 236A     		ldr	r3, [r4, #32]
 327              	.LVL43:
 328              	.LBE123:
 329              	.LBE122:
 330              	.LBB124:
 331              	.LBB125:
 815:Generated_Source\PSoC6\pdl\drivers/peripheral/ctdac/cy_ctdac.h **** }
 332              		.loc 2 815 0 discriminator 1
 333 00e0 C4F80461 		str	r6, [r4, #260]
 334              	.LVL44:
 335              	.LBE125:
 336              	.LBE124:
 337              	.LBB126:
 338              	.LBB127:
 955:Generated_Source\PSoC6\pdl\drivers/peripheral/ctdac/cy_ctdac.h **** 
 339              		.loc 2 955 0 discriminator 1
 340 00e4 2562     		str	r5, [r4, #32]
 341              		.loc 2 958 0 discriminator 1
 342 00e6 236A     		ldr	r3, [r4, #32]
 343              	.LVL45:
 344              	.LBE127:
 345              	.LBE126:
 126:main_cm4.c    ****         Cy_CTDAC_ClearInterrupt(VDAC_CTDAC_HW);
 127:main_cm4.c    ****         
 128:main_cm4.c    ****         // Setting back to 0
 129:main_cm4.c    ****         Cy_CTDAC_SetValueBuffered(VDAC_CTDAC_HW, 0x800);
 130:main_cm4.c    ****         Cy_CTDAC_ClearInterrupt(VDAC_CTDAC_HW);
 131:main_cm4.c    **** 
 132:main_cm4.c    ****         CyDelayUs(500);
 346              		.loc 1 132 0 discriminator 1
 347 00e8 4FF4FA70 		mov	r0, #500
 348 00ec FFF7FEFF 		bl	Cy_SysLib_DelayUs
 349              	.LVL46:
 350 00f0 88E7     		b	.L2
 351              	.L5:
 352 00f2 00BF     		.align	2
 353              	.L4:
 354 00f4 00001441 		.word	1091829760
 355              		.cfi_endproc
 356              	.LFE580:
 357              		.size	start_dac, .-start_dac
 358              		.section	.text.main,"ax",%progbits
 359              		.align	2
 360              		.global	main
 361              		.thumb
 362              		.thumb_func
 363              		.type	main, %function
 364              	main:
ARM GAS  C:\Users\cmila\AppData\Local\Temp\ccqwXksn.s 			page 27


 365              	.LFB581:
 133:main_cm4.c    ****     }
 134:main_cm4.c    ****     
 135:main_cm4.c    ****     
 136:main_cm4.c    **** }
 137:main_cm4.c    **** 
 138:main_cm4.c    **** int main(void)
 139:main_cm4.c    **** {
 366              		.loc 1 139 0
 367              		.cfi_startproc
 368              		@ Volatile: function does not return.
 369              		@ args = 0, pretend = 0, frame = 0
 370              		@ frame_needed = 0, uses_anonymous_args = 0
 371 0000 08B5     		push	{r3, lr}
 372              		.cfi_def_cfa_offset 8
 373              		.cfi_offset 3, -8
 374              		.cfi_offset 14, -4
 375              	.LBB128:
 376              	.LBB129:
 377              		.file 3 "Generated_Source\\PSoC6\\pdl\\cmsis/include/cmsis_gcc.h"
   1:Generated_Source\PSoC6\pdl\cmsis/include/cmsis_gcc.h **** /**************************************************************************//**
   2:Generated_Source\PSoC6\pdl\cmsis/include/cmsis_gcc.h ****  * @file     cmsis_gcc.h
   3:Generated_Source\PSoC6\pdl\cmsis/include/cmsis_gcc.h ****  * @brief    CMSIS compiler GCC header file
   4:Generated_Source\PSoC6\pdl\cmsis/include/cmsis_gcc.h ****  * @version  V5.0.3
   5:Generated_Source\PSoC6\pdl\cmsis/include/cmsis_gcc.h ****  * @date     16. January 2018
   6:Generated_Source\PSoC6\pdl\cmsis/include/cmsis_gcc.h ****  ******************************************************************************/
   7:Generated_Source\PSoC6\pdl\cmsis/include/cmsis_gcc.h **** /*
   8:Generated_Source\PSoC6\pdl\cmsis/include/cmsis_gcc.h ****  * Copyright (c) 2009-2017 ARM Limited. All rights reserved.
   9:Generated_Source\PSoC6\pdl\cmsis/include/cmsis_gcc.h ****  *
  10:Generated_Source\PSoC6\pdl\cmsis/include/cmsis_gcc.h ****  * SPDX-License-Identifier: Apache-2.0
  11:Generated_Source\PSoC6\pdl\cmsis/include/cmsis_gcc.h ****  *
  12:Generated_Source\PSoC6\pdl\cmsis/include/cmsis_gcc.h ****  * Licensed under the Apache License, Version 2.0 (the License); you may
  13:Generated_Source\PSoC6\pdl\cmsis/include/cmsis_gcc.h ****  * not use this file except in compliance with the License.
  14:Generated_Source\PSoC6\pdl\cmsis/include/cmsis_gcc.h ****  * You may obtain a copy of the License at
  15:Generated_Source\PSoC6\pdl\cmsis/include/cmsis_gcc.h ****  *
  16:Generated_Source\PSoC6\pdl\cmsis/include/cmsis_gcc.h ****  * www.apache.org/licenses/LICENSE-2.0
  17:Generated_Source\PSoC6\pdl\cmsis/include/cmsis_gcc.h ****  *
  18:Generated_Source\PSoC6\pdl\cmsis/include/cmsis_gcc.h ****  * Unless required by applicable law or agreed to in writing, software
  19:Generated_Source\PSoC6\pdl\cmsis/include/cmsis_gcc.h ****  * distributed under the License is distributed on an AS IS BASIS, WITHOUT
  20:Generated_Source\PSoC6\pdl\cmsis/include/cmsis_gcc.h ****  * WARRANTIES OR CONDITIONS OF ANY KIND, either express or implied.
  21:Generated_Source\PSoC6\pdl\cmsis/include/cmsis_gcc.h ****  * See the License for the specific language governing permissions and
  22:Generated_Source\PSoC6\pdl\cmsis/include/cmsis_gcc.h ****  * limitations under the License.
  23:Generated_Source\PSoC6\pdl\cmsis/include/cmsis_gcc.h ****  */
  24:Generated_Source\PSoC6\pdl\cmsis/include/cmsis_gcc.h **** 
  25:Generated_Source\PSoC6\pdl\cmsis/include/cmsis_gcc.h **** #ifndef __CMSIS_GCC_H
  26:Generated_Source\PSoC6\pdl\cmsis/include/cmsis_gcc.h **** #define __CMSIS_GCC_H
  27:Generated_Source\PSoC6\pdl\cmsis/include/cmsis_gcc.h **** 
  28:Generated_Source\PSoC6\pdl\cmsis/include/cmsis_gcc.h **** /* ignore some GCC warnings */
  29:Generated_Source\PSoC6\pdl\cmsis/include/cmsis_gcc.h **** #pragma GCC diagnostic push
  30:Generated_Source\PSoC6\pdl\cmsis/include/cmsis_gcc.h **** #pragma GCC diagnostic ignored "-Wsign-conversion"
  31:Generated_Source\PSoC6\pdl\cmsis/include/cmsis_gcc.h **** #pragma GCC diagnostic ignored "-Wconversion"
  32:Generated_Source\PSoC6\pdl\cmsis/include/cmsis_gcc.h **** #pragma GCC diagnostic ignored "-Wunused-parameter"
  33:Generated_Source\PSoC6\pdl\cmsis/include/cmsis_gcc.h **** 
  34:Generated_Source\PSoC6\pdl\cmsis/include/cmsis_gcc.h **** /* Fallback for __has_builtin */
  35:Generated_Source\PSoC6\pdl\cmsis/include/cmsis_gcc.h **** #ifndef __has_builtin
  36:Generated_Source\PSoC6\pdl\cmsis/include/cmsis_gcc.h ****   #define __has_builtin(x) (0)
  37:Generated_Source\PSoC6\pdl\cmsis/include/cmsis_gcc.h **** #endif
ARM GAS  C:\Users\cmila\AppData\Local\Temp\ccqwXksn.s 			page 28


  38:Generated_Source\PSoC6\pdl\cmsis/include/cmsis_gcc.h **** 
  39:Generated_Source\PSoC6\pdl\cmsis/include/cmsis_gcc.h **** /* CMSIS compiler specific defines */
  40:Generated_Source\PSoC6\pdl\cmsis/include/cmsis_gcc.h **** #ifndef   __ASM
  41:Generated_Source\PSoC6\pdl\cmsis/include/cmsis_gcc.h ****   #define __ASM                                  __asm
  42:Generated_Source\PSoC6\pdl\cmsis/include/cmsis_gcc.h **** #endif
  43:Generated_Source\PSoC6\pdl\cmsis/include/cmsis_gcc.h **** #ifndef   __INLINE
  44:Generated_Source\PSoC6\pdl\cmsis/include/cmsis_gcc.h ****   #define __INLINE                               inline
  45:Generated_Source\PSoC6\pdl\cmsis/include/cmsis_gcc.h **** #endif
  46:Generated_Source\PSoC6\pdl\cmsis/include/cmsis_gcc.h **** #ifndef   __STATIC_INLINE
  47:Generated_Source\PSoC6\pdl\cmsis/include/cmsis_gcc.h ****   #define __STATIC_INLINE                        static inline
  48:Generated_Source\PSoC6\pdl\cmsis/include/cmsis_gcc.h **** #endif
  49:Generated_Source\PSoC6\pdl\cmsis/include/cmsis_gcc.h **** #ifndef   __STATIC_FORCEINLINE                 
  50:Generated_Source\PSoC6\pdl\cmsis/include/cmsis_gcc.h ****   #define __STATIC_FORCEINLINE                   __attribute__((always_inline)) static inline
  51:Generated_Source\PSoC6\pdl\cmsis/include/cmsis_gcc.h **** #endif                                           
  52:Generated_Source\PSoC6\pdl\cmsis/include/cmsis_gcc.h **** #ifndef   __NO_RETURN
  53:Generated_Source\PSoC6\pdl\cmsis/include/cmsis_gcc.h ****   #define __NO_RETURN                            __attribute__((__noreturn__))
  54:Generated_Source\PSoC6\pdl\cmsis/include/cmsis_gcc.h **** #endif
  55:Generated_Source\PSoC6\pdl\cmsis/include/cmsis_gcc.h **** #ifndef   __USED
  56:Generated_Source\PSoC6\pdl\cmsis/include/cmsis_gcc.h ****   #define __USED                                 __attribute__((used))
  57:Generated_Source\PSoC6\pdl\cmsis/include/cmsis_gcc.h **** #endif
  58:Generated_Source\PSoC6\pdl\cmsis/include/cmsis_gcc.h **** #ifndef   __WEAK
  59:Generated_Source\PSoC6\pdl\cmsis/include/cmsis_gcc.h ****   #define __WEAK                                 __attribute__((weak))
  60:Generated_Source\PSoC6\pdl\cmsis/include/cmsis_gcc.h **** #endif
  61:Generated_Source\PSoC6\pdl\cmsis/include/cmsis_gcc.h **** #ifndef   __PACKED
  62:Generated_Source\PSoC6\pdl\cmsis/include/cmsis_gcc.h ****   #define __PACKED                               __attribute__((packed, aligned(1)))
  63:Generated_Source\PSoC6\pdl\cmsis/include/cmsis_gcc.h **** #endif
  64:Generated_Source\PSoC6\pdl\cmsis/include/cmsis_gcc.h **** #ifndef   __PACKED_STRUCT
  65:Generated_Source\PSoC6\pdl\cmsis/include/cmsis_gcc.h ****   #define __PACKED_STRUCT                        struct __attribute__((packed, aligned(1)))
  66:Generated_Source\PSoC6\pdl\cmsis/include/cmsis_gcc.h **** #endif
  67:Generated_Source\PSoC6\pdl\cmsis/include/cmsis_gcc.h **** #ifndef   __PACKED_UNION
  68:Generated_Source\PSoC6\pdl\cmsis/include/cmsis_gcc.h ****   #define __PACKED_UNION                         union __attribute__((packed, aligned(1)))
  69:Generated_Source\PSoC6\pdl\cmsis/include/cmsis_gcc.h **** #endif
  70:Generated_Source\PSoC6\pdl\cmsis/include/cmsis_gcc.h **** #ifndef   __UNALIGNED_UINT32        /* deprecated */
  71:Generated_Source\PSoC6\pdl\cmsis/include/cmsis_gcc.h ****   #pragma GCC diagnostic push
  72:Generated_Source\PSoC6\pdl\cmsis/include/cmsis_gcc.h ****   #pragma GCC diagnostic ignored "-Wpacked"
  73:Generated_Source\PSoC6\pdl\cmsis/include/cmsis_gcc.h ****   #pragma GCC diagnostic ignored "-Wattributes"
  74:Generated_Source\PSoC6\pdl\cmsis/include/cmsis_gcc.h ****   struct __attribute__((packed)) T_UINT32 { uint32_t v; };
  75:Generated_Source\PSoC6\pdl\cmsis/include/cmsis_gcc.h ****   #pragma GCC diagnostic pop
  76:Generated_Source\PSoC6\pdl\cmsis/include/cmsis_gcc.h ****   #define __UNALIGNED_UINT32(x)                  (((struct T_UINT32 *)(x))->v)
  77:Generated_Source\PSoC6\pdl\cmsis/include/cmsis_gcc.h **** #endif
  78:Generated_Source\PSoC6\pdl\cmsis/include/cmsis_gcc.h **** #ifndef   __UNALIGNED_UINT16_WRITE
  79:Generated_Source\PSoC6\pdl\cmsis/include/cmsis_gcc.h ****   #pragma GCC diagnostic push
  80:Generated_Source\PSoC6\pdl\cmsis/include/cmsis_gcc.h ****   #pragma GCC diagnostic ignored "-Wpacked"
  81:Generated_Source\PSoC6\pdl\cmsis/include/cmsis_gcc.h ****   #pragma GCC diagnostic ignored "-Wattributes"
  82:Generated_Source\PSoC6\pdl\cmsis/include/cmsis_gcc.h ****   __PACKED_STRUCT T_UINT16_WRITE { uint16_t v; };
  83:Generated_Source\PSoC6\pdl\cmsis/include/cmsis_gcc.h ****   #pragma GCC diagnostic pop
  84:Generated_Source\PSoC6\pdl\cmsis/include/cmsis_gcc.h ****   #define __UNALIGNED_UINT16_WRITE(addr, val)    (void)((((struct T_UINT16_WRITE *)(void *)(addr))-
  85:Generated_Source\PSoC6\pdl\cmsis/include/cmsis_gcc.h **** #endif
  86:Generated_Source\PSoC6\pdl\cmsis/include/cmsis_gcc.h **** #ifndef   __UNALIGNED_UINT16_READ
  87:Generated_Source\PSoC6\pdl\cmsis/include/cmsis_gcc.h ****   #pragma GCC diagnostic push
  88:Generated_Source\PSoC6\pdl\cmsis/include/cmsis_gcc.h ****   #pragma GCC diagnostic ignored "-Wpacked"
  89:Generated_Source\PSoC6\pdl\cmsis/include/cmsis_gcc.h ****   #pragma GCC diagnostic ignored "-Wattributes"
  90:Generated_Source\PSoC6\pdl\cmsis/include/cmsis_gcc.h ****   __PACKED_STRUCT T_UINT16_READ { uint16_t v; };
  91:Generated_Source\PSoC6\pdl\cmsis/include/cmsis_gcc.h ****   #pragma GCC diagnostic pop
  92:Generated_Source\PSoC6\pdl\cmsis/include/cmsis_gcc.h ****   #define __UNALIGNED_UINT16_READ(addr)          (((const struct T_UINT16_READ *)(const void *)(add
  93:Generated_Source\PSoC6\pdl\cmsis/include/cmsis_gcc.h **** #endif
  94:Generated_Source\PSoC6\pdl\cmsis/include/cmsis_gcc.h **** #ifndef   __UNALIGNED_UINT32_WRITE
ARM GAS  C:\Users\cmila\AppData\Local\Temp\ccqwXksn.s 			page 29


  95:Generated_Source\PSoC6\pdl\cmsis/include/cmsis_gcc.h ****   #pragma GCC diagnostic push
  96:Generated_Source\PSoC6\pdl\cmsis/include/cmsis_gcc.h ****   #pragma GCC diagnostic ignored "-Wpacked"
  97:Generated_Source\PSoC6\pdl\cmsis/include/cmsis_gcc.h ****   #pragma GCC diagnostic ignored "-Wattributes"
  98:Generated_Source\PSoC6\pdl\cmsis/include/cmsis_gcc.h ****   __PACKED_STRUCT T_UINT32_WRITE { uint32_t v; };
  99:Generated_Source\PSoC6\pdl\cmsis/include/cmsis_gcc.h ****   #pragma GCC diagnostic pop
 100:Generated_Source\PSoC6\pdl\cmsis/include/cmsis_gcc.h ****   #define __UNALIGNED_UINT32_WRITE(addr, val)    (void)((((struct T_UINT32_WRITE *)(void *)(addr))-
 101:Generated_Source\PSoC6\pdl\cmsis/include/cmsis_gcc.h **** #endif
 102:Generated_Source\PSoC6\pdl\cmsis/include/cmsis_gcc.h **** #ifndef   __UNALIGNED_UINT32_READ
 103:Generated_Source\PSoC6\pdl\cmsis/include/cmsis_gcc.h ****   #pragma GCC diagnostic push
 104:Generated_Source\PSoC6\pdl\cmsis/include/cmsis_gcc.h ****   #pragma GCC diagnostic ignored "-Wpacked"
 105:Generated_Source\PSoC6\pdl\cmsis/include/cmsis_gcc.h ****   #pragma GCC diagnostic ignored "-Wattributes"
 106:Generated_Source\PSoC6\pdl\cmsis/include/cmsis_gcc.h ****   __PACKED_STRUCT T_UINT32_READ { uint32_t v; };
 107:Generated_Source\PSoC6\pdl\cmsis/include/cmsis_gcc.h ****   #pragma GCC diagnostic pop
 108:Generated_Source\PSoC6\pdl\cmsis/include/cmsis_gcc.h ****   #define __UNALIGNED_UINT32_READ(addr)          (((const struct T_UINT32_READ *)(const void *)(add
 109:Generated_Source\PSoC6\pdl\cmsis/include/cmsis_gcc.h **** #endif
 110:Generated_Source\PSoC6\pdl\cmsis/include/cmsis_gcc.h **** #ifndef   __ALIGNED
 111:Generated_Source\PSoC6\pdl\cmsis/include/cmsis_gcc.h ****   #define __ALIGNED(x)                           __attribute__((aligned(x)))
 112:Generated_Source\PSoC6\pdl\cmsis/include/cmsis_gcc.h **** #endif
 113:Generated_Source\PSoC6\pdl\cmsis/include/cmsis_gcc.h **** #ifndef   __RESTRICT
 114:Generated_Source\PSoC6\pdl\cmsis/include/cmsis_gcc.h ****   #define __RESTRICT                             __restrict
 115:Generated_Source\PSoC6\pdl\cmsis/include/cmsis_gcc.h **** #endif
 116:Generated_Source\PSoC6\pdl\cmsis/include/cmsis_gcc.h **** 
 117:Generated_Source\PSoC6\pdl\cmsis/include/cmsis_gcc.h **** 
 118:Generated_Source\PSoC6\pdl\cmsis/include/cmsis_gcc.h **** /* ###########################  Core Function Access  ########################### */
 119:Generated_Source\PSoC6\pdl\cmsis/include/cmsis_gcc.h **** /** \ingroup  CMSIS_Core_FunctionInterface
 120:Generated_Source\PSoC6\pdl\cmsis/include/cmsis_gcc.h ****     \defgroup CMSIS_Core_RegAccFunctions CMSIS Core Register Access Functions
 121:Generated_Source\PSoC6\pdl\cmsis/include/cmsis_gcc.h ****   @{
 122:Generated_Source\PSoC6\pdl\cmsis/include/cmsis_gcc.h ****  */
 123:Generated_Source\PSoC6\pdl\cmsis/include/cmsis_gcc.h **** 
 124:Generated_Source\PSoC6\pdl\cmsis/include/cmsis_gcc.h **** /**
 125:Generated_Source\PSoC6\pdl\cmsis/include/cmsis_gcc.h ****   \brief   Enable IRQ Interrupts
 126:Generated_Source\PSoC6\pdl\cmsis/include/cmsis_gcc.h ****   \details Enables IRQ interrupts by clearing the I-bit in the CPSR.
 127:Generated_Source\PSoC6\pdl\cmsis/include/cmsis_gcc.h ****            Can only be executed in Privileged modes.
 128:Generated_Source\PSoC6\pdl\cmsis/include/cmsis_gcc.h ****  */
 129:Generated_Source\PSoC6\pdl\cmsis/include/cmsis_gcc.h **** __STATIC_FORCEINLINE void __enable_irq(void)
 130:Generated_Source\PSoC6\pdl\cmsis/include/cmsis_gcc.h **** {
 131:Generated_Source\PSoC6\pdl\cmsis/include/cmsis_gcc.h ****   __ASM volatile ("cpsie i" : : : "memory");
 378              		.loc 3 131 0
 379              		.syntax unified
 380              	@ 131 "Generated_Source\PSoC6\pdl\cmsis/include/cmsis_gcc.h" 1
 381 0002 62B6     		cpsie i
 382              	@ 0 "" 2
 383              		.thumb
 384              		.syntax unified
 385              	.LBE129:
 386              	.LBE128:
 140:main_cm4.c    ****     __enable_irq(); /* Enable global interrupts. */
 141:main_cm4.c    **** 
 142:main_cm4.c    ****     /* Place your initialization/startup code here (e.g. MyInst_Start()) */
 143:main_cm4.c    ****     
 144:main_cm4.c    ****     UART_Start();
 387              		.loc 1 144 0
 388 0004 FFF7FEFF 		bl	UART_Start
 389              	.LVL47:
 145:main_cm4.c    ****     setvbuf (stdin, NULL, _IONBF, 0);
 390              		.loc 1 145 0
 391 0008 0B4B     		ldr	r3, .L9
ARM GAS  C:\Users\cmila\AppData\Local\Temp\ccqwXksn.s 			page 30


 392 000a 1868     		ldr	r0, [r3]
 393 000c 0023     		movs	r3, #0
 394 000e 0222     		movs	r2, #2
 395 0010 1946     		mov	r1, r3
 396 0012 4068     		ldr	r0, [r0, #4]
 397 0014 FFF7FEFF 		bl	setvbuf
 398              	.LVL48:
 146:main_cm4.c    ****     // initialise the dac -- Customisability on datasheet ~ leave for now
 147:main_cm4.c    ****     VDAC_Start();
 399              		.loc 1 147 0
 400 0018 FFF7FEFF 		bl	VDAC_Start
 401              	.LVL49:
 402              	.L7:
 148:main_cm4.c    ****     
 149:main_cm4.c    ****     
 150:main_cm4.c    ****     // DMA????
 151:main_cm4.c    ****     // RTOS task for DAC
 152:main_cm4.c    ****     /*xTaskCreate(start_dac, "Start digital-analogue", 400, (void *) 1, 1, NULL);
 153:main_cm4.c    ****     vTaskStartScheduler();*/
 154:main_cm4.c    ****         
 155:main_cm4.c    ****     for(;;)
 156:main_cm4.c    ****     {
 157:main_cm4.c    ****         printf("loop started\n");
 403              		.loc 1 157 0 discriminator 1
 404 001c 0748     		ldr	r0, .L9+4
 405 001e FFF7FEFF 		bl	puts
 406              	.LVL50:
 158:main_cm4.c    ****         CyDelay(1000);
 407              		.loc 1 158 0 discriminator 1
 408 0022 4FF47A70 		mov	r0, #1000
 409 0026 FFF7FEFF 		bl	Cy_SysLib_Delay
 410              	.LVL51:
 411              	.LBB130:
 412              	.LBB131:
 782:Generated_Source\PSoC6\pdl\drivers/peripheral/ctdac/cy_ctdac.h **** }
 413              		.loc 2 782 0 discriminator 1
 414 002a 40F2FF72 		movw	r2, #2047
 415 002e 044B     		ldr	r3, .L9+8
 416 0030 C3F80021 		str	r2, [r3, #256]
 417 0034 F2E7     		b	.L7
 418              	.L10:
 419 0036 00BF     		.align	2
 420              	.L9:
 421 0038 00000000 		.word	_impure_ptr
 422 003c 00000000 		.word	.LC0
 423 0040 00001441 		.word	1091829760
 424              	.LBE131:
 425              	.LBE130:
 426              		.cfi_endproc
 427              	.LFE581:
 428              		.size	main, .-main
 429              		.section	.rodata.str1.4,"aMS",%progbits,1
 430              		.align	2
 431              	.LC0:
 432 0000 6C6F6F70 		.ascii	"loop started\000"
 432      20737461 
 432      72746564 
ARM GAS  C:\Users\cmila\AppData\Local\Temp\ccqwXksn.s 			page 31


 432      00
 433              		.text
 434              	.Letext0:
 435              		.file 4 "c:\\program files (x86)\\cypress\\psoc creator\\4.4\\psoc creator\\import\\gnu\\arm\\5.4.
 436              		.file 5 "c:\\program files (x86)\\cypress\\psoc creator\\4.4\\psoc creator\\import\\gnu\\arm\\5.4.
 437              		.file 6 "Generated_Source\\PSoC6\\pdl\\devices/psoc6/include/ip/cyip_ctdac.h"
 438              		.file 7 "Generated_Source\\PSoC6\\pdl\\devices/psoc6/include/psoc6_01_config.h"
 439              		.file 8 "Generated_Source\\PSoC6\\pdl\\drivers/peripheral/device/cy_device.h"
 440              		.file 9 "Generated_Source\\PSoC6\\pdl\\drivers/peripheral/ctb/cy_ctb.h"
 441              		.file 10 "Generated_Source\\PSoC6\\pdl\\drivers/peripheral/sysclk/cy_sysclk.h"
 442              		.file 11 "Generated_Source\\PSoC6\\pdl\\drivers/peripheral/sar/cy_sar.h"
 443              		.file 12 "Generated_Source\\PSoC6\\pdl\\drivers/peripheral/scb/cy_scb_uart.h"
 444              		.file 13 "Generated_Source\\PSoC6/ADC_1.h"
 445              		.file 14 "c:\\program files (x86)\\cypress\\psoc creator\\4.4\\psoc creator\\import\\gnu\\arm\\5.4
 446              		.file 15 "c:\\program files (x86)\\cypress\\psoc creator\\4.4\\psoc creator\\import\\gnu\\arm\\5.4
 447              		.file 16 "c:\\program files (x86)\\cypress\\psoc creator\\4.4\\psoc creator\\import\\gnu\\arm\\5.4
 448              		.file 17 "c:\\program files (x86)\\cypress\\psoc creator\\4.4\\psoc creator\\import\\gnu\\arm\\5.4
 449              		.file 18 "Generated_Source\\PSoC6\\pdl\\cmsis/include/core_cm4.h"
 450              		.file 19 "Generated_Source\\PSoC6/VDAC.h"
 451              		.file 20 "Generated_Source\\PSoC6/UART.h"
 452              		.file 21 "Generated_Source\\PSoC6\\pdl\\drivers/peripheral/syslib/cy_syslib.h"
 453              		.file 22 "c:\\program files (x86)\\cypress\\psoc creator\\4.4\\psoc creator\\import\\gnu\\arm\\5.4
 454              		.file 23 "<built-in>"