ARM GAS  C:\Users\cmila\AppData\Local\Temp\ccIE2zG5.s 			page 1


   1              		.syntax unified
   2              		.cpu cortex-m4
   3              		.eabi_attribute 27, 1
   4              		.fpu fpv4-sp-d16
   5              		.eabi_attribute 20, 1
   6              		.eabi_attribute 21, 1
   7              		.eabi_attribute 23, 3
   8              		.eabi_attribute 24, 1
   9              		.eabi_attribute 25, 1
  10              		.eabi_attribute 26, 1
  11              		.eabi_attribute 30, 4
  12              		.eabi_attribute 34, 1
  13              		.eabi_attribute 18, 4
  14              		.thumb
  15              		.syntax unified
  16              		.file	"cy_ipc_sema.c"
  17              		.text
  18              	.Ltext0:
  19              		.cfi_sections	.debug_frame
  20              		.section	.text.Cy_IPC_Sema_InitExt,"ax",%progbits
  21              		.align	1
  22              		.global	Cy_IPC_Sema_InitExt
  23              		.thumb
  24              		.thumb_func
  25              		.type	Cy_IPC_Sema_InitExt, %function
  26              	Cy_IPC_Sema_InitExt:
  27              	.LFB152:
  28              		.file 1 "Generated_Source\\PSoC6\\pdl\\drivers\\peripheral\\ipc\\cy_ipc_sema.c"
   1:Generated_Source\PSoC6\pdl\drivers\peripheral\ipc/cy_ipc_sema.c **** /***************************************************************************//**
   2:Generated_Source\PSoC6\pdl\drivers\peripheral\ipc/cy_ipc_sema.c **** * \file cy_ipc_sema.c
   3:Generated_Source\PSoC6\pdl\drivers\peripheral\ipc/cy_ipc_sema.c **** * \version 1.30
   4:Generated_Source\PSoC6\pdl\drivers\peripheral\ipc/cy_ipc_sema.c **** *
   5:Generated_Source\PSoC6\pdl\drivers\peripheral\ipc/cy_ipc_sema.c **** *  Description:
   6:Generated_Source\PSoC6\pdl\drivers\peripheral\ipc/cy_ipc_sema.c **** *   IPC Semaphore Driver - This source file contains the source code for the
   7:Generated_Source\PSoC6\pdl\drivers\peripheral\ipc/cy_ipc_sema.c **** *   semaphore level APIs for the IPC interface.
   8:Generated_Source\PSoC6\pdl\drivers\peripheral\ipc/cy_ipc_sema.c **** *
   9:Generated_Source\PSoC6\pdl\drivers\peripheral\ipc/cy_ipc_sema.c **** ********************************************************************************
  10:Generated_Source\PSoC6\pdl\drivers\peripheral\ipc/cy_ipc_sema.c **** * Copyright 2016-2018, Cypress Semiconductor Corporation.  All rights reserved.
  11:Generated_Source\PSoC6\pdl\drivers\peripheral\ipc/cy_ipc_sema.c **** * You may use this file only in accordance with the license, terms, conditions,
  12:Generated_Source\PSoC6\pdl\drivers\peripheral\ipc/cy_ipc_sema.c **** * disclaimers, and limitations in the end user license agreement accompanying
  13:Generated_Source\PSoC6\pdl\drivers\peripheral\ipc/cy_ipc_sema.c **** * the software package with which this file was provided.
  14:Generated_Source\PSoC6\pdl\drivers\peripheral\ipc/cy_ipc_sema.c **** *******************************************************************************/
  15:Generated_Source\PSoC6\pdl\drivers\peripheral\ipc/cy_ipc_sema.c **** 
  16:Generated_Source\PSoC6\pdl\drivers\peripheral\ipc/cy_ipc_sema.c **** #include "cy_ipc_drv.h"
  17:Generated_Source\PSoC6\pdl\drivers\peripheral\ipc/cy_ipc_sema.c **** #include "cy_ipc_sema.h"
  18:Generated_Source\PSoC6\pdl\drivers\peripheral\ipc/cy_ipc_sema.c **** #include "cy_syslib.h"
  19:Generated_Source\PSoC6\pdl\drivers\peripheral\ipc/cy_ipc_sema.c **** #include <string.h> /* The memset() definition */
  20:Generated_Source\PSoC6\pdl\drivers\peripheral\ipc/cy_ipc_sema.c **** 
  21:Generated_Source\PSoC6\pdl\drivers\peripheral\ipc/cy_ipc_sema.c **** /* Defines a mask to Check if semaphore count is a multiple of 32 */
  22:Generated_Source\PSoC6\pdl\drivers\peripheral\ipc/cy_ipc_sema.c **** #define CY_IPC_SEMA_PER_WORD_MASK    (CY_IPC_SEMA_PER_WORD - 1ul)
  23:Generated_Source\PSoC6\pdl\drivers\peripheral\ipc/cy_ipc_sema.c **** 
  24:Generated_Source\PSoC6\pdl\drivers\peripheral\ipc/cy_ipc_sema.c **** /* Pointer to IPC structure used for semaphores */
  25:Generated_Source\PSoC6\pdl\drivers\peripheral\ipc/cy_ipc_sema.c **** static IPC_STRUCT_Type* cy_semaIpcStruct;
  26:Generated_Source\PSoC6\pdl\drivers\peripheral\ipc/cy_ipc_sema.c **** 
  27:Generated_Source\PSoC6\pdl\drivers\peripheral\ipc/cy_ipc_sema.c **** 
  28:Generated_Source\PSoC6\pdl\drivers\peripheral\ipc/cy_ipc_sema.c **** /*******************************************************************************
  29:Generated_Source\PSoC6\pdl\drivers\peripheral\ipc/cy_ipc_sema.c **** * Function Name: Cy_IPC_Sema_Init
ARM GAS  C:\Users\cmila\AppData\Local\Temp\ccIE2zG5.s 			page 2


  30:Generated_Source\PSoC6\pdl\drivers\peripheral\ipc/cy_ipc_sema.c **** ****************************************************************************//**
  31:Generated_Source\PSoC6\pdl\drivers\peripheral\ipc/cy_ipc_sema.c **** *
  32:Generated_Source\PSoC6\pdl\drivers\peripheral\ipc/cy_ipc_sema.c **** * This function initializes the semaphores subsystem. The user must create an
  33:Generated_Source\PSoC6\pdl\drivers\peripheral\ipc/cy_ipc_sema.c **** * array of unsigned 32-bit words to hold the semaphore bits. The number
  34:Generated_Source\PSoC6\pdl\drivers\peripheral\ipc/cy_ipc_sema.c **** * of semaphores will be the size of the array * 32. The total semaphores count
  35:Generated_Source\PSoC6\pdl\drivers\peripheral\ipc/cy_ipc_sema.c **** * will always be a multiple of 32.
  36:Generated_Source\PSoC6\pdl\drivers\peripheral\ipc/cy_ipc_sema.c **** *
  37:Generated_Source\PSoC6\pdl\drivers\peripheral\ipc/cy_ipc_sema.c **** * \note In a multi-CPU system this init function should be called with all
  38:Generated_Source\PSoC6\pdl\drivers\peripheral\ipc/cy_ipc_sema.c **** * initialized parameters on one CPU only to provide a pointer to SRAM that can
  39:Generated_Source\PSoC6\pdl\drivers\peripheral\ipc/cy_ipc_sema.c **** * be shared between all the CPUs in the system that will use semaphores.
  40:Generated_Source\PSoC6\pdl\drivers\peripheral\ipc/cy_ipc_sema.c **** * On other CPUs user must specify the IPC semaphores channel and pass 0 / NULL
  41:Generated_Source\PSoC6\pdl\drivers\peripheral\ipc/cy_ipc_sema.c **** * to count and memPtr parameters correspondingly.
  42:Generated_Source\PSoC6\pdl\drivers\peripheral\ipc/cy_ipc_sema.c **** *
  43:Generated_Source\PSoC6\pdl\drivers\peripheral\ipc/cy_ipc_sema.c **** * \param ipcChannel
  44:Generated_Source\PSoC6\pdl\drivers\peripheral\ipc/cy_ipc_sema.c **** * The IPC channel number used for semaphores
  45:Generated_Source\PSoC6\pdl\drivers\peripheral\ipc/cy_ipc_sema.c **** *
  46:Generated_Source\PSoC6\pdl\drivers\peripheral\ipc/cy_ipc_sema.c **** * \param count
  47:Generated_Source\PSoC6\pdl\drivers\peripheral\ipc/cy_ipc_sema.c **** *  The maximum number of semaphores to be supported (multiple of 32).
  48:Generated_Source\PSoC6\pdl\drivers\peripheral\ipc/cy_ipc_sema.c **** *
  49:Generated_Source\PSoC6\pdl\drivers\peripheral\ipc/cy_ipc_sema.c **** * \param memPtr
  50:Generated_Source\PSoC6\pdl\drivers\peripheral\ipc/cy_ipc_sema.c **** *  This points to the array of (count/32) words that contain the semaphore data.
  51:Generated_Source\PSoC6\pdl\drivers\peripheral\ipc/cy_ipc_sema.c **** *
  52:Generated_Source\PSoC6\pdl\drivers\peripheral\ipc/cy_ipc_sema.c **** * \return Status of the operation
  53:Generated_Source\PSoC6\pdl\drivers\peripheral\ipc/cy_ipc_sema.c **** *    \retval CY_IPC_SEMA_SUCCESS: Successfully initialized
  54:Generated_Source\PSoC6\pdl\drivers\peripheral\ipc/cy_ipc_sema.c **** *    \retval CY_IPC_SEMA_BAD_PARAM:     Memory pointer is NULL and count is not zero,
  55:Generated_Source\PSoC6\pdl\drivers\peripheral\ipc/cy_ipc_sema.c **** *                             or count not multiple of 32
  56:Generated_Source\PSoC6\pdl\drivers\peripheral\ipc/cy_ipc_sema.c **** *    \retval CY_IPC_SEMA_ERROR_LOCKED:  Could not acquire semaphores IPC channel
  57:Generated_Source\PSoC6\pdl\drivers\peripheral\ipc/cy_ipc_sema.c **** *
  58:Generated_Source\PSoC6\pdl\drivers\peripheral\ipc/cy_ipc_sema.c **** * \funcusage
  59:Generated_Source\PSoC6\pdl\drivers\peripheral\ipc/cy_ipc_sema.c **** * \snippet IPC_sut_01.cydsn/main_cm4.c snippet_Cy_IPC_Sema_Init
  60:Generated_Source\PSoC6\pdl\drivers\peripheral\ipc/cy_ipc_sema.c **** *
  61:Generated_Source\PSoC6\pdl\drivers\peripheral\ipc/cy_ipc_sema.c **** *******************************************************************************/
  62:Generated_Source\PSoC6\pdl\drivers\peripheral\ipc/cy_ipc_sema.c **** cy_en_ipcsema_status_t Cy_IPC_Sema_Init(uint32_t ipcChannel,
  63:Generated_Source\PSoC6\pdl\drivers\peripheral\ipc/cy_ipc_sema.c ****                                         uint32_t count, uint32_t memPtr[])
  64:Generated_Source\PSoC6\pdl\drivers\peripheral\ipc/cy_ipc_sema.c **** {
  65:Generated_Source\PSoC6\pdl\drivers\peripheral\ipc/cy_ipc_sema.c ****     /* Structure containing semaphores control data */
  66:Generated_Source\PSoC6\pdl\drivers\peripheral\ipc/cy_ipc_sema.c ****     static cy_stc_ipc_sema_t       cy_semaData;
  67:Generated_Source\PSoC6\pdl\drivers\peripheral\ipc/cy_ipc_sema.c **** 
  68:Generated_Source\PSoC6\pdl\drivers\peripheral\ipc/cy_ipc_sema.c ****     cy_en_ipcsema_status_t retStatus = CY_IPC_SEMA_BAD_PARAM;
  69:Generated_Source\PSoC6\pdl\drivers\peripheral\ipc/cy_ipc_sema.c **** 
  70:Generated_Source\PSoC6\pdl\drivers\peripheral\ipc/cy_ipc_sema.c ****     if( (NULL == memPtr) && (0u == count))
  71:Generated_Source\PSoC6\pdl\drivers\peripheral\ipc/cy_ipc_sema.c ****     {
  72:Generated_Source\PSoC6\pdl\drivers\peripheral\ipc/cy_ipc_sema.c ****         cy_semaIpcStruct = Cy_IPC_Drv_GetIpcBaseAddress(ipcChannel);
  73:Generated_Source\PSoC6\pdl\drivers\peripheral\ipc/cy_ipc_sema.c **** 
  74:Generated_Source\PSoC6\pdl\drivers\peripheral\ipc/cy_ipc_sema.c ****         retStatus = CY_IPC_SEMA_SUCCESS;
  75:Generated_Source\PSoC6\pdl\drivers\peripheral\ipc/cy_ipc_sema.c ****     }
  76:Generated_Source\PSoC6\pdl\drivers\peripheral\ipc/cy_ipc_sema.c **** 
  77:Generated_Source\PSoC6\pdl\drivers\peripheral\ipc/cy_ipc_sema.c ****     /* Check for non Null pointers and count value */
  78:Generated_Source\PSoC6\pdl\drivers\peripheral\ipc/cy_ipc_sema.c ****     else if ((NULL != memPtr) && (0u != count))
  79:Generated_Source\PSoC6\pdl\drivers\peripheral\ipc/cy_ipc_sema.c ****     {
  80:Generated_Source\PSoC6\pdl\drivers\peripheral\ipc/cy_ipc_sema.c ****         cy_semaData.maxSema  = count;
  81:Generated_Source\PSoC6\pdl\drivers\peripheral\ipc/cy_ipc_sema.c ****         cy_semaData.arrayPtr = memPtr;
  82:Generated_Source\PSoC6\pdl\drivers\peripheral\ipc/cy_ipc_sema.c **** 
  83:Generated_Source\PSoC6\pdl\drivers\peripheral\ipc/cy_ipc_sema.c ****         retStatus = Cy_IPC_Sema_InitExt(ipcChannel, &cy_semaData);
  84:Generated_Source\PSoC6\pdl\drivers\peripheral\ipc/cy_ipc_sema.c ****     }
  85:Generated_Source\PSoC6\pdl\drivers\peripheral\ipc/cy_ipc_sema.c ****     
  86:Generated_Source\PSoC6\pdl\drivers\peripheral\ipc/cy_ipc_sema.c ****     else
ARM GAS  C:\Users\cmila\AppData\Local\Temp\ccIE2zG5.s 			page 3


  87:Generated_Source\PSoC6\pdl\drivers\peripheral\ipc/cy_ipc_sema.c ****     {
  88:Generated_Source\PSoC6\pdl\drivers\peripheral\ipc/cy_ipc_sema.c ****         retStatus = CY_IPC_SEMA_BAD_PARAM;
  89:Generated_Source\PSoC6\pdl\drivers\peripheral\ipc/cy_ipc_sema.c ****     }
  90:Generated_Source\PSoC6\pdl\drivers\peripheral\ipc/cy_ipc_sema.c **** 
  91:Generated_Source\PSoC6\pdl\drivers\peripheral\ipc/cy_ipc_sema.c ****     return(retStatus);
  92:Generated_Source\PSoC6\pdl\drivers\peripheral\ipc/cy_ipc_sema.c **** }
  93:Generated_Source\PSoC6\pdl\drivers\peripheral\ipc/cy_ipc_sema.c **** 
  94:Generated_Source\PSoC6\pdl\drivers\peripheral\ipc/cy_ipc_sema.c **** 
  95:Generated_Source\PSoC6\pdl\drivers\peripheral\ipc/cy_ipc_sema.c **** /*******************************************************************************
  96:Generated_Source\PSoC6\pdl\drivers\peripheral\ipc/cy_ipc_sema.c **** * Function Name: Cy_IPC_Sema_InitExt
  97:Generated_Source\PSoC6\pdl\drivers\peripheral\ipc/cy_ipc_sema.c **** ****************************************************************************//**
  98:Generated_Source\PSoC6\pdl\drivers\peripheral\ipc/cy_ipc_sema.c **** * This function initializes the semaphores subsystem. The user must create an
  99:Generated_Source\PSoC6\pdl\drivers\peripheral\ipc/cy_ipc_sema.c **** * array of unsigned 32-bit words to hold the semaphore bits. The number
 100:Generated_Source\PSoC6\pdl\drivers\peripheral\ipc/cy_ipc_sema.c **** * of semaphores will be the size of the array * 32. The total semaphores count
 101:Generated_Source\PSoC6\pdl\drivers\peripheral\ipc/cy_ipc_sema.c **** * will always be a multiple of 32.
 102:Generated_Source\PSoC6\pdl\drivers\peripheral\ipc/cy_ipc_sema.c **** *
 103:Generated_Source\PSoC6\pdl\drivers\peripheral\ipc/cy_ipc_sema.c **** * \note In a multi-CPU system this init function should be called with all
 104:Generated_Source\PSoC6\pdl\drivers\peripheral\ipc/cy_ipc_sema.c **** * initialized parameters on one CPU only to provide a pointer to SRAM that can
 105:Generated_Source\PSoC6\pdl\drivers\peripheral\ipc/cy_ipc_sema.c **** * be shared between all the CPUs in the system that will use semaphores.
 106:Generated_Source\PSoC6\pdl\drivers\peripheral\ipc/cy_ipc_sema.c **** * On other CPUs user must specify the IPC semaphores channel and pass 0 / NULL
 107:Generated_Source\PSoC6\pdl\drivers\peripheral\ipc/cy_ipc_sema.c **** * to count and memPtr parameters correspondingly.
 108:Generated_Source\PSoC6\pdl\drivers\peripheral\ipc/cy_ipc_sema.c **** *
 109:Generated_Source\PSoC6\pdl\drivers\peripheral\ipc/cy_ipc_sema.c **** * \param ipcChannel
 110:Generated_Source\PSoC6\pdl\drivers\peripheral\ipc/cy_ipc_sema.c **** * The IPC channel number used for semaphores
 111:Generated_Source\PSoC6\pdl\drivers\peripheral\ipc/cy_ipc_sema.c **** *
 112:Generated_Source\PSoC6\pdl\drivers\peripheral\ipc/cy_ipc_sema.c **** * \param ipcSema
 113:Generated_Source\PSoC6\pdl\drivers\peripheral\ipc/cy_ipc_sema.c **** *  This is configuration structure of the IPC semaphore. 
 114:Generated_Source\PSoC6\pdl\drivers\peripheral\ipc/cy_ipc_sema.c **** *  See \ref cy_stc_ipc_sema_t.
 115:Generated_Source\PSoC6\pdl\drivers\peripheral\ipc/cy_ipc_sema.c **** *
 116:Generated_Source\PSoC6\pdl\drivers\peripheral\ipc/cy_ipc_sema.c **** * \return Status of the operation
 117:Generated_Source\PSoC6\pdl\drivers\peripheral\ipc/cy_ipc_sema.c **** *    \retval CY_IPC_SEMA_SUCCESS: Successfully initialized
 118:Generated_Source\PSoC6\pdl\drivers\peripheral\ipc/cy_ipc_sema.c **** *    \retval CY_IPC_SEMA_BAD_PARAM:     Memory pointer is NULL and count is not zero,
 119:Generated_Source\PSoC6\pdl\drivers\peripheral\ipc/cy_ipc_sema.c **** *                             or count not multiple of 32
 120:Generated_Source\PSoC6\pdl\drivers\peripheral\ipc/cy_ipc_sema.c **** *    \retval CY_IPC_SEMA_ERROR_LOCKED:  Could not acquire semaphores IPC channel
 121:Generated_Source\PSoC6\pdl\drivers\peripheral\ipc/cy_ipc_sema.c **** * 
 122:Generated_Source\PSoC6\pdl\drivers\peripheral\ipc/cy_ipc_sema.c **** *******************************************************************************/
 123:Generated_Source\PSoC6\pdl\drivers\peripheral\ipc/cy_ipc_sema.c **** cy_en_ipcsema_status_t Cy_IPC_Sema_InitExt(uint32_t ipcChannel, cy_stc_ipc_sema_t *ipcSema)
 124:Generated_Source\PSoC6\pdl\drivers\peripheral\ipc/cy_ipc_sema.c **** {
  29              		.loc 1 124 0
  30              		.cfi_startproc
  31              		@ args = 0, pretend = 0, frame = 0
  32              		@ frame_needed = 0, uses_anonymous_args = 0
  33              	.LVL0:
  34 0000 F8B5     		push	{r3, r4, r5, r6, r7, lr}
  35              		.cfi_def_cfa_offset 24
  36              		.cfi_offset 3, -24
  37              		.cfi_offset 4, -20
  38              		.cfi_offset 5, -16
  39              		.cfi_offset 6, -12
  40              		.cfi_offset 7, -8
  41              		.cfi_offset 14, -4
 125:Generated_Source\PSoC6\pdl\drivers\peripheral\ipc/cy_ipc_sema.c ****     cy_en_ipcsema_status_t retStatus = CY_IPC_SEMA_BAD_PARAM;
 126:Generated_Source\PSoC6\pdl\drivers\peripheral\ipc/cy_ipc_sema.c **** 
 127:Generated_Source\PSoC6\pdl\drivers\peripheral\ipc/cy_ipc_sema.c ****     if (ipcChannel >= CY_IPC_CHANNELS)
  42              		.loc 1 127 0
  43 0002 154B     		ldr	r3, .L9
 124:Generated_Source\PSoC6\pdl\drivers\peripheral\ipc/cy_ipc_sema.c ****     cy_en_ipcsema_status_t retStatus = CY_IPC_SEMA_BAD_PARAM;
ARM GAS  C:\Users\cmila\AppData\Local\Temp\ccIE2zG5.s 			page 4


  44              		.loc 1 124 0
  45 0004 0C46     		mov	r4, r1
  46              		.loc 1 127 0
  47 0006 1968     		ldr	r1, [r3]
  48              	.LVL1:
  49 0008 91F83130 		ldrb	r3, [r1, #49]	@ zero_extendqisi2
  50 000c 8342     		cmp	r3, r0
  51 000e 21D9     		bls	.L6
 128:Generated_Source\PSoC6\pdl\drivers\peripheral\ipc/cy_ipc_sema.c ****     {
 129:Generated_Source\PSoC6\pdl\drivers\peripheral\ipc/cy_ipc_sema.c ****         retStatus = CY_IPC_SEMA_BAD_PARAM;
 130:Generated_Source\PSoC6\pdl\drivers\peripheral\ipc/cy_ipc_sema.c ****     }
 131:Generated_Source\PSoC6\pdl\drivers\peripheral\ipc/cy_ipc_sema.c ****     else
 132:Generated_Source\PSoC6\pdl\drivers\peripheral\ipc/cy_ipc_sema.c ****     {
 133:Generated_Source\PSoC6\pdl\drivers\peripheral\ipc/cy_ipc_sema.c ****         if(NULL != ipcSema)
  52              		.loc 1 133 0
  53 0010 04B3     		cbz	r4, .L6
 134:Generated_Source\PSoC6\pdl\drivers\peripheral\ipc/cy_ipc_sema.c ****         {
 135:Generated_Source\PSoC6\pdl\drivers\peripheral\ipc/cy_ipc_sema.c ****             /* Check if semaphore count is a multiple of 32 */
 136:Generated_Source\PSoC6\pdl\drivers\peripheral\ipc/cy_ipc_sema.c ****             if( 0ul == (ipcSema->maxSema & CY_IPC_SEMA_PER_WORD_MASK))
  54              		.loc 1 136 0
  55 0012 2268     		ldr	r2, [r4]
  56 0014 12F01F07 		ands	r7, r2, #31
  57 0018 1CD1     		bne	.L6
  58              	.LVL2:
  59              	.LBB22:
  60              	.LBB23:
  61              		.file 2 "Generated_Source\\PSoC6\\pdl\\drivers\\peripheral\\ipc\\cy_ipc_drv.h"
   1:Generated_Source\PSoC6\pdl\drivers\peripheral\ipc/cy_ipc_drv.h **** /***************************************************************************//**
   2:Generated_Source\PSoC6\pdl\drivers\peripheral\ipc/cy_ipc_drv.h **** * \file cy_ipc_drv.h
   3:Generated_Source\PSoC6\pdl\drivers\peripheral\ipc/cy_ipc_drv.h **** * \version 1.30
   4:Generated_Source\PSoC6\pdl\drivers\peripheral\ipc/cy_ipc_drv.h **** *
   5:Generated_Source\PSoC6\pdl\drivers\peripheral\ipc/cy_ipc_drv.h **** * Provides an API declaration of the IPC driver.
   6:Generated_Source\PSoC6\pdl\drivers\peripheral\ipc/cy_ipc_drv.h **** *
   7:Generated_Source\PSoC6\pdl\drivers\peripheral\ipc/cy_ipc_drv.h **** ********************************************************************************
   8:Generated_Source\PSoC6\pdl\drivers\peripheral\ipc/cy_ipc_drv.h **** * \copyright
   9:Generated_Source\PSoC6\pdl\drivers\peripheral\ipc/cy_ipc_drv.h **** * Copyright 2016-2018, Cypress Semiconductor Corporation. All rights reserved.
  10:Generated_Source\PSoC6\pdl\drivers\peripheral\ipc/cy_ipc_drv.h **** * You may use this file only in accordance with the license, terms, conditions,
  11:Generated_Source\PSoC6\pdl\drivers\peripheral\ipc/cy_ipc_drv.h **** * disclaimers, and limitations in the end user license agreement accompanying
  12:Generated_Source\PSoC6\pdl\drivers\peripheral\ipc/cy_ipc_drv.h **** * the software package with which this file was provided.
  13:Generated_Source\PSoC6\pdl\drivers\peripheral\ipc/cy_ipc_drv.h **** *******************************************************************************/
  14:Generated_Source\PSoC6\pdl\drivers\peripheral\ipc/cy_ipc_drv.h **** 
  15:Generated_Source\PSoC6\pdl\drivers\peripheral\ipc/cy_ipc_drv.h **** #ifndef CY_IPC_DRV_H
  16:Generated_Source\PSoC6\pdl\drivers\peripheral\ipc/cy_ipc_drv.h **** #define CY_IPC_DRV_H
  17:Generated_Source\PSoC6\pdl\drivers\peripheral\ipc/cy_ipc_drv.h **** 
  18:Generated_Source\PSoC6\pdl\drivers\peripheral\ipc/cy_ipc_drv.h **** 
  19:Generated_Source\PSoC6\pdl\drivers\peripheral\ipc/cy_ipc_drv.h **** /**
  20:Generated_Source\PSoC6\pdl\drivers\peripheral\ipc/cy_ipc_drv.h **** * \addtogroup group_ipc
  21:Generated_Source\PSoC6\pdl\drivers\peripheral\ipc/cy_ipc_drv.h **** * \{
  22:Generated_Source\PSoC6\pdl\drivers\peripheral\ipc/cy_ipc_drv.h **** * The inter-processor communication (IPC) driver provides a safe and reliable
  23:Generated_Source\PSoC6\pdl\drivers\peripheral\ipc/cy_ipc_drv.h **** * method to transfer data between CPUs. Hardware locking ensures that only one
  24:Generated_Source\PSoC6\pdl\drivers\peripheral\ipc/cy_ipc_drv.h **** * device can acquire and transfer data at a time so no data is lost or
  25:Generated_Source\PSoC6\pdl\drivers\peripheral\ipc/cy_ipc_drv.h **** * overwritten by asynchronous processes or CPUs.
  26:Generated_Source\PSoC6\pdl\drivers\peripheral\ipc/cy_ipc_drv.h **** *
  27:Generated_Source\PSoC6\pdl\drivers\peripheral\ipc/cy_ipc_drv.h **** * Include either cy_ipc_pipe.h or cy_ipc_sema.h. Alternatively include cy_pdl.h 
  28:Generated_Source\PSoC6\pdl\drivers\peripheral\ipc/cy_ipc_drv.h **** * (ModusToolbox only) to get access to all functions and declarations in the PDL.
  29:Generated_Source\PSoC6\pdl\drivers\peripheral\ipc/cy_ipc_drv.h **** *
  30:Generated_Source\PSoC6\pdl\drivers\peripheral\ipc/cy_ipc_drv.h **** * There are three parts to the API:
ARM GAS  C:\Users\cmila\AppData\Local\Temp\ccIE2zG5.s 			page 5


  31:Generated_Source\PSoC6\pdl\drivers\peripheral\ipc/cy_ipc_drv.h **** *     - Driver-level (DRV) API - used internally by Semaphore and Pipe levels
  32:Generated_Source\PSoC6\pdl\drivers\peripheral\ipc/cy_ipc_drv.h **** *     - Pipe-level (PIPE) API - establishes a communication channel between
  33:Generated_Source\PSoC6\pdl\drivers\peripheral\ipc/cy_ipc_drv.h **** *       processors
  34:Generated_Source\PSoC6\pdl\drivers\peripheral\ipc/cy_ipc_drv.h **** *     - Semaphore-level (SEMA) API - enables users to set and clear flags to
  35:Generated_Source\PSoC6\pdl\drivers\peripheral\ipc/cy_ipc_drv.h **** *       synchronize operations.
  36:Generated_Source\PSoC6\pdl\drivers\peripheral\ipc/cy_ipc_drv.h **** *
  37:Generated_Source\PSoC6\pdl\drivers\peripheral\ipc/cy_ipc_drv.h **** * Firmware does not need to use the DRV API. It can implement IPC functionality
  38:Generated_Source\PSoC6\pdl\drivers\peripheral\ipc/cy_ipc_drv.h **** * entirely with the PIPE and SEMA APIs.
  39:Generated_Source\PSoC6\pdl\drivers\peripheral\ipc/cy_ipc_drv.h **** *
  40:Generated_Source\PSoC6\pdl\drivers\peripheral\ipc/cy_ipc_drv.h **** * \section group_ipc_background Background
  41:Generated_Source\PSoC6\pdl\drivers\peripheral\ipc/cy_ipc_drv.h **** *
  42:Generated_Source\PSoC6\pdl\drivers\peripheral\ipc/cy_ipc_drv.h **** * IPC is implemented in hardware as a collection of individual communication
  43:Generated_Source\PSoC6\pdl\drivers\peripheral\ipc/cy_ipc_drv.h **** * channels, each with a set of 32-bit registers. The IPC design implements a set
  44:Generated_Source\PSoC6\pdl\drivers\peripheral\ipc/cy_ipc_drv.h **** * of interrupts that enable each processor to notify the other that data is
  45:Generated_Source\PSoC6\pdl\drivers\peripheral\ipc/cy_ipc_drv.h **** * available, or has been processed. There is also a locking mechanism that
  46:Generated_Source\PSoC6\pdl\drivers\peripheral\ipc/cy_ipc_drv.h **** * allows only one CPU to gain access at a time.
  47:Generated_Source\PSoC6\pdl\drivers\peripheral\ipc/cy_ipc_drv.h **** *
  48:Generated_Source\PSoC6\pdl\drivers\peripheral\ipc/cy_ipc_drv.h **** * The Driver-level API manages each channel's registers to implement IPC
  49:Generated_Source\PSoC6\pdl\drivers\peripheral\ipc/cy_ipc_drv.h **** * functionality. For information on the IPC registers, see the IPC chapter of
  50:Generated_Source\PSoC6\pdl\drivers\peripheral\ipc/cy_ipc_drv.h **** * the Technical Reference Manual (TRM).
  51:Generated_Source\PSoC6\pdl\drivers\peripheral\ipc/cy_ipc_drv.h **** *
  52:Generated_Source\PSoC6\pdl\drivers\peripheral\ipc/cy_ipc_drv.h **** * At the hardware level, communication is a five-step process.
  53:Generated_Source\PSoC6\pdl\drivers\peripheral\ipc/cy_ipc_drv.h **** *     -#  The sending processor acquires a channel
  54:Generated_Source\PSoC6\pdl\drivers\peripheral\ipc/cy_ipc_drv.h **** *     -#  It puts data into the channel
  55:Generated_Source\PSoC6\pdl\drivers\peripheral\ipc/cy_ipc_drv.h **** *     -#  The sender generates a notify event (interrupt)
  56:Generated_Source\PSoC6\pdl\drivers\peripheral\ipc/cy_ipc_drv.h **** *     -#  The receiving processor identifies the sender and retrieves the data
  57:Generated_Source\PSoC6\pdl\drivers\peripheral\ipc/cy_ipc_drv.h **** *     -#  The receiving processor generates a release event (interrupt)
  58:Generated_Source\PSoC6\pdl\drivers\peripheral\ipc/cy_ipc_drv.h **** *
  59:Generated_Source\PSoC6\pdl\drivers\peripheral\ipc/cy_ipc_drv.h **** * \image html ipc_driver.png
  60:Generated_Source\PSoC6\pdl\drivers\peripheral\ipc/cy_ipc_drv.h **** *
  61:Generated_Source\PSoC6\pdl\drivers\peripheral\ipc/cy_ipc_drv.h **** * These transactions are handled transparently by the DRV-level API. Use the
  62:Generated_Source\PSoC6\pdl\drivers\peripheral\ipc/cy_ipc_drv.h **** * PIPE and SEMA layers of the API to implement communication in your application.
  63:Generated_Source\PSoC6\pdl\drivers\peripheral\ipc/cy_ipc_drv.h **** * The data transferred is limited to a single 32-bit value. As implemented by
  64:Generated_Source\PSoC6\pdl\drivers\peripheral\ipc/cy_ipc_drv.h **** * the PIPE API, that value is a pointer to a data structure of arbitrary size
  65:Generated_Source\PSoC6\pdl\drivers\peripheral\ipc/cy_ipc_drv.h **** * and complexity.
  66:Generated_Source\PSoC6\pdl\drivers\peripheral\ipc/cy_ipc_drv.h **** *
  67:Generated_Source\PSoC6\pdl\drivers\peripheral\ipc/cy_ipc_drv.h **** * \section group_ipc_overview Overview
  68:Generated_Source\PSoC6\pdl\drivers\peripheral\ipc/cy_ipc_drv.h **** *
  69:Generated_Source\PSoC6\pdl\drivers\peripheral\ipc/cy_ipc_drv.h **** * The Pipe is the key element in the PDL design. A pipe is typically a
  70:Generated_Source\PSoC6\pdl\drivers\peripheral\ipc/cy_ipc_drv.h **** * full-duplex communication channel between CPU cores. A pipe allows a single
  71:Generated_Source\PSoC6\pdl\drivers\peripheral\ipc/cy_ipc_drv.h **** * conduit to transfer messages or data to and from multiple processes or CPUs.
  72:Generated_Source\PSoC6\pdl\drivers\peripheral\ipc/cy_ipc_drv.h **** *
  73:Generated_Source\PSoC6\pdl\drivers\peripheral\ipc/cy_ipc_drv.h **** * A pipe has two endpoints, one on each core. Each endpoint contains a dedicated
  74:Generated_Source\PSoC6\pdl\drivers\peripheral\ipc/cy_ipc_drv.h **** * IPC channel and an interrupt. IPC channels 0-7 and IPC interrupts 0-7 are
  75:Generated_Source\PSoC6\pdl\drivers\peripheral\ipc/cy_ipc_drv.h **** * reserved for system use.
  76:Generated_Source\PSoC6\pdl\drivers\peripheral\ipc/cy_ipc_drv.h **** *
  77:Generated_Source\PSoC6\pdl\drivers\peripheral\ipc/cy_ipc_drv.h **** * The pipe also contains the number of clients it supports, and for each client
  78:Generated_Source\PSoC6\pdl\drivers\peripheral\ipc/cy_ipc_drv.h **** * a callback function. So the pipe can service a number of clients, each with a
  79:Generated_Source\PSoC6\pdl\drivers\peripheral\ipc/cy_ipc_drv.h **** * separate callback function, on either endpoint. The number of clients a pipe
  80:Generated_Source\PSoC6\pdl\drivers\peripheral\ipc/cy_ipc_drv.h **** * supports is the sum of each endpoint's clients.
  81:Generated_Source\PSoC6\pdl\drivers\peripheral\ipc/cy_ipc_drv.h **** *
  82:Generated_Source\PSoC6\pdl\drivers\peripheral\ipc/cy_ipc_drv.h **** * This design enables any number of processes on the sending core to put
  83:Generated_Source\PSoC6\pdl\drivers\peripheral\ipc/cy_ipc_drv.h **** * arbitrary data into a single pipe. The first element of that data is the
  84:Generated_Source\PSoC6\pdl\drivers\peripheral\ipc/cy_ipc_drv.h **** * client ID of the client that should handle the data.
  85:Generated_Source\PSoC6\pdl\drivers\peripheral\ipc/cy_ipc_drv.h **** *
  86:Generated_Source\PSoC6\pdl\drivers\peripheral\ipc/cy_ipc_drv.h **** * An interrupt notifies the receiving core that data is available. The receiving
  87:Generated_Source\PSoC6\pdl\drivers\peripheral\ipc/cy_ipc_drv.h **** * core parses the data to identify the client, and then dispatches the event to
ARM GAS  C:\Users\cmila\AppData\Local\Temp\ccIE2zG5.s 			page 6


  88:Generated_Source\PSoC6\pdl\drivers\peripheral\ipc/cy_ipc_drv.h **** * the appropriate client via the client callback function. An interrupt notifies
  89:Generated_Source\PSoC6\pdl\drivers\peripheral\ipc/cy_ipc_drv.h **** * the sending core that the receiver is finished. In this way a single pipe can
  90:Generated_Source\PSoC6\pdl\drivers\peripheral\ipc/cy_ipc_drv.h **** * manage arbitrary data transfers between cores with data flowing in either
  91:Generated_Source\PSoC6\pdl\drivers\peripheral\ipc/cy_ipc_drv.h **** * direction.
  92:Generated_Source\PSoC6\pdl\drivers\peripheral\ipc/cy_ipc_drv.h **** *
  93:Generated_Source\PSoC6\pdl\drivers\peripheral\ipc/cy_ipc_drv.h **** * \image html ipc_ints.png
  94:Generated_Source\PSoC6\pdl\drivers\peripheral\ipc/cy_ipc_drv.h **** *
  95:Generated_Source\PSoC6\pdl\drivers\peripheral\ipc/cy_ipc_drv.h **** * The application can use semaphores to control access to shared resources, as
  96:Generated_Source\PSoC6\pdl\drivers\peripheral\ipc/cy_ipc_drv.h **** * required by the application's logic.
  97:Generated_Source\PSoC6\pdl\drivers\peripheral\ipc/cy_ipc_drv.h **** *
  98:Generated_Source\PSoC6\pdl\drivers\peripheral\ipc/cy_ipc_drv.h **** * The PDL provides specific files that set up default IPC functionality.
  99:Generated_Source\PSoC6\pdl\drivers\peripheral\ipc/cy_ipc_drv.h **** * They are system_psoc6.h, system_psoc6_cm0plus.c and system_psoc6_cm4.c. You 
 100:Generated_Source\PSoC6\pdl\drivers\peripheral\ipc/cy_ipc_drv.h **** * can modify these files based on the requirements of your design. 
 101:Generated_Source\PSoC6\pdl\drivers\peripheral\ipc/cy_ipc_drv.h **** * If you use PSoC Creator as a development environment, it will not overwrite 
 102:Generated_Source\PSoC6\pdl\drivers\peripheral\ipc/cy_ipc_drv.h **** * your changes when you generate the application or build your code.
 103:Generated_Source\PSoC6\pdl\drivers\peripheral\ipc/cy_ipc_drv.h **** *
 104:Generated_Source\PSoC6\pdl\drivers\peripheral\ipc/cy_ipc_drv.h **** * \section group_ipc_pipe_layer PIPE layer
 105:Generated_Source\PSoC6\pdl\drivers\peripheral\ipc/cy_ipc_drv.h **** *
 106:Generated_Source\PSoC6\pdl\drivers\peripheral\ipc/cy_ipc_drv.h **** * A pipe is a communication channel between two endpoints. PSoC 6 devices support
 107:Generated_Source\PSoC6\pdl\drivers\peripheral\ipc/cy_ipc_drv.h **** * 16 IPC channels, and 16 IPC interrupts, each numbered 0-15. IPC Channels 0-7
 108:Generated_Source\PSoC6\pdl\drivers\peripheral\ipc/cy_ipc_drv.h **** * and IPC interrupts 0-7 are reserved for system use. Channels 8-15 and
 109:Generated_Source\PSoC6\pdl\drivers\peripheral\ipc/cy_ipc_drv.h **** * interrupts 8-15 are available for application use.
 110:Generated_Source\PSoC6\pdl\drivers\peripheral\ipc/cy_ipc_drv.h **** *
 111:Generated_Source\PSoC6\pdl\drivers\peripheral\ipc/cy_ipc_drv.h **** * A full duplex pipe uses two IPC channels, one per endpoint. Each endpoint
 112:Generated_Source\PSoC6\pdl\drivers\peripheral\ipc/cy_ipc_drv.h **** * specifies all the information required to process a message (either sent or
 113:Generated_Source\PSoC6\pdl\drivers\peripheral\ipc/cy_ipc_drv.h **** * received). Each endpoint is configured to use an IPC channel, and an IPC
 114:Generated_Source\PSoC6\pdl\drivers\peripheral\ipc/cy_ipc_drv.h **** * interrupt. Common practice is to use the interrupt with the same number as
 115:Generated_Source\PSoC6\pdl\drivers\peripheral\ipc/cy_ipc_drv.h **** * the IPC channel. However, IPC Interrupts are not directly associated with the
 116:Generated_Source\PSoC6\pdl\drivers\peripheral\ipc/cy_ipc_drv.h **** * IPC channels, so any channel can use any interrupt.  Any IPC channel can
 117:Generated_Source\PSoC6\pdl\drivers\peripheral\ipc/cy_ipc_drv.h **** * trigger 0, 1 or all the IPC interrupts at once, depending on the Notify or
 118:Generated_Source\PSoC6\pdl\drivers\peripheral\ipc/cy_ipc_drv.h **** * Release masks used.
 119:Generated_Source\PSoC6\pdl\drivers\peripheral\ipc/cy_ipc_drv.h **** *
 120:Generated_Source\PSoC6\pdl\drivers\peripheral\ipc/cy_ipc_drv.h **** * It is also possible to set up a one-directional pipe, using a single IPC
 121:Generated_Source\PSoC6\pdl\drivers\peripheral\ipc/cy_ipc_drv.h **** * channel. In this design one processor is always the sender, and the other is
 122:Generated_Source\PSoC6\pdl\drivers\peripheral\ipc/cy_ipc_drv.h **** * always the receiver. However, there are still two endpoints.
 123:Generated_Source\PSoC6\pdl\drivers\peripheral\ipc/cy_ipc_drv.h **** *
 124:Generated_Source\PSoC6\pdl\drivers\peripheral\ipc/cy_ipc_drv.h **** * A pipe supports an arbitrary number of clients with an array of callback
 125:Generated_Source\PSoC6\pdl\drivers\peripheral\ipc/cy_ipc_drv.h **** * functions, one per client. The client ID is the index number into the array
 126:Generated_Source\PSoC6\pdl\drivers\peripheral\ipc/cy_ipc_drv.h **** * for the client. After a pipe is configured and initialized, the application
 127:Generated_Source\PSoC6\pdl\drivers\peripheral\ipc/cy_ipc_drv.h **** * calls Cy_IPC_Pipe_RegisterCallback() once per client to register each client's
 128:Generated_Source\PSoC6\pdl\drivers\peripheral\ipc/cy_ipc_drv.h **** * callback function. Multiple clients can use the same callback function. The
 129:Generated_Source\PSoC6\pdl\drivers\peripheral\ipc/cy_ipc_drv.h **** * endpoints in a pipe share the callback array.
 130:Generated_Source\PSoC6\pdl\drivers\peripheral\ipc/cy_ipc_drv.h **** *
 131:Generated_Source\PSoC6\pdl\drivers\peripheral\ipc/cy_ipc_drv.h **** * Use Cy_IPC_Pipe_SendMessage() to send data. You specify both the "to" and
 132:Generated_Source\PSoC6\pdl\drivers\peripheral\ipc/cy_ipc_drv.h **** * "from" endpoints, and a callback function to be used when the data transfer is
 133:Generated_Source\PSoC6\pdl\drivers\peripheral\ipc/cy_ipc_drv.h **** * complete. The data is a 32-bit void pointer. The data pointed to is arbitrary,
 134:Generated_Source\PSoC6\pdl\drivers\peripheral\ipc/cy_ipc_drv.h **** * and can be an array, a structure, or a location in memory. The only limitation
 135:Generated_Source\PSoC6\pdl\drivers\peripheral\ipc/cy_ipc_drv.h **** * is that the first element of the data must be a 32-bit unsigned word containing
 136:Generated_Source\PSoC6\pdl\drivers\peripheral\ipc/cy_ipc_drv.h **** * a client ID number. The ID number is the index into the callback array.
 137:Generated_Source\PSoC6\pdl\drivers\peripheral\ipc/cy_ipc_drv.h **** *
 138:Generated_Source\PSoC6\pdl\drivers\peripheral\ipc/cy_ipc_drv.h **** * When a message is sent, the receiving endpoint's interrupt handler is called.
 139:Generated_Source\PSoC6\pdl\drivers\peripheral\ipc/cy_ipc_drv.h **** * The ISR can perform any task required by the design. However, as part of its
 140:Generated_Source\PSoC6\pdl\drivers\peripheral\ipc/cy_ipc_drv.h **** * function it calls \ref Cy_IPC_Pipe_ExecCallback. This function retrieves the
 141:Generated_Source\PSoC6\pdl\drivers\peripheral\ipc/cy_ipc_drv.h **** * client ID from the data and calls the associated callback function.
 142:Generated_Source\PSoC6\pdl\drivers\peripheral\ipc/cy_ipc_drv.h **** * The user-supplied callback function handles the data in whatever way is
 143:Generated_Source\PSoC6\pdl\drivers\peripheral\ipc/cy_ipc_drv.h **** * appropriate based on the application logic.
 144:Generated_Source\PSoC6\pdl\drivers\peripheral\ipc/cy_ipc_drv.h **** *
ARM GAS  C:\Users\cmila\AppData\Local\Temp\ccIE2zG5.s 			page 7


 145:Generated_Source\PSoC6\pdl\drivers\peripheral\ipc/cy_ipc_drv.h **** * After the callback function is returned by the receiver, it invokes the release
 146:Generated_Source\PSoC6\pdl\drivers\peripheral\ipc/cy_ipc_drv.h **** * callback function defined by the sender of the message.
 147:Generated_Source\PSoC6\pdl\drivers\peripheral\ipc/cy_ipc_drv.h **** *
 148:Generated_Source\PSoC6\pdl\drivers\peripheral\ipc/cy_ipc_drv.h **** * \section group_ipc_sema_layer SEMA Layer
 149:Generated_Source\PSoC6\pdl\drivers\peripheral\ipc/cy_ipc_drv.h **** *
 150:Generated_Source\PSoC6\pdl\drivers\peripheral\ipc/cy_ipc_drv.h **** * A semaphore is a flag the application uses to control access to a shared
 151:Generated_Source\PSoC6\pdl\drivers\peripheral\ipc/cy_ipc_drv.h **** * resource. The SEMA-level API uses an IPC channel to implement
 152:Generated_Source\PSoC6\pdl\drivers\peripheral\ipc/cy_ipc_drv.h **** * semaphores. Startup code sets up a default semaphore system. The
 153:Generated_Source\PSoC6\pdl\drivers\peripheral\ipc/cy_ipc_drv.h **** * default system creates an array of 128 semaphores (four 32-bit values).
 154:Generated_Source\PSoC6\pdl\drivers\peripheral\ipc/cy_ipc_drv.h **** * Semaphores 0-15 are reserved for system use. See
 155:Generated_Source\PSoC6\pdl\drivers\peripheral\ipc/cy_ipc_drv.h **** * Configuration Considerations - SEMA.
 156:Generated_Source\PSoC6\pdl\drivers\peripheral\ipc/cy_ipc_drv.h **** *
 157:Generated_Source\PSoC6\pdl\drivers\peripheral\ipc/cy_ipc_drv.h **** * Functions are available to initialize the semaphore system, to set or
 158:Generated_Source\PSoC6\pdl\drivers\peripheral\ipc/cy_ipc_drv.h **** * clear a semaphore, or to get the semaphore's current status. Application
 159:Generated_Source\PSoC6\pdl\drivers\peripheral\ipc/cy_ipc_drv.h **** * logic uses SEMA functions to relate a particular semaphore to a particular
 160:Generated_Source\PSoC6\pdl\drivers\peripheral\ipc/cy_ipc_drv.h **** * shared resource, and set, clear, or check the flag when accessing the
 161:Generated_Source\PSoC6\pdl\drivers\peripheral\ipc/cy_ipc_drv.h **** * shared resource.
 162:Generated_Source\PSoC6\pdl\drivers\peripheral\ipc/cy_ipc_drv.h **** *
 163:Generated_Source\PSoC6\pdl\drivers\peripheral\ipc/cy_ipc_drv.h **** * \section group_ipc_configuration_cypipe Configuration Considerations - CYPIPE
 164:Generated_Source\PSoC6\pdl\drivers\peripheral\ipc/cy_ipc_drv.h **** *
 165:Generated_Source\PSoC6\pdl\drivers\peripheral\ipc/cy_ipc_drv.h **** * There are none. The startup files set up the required CYPIPE for system
 166:Generated_Source\PSoC6\pdl\drivers\peripheral\ipc/cy_ipc_drv.h **** * use. Do not modify the CYPIPE. It uses IPC channels 5 and 6 to implement full
 167:Generated_Source\PSoC6\pdl\drivers\peripheral\ipc/cy_ipc_drv.h **** * duplex communication between cores. See System Interrupt (SysInt) for background.
 168:Generated_Source\PSoC6\pdl\drivers\peripheral\ipc/cy_ipc_drv.h **** *
 169:Generated_Source\PSoC6\pdl\drivers\peripheral\ipc/cy_ipc_drv.h **** * To create your own pipe (<b>USRPIPE</b>) you should edit startup files
 170:Generated_Source\PSoC6\pdl\drivers\peripheral\ipc/cy_ipc_drv.h **** * and take 4 steps:
 171:Generated_Source\PSoC6\pdl\drivers\peripheral\ipc/cy_ipc_drv.h **** *   -# Define a pipe callbacks processing interrupt handler
 172:Generated_Source\PSoC6\pdl\drivers\peripheral\ipc/cy_ipc_drv.h **** *      (similar to <b>Cy_SysIpcPipeIsrCm0</b> or <b>Cy_SysIpcPipeIsrCm4</b>)
 173:Generated_Source\PSoC6\pdl\drivers\peripheral\ipc/cy_ipc_drv.h **** *   -# Define a callbacks array (similar to <b>systemIpcPipeSysCbArray</b>)
 174:Generated_Source\PSoC6\pdl\drivers\peripheral\ipc/cy_ipc_drv.h **** *   -# Define your pipe configuration with a cy_stc_ipc_pipe_config_t type structure
 175:Generated_Source\PSoC6\pdl\drivers\peripheral\ipc/cy_ipc_drv.h **** *      (similar to <b>systemIpcPipeConfigCm0</b> and <b>systemIpcPipeConfigCm4</b>)
 176:Generated_Source\PSoC6\pdl\drivers\peripheral\ipc/cy_ipc_drv.h **** *   -# Call Cy_IPC_Pipe_Init() from each core to initialize your pipe (similar
 177:Generated_Source\PSoC6\pdl\drivers\peripheral\ipc/cy_ipc_drv.h **** *      to call in the <b>SystemInit</b>)
 178:Generated_Source\PSoC6\pdl\drivers\peripheral\ipc/cy_ipc_drv.h **** *
 179:Generated_Source\PSoC6\pdl\drivers\peripheral\ipc/cy_ipc_drv.h **** * \section group_ipc_configuration_sema Configuration Considerations - SEMA
 180:Generated_Source\PSoC6\pdl\drivers\peripheral\ipc/cy_ipc_drv.h **** *
 181:Generated_Source\PSoC6\pdl\drivers\peripheral\ipc/cy_ipc_drv.h **** * Startup code calls Cy_IPC_Sema_Init() with default values to set up semaphore 
 182:Generated_Source\PSoC6\pdl\drivers\peripheral\ipc/cy_ipc_drv.h **** * functionality. By default the semaphore system uses IPC channel 4, and 
 183:Generated_Source\PSoC6\pdl\drivers\peripheral\ipc/cy_ipc_drv.h **** * creates 128 semaphores. Do <b>not</b> change the IPC channel. 
 184:Generated_Source\PSoC6\pdl\drivers\peripheral\ipc/cy_ipc_drv.h **** * You can change the number of semaphores.
 185:Generated_Source\PSoC6\pdl\drivers\peripheral\ipc/cy_ipc_drv.h **** *
 186:Generated_Source\PSoC6\pdl\drivers\peripheral\ipc/cy_ipc_drv.h **** * To change the number of semaphores, modify this line of code in system_psoc6.h.
 187:Generated_Source\PSoC6\pdl\drivers\peripheral\ipc/cy_ipc_drv.h **** *
 188:Generated_Source\PSoC6\pdl\drivers\peripheral\ipc/cy_ipc_drv.h **** * \code
 189:Generated_Source\PSoC6\pdl\drivers\peripheral\ipc/cy_ipc_drv.h **** * #define CY_IPC_SEMA_COUNT               (uint32_t)(128u)
 190:Generated_Source\PSoC6\pdl\drivers\peripheral\ipc/cy_ipc_drv.h **** * \endcode
 191:Generated_Source\PSoC6\pdl\drivers\peripheral\ipc/cy_ipc_drv.h **** *
 192:Generated_Source\PSoC6\pdl\drivers\peripheral\ipc/cy_ipc_drv.h **** * Startup also declares array ipcSemaArray to hold the semaphore
 193:Generated_Source\PSoC6\pdl\drivers\peripheral\ipc/cy_ipc_drv.h **** * flags based on the size defined for this symbol. Use increments of 32. You
 194:Generated_Source\PSoC6\pdl\drivers\peripheral\ipc/cy_ipc_drv.h **** * must have at least 32 semaphores. Semaphores 0-15 are reserved for
 195:Generated_Source\PSoC6\pdl\drivers\peripheral\ipc/cy_ipc_drv.h **** * system use. Your application can use semaphores greater than 15.
 196:Generated_Source\PSoC6\pdl\drivers\peripheral\ipc/cy_ipc_drv.h **** *
 197:Generated_Source\PSoC6\pdl\drivers\peripheral\ipc/cy_ipc_drv.h **** * \section group_ipc_more_information More Information
 198:Generated_Source\PSoC6\pdl\drivers\peripheral\ipc/cy_ipc_drv.h **** *
 199:Generated_Source\PSoC6\pdl\drivers\peripheral\ipc/cy_ipc_drv.h **** * If the default startup file is not used, or SystemInit() is not called in your 
 200:Generated_Source\PSoC6\pdl\drivers\peripheral\ipc/cy_ipc_drv.h **** * project, call the following three functions prior to executing any flash or 
 201:Generated_Source\PSoC6\pdl\drivers\peripheral\ipc/cy_ipc_drv.h **** * EmEEPROM write or erase operation:
ARM GAS  C:\Users\cmila\AppData\Local\Temp\ccIE2zG5.s 			page 8


 202:Generated_Source\PSoC6\pdl\drivers\peripheral\ipc/cy_ipc_drv.h **** *  -# Cy_IPC_Sema_Init()
 203:Generated_Source\PSoC6\pdl\drivers\peripheral\ipc/cy_ipc_drv.h **** *  -# Cy_IPC_Pipe_Config()
 204:Generated_Source\PSoC6\pdl\drivers\peripheral\ipc/cy_ipc_drv.h **** *  -# Cy_IPC_Pipe_Init()
 205:Generated_Source\PSoC6\pdl\drivers\peripheral\ipc/cy_ipc_drv.h **** *  -# Cy_Flash_Init()
 206:Generated_Source\PSoC6\pdl\drivers\peripheral\ipc/cy_ipc_drv.h **** *
 207:Generated_Source\PSoC6\pdl\drivers\peripheral\ipc/cy_ipc_drv.h **** * See the technical reference manual(TRM) for more information on the IPC.
 208:Generated_Source\PSoC6\pdl\drivers\peripheral\ipc/cy_ipc_drv.h **** *
 209:Generated_Source\PSoC6\pdl\drivers\peripheral\ipc/cy_ipc_drv.h **** * \section group_ipc_MISRA MISRA-C Compliance
 210:Generated_Source\PSoC6\pdl\drivers\peripheral\ipc/cy_ipc_drv.h **** *
 211:Generated_Source\PSoC6\pdl\drivers\peripheral\ipc/cy_ipc_drv.h **** * <table class="doxtable">
 212:Generated_Source\PSoC6\pdl\drivers\peripheral\ipc/cy_ipc_drv.h **** *   <tr>
 213:Generated_Source\PSoC6\pdl\drivers\peripheral\ipc/cy_ipc_drv.h **** *     <th>MISRA Rule</th>
 214:Generated_Source\PSoC6\pdl\drivers\peripheral\ipc/cy_ipc_drv.h **** *     <th>Rule Class (Required/Advisory)</th>
 215:Generated_Source\PSoC6\pdl\drivers\peripheral\ipc/cy_ipc_drv.h **** *     <th>Rule Description</th>
 216:Generated_Source\PSoC6\pdl\drivers\peripheral\ipc/cy_ipc_drv.h **** *     <th style="width: 50%;">Description of Deviation(s)</th>
 217:Generated_Source\PSoC6\pdl\drivers\peripheral\ipc/cy_ipc_drv.h **** *   </tr>
 218:Generated_Source\PSoC6\pdl\drivers\peripheral\ipc/cy_ipc_drv.h **** *   <tr>
 219:Generated_Source\PSoC6\pdl\drivers\peripheral\ipc/cy_ipc_drv.h **** *     <td>10.3</td>
 220:Generated_Source\PSoC6\pdl\drivers\peripheral\ipc/cy_ipc_drv.h **** *     <td>R</td>
 221:Generated_Source\PSoC6\pdl\drivers\peripheral\ipc/cy_ipc_drv.h **** *     <td>The value of a complex expression of integer type shall be cast
 222:Generated_Source\PSoC6\pdl\drivers\peripheral\ipc/cy_ipc_drv.h **** *         only to a type of the same signedness that is no wider than the underlying
 223:Generated_Source\PSoC6\pdl\drivers\peripheral\ipc/cy_ipc_drv.h **** *         type of the expression.</td>
 224:Generated_Source\PSoC6\pdl\drivers\peripheral\ipc/cy_ipc_drv.h **** *     <td>The cast from integer to enumeration value is used to calculate
 225:Generated_Source\PSoC6\pdl\drivers\peripheral\ipc/cy_ipc_drv.h **** *         the interrupt vector source from the integer number of the IPC interrupt
 226:Generated_Source\PSoC6\pdl\drivers\peripheral\ipc/cy_ipc_drv.h **** *         structure, so there is no way to avoid this cast.</td>
 227:Generated_Source\PSoC6\pdl\drivers\peripheral\ipc/cy_ipc_drv.h **** *   </tr>
 228:Generated_Source\PSoC6\pdl\drivers\peripheral\ipc/cy_ipc_drv.h **** *   <tr>
 229:Generated_Source\PSoC6\pdl\drivers\peripheral\ipc/cy_ipc_drv.h **** *     <td>11.4</td>
 230:Generated_Source\PSoC6\pdl\drivers\peripheral\ipc/cy_ipc_drv.h **** *     <td>A</td>
 231:Generated_Source\PSoC6\pdl\drivers\peripheral\ipc/cy_ipc_drv.h **** *     <td>A cast should not be performed between a pointer to the void to a
 232:Generated_Source\PSoC6\pdl\drivers\peripheral\ipc/cy_ipc_drv.h **** *         pointer to the object type.</td>
 233:Generated_Source\PSoC6\pdl\drivers\peripheral\ipc/cy_ipc_drv.h **** *     <td>The cast from the void to pointer and vice versa is used to transmit
 234:Generated_Source\PSoC6\pdl\drivers\peripheral\ipc/cy_ipc_drv.h **** *         data via the \ref group_ipc channel by exchanging the pointer. We
 235:Generated_Source\PSoC6\pdl\drivers\peripheral\ipc/cy_ipc_drv.h **** *         exchange only one pointer, so there is no way to avoid this cast.</td>
 236:Generated_Source\PSoC6\pdl\drivers\peripheral\ipc/cy_ipc_drv.h **** *   </tr>
 237:Generated_Source\PSoC6\pdl\drivers\peripheral\ipc/cy_ipc_drv.h **** * </table>
 238:Generated_Source\PSoC6\pdl\drivers\peripheral\ipc/cy_ipc_drv.h **** *
 239:Generated_Source\PSoC6\pdl\drivers\peripheral\ipc/cy_ipc_drv.h **** * \section group_ipc_changelog Changelog
 240:Generated_Source\PSoC6\pdl\drivers\peripheral\ipc/cy_ipc_drv.h **** *
 241:Generated_Source\PSoC6\pdl\drivers\peripheral\ipc/cy_ipc_drv.h **** * <table class="doxtable">
 242:Generated_Source\PSoC6\pdl\drivers\peripheral\ipc/cy_ipc_drv.h **** *   <tr><th>Version</th><th>Changes</th><th>Reason for Change</th></tr>
 243:Generated_Source\PSoC6\pdl\drivers\peripheral\ipc/cy_ipc_drv.h **** *   <tr>
 244:Generated_Source\PSoC6\pdl\drivers\peripheral\ipc/cy_ipc_drv.h **** *     <td rowspan="3">1.30</td>
 245:Generated_Source\PSoC6\pdl\drivers\peripheral\ipc/cy_ipc_drv.h **** *     <td>Flattened the organization of the driver source code into the single source directory and
 246:Generated_Source\PSoC6\pdl\drivers\peripheral\ipc/cy_ipc_drv.h **** *     <td>Driver library directory-structure simplification.</td>
 247:Generated_Source\PSoC6\pdl\drivers\peripheral\ipc/cy_ipc_drv.h **** *   </tr>
 248:Generated_Source\PSoC6\pdl\drivers\peripheral\ipc/cy_ipc_drv.h **** *   <tr>
 249:Generated_Source\PSoC6\pdl\drivers\peripheral\ipc/cy_ipc_drv.h **** *     <td>Moved the Cy_IPC_SystemSemaInit(), Cy_IPC_SystemPipeInit() functions implementation from 
 250:Generated_Source\PSoC6\pdl\drivers\peripheral\ipc/cy_ipc_drv.h **** *     <td>Changed IPC driver configuration method from compile time to run time.</td>
 251:Generated_Source\PSoC6\pdl\drivers\peripheral\ipc/cy_ipc_drv.h **** *   </tr>
 252:Generated_Source\PSoC6\pdl\drivers\peripheral\ipc/cy_ipc_drv.h **** *   <tr>
 253:Generated_Source\PSoC6\pdl\drivers\peripheral\ipc/cy_ipc_drv.h **** *     <td>Added register access layer. Use register access macros instead
 254:Generated_Source\PSoC6\pdl\drivers\peripheral\ipc/cy_ipc_drv.h **** *         of direct register access using dereferenced pointers.</td>
 255:Generated_Source\PSoC6\pdl\drivers\peripheral\ipc/cy_ipc_drv.h **** *     <td>Makes register access device-independent, so that the PDL does 
 256:Generated_Source\PSoC6\pdl\drivers\peripheral\ipc/cy_ipc_drv.h **** *         not need to be recompiled for each supported part number.</td>
 257:Generated_Source\PSoC6\pdl\drivers\peripheral\ipc/cy_ipc_drv.h **** *   </tr>
 258:Generated_Source\PSoC6\pdl\drivers\peripheral\ipc/cy_ipc_drv.h **** *   <tr>
ARM GAS  C:\Users\cmila\AppData\Local\Temp\ccIE2zG5.s 			page 9


 259:Generated_Source\PSoC6\pdl\drivers\peripheral\ipc/cy_ipc_drv.h **** *     <td>1.20</td>
 260:Generated_Source\PSoC6\pdl\drivers\peripheral\ipc/cy_ipc_drv.h **** *     <td>Added \ref Cy_IPC_Pipe_ExecuteCallback function.
 261:Generated_Source\PSoC6\pdl\drivers\peripheral\ipc/cy_ipc_drv.h **** *         Updated documentation about user pipe initialization.
 262:Generated_Source\PSoC6\pdl\drivers\peripheral\ipc/cy_ipc_drv.h **** *     </td>
 263:Generated_Source\PSoC6\pdl\drivers\peripheral\ipc/cy_ipc_drv.h **** *     <td>Interface improvement, documentation update</td>
 264:Generated_Source\PSoC6\pdl\drivers\peripheral\ipc/cy_ipc_drv.h **** *   </tr>
 265:Generated_Source\PSoC6\pdl\drivers\peripheral\ipc/cy_ipc_drv.h **** *   <tr>
 266:Generated_Source\PSoC6\pdl\drivers\peripheral\ipc/cy_ipc_drv.h **** *     <td>1.10.1</td>
 267:Generated_Source\PSoC6\pdl\drivers\peripheral\ipc/cy_ipc_drv.h **** *     <td>Updated description of the \ref Cy_IPC_Pipe_Init,
 268:Generated_Source\PSoC6\pdl\drivers\peripheral\ipc/cy_ipc_drv.h **** *         \ref Cy_IPC_Pipe_EndpointInit, \ref Cy_IPC_Sema_Set functions.
 269:Generated_Source\PSoC6\pdl\drivers\peripheral\ipc/cy_ipc_drv.h **** *         Added / updated code snippets.
 270:Generated_Source\PSoC6\pdl\drivers\peripheral\ipc/cy_ipc_drv.h **** *     </td>
 271:Generated_Source\PSoC6\pdl\drivers\peripheral\ipc/cy_ipc_drv.h **** *     <td>Documentation update and clarification</td>
 272:Generated_Source\PSoC6\pdl\drivers\peripheral\ipc/cy_ipc_drv.h **** *   </tr>
 273:Generated_Source\PSoC6\pdl\drivers\peripheral\ipc/cy_ipc_drv.h **** *   <tr>
 274:Generated_Source\PSoC6\pdl\drivers\peripheral\ipc/cy_ipc_drv.h **** *     <td>1.10</td>
 275:Generated_Source\PSoC6\pdl\drivers\peripheral\ipc/cy_ipc_drv.h **** *     <td>Added support for more IPC structures</td>
 276:Generated_Source\PSoC6\pdl\drivers\peripheral\ipc/cy_ipc_drv.h **** *     <td>New device support</td>
 277:Generated_Source\PSoC6\pdl\drivers\peripheral\ipc/cy_ipc_drv.h **** *   </tr>
 278:Generated_Source\PSoC6\pdl\drivers\peripheral\ipc/cy_ipc_drv.h **** *   <tr>
 279:Generated_Source\PSoC6\pdl\drivers\peripheral\ipc/cy_ipc_drv.h **** *     <td>1.0</td>
 280:Generated_Source\PSoC6\pdl\drivers\peripheral\ipc/cy_ipc_drv.h **** *     <td>Initial version</td>
 281:Generated_Source\PSoC6\pdl\drivers\peripheral\ipc/cy_ipc_drv.h **** *     <td></td>
 282:Generated_Source\PSoC6\pdl\drivers\peripheral\ipc/cy_ipc_drv.h **** *   </tr>
 283:Generated_Source\PSoC6\pdl\drivers\peripheral\ipc/cy_ipc_drv.h **** * </table>
 284:Generated_Source\PSoC6\pdl\drivers\peripheral\ipc/cy_ipc_drv.h **** *
 285:Generated_Source\PSoC6\pdl\drivers\peripheral\ipc/cy_ipc_drv.h **** * \defgroup group_ipc_drv IPC driver layer (IPC_DRV)
 286:Generated_Source\PSoC6\pdl\drivers\peripheral\ipc/cy_ipc_drv.h **** * \{
 287:Generated_Source\PSoC6\pdl\drivers\peripheral\ipc/cy_ipc_drv.h **** *   The functions of this layer are used in the higher IPC levels
 288:Generated_Source\PSoC6\pdl\drivers\peripheral\ipc/cy_ipc_drv.h **** *   (Semaphores and Pipes).
 289:Generated_Source\PSoC6\pdl\drivers\peripheral\ipc/cy_ipc_drv.h **** *   Users are not expected to call any of these IPC functions directly (cy_ipc_drv.h). 
 290:Generated_Source\PSoC6\pdl\drivers\peripheral\ipc/cy_ipc_drv.h **** *   Instead include either of cy_ipc_sema.h or cy_ipc_pipe.h. 
 291:Generated_Source\PSoC6\pdl\drivers\peripheral\ipc/cy_ipc_drv.h **** *   Alternatively include cy_pdl.h to get access to all functions and declarations in the PDL.
 292:Generated_Source\PSoC6\pdl\drivers\peripheral\ipc/cy_ipc_drv.h **** *
 293:Generated_Source\PSoC6\pdl\drivers\peripheral\ipc/cy_ipc_drv.h **** *   \defgroup group_ipc_macros Macros
 294:Generated_Source\PSoC6\pdl\drivers\peripheral\ipc/cy_ipc_drv.h **** *       Macro definitions are used in the driver
 295:Generated_Source\PSoC6\pdl\drivers\peripheral\ipc/cy_ipc_drv.h **** *
 296:Generated_Source\PSoC6\pdl\drivers\peripheral\ipc/cy_ipc_drv.h **** *   \defgroup group_ipc_functions Functions
 297:Generated_Source\PSoC6\pdl\drivers\peripheral\ipc/cy_ipc_drv.h **** *       Functions are used in the driver
 298:Generated_Source\PSoC6\pdl\drivers\peripheral\ipc/cy_ipc_drv.h **** *
 299:Generated_Source\PSoC6\pdl\drivers\peripheral\ipc/cy_ipc_drv.h **** *   \defgroup group_ipc_data_structures Data Structures
 300:Generated_Source\PSoC6\pdl\drivers\peripheral\ipc/cy_ipc_drv.h **** *       Data structures are used in the driver
 301:Generated_Source\PSoC6\pdl\drivers\peripheral\ipc/cy_ipc_drv.h **** *
 302:Generated_Source\PSoC6\pdl\drivers\peripheral\ipc/cy_ipc_drv.h **** *   \defgroup group_ipc_enums Enumerated Types
 303:Generated_Source\PSoC6\pdl\drivers\peripheral\ipc/cy_ipc_drv.h **** *       Enumerations are used in the driver
 304:Generated_Source\PSoC6\pdl\drivers\peripheral\ipc/cy_ipc_drv.h **** * \}
 305:Generated_Source\PSoC6\pdl\drivers\peripheral\ipc/cy_ipc_drv.h **** *
 306:Generated_Source\PSoC6\pdl\drivers\peripheral\ipc/cy_ipc_drv.h **** * \defgroup group_ipc_sema IPC semaphores layer (IPC_SEMA)
 307:Generated_Source\PSoC6\pdl\drivers\peripheral\ipc/cy_ipc_drv.h **** * \defgroup group_ipc_pipe IPC pipes layer (IPC_PIPE)
 308:Generated_Source\PSoC6\pdl\drivers\peripheral\ipc/cy_ipc_drv.h **** *
 309:Generated_Source\PSoC6\pdl\drivers\peripheral\ipc/cy_ipc_drv.h **** */
 310:Generated_Source\PSoC6\pdl\drivers\peripheral\ipc/cy_ipc_drv.h **** 
 311:Generated_Source\PSoC6\pdl\drivers\peripheral\ipc/cy_ipc_drv.h **** 
 312:Generated_Source\PSoC6\pdl\drivers\peripheral\ipc/cy_ipc_drv.h **** /******************************************************************************/
 313:Generated_Source\PSoC6\pdl\drivers\peripheral\ipc/cy_ipc_drv.h **** /* Include files                                                              */
 314:Generated_Source\PSoC6\pdl\drivers\peripheral\ipc/cy_ipc_drv.h **** /******************************************************************************/
 315:Generated_Source\PSoC6\pdl\drivers\peripheral\ipc/cy_ipc_drv.h **** 
ARM GAS  C:\Users\cmila\AppData\Local\Temp\ccIE2zG5.s 			page 10


 316:Generated_Source\PSoC6\pdl\drivers\peripheral\ipc/cy_ipc_drv.h **** #include "cy_device.h"
 317:Generated_Source\PSoC6\pdl\drivers\peripheral\ipc/cy_ipc_drv.h **** #include "cy_device_headers.h"
 318:Generated_Source\PSoC6\pdl\drivers\peripheral\ipc/cy_ipc_drv.h **** #include "cy_syslib.h"
 319:Generated_Source\PSoC6\pdl\drivers\peripheral\ipc/cy_ipc_drv.h **** #include <stddef.h>
 320:Generated_Source\PSoC6\pdl\drivers\peripheral\ipc/cy_ipc_drv.h **** 
 321:Generated_Source\PSoC6\pdl\drivers\peripheral\ipc/cy_ipc_drv.h **** 
 322:Generated_Source\PSoC6\pdl\drivers\peripheral\ipc/cy_ipc_drv.h **** /**
 323:Generated_Source\PSoC6\pdl\drivers\peripheral\ipc/cy_ipc_drv.h **** * \addtogroup group_ipc_macros
 324:Generated_Source\PSoC6\pdl\drivers\peripheral\ipc/cy_ipc_drv.h **** * \{
 325:Generated_Source\PSoC6\pdl\drivers\peripheral\ipc/cy_ipc_drv.h **** */
 326:Generated_Source\PSoC6\pdl\drivers\peripheral\ipc/cy_ipc_drv.h **** 
 327:Generated_Source\PSoC6\pdl\drivers\peripheral\ipc/cy_ipc_drv.h **** /** Driver major version */
 328:Generated_Source\PSoC6\pdl\drivers\peripheral\ipc/cy_ipc_drv.h **** #define CY_IPC_DRV_VERSION_MAJOR       1
 329:Generated_Source\PSoC6\pdl\drivers\peripheral\ipc/cy_ipc_drv.h **** 
 330:Generated_Source\PSoC6\pdl\drivers\peripheral\ipc/cy_ipc_drv.h **** /** Driver minor version */
 331:Generated_Source\PSoC6\pdl\drivers\peripheral\ipc/cy_ipc_drv.h **** #define CY_IPC_DRV_VERSION_MINOR       30
 332:Generated_Source\PSoC6\pdl\drivers\peripheral\ipc/cy_ipc_drv.h **** 
 333:Generated_Source\PSoC6\pdl\drivers\peripheral\ipc/cy_ipc_drv.h **** /** Defines a value to indicate that no notification events are needed */
 334:Generated_Source\PSoC6\pdl\drivers\peripheral\ipc/cy_ipc_drv.h **** #define CY_IPC_NO_NOTIFICATION         (uint32_t)(0x00000000ul)
 335:Generated_Source\PSoC6\pdl\drivers\peripheral\ipc/cy_ipc_drv.h **** 
 336:Generated_Source\PSoC6\pdl\drivers\peripheral\ipc/cy_ipc_drv.h **** /* Error Code constants */
 337:Generated_Source\PSoC6\pdl\drivers\peripheral\ipc/cy_ipc_drv.h **** #define CY_IPC_ID CY_PDL_DRV_ID(0x22u)  /**< Software PDL driver ID for IPC */
 338:Generated_Source\PSoC6\pdl\drivers\peripheral\ipc/cy_ipc_drv.h **** 
 339:Generated_Source\PSoC6\pdl\drivers\peripheral\ipc/cy_ipc_drv.h **** /** Return prefix for IPC driver function status codes */
 340:Generated_Source\PSoC6\pdl\drivers\peripheral\ipc/cy_ipc_drv.h **** #define CY_IPC_ID_INFO    (uint32_t)( CY_IPC_ID | CY_PDL_STATUS_INFO )
 341:Generated_Source\PSoC6\pdl\drivers\peripheral\ipc/cy_ipc_drv.h **** /** Return prefix for IPC driver function warning return values */
 342:Generated_Source\PSoC6\pdl\drivers\peripheral\ipc/cy_ipc_drv.h **** #define CY_IPC_ID_WARNING (uint32_t)( CY_IPC_ID | CY_PDL_STATUS_WARNING)
 343:Generated_Source\PSoC6\pdl\drivers\peripheral\ipc/cy_ipc_drv.h **** /** Return prefix for IPC driver function error return values */
 344:Generated_Source\PSoC6\pdl\drivers\peripheral\ipc/cy_ipc_drv.h **** #define CY_IPC_ID_ERROR   (uint32_t)( CY_IPC_ID | CY_PDL_STATUS_ERROR)
 345:Generated_Source\PSoC6\pdl\drivers\peripheral\ipc/cy_ipc_drv.h **** 
 346:Generated_Source\PSoC6\pdl\drivers\peripheral\ipc/cy_ipc_drv.h **** /** Converts the IPC interrupt channel number to interrupt vector */
 347:Generated_Source\PSoC6\pdl\drivers\peripheral\ipc/cy_ipc_drv.h **** #define CY_IPC_INTR_NUM_TO_VECT(x)         ((int32_t) cy_device->cpussIpc0Irq + (x))
 348:Generated_Source\PSoC6\pdl\drivers\peripheral\ipc/cy_ipc_drv.h **** 
 349:Generated_Source\PSoC6\pdl\drivers\peripheral\ipc/cy_ipc_drv.h **** /** \} group_ipc_macros */
 350:Generated_Source\PSoC6\pdl\drivers\peripheral\ipc/cy_ipc_drv.h **** 
 351:Generated_Source\PSoC6\pdl\drivers\peripheral\ipc/cy_ipc_drv.h **** /* end of definition in device.h */
 352:Generated_Source\PSoC6\pdl\drivers\peripheral\ipc/cy_ipc_drv.h **** 
 353:Generated_Source\PSoC6\pdl\drivers\peripheral\ipc/cy_ipc_drv.h **** /** \cond INTERNAL */
 354:Generated_Source\PSoC6\pdl\drivers\peripheral\ipc/cy_ipc_drv.h **** #if (CY_CPU_CORTEX_M0P)
 355:Generated_Source\PSoC6\pdl\drivers\peripheral\ipc/cy_ipc_drv.h ****     #define CY_IPC_CHAN_SYSCALL         CY_IPC_CHAN_SYSCALL_CM0
 356:Generated_Source\PSoC6\pdl\drivers\peripheral\ipc/cy_ipc_drv.h **** #else
 357:Generated_Source\PSoC6\pdl\drivers\peripheral\ipc/cy_ipc_drv.h ****     #define CY_IPC_CHAN_SYSCALL         CY_IPC_CHAN_SYSCALL_CM4
 358:Generated_Source\PSoC6\pdl\drivers\peripheral\ipc/cy_ipc_drv.h **** #endif  /* (CY_CPU_CORTEX_M0P) */
 359:Generated_Source\PSoC6\pdl\drivers\peripheral\ipc/cy_ipc_drv.h **** /** \endcond */
 360:Generated_Source\PSoC6\pdl\drivers\peripheral\ipc/cy_ipc_drv.h **** 
 361:Generated_Source\PSoC6\pdl\drivers\peripheral\ipc/cy_ipc_drv.h **** /**
 362:Generated_Source\PSoC6\pdl\drivers\peripheral\ipc/cy_ipc_drv.h **** * \addtogroup group_ipc_enums
 363:Generated_Source\PSoC6\pdl\drivers\peripheral\ipc/cy_ipc_drv.h **** * \{
 364:Generated_Source\PSoC6\pdl\drivers\peripheral\ipc/cy_ipc_drv.h **** */
 365:Generated_Source\PSoC6\pdl\drivers\peripheral\ipc/cy_ipc_drv.h **** 
 366:Generated_Source\PSoC6\pdl\drivers\peripheral\ipc/cy_ipc_drv.h **** /**
 367:Generated_Source\PSoC6\pdl\drivers\peripheral\ipc/cy_ipc_drv.h **** * This is a list of ENUMs used for function return status.
 368:Generated_Source\PSoC6\pdl\drivers\peripheral\ipc/cy_ipc_drv.h **** */
 369:Generated_Source\PSoC6\pdl\drivers\peripheral\ipc/cy_ipc_drv.h **** typedef enum
 370:Generated_Source\PSoC6\pdl\drivers\peripheral\ipc/cy_ipc_drv.h **** {
 371:Generated_Source\PSoC6\pdl\drivers\peripheral\ipc/cy_ipc_drv.h ****     /** Function was successfully executed */
 372:Generated_Source\PSoC6\pdl\drivers\peripheral\ipc/cy_ipc_drv.h ****     CY_IPC_DRV_SUCCESS      = (0x00u),
ARM GAS  C:\Users\cmila\AppData\Local\Temp\ccIE2zG5.s 			page 11


 373:Generated_Source\PSoC6\pdl\drivers\peripheral\ipc/cy_ipc_drv.h ****     /** Function was not executed due to an error.
 374:Generated_Source\PSoC6\pdl\drivers\peripheral\ipc/cy_ipc_drv.h ****         Typical conditions for the error explained
 375:Generated_Source\PSoC6\pdl\drivers\peripheral\ipc/cy_ipc_drv.h ****         in the function description */
 376:Generated_Source\PSoC6\pdl\drivers\peripheral\ipc/cy_ipc_drv.h ****     CY_IPC_DRV_ERROR        = ( CY_IPC_ID_ERROR + 1ul),
 377:Generated_Source\PSoC6\pdl\drivers\peripheral\ipc/cy_ipc_drv.h **** } cy_en_ipcdrv_status_t;
 378:Generated_Source\PSoC6\pdl\drivers\peripheral\ipc/cy_ipc_drv.h **** 
 379:Generated_Source\PSoC6\pdl\drivers\peripheral\ipc/cy_ipc_drv.h **** /** \} group_ipc_enums */
 380:Generated_Source\PSoC6\pdl\drivers\peripheral\ipc/cy_ipc_drv.h **** 
 381:Generated_Source\PSoC6\pdl\drivers\peripheral\ipc/cy_ipc_drv.h **** 
 382:Generated_Source\PSoC6\pdl\drivers\peripheral\ipc/cy_ipc_drv.h **** #ifdef __cplusplus
 383:Generated_Source\PSoC6\pdl\drivers\peripheral\ipc/cy_ipc_drv.h **** extern "C" {
 384:Generated_Source\PSoC6\pdl\drivers\peripheral\ipc/cy_ipc_drv.h **** #endif
 385:Generated_Source\PSoC6\pdl\drivers\peripheral\ipc/cy_ipc_drv.h **** 
 386:Generated_Source\PSoC6\pdl\drivers\peripheral\ipc/cy_ipc_drv.h **** /** \cond INTERNAL */
 387:Generated_Source\PSoC6\pdl\drivers\peripheral\ipc/cy_ipc_drv.h **** 
 388:Generated_Source\PSoC6\pdl\drivers\peripheral\ipc/cy_ipc_drv.h **** __STATIC_INLINE void     Cy_IPC_Drv_WriteDataValue (IPC_STRUCT_Type* base, uint32_t dataValue);
 389:Generated_Source\PSoC6\pdl\drivers\peripheral\ipc/cy_ipc_drv.h **** __STATIC_INLINE uint32_t Cy_IPC_Drv_ReadDataValue (IPC_STRUCT_Type const * base);
 390:Generated_Source\PSoC6\pdl\drivers\peripheral\ipc/cy_ipc_drv.h **** 
 391:Generated_Source\PSoC6\pdl\drivers\peripheral\ipc/cy_ipc_drv.h **** __STATIC_INLINE uint32_t Cy_IPC_Drv_ExtractAcquireMask (uint32_t intMask);
 392:Generated_Source\PSoC6\pdl\drivers\peripheral\ipc/cy_ipc_drv.h **** __STATIC_INLINE uint32_t Cy_IPC_Drv_ExtractReleaseMask (uint32_t intMask);
 393:Generated_Source\PSoC6\pdl\drivers\peripheral\ipc/cy_ipc_drv.h **** 
 394:Generated_Source\PSoC6\pdl\drivers\peripheral\ipc/cy_ipc_drv.h **** /** \endcond */
 395:Generated_Source\PSoC6\pdl\drivers\peripheral\ipc/cy_ipc_drv.h **** 
 396:Generated_Source\PSoC6\pdl\drivers\peripheral\ipc/cy_ipc_drv.h **** /**
 397:Generated_Source\PSoC6\pdl\drivers\peripheral\ipc/cy_ipc_drv.h **** * \addtogroup group_ipc_functions
 398:Generated_Source\PSoC6\pdl\drivers\peripheral\ipc/cy_ipc_drv.h **** * \{
 399:Generated_Source\PSoC6\pdl\drivers\peripheral\ipc/cy_ipc_drv.h **** */
 400:Generated_Source\PSoC6\pdl\drivers\peripheral\ipc/cy_ipc_drv.h **** 
 401:Generated_Source\PSoC6\pdl\drivers\peripheral\ipc/cy_ipc_drv.h **** __STATIC_INLINE IPC_STRUCT_Type*       Cy_IPC_Drv_GetIpcBaseAddress (uint32_t ipcIndex);
 402:Generated_Source\PSoC6\pdl\drivers\peripheral\ipc/cy_ipc_drv.h **** __STATIC_INLINE IPC_INTR_STRUCT_Type*  Cy_IPC_Drv_GetIntrBaseAddr (uint32_t ipcIntrIndex);
 403:Generated_Source\PSoC6\pdl\drivers\peripheral\ipc/cy_ipc_drv.h **** 
 404:Generated_Source\PSoC6\pdl\drivers\peripheral\ipc/cy_ipc_drv.h **** __STATIC_INLINE void     Cy_IPC_Drv_AcquireNotify (IPC_STRUCT_Type * base, uint32_t notifyEventIntr
 405:Generated_Source\PSoC6\pdl\drivers\peripheral\ipc/cy_ipc_drv.h **** __STATIC_INLINE void     Cy_IPC_Drv_ReleaseNotify (IPC_STRUCT_Type * base, uint32_t notifyEventIntr
 406:Generated_Source\PSoC6\pdl\drivers\peripheral\ipc/cy_ipc_drv.h **** 
 407:Generated_Source\PSoC6\pdl\drivers\peripheral\ipc/cy_ipc_drv.h **** __STATIC_INLINE  cy_en_ipcdrv_status_t Cy_IPC_Drv_LockAcquire (IPC_STRUCT_Type const * base);
 408:Generated_Source\PSoC6\pdl\drivers\peripheral\ipc/cy_ipc_drv.h **** cy_en_ipcdrv_status_t    Cy_IPC_Drv_LockRelease (IPC_STRUCT_Type * base, uint32_t releaseEventIntr)
 409:Generated_Source\PSoC6\pdl\drivers\peripheral\ipc/cy_ipc_drv.h **** __STATIC_INLINE bool     Cy_IPC_Drv_IsLockAcquired (IPC_STRUCT_Type const * base);
 410:Generated_Source\PSoC6\pdl\drivers\peripheral\ipc/cy_ipc_drv.h **** __STATIC_INLINE uint32_t Cy_IPC_Drv_GetLockStatus (IPC_STRUCT_Type const * base);
 411:Generated_Source\PSoC6\pdl\drivers\peripheral\ipc/cy_ipc_drv.h **** 
 412:Generated_Source\PSoC6\pdl\drivers\peripheral\ipc/cy_ipc_drv.h **** cy_en_ipcdrv_status_t    Cy_IPC_Drv_SendMsgWord (IPC_STRUCT_Type * base, uint32_t notifyEventIntr, 
 413:Generated_Source\PSoC6\pdl\drivers\peripheral\ipc/cy_ipc_drv.h **** cy_en_ipcdrv_status_t    Cy_IPC_Drv_ReadMsgWord (IPC_STRUCT_Type const * base, uint32_t * message);
 414:Generated_Source\PSoC6\pdl\drivers\peripheral\ipc/cy_ipc_drv.h **** __STATIC_INLINE cy_en_ipcdrv_status_t Cy_IPC_Drv_SendMsgPtr (IPC_STRUCT_Type* base, uint32_t notify
 415:Generated_Source\PSoC6\pdl\drivers\peripheral\ipc/cy_ipc_drv.h **** __STATIC_INLINE cy_en_ipcdrv_status_t Cy_IPC_Drv_ReadMsgPtr (IPC_STRUCT_Type const * base, void ** 
 416:Generated_Source\PSoC6\pdl\drivers\peripheral\ipc/cy_ipc_drv.h **** 
 417:Generated_Source\PSoC6\pdl\drivers\peripheral\ipc/cy_ipc_drv.h **** __STATIC_INLINE void     Cy_IPC_Drv_SetInterruptMask (IPC_INTR_STRUCT_Type * base,
 418:Generated_Source\PSoC6\pdl\drivers\peripheral\ipc/cy_ipc_drv.h ****                                                       uint32_t ipcReleaseMask, uint32_t ipcAcquireM
 419:Generated_Source\PSoC6\pdl\drivers\peripheral\ipc/cy_ipc_drv.h **** __STATIC_INLINE uint32_t Cy_IPC_Drv_GetInterruptMask (IPC_INTR_STRUCT_Type const * base);
 420:Generated_Source\PSoC6\pdl\drivers\peripheral\ipc/cy_ipc_drv.h **** __STATIC_INLINE uint32_t Cy_IPC_Drv_GetInterruptStatusMasked (IPC_INTR_STRUCT_Type const * base);
 421:Generated_Source\PSoC6\pdl\drivers\peripheral\ipc/cy_ipc_drv.h **** __STATIC_INLINE uint32_t Cy_IPC_Drv_GetInterruptStatus (IPC_INTR_STRUCT_Type const * base);
 422:Generated_Source\PSoC6\pdl\drivers\peripheral\ipc/cy_ipc_drv.h **** __STATIC_INLINE void     Cy_IPC_Drv_SetInterrupt (IPC_INTR_STRUCT_Type * base,
 423:Generated_Source\PSoC6\pdl\drivers\peripheral\ipc/cy_ipc_drv.h ****                                                       uint32_t ipcReleaseMask, uint32_t ipcAcquireM
 424:Generated_Source\PSoC6\pdl\drivers\peripheral\ipc/cy_ipc_drv.h **** __STATIC_INLINE void     Cy_IPC_Drv_ClearInterrupt (IPC_INTR_STRUCT_Type * base,
 425:Generated_Source\PSoC6\pdl\drivers\peripheral\ipc/cy_ipc_drv.h ****                                                       uint32_t ipcReleaseMask, uint32_t ipcAcquireM
 426:Generated_Source\PSoC6\pdl\drivers\peripheral\ipc/cy_ipc_drv.h **** 
 427:Generated_Source\PSoC6\pdl\drivers\peripheral\ipc/cy_ipc_drv.h **** 
 428:Generated_Source\PSoC6\pdl\drivers\peripheral\ipc/cy_ipc_drv.h **** /*******************************************************************************
 429:Generated_Source\PSoC6\pdl\drivers\peripheral\ipc/cy_ipc_drv.h **** * Function Name: Cy_IPC_Drv_GetIpcBaseAddress
ARM GAS  C:\Users\cmila\AppData\Local\Temp\ccIE2zG5.s 			page 12


 430:Generated_Source\PSoC6\pdl\drivers\peripheral\ipc/cy_ipc_drv.h **** ****************************************************************************//**
 431:Generated_Source\PSoC6\pdl\drivers\peripheral\ipc/cy_ipc_drv.h **** *
 432:Generated_Source\PSoC6\pdl\drivers\peripheral\ipc/cy_ipc_drv.h **** * This function takes an IPC channel index as a parameter and returns the base
 433:Generated_Source\PSoC6\pdl\drivers\peripheral\ipc/cy_ipc_drv.h **** * address the IPC registers corresponding to the IPC channel.
 434:Generated_Source\PSoC6\pdl\drivers\peripheral\ipc/cy_ipc_drv.h **** *
 435:Generated_Source\PSoC6\pdl\drivers\peripheral\ipc/cy_ipc_drv.h **** * \note The user is responsible for ensuring that ipcIndex does not exceed the
 436:Generated_Source\PSoC6\pdl\drivers\peripheral\ipc/cy_ipc_drv.h **** * limits.
 437:Generated_Source\PSoC6\pdl\drivers\peripheral\ipc/cy_ipc_drv.h **** *
 438:Generated_Source\PSoC6\pdl\drivers\peripheral\ipc/cy_ipc_drv.h **** * \param ipcIndex
 439:Generated_Source\PSoC6\pdl\drivers\peripheral\ipc/cy_ipc_drv.h **** * Represents the number of IPC structure. This is converted to the base address of
 440:Generated_Source\PSoC6\pdl\drivers\peripheral\ipc/cy_ipc_drv.h **** * the IPC channel registers.
 441:Generated_Source\PSoC6\pdl\drivers\peripheral\ipc/cy_ipc_drv.h **** *
 442:Generated_Source\PSoC6\pdl\drivers\peripheral\ipc/cy_ipc_drv.h **** * \return
 443:Generated_Source\PSoC6\pdl\drivers\peripheral\ipc/cy_ipc_drv.h **** * Returns a pointer to the base of the IPC registers.
 444:Generated_Source\PSoC6\pdl\drivers\peripheral\ipc/cy_ipc_drv.h **** *
 445:Generated_Source\PSoC6\pdl\drivers\peripheral\ipc/cy_ipc_drv.h **** * \funcusage
 446:Generated_Source\PSoC6\pdl\drivers\peripheral\ipc/cy_ipc_drv.h **** * \snippet IPC_sut_01.cydsn/main_cm4.c snippet_Cy_IPC_Drv_SendMsgWord
 447:Generated_Source\PSoC6\pdl\drivers\peripheral\ipc/cy_ipc_drv.h **** *
 448:Generated_Source\PSoC6\pdl\drivers\peripheral\ipc/cy_ipc_drv.h **** *******************************************************************************/
 449:Generated_Source\PSoC6\pdl\drivers\peripheral\ipc/cy_ipc_drv.h **** __STATIC_INLINE IPC_STRUCT_Type* Cy_IPC_Drv_GetIpcBaseAddress (uint32_t ipcIndex)
 450:Generated_Source\PSoC6\pdl\drivers\peripheral\ipc/cy_ipc_drv.h **** {
 451:Generated_Source\PSoC6\pdl\drivers\peripheral\ipc/cy_ipc_drv.h ****     CY_ASSERT_L1(CY_IPC_CHANNELS > ipcIndex);
 452:Generated_Source\PSoC6\pdl\drivers\peripheral\ipc/cy_ipc_drv.h ****     return ( (IPC_STRUCT_Type*) CY_IPC_STRUCT_PTR(ipcIndex));
  62              		.loc 2 452 0
  63 001a B1F8B030 		ldrh	r3, [r1, #176]
  64 001e 0D6A     		ldr	r5, [r1, #32]
  65              	.LBE23:
  66              	.LBE22:
 137:Generated_Source\PSoC6\pdl\drivers\peripheral\ipc/cy_ipc_sema.c ****             {
 138:Generated_Source\PSoC6\pdl\drivers\peripheral\ipc/cy_ipc_sema.c ****                 cy_semaIpcStruct = Cy_IPC_Drv_GetIpcBaseAddress(ipcChannel);
  67              		.loc 1 138 0
  68 0020 0E4E     		ldr	r6, .L9+4
  69              	.LBB25:
  70              	.LBB24:
  71              		.loc 2 452 0
  72 0022 00FB0355 		mla	r5, r0, r3, r5
  73              	.LVL3:
  74              	.LBE24:
  75              	.LBE25:
 139:Generated_Source\PSoC6\pdl\drivers\peripheral\ipc/cy_ipc_sema.c **** 
 140:Generated_Source\PSoC6\pdl\drivers\peripheral\ipc/cy_ipc_sema.c ****                 /* Initialize all semaphores to released */
 141:Generated_Source\PSoC6\pdl\drivers\peripheral\ipc/cy_ipc_sema.c ****                 (void)memset(ipcSema->arrayPtr, 0, (ipcSema->maxSema /8u));
  76              		.loc 1 141 0
  77 0026 D208     		lsrs	r2, r2, #3
  78 0028 3946     		mov	r1, r7
  79 002a 6068     		ldr	r0, [r4, #4]
  80              	.LVL4:
 138:Generated_Source\PSoC6\pdl\drivers\peripheral\ipc/cy_ipc_sema.c **** 
  81              		.loc 1 138 0
  82 002c 3560     		str	r5, [r6]
  83              		.loc 1 141 0
  84 002e FFF7FEFF 		bl	memset
  85              	.LVL5:
 142:Generated_Source\PSoC6\pdl\drivers\peripheral\ipc/cy_ipc_sema.c **** 
 143:Generated_Source\PSoC6\pdl\drivers\peripheral\ipc/cy_ipc_sema.c ****                 /* Make sure semaphores start out released.  */
 144:Generated_Source\PSoC6\pdl\drivers\peripheral\ipc/cy_ipc_sema.c ****                 /* Ignore the return value since it is OK if it was already released. */
 145:Generated_Source\PSoC6\pdl\drivers\peripheral\ipc/cy_ipc_sema.c ****                 (void) Cy_IPC_Drv_LockRelease (cy_semaIpcStruct, CY_IPC_NO_NOTIFICATION);
ARM GAS  C:\Users\cmila\AppData\Local\Temp\ccIE2zG5.s 			page 13


  86              		.loc 1 145 0
  87 0032 3946     		mov	r1, r7
  88 0034 2846     		mov	r0, r5
  89 0036 FFF7FEFF 		bl	Cy_IPC_Drv_LockRelease
  90              	.LVL6:
  91              	.LBB26:
  92              	.LBB27:
 453:Generated_Source\PSoC6\pdl\drivers\peripheral\ipc/cy_ipc_drv.h **** }
 454:Generated_Source\PSoC6\pdl\drivers\peripheral\ipc/cy_ipc_drv.h **** 
 455:Generated_Source\PSoC6\pdl\drivers\peripheral\ipc/cy_ipc_drv.h **** 
 456:Generated_Source\PSoC6\pdl\drivers\peripheral\ipc/cy_ipc_drv.h **** /*******************************************************************************
 457:Generated_Source\PSoC6\pdl\drivers\peripheral\ipc/cy_ipc_drv.h **** * Function Name: Cy_IPC_Drv_GetIntrBaseAddr
 458:Generated_Source\PSoC6\pdl\drivers\peripheral\ipc/cy_ipc_drv.h **** ****************************************************************************//**
 459:Generated_Source\PSoC6\pdl\drivers\peripheral\ipc/cy_ipc_drv.h **** *
 460:Generated_Source\PSoC6\pdl\drivers\peripheral\ipc/cy_ipc_drv.h **** * This function takes an IPC interrupt structure index and returns the base
 461:Generated_Source\PSoC6\pdl\drivers\peripheral\ipc/cy_ipc_drv.h **** * address of the IPC interrupt registers corresponding to the IPC Interrupt.
 462:Generated_Source\PSoC6\pdl\drivers\peripheral\ipc/cy_ipc_drv.h **** *
 463:Generated_Source\PSoC6\pdl\drivers\peripheral\ipc/cy_ipc_drv.h **** * \note The user is responsible for ensuring that ipcIntrIndex does not exceed the
 464:Generated_Source\PSoC6\pdl\drivers\peripheral\ipc/cy_ipc_drv.h **** * limits.
 465:Generated_Source\PSoC6\pdl\drivers\peripheral\ipc/cy_ipc_drv.h **** *
 466:Generated_Source\PSoC6\pdl\drivers\peripheral\ipc/cy_ipc_drv.h **** * \param ipcIntrIndex
 467:Generated_Source\PSoC6\pdl\drivers\peripheral\ipc/cy_ipc_drv.h **** * Represents the number of IPC interrupt structure. This is converted to the
 468:Generated_Source\PSoC6\pdl\drivers\peripheral\ipc/cy_ipc_drv.h **** * base address of the IPC interrupt registers.
 469:Generated_Source\PSoC6\pdl\drivers\peripheral\ipc/cy_ipc_drv.h **** *
 470:Generated_Source\PSoC6\pdl\drivers\peripheral\ipc/cy_ipc_drv.h **** * \return
 471:Generated_Source\PSoC6\pdl\drivers\peripheral\ipc/cy_ipc_drv.h **** * Returns a pointer to the base of the IPC interrupt registers.
 472:Generated_Source\PSoC6\pdl\drivers\peripheral\ipc/cy_ipc_drv.h **** *
 473:Generated_Source\PSoC6\pdl\drivers\peripheral\ipc/cy_ipc_drv.h **** * \funcusage
 474:Generated_Source\PSoC6\pdl\drivers\peripheral\ipc/cy_ipc_drv.h **** * \snippet IPC_sut_01.cydsn/main_cm4.c snippet_Cy_IPC_Drv_GetInterruptStatus
 475:Generated_Source\PSoC6\pdl\drivers\peripheral\ipc/cy_ipc_drv.h **** *
 476:Generated_Source\PSoC6\pdl\drivers\peripheral\ipc/cy_ipc_drv.h **** *******************************************************************************/
 477:Generated_Source\PSoC6\pdl\drivers\peripheral\ipc/cy_ipc_drv.h **** __STATIC_INLINE IPC_INTR_STRUCT_Type* Cy_IPC_Drv_GetIntrBaseAddr (uint32_t ipcIntrIndex)
 478:Generated_Source\PSoC6\pdl\drivers\peripheral\ipc/cy_ipc_drv.h **** {
 479:Generated_Source\PSoC6\pdl\drivers\peripheral\ipc/cy_ipc_drv.h ****     CY_ASSERT_L1(CY_IPC_INTERRUPTS > ipcIntrIndex);
 480:Generated_Source\PSoC6\pdl\drivers\peripheral\ipc/cy_ipc_drv.h ****     return ( (IPC_INTR_STRUCT_Type*) &(((IPC_Type *)cy_device->ipcBase)->INTR_STRUCT[ipcIntrIndex])
 481:Generated_Source\PSoC6\pdl\drivers\peripheral\ipc/cy_ipc_drv.h **** }
 482:Generated_Source\PSoC6\pdl\drivers\peripheral\ipc/cy_ipc_drv.h **** 
 483:Generated_Source\PSoC6\pdl\drivers\peripheral\ipc/cy_ipc_drv.h **** 
 484:Generated_Source\PSoC6\pdl\drivers\peripheral\ipc/cy_ipc_drv.h **** /*******************************************************************************
 485:Generated_Source\PSoC6\pdl\drivers\peripheral\ipc/cy_ipc_drv.h **** * Function Name: Cy_IPC_Drv_SetInterruptMask
 486:Generated_Source\PSoC6\pdl\drivers\peripheral\ipc/cy_ipc_drv.h **** ****************************************************************************//**
 487:Generated_Source\PSoC6\pdl\drivers\peripheral\ipc/cy_ipc_drv.h **** *
 488:Generated_Source\PSoC6\pdl\drivers\peripheral\ipc/cy_ipc_drv.h **** * This function is used to set the interrupt mask for an IPC Interrupt.
 489:Generated_Source\PSoC6\pdl\drivers\peripheral\ipc/cy_ipc_drv.h **** * The mask sets release or acquire notification events for all IPC channels.
 490:Generated_Source\PSoC6\pdl\drivers\peripheral\ipc/cy_ipc_drv.h **** *
 491:Generated_Source\PSoC6\pdl\drivers\peripheral\ipc/cy_ipc_drv.h **** * \param base
 492:Generated_Source\PSoC6\pdl\drivers\peripheral\ipc/cy_ipc_drv.h **** * This is a handle to the IPC interrupt. This handle can be calculated from the
 493:Generated_Source\PSoC6\pdl\drivers\peripheral\ipc/cy_ipc_drv.h **** * IPC interrupt number using \ref Cy_IPC_Drv_GetIntrBaseAddr.
 494:Generated_Source\PSoC6\pdl\drivers\peripheral\ipc/cy_ipc_drv.h **** *
 495:Generated_Source\PSoC6\pdl\drivers\peripheral\ipc/cy_ipc_drv.h **** * \param ipcReleaseMask
 496:Generated_Source\PSoC6\pdl\drivers\peripheral\ipc/cy_ipc_drv.h **** * An encoded list of all IPC channels that can trigger the interrupt on a
 497:Generated_Source\PSoC6\pdl\drivers\peripheral\ipc/cy_ipc_drv.h **** * release event.
 498:Generated_Source\PSoC6\pdl\drivers\peripheral\ipc/cy_ipc_drv.h **** *
 499:Generated_Source\PSoC6\pdl\drivers\peripheral\ipc/cy_ipc_drv.h **** * \param ipcAcquireMask
 500:Generated_Source\PSoC6\pdl\drivers\peripheral\ipc/cy_ipc_drv.h **** * An encoded list of all IPC channels that can trigger the interrupt on a
 501:Generated_Source\PSoC6\pdl\drivers\peripheral\ipc/cy_ipc_drv.h **** * notify event.
 502:Generated_Source\PSoC6\pdl\drivers\peripheral\ipc/cy_ipc_drv.h **** *
ARM GAS  C:\Users\cmila\AppData\Local\Temp\ccIE2zG5.s 			page 14


 503:Generated_Source\PSoC6\pdl\drivers\peripheral\ipc/cy_ipc_drv.h **** * \funcusage
 504:Generated_Source\PSoC6\pdl\drivers\peripheral\ipc/cy_ipc_drv.h **** * \snippet IPC_sut_01.cydsn/main_cm4.c snippet_Cy_IPC_Drv_GetInterruptStatusMasked
 505:Generated_Source\PSoC6\pdl\drivers\peripheral\ipc/cy_ipc_drv.h **** *
 506:Generated_Source\PSoC6\pdl\drivers\peripheral\ipc/cy_ipc_drv.h **** *******************************************************************************/
 507:Generated_Source\PSoC6\pdl\drivers\peripheral\ipc/cy_ipc_drv.h **** __STATIC_INLINE void  Cy_IPC_Drv_SetInterruptMask (IPC_INTR_STRUCT_Type* base,
 508:Generated_Source\PSoC6\pdl\drivers\peripheral\ipc/cy_ipc_drv.h ****                                               uint32_t ipcReleaseMask, uint32_t ipcAcquireMask)
 509:Generated_Source\PSoC6\pdl\drivers\peripheral\ipc/cy_ipc_drv.h **** {
 510:Generated_Source\PSoC6\pdl\drivers\peripheral\ipc/cy_ipc_drv.h ****     CY_ASSERT_L1(0ul == (ipcAcquireMask & ~(uint32_t)(IPC_STRUCT_NOTIFY_INTR_NOTIFY_Msk)));
 511:Generated_Source\PSoC6\pdl\drivers\peripheral\ipc/cy_ipc_drv.h ****     CY_ASSERT_L1(0ul == (ipcReleaseMask & ~(uint32_t)(IPC_STRUCT_RELEASE_INTR_RELEASE_Msk)));
 512:Generated_Source\PSoC6\pdl\drivers\peripheral\ipc/cy_ipc_drv.h ****     REG_IPC_INTR_STRUCT_INTR_MASK(base) = _VAL2FLD( IPC_INTR_STRUCT_INTR_MASK_NOTIFY,  ipcAcquireMa
 513:Generated_Source\PSoC6\pdl\drivers\peripheral\ipc/cy_ipc_drv.h ****                       _VAL2FLD( IPC_INTR_STRUCT_INTR_MASK_RELEASE, ipcReleaseMask);
 514:Generated_Source\PSoC6\pdl\drivers\peripheral\ipc/cy_ipc_drv.h **** }
 515:Generated_Source\PSoC6\pdl\drivers\peripheral\ipc/cy_ipc_drv.h **** 
 516:Generated_Source\PSoC6\pdl\drivers\peripheral\ipc/cy_ipc_drv.h **** 
 517:Generated_Source\PSoC6\pdl\drivers\peripheral\ipc/cy_ipc_drv.h **** /*******************************************************************************
 518:Generated_Source\PSoC6\pdl\drivers\peripheral\ipc/cy_ipc_drv.h **** * Function Name: Cy_IPC_Drv_GetInterruptMask
 519:Generated_Source\PSoC6\pdl\drivers\peripheral\ipc/cy_ipc_drv.h **** ****************************************************************************//**
 520:Generated_Source\PSoC6\pdl\drivers\peripheral\ipc/cy_ipc_drv.h **** *
 521:Generated_Source\PSoC6\pdl\drivers\peripheral\ipc/cy_ipc_drv.h **** * This function is used to read the interrupt mask.
 522:Generated_Source\PSoC6\pdl\drivers\peripheral\ipc/cy_ipc_drv.h **** *
 523:Generated_Source\PSoC6\pdl\drivers\peripheral\ipc/cy_ipc_drv.h **** * \param base
 524:Generated_Source\PSoC6\pdl\drivers\peripheral\ipc/cy_ipc_drv.h **** * This is a handle to the IPC interrupt. This handle can be calculated from
 525:Generated_Source\PSoC6\pdl\drivers\peripheral\ipc/cy_ipc_drv.h **** * the IPC interrupt number using \ref Cy_IPC_Drv_GetIntrBaseAddr.
 526:Generated_Source\PSoC6\pdl\drivers\peripheral\ipc/cy_ipc_drv.h **** *
 527:Generated_Source\PSoC6\pdl\drivers\peripheral\ipc/cy_ipc_drv.h **** * \return
 528:Generated_Source\PSoC6\pdl\drivers\peripheral\ipc/cy_ipc_drv.h **** *   The return value is encoded as follows
 529:Generated_Source\PSoC6\pdl\drivers\peripheral\ipc/cy_ipc_drv.h **** *   <table>
 530:Generated_Source\PSoC6\pdl\drivers\peripheral\ipc/cy_ipc_drv.h **** *   <tr><th>Interrupt sources   <th>Value
 531:Generated_Source\PSoC6\pdl\drivers\peripheral\ipc/cy_ipc_drv.h **** *   <tr><td>Ipc_PORTX_RELEASE   <td>Xth bit set
 532:Generated_Source\PSoC6\pdl\drivers\peripheral\ipc/cy_ipc_drv.h **** *   <tr><td>Ipc_PORTX_NOTIFY    <td>X+16th bit set
 533:Generated_Source\PSoC6\pdl\drivers\peripheral\ipc/cy_ipc_drv.h **** *   </table>
 534:Generated_Source\PSoC6\pdl\drivers\peripheral\ipc/cy_ipc_drv.h **** *
 535:Generated_Source\PSoC6\pdl\drivers\peripheral\ipc/cy_ipc_drv.h **** * \funcusage
 536:Generated_Source\PSoC6\pdl\drivers\peripheral\ipc/cy_ipc_drv.h **** * \snippet IPC_sut_01.cydsn/main_cm4.c snippet_Cy_IPC_Drv_GetInterruptStatusMasked
 537:Generated_Source\PSoC6\pdl\drivers\peripheral\ipc/cy_ipc_drv.h **** *
 538:Generated_Source\PSoC6\pdl\drivers\peripheral\ipc/cy_ipc_drv.h **** *******************************************************************************/
 539:Generated_Source\PSoC6\pdl\drivers\peripheral\ipc/cy_ipc_drv.h **** __STATIC_INLINE uint32_t Cy_IPC_Drv_GetInterruptMask(IPC_INTR_STRUCT_Type const * base)
 540:Generated_Source\PSoC6\pdl\drivers\peripheral\ipc/cy_ipc_drv.h **** {
 541:Generated_Source\PSoC6\pdl\drivers\peripheral\ipc/cy_ipc_drv.h ****     return REG_IPC_INTR_STRUCT_INTR_MASK(base);
 542:Generated_Source\PSoC6\pdl\drivers\peripheral\ipc/cy_ipc_drv.h **** }
 543:Generated_Source\PSoC6\pdl\drivers\peripheral\ipc/cy_ipc_drv.h **** 
 544:Generated_Source\PSoC6\pdl\drivers\peripheral\ipc/cy_ipc_drv.h **** 
 545:Generated_Source\PSoC6\pdl\drivers\peripheral\ipc/cy_ipc_drv.h **** /*******************************************************************************
 546:Generated_Source\PSoC6\pdl\drivers\peripheral\ipc/cy_ipc_drv.h **** * Function Name: Cy_IPC_Drv_GetInterruptStatusMasked
 547:Generated_Source\PSoC6\pdl\drivers\peripheral\ipc/cy_ipc_drv.h **** ****************************************************************************//**
 548:Generated_Source\PSoC6\pdl\drivers\peripheral\ipc/cy_ipc_drv.h **** *
 549:Generated_Source\PSoC6\pdl\drivers\peripheral\ipc/cy_ipc_drv.h **** * This function is used to read the active unmasked interrupt. This function
 550:Generated_Source\PSoC6\pdl\drivers\peripheral\ipc/cy_ipc_drv.h **** * can be used in the interrupt service routine to find which source triggered
 551:Generated_Source\PSoC6\pdl\drivers\peripheral\ipc/cy_ipc_drv.h **** * the interrupt.
 552:Generated_Source\PSoC6\pdl\drivers\peripheral\ipc/cy_ipc_drv.h **** *
 553:Generated_Source\PSoC6\pdl\drivers\peripheral\ipc/cy_ipc_drv.h **** * \param base
 554:Generated_Source\PSoC6\pdl\drivers\peripheral\ipc/cy_ipc_drv.h **** * This is a handle to the IPC interrupt. This handle can be calculated from the
 555:Generated_Source\PSoC6\pdl\drivers\peripheral\ipc/cy_ipc_drv.h **** * IPC interrupt number using \ref Cy_IPC_Drv_GetIntrBaseAddr.
 556:Generated_Source\PSoC6\pdl\drivers\peripheral\ipc/cy_ipc_drv.h **** *
 557:Generated_Source\PSoC6\pdl\drivers\peripheral\ipc/cy_ipc_drv.h **** * \return
 558:Generated_Source\PSoC6\pdl\drivers\peripheral\ipc/cy_ipc_drv.h **** *   The return value is encoded as follows
 559:Generated_Source\PSoC6\pdl\drivers\peripheral\ipc/cy_ipc_drv.h **** *   <table>
ARM GAS  C:\Users\cmila\AppData\Local\Temp\ccIE2zG5.s 			page 15


 560:Generated_Source\PSoC6\pdl\drivers\peripheral\ipc/cy_ipc_drv.h **** *   <tr><th>Interrupt sources   <th>Value
 561:Generated_Source\PSoC6\pdl\drivers\peripheral\ipc/cy_ipc_drv.h **** *   <tr><td>Ipc_PORTX_RELEASE   <td>Xth bit set
 562:Generated_Source\PSoC6\pdl\drivers\peripheral\ipc/cy_ipc_drv.h **** *   <tr><td>Ipc_PORTX_NOTIFY    <td>X+16th bit set
 563:Generated_Source\PSoC6\pdl\drivers\peripheral\ipc/cy_ipc_drv.h **** *   </table>
 564:Generated_Source\PSoC6\pdl\drivers\peripheral\ipc/cy_ipc_drv.h **** *
 565:Generated_Source\PSoC6\pdl\drivers\peripheral\ipc/cy_ipc_drv.h **** * \funcusage
 566:Generated_Source\PSoC6\pdl\drivers\peripheral\ipc/cy_ipc_drv.h **** * \snippet IPC_sut_01.cydsn/main_cm4.c snippet_Cy_IPC_Drv_GetInterruptStatusMasked
 567:Generated_Source\PSoC6\pdl\drivers\peripheral\ipc/cy_ipc_drv.h **** *
 568:Generated_Source\PSoC6\pdl\drivers\peripheral\ipc/cy_ipc_drv.h **** *******************************************************************************/
 569:Generated_Source\PSoC6\pdl\drivers\peripheral\ipc/cy_ipc_drv.h **** __STATIC_INLINE uint32_t Cy_IPC_Drv_GetInterruptStatusMasked (IPC_INTR_STRUCT_Type const * base)
 570:Generated_Source\PSoC6\pdl\drivers\peripheral\ipc/cy_ipc_drv.h **** {
 571:Generated_Source\PSoC6\pdl\drivers\peripheral\ipc/cy_ipc_drv.h ****     return REG_IPC_INTR_STRUCT_INTR_MASKED(base);
 572:Generated_Source\PSoC6\pdl\drivers\peripheral\ipc/cy_ipc_drv.h **** }
 573:Generated_Source\PSoC6\pdl\drivers\peripheral\ipc/cy_ipc_drv.h **** 
 574:Generated_Source\PSoC6\pdl\drivers\peripheral\ipc/cy_ipc_drv.h **** 
 575:Generated_Source\PSoC6\pdl\drivers\peripheral\ipc/cy_ipc_drv.h **** /*******************************************************************************
 576:Generated_Source\PSoC6\pdl\drivers\peripheral\ipc/cy_ipc_drv.h **** * Function Name: Cy_IPC_Drv_GetInterruptStatus
 577:Generated_Source\PSoC6\pdl\drivers\peripheral\ipc/cy_ipc_drv.h **** ****************************************************************************//**
 578:Generated_Source\PSoC6\pdl\drivers\peripheral\ipc/cy_ipc_drv.h **** *
 579:Generated_Source\PSoC6\pdl\drivers\peripheral\ipc/cy_ipc_drv.h **** * This function is used to read the pending interrupts. Note that this read is
 580:Generated_Source\PSoC6\pdl\drivers\peripheral\ipc/cy_ipc_drv.h **** * an unmasked read of the interrupt status. Interrupt sources read as active by
 581:Generated_Source\PSoC6\pdl\drivers\peripheral\ipc/cy_ipc_drv.h **** * this function would generate interrupts only if they were not masked.
 582:Generated_Source\PSoC6\pdl\drivers\peripheral\ipc/cy_ipc_drv.h **** *
 583:Generated_Source\PSoC6\pdl\drivers\peripheral\ipc/cy_ipc_drv.h **** * \param base
 584:Generated_Source\PSoC6\pdl\drivers\peripheral\ipc/cy_ipc_drv.h **** * This is a handle to the IPC interrupt. This handle can be calculated from the
 585:Generated_Source\PSoC6\pdl\drivers\peripheral\ipc/cy_ipc_drv.h **** * IPC interrupt number using \ref Cy_IPC_Drv_GetIntrBaseAddr.
 586:Generated_Source\PSoC6\pdl\drivers\peripheral\ipc/cy_ipc_drv.h **** *
 587:Generated_Source\PSoC6\pdl\drivers\peripheral\ipc/cy_ipc_drv.h **** * \return
 588:Generated_Source\PSoC6\pdl\drivers\peripheral\ipc/cy_ipc_drv.h **** *   The return value is encoded as follows
 589:Generated_Source\PSoC6\pdl\drivers\peripheral\ipc/cy_ipc_drv.h **** *   <table>
 590:Generated_Source\PSoC6\pdl\drivers\peripheral\ipc/cy_ipc_drv.h **** *   <tr><th>Interrupt sources   <th>Value
 591:Generated_Source\PSoC6\pdl\drivers\peripheral\ipc/cy_ipc_drv.h **** *   <tr><td>Ipc_PORTX_RELEASE   <td>Xth bit set
 592:Generated_Source\PSoC6\pdl\drivers\peripheral\ipc/cy_ipc_drv.h **** *   <tr><td>Ipc_PORTX_NOTIFY    <td>X+16th bit set
 593:Generated_Source\PSoC6\pdl\drivers\peripheral\ipc/cy_ipc_drv.h **** *   </table>
 594:Generated_Source\PSoC6\pdl\drivers\peripheral\ipc/cy_ipc_drv.h **** *
 595:Generated_Source\PSoC6\pdl\drivers\peripheral\ipc/cy_ipc_drv.h **** * \funcusage
 596:Generated_Source\PSoC6\pdl\drivers\peripheral\ipc/cy_ipc_drv.h **** * \snippet IPC_sut_01.cydsn/main_cm4.c snippet_Cy_IPC_Drv_GetInterruptStatus
 597:Generated_Source\PSoC6\pdl\drivers\peripheral\ipc/cy_ipc_drv.h **** *
 598:Generated_Source\PSoC6\pdl\drivers\peripheral\ipc/cy_ipc_drv.h **** *******************************************************************************/
 599:Generated_Source\PSoC6\pdl\drivers\peripheral\ipc/cy_ipc_drv.h **** __STATIC_INLINE uint32_t Cy_IPC_Drv_GetInterruptStatus(IPC_INTR_STRUCT_Type const * base)
 600:Generated_Source\PSoC6\pdl\drivers\peripheral\ipc/cy_ipc_drv.h **** {
 601:Generated_Source\PSoC6\pdl\drivers\peripheral\ipc/cy_ipc_drv.h ****     return REG_IPC_INTR_STRUCT_INTR(base);
 602:Generated_Source\PSoC6\pdl\drivers\peripheral\ipc/cy_ipc_drv.h **** }
 603:Generated_Source\PSoC6\pdl\drivers\peripheral\ipc/cy_ipc_drv.h **** 
 604:Generated_Source\PSoC6\pdl\drivers\peripheral\ipc/cy_ipc_drv.h **** 
 605:Generated_Source\PSoC6\pdl\drivers\peripheral\ipc/cy_ipc_drv.h **** /*******************************************************************************
 606:Generated_Source\PSoC6\pdl\drivers\peripheral\ipc/cy_ipc_drv.h **** * Function Name: Cy_IPC_Drv_SetInterrupt
 607:Generated_Source\PSoC6\pdl\drivers\peripheral\ipc/cy_ipc_drv.h **** ****************************************************************************//**
 608:Generated_Source\PSoC6\pdl\drivers\peripheral\ipc/cy_ipc_drv.h **** *
 609:Generated_Source\PSoC6\pdl\drivers\peripheral\ipc/cy_ipc_drv.h **** * This function is used to set the interrupt source. This function can be used
 610:Generated_Source\PSoC6\pdl\drivers\peripheral\ipc/cy_ipc_drv.h **** * to activate interrupts through software.
 611:Generated_Source\PSoC6\pdl\drivers\peripheral\ipc/cy_ipc_drv.h **** * \note That interrupt sources set using this interrupt would generate interrupts
 612:Generated_Source\PSoC6\pdl\drivers\peripheral\ipc/cy_ipc_drv.h **** * only if they are not masked.
 613:Generated_Source\PSoC6\pdl\drivers\peripheral\ipc/cy_ipc_drv.h **** *
 614:Generated_Source\PSoC6\pdl\drivers\peripheral\ipc/cy_ipc_drv.h **** * \param base
 615:Generated_Source\PSoC6\pdl\drivers\peripheral\ipc/cy_ipc_drv.h **** * This is a handle to the IPC interrupt. This handle can be calculated from the
 616:Generated_Source\PSoC6\pdl\drivers\peripheral\ipc/cy_ipc_drv.h **** * IPC interrupt number using \ref Cy_IPC_Drv_GetIntrBaseAddr.
ARM GAS  C:\Users\cmila\AppData\Local\Temp\ccIE2zG5.s 			page 16


 617:Generated_Source\PSoC6\pdl\drivers\peripheral\ipc/cy_ipc_drv.h **** *
 618:Generated_Source\PSoC6\pdl\drivers\peripheral\ipc/cy_ipc_drv.h **** * \param ipcReleaseMask
 619:Generated_Source\PSoC6\pdl\drivers\peripheral\ipc/cy_ipc_drv.h **** * An encoded list of all IPC channels that can trigger the interrupt on a
 620:Generated_Source\PSoC6\pdl\drivers\peripheral\ipc/cy_ipc_drv.h **** * release event.
 621:Generated_Source\PSoC6\pdl\drivers\peripheral\ipc/cy_ipc_drv.h **** *
 622:Generated_Source\PSoC6\pdl\drivers\peripheral\ipc/cy_ipc_drv.h **** * \param ipcAcquireMask
 623:Generated_Source\PSoC6\pdl\drivers\peripheral\ipc/cy_ipc_drv.h **** * An encoded list of all IPC channels that can trigger the interrupt on a
 624:Generated_Source\PSoC6\pdl\drivers\peripheral\ipc/cy_ipc_drv.h **** * notify event.
 625:Generated_Source\PSoC6\pdl\drivers\peripheral\ipc/cy_ipc_drv.h **** *
 626:Generated_Source\PSoC6\pdl\drivers\peripheral\ipc/cy_ipc_drv.h **** * \funcusage
 627:Generated_Source\PSoC6\pdl\drivers\peripheral\ipc/cy_ipc_drv.h **** * \snippet IPC_sut_01.cydsn/main_cm4.c snippet_Cy_IPC_Drv_SetInterrupt
 628:Generated_Source\PSoC6\pdl\drivers\peripheral\ipc/cy_ipc_drv.h **** *
 629:Generated_Source\PSoC6\pdl\drivers\peripheral\ipc/cy_ipc_drv.h **** *******************************************************************************/
 630:Generated_Source\PSoC6\pdl\drivers\peripheral\ipc/cy_ipc_drv.h **** __STATIC_INLINE void  Cy_IPC_Drv_SetInterrupt(IPC_INTR_STRUCT_Type* base, uint32_t ipcReleaseMask, 
 631:Generated_Source\PSoC6\pdl\drivers\peripheral\ipc/cy_ipc_drv.h **** {
 632:Generated_Source\PSoC6\pdl\drivers\peripheral\ipc/cy_ipc_drv.h ****     CY_ASSERT_L1(0ul == (ipcAcquireMask  & ~(uint32_t)(IPC_STRUCT_NOTIFY_INTR_NOTIFY_Msk)));
 633:Generated_Source\PSoC6\pdl\drivers\peripheral\ipc/cy_ipc_drv.h ****     CY_ASSERT_L1(0ul == (ipcReleaseMask & ~(uint32_t)(IPC_STRUCT_RELEASE_INTR_RELEASE_Msk)));
 634:Generated_Source\PSoC6\pdl\drivers\peripheral\ipc/cy_ipc_drv.h ****     REG_IPC_INTR_STRUCT_INTR_SET(base) =  _VAL2FLD( IPC_INTR_STRUCT_INTR_NOTIFY,  ipcAcquireMask ) 
 635:Generated_Source\PSoC6\pdl\drivers\peripheral\ipc/cy_ipc_drv.h ****                       _VAL2FLD( IPC_INTR_STRUCT_INTR_RELEASE, ipcReleaseMask );
 636:Generated_Source\PSoC6\pdl\drivers\peripheral\ipc/cy_ipc_drv.h **** }
 637:Generated_Source\PSoC6\pdl\drivers\peripheral\ipc/cy_ipc_drv.h **** 
 638:Generated_Source\PSoC6\pdl\drivers\peripheral\ipc/cy_ipc_drv.h **** 
 639:Generated_Source\PSoC6\pdl\drivers\peripheral\ipc/cy_ipc_drv.h **** /*******************************************************************************
 640:Generated_Source\PSoC6\pdl\drivers\peripheral\ipc/cy_ipc_drv.h **** * Function Name: Cy_IPC_Drv_ClearInterrupt
 641:Generated_Source\PSoC6\pdl\drivers\peripheral\ipc/cy_ipc_drv.h **** ****************************************************************************//**
 642:Generated_Source\PSoC6\pdl\drivers\peripheral\ipc/cy_ipc_drv.h **** *
 643:Generated_Source\PSoC6\pdl\drivers\peripheral\ipc/cy_ipc_drv.h **** * This function is used to clear the interrupt source. Use this function to clear
 644:Generated_Source\PSoC6\pdl\drivers\peripheral\ipc/cy_ipc_drv.h **** * a pending interrupt source in the interrupt status.
 645:Generated_Source\PSoC6\pdl\drivers\peripheral\ipc/cy_ipc_drv.h **** *
 646:Generated_Source\PSoC6\pdl\drivers\peripheral\ipc/cy_ipc_drv.h **** * \param base
 647:Generated_Source\PSoC6\pdl\drivers\peripheral\ipc/cy_ipc_drv.h **** * This is a handle to the IPC interrupt. This handle can be calculated from the
 648:Generated_Source\PSoC6\pdl\drivers\peripheral\ipc/cy_ipc_drv.h **** * IPC interrupt number using \ref Cy_IPC_Drv_GetIntrBaseAddr.
 649:Generated_Source\PSoC6\pdl\drivers\peripheral\ipc/cy_ipc_drv.h **** *
 650:Generated_Source\PSoC6\pdl\drivers\peripheral\ipc/cy_ipc_drv.h **** * \param ipcReleaseMask
 651:Generated_Source\PSoC6\pdl\drivers\peripheral\ipc/cy_ipc_drv.h **** * An encoded list of all IPC channels that can trigger the interrupt on a
 652:Generated_Source\PSoC6\pdl\drivers\peripheral\ipc/cy_ipc_drv.h **** * release event.
 653:Generated_Source\PSoC6\pdl\drivers\peripheral\ipc/cy_ipc_drv.h **** *
 654:Generated_Source\PSoC6\pdl\drivers\peripheral\ipc/cy_ipc_drv.h **** * \param ipcAcquireMask
 655:Generated_Source\PSoC6\pdl\drivers\peripheral\ipc/cy_ipc_drv.h **** * An encoded list of all IPC channels that can trigger the interrupt on a
 656:Generated_Source\PSoC6\pdl\drivers\peripheral\ipc/cy_ipc_drv.h **** * notify event.
 657:Generated_Source\PSoC6\pdl\drivers\peripheral\ipc/cy_ipc_drv.h **** *
 658:Generated_Source\PSoC6\pdl\drivers\peripheral\ipc/cy_ipc_drv.h **** * \funcusage
 659:Generated_Source\PSoC6\pdl\drivers\peripheral\ipc/cy_ipc_drv.h **** * \snippet IPC_sut_01.cydsn/main_cm4.c snippet_Cy_IPC_Drv_GetInterruptStatusMasked
 660:Generated_Source\PSoC6\pdl\drivers\peripheral\ipc/cy_ipc_drv.h **** *
 661:Generated_Source\PSoC6\pdl\drivers\peripheral\ipc/cy_ipc_drv.h **** *******************************************************************************/
 662:Generated_Source\PSoC6\pdl\drivers\peripheral\ipc/cy_ipc_drv.h **** __STATIC_INLINE void  Cy_IPC_Drv_ClearInterrupt(IPC_INTR_STRUCT_Type* base, uint32_t ipcReleaseMask
 663:Generated_Source\PSoC6\pdl\drivers\peripheral\ipc/cy_ipc_drv.h **** {
 664:Generated_Source\PSoC6\pdl\drivers\peripheral\ipc/cy_ipc_drv.h ****     CY_ASSERT_L1(0ul == (ipcAcquireMask  & ~(uint32_t)(IPC_STRUCT_NOTIFY_INTR_NOTIFY_Msk)));
 665:Generated_Source\PSoC6\pdl\drivers\peripheral\ipc/cy_ipc_drv.h ****     CY_ASSERT_L1(0ul == (ipcReleaseMask & ~(uint32_t)(IPC_STRUCT_RELEASE_INTR_RELEASE_Msk)));
 666:Generated_Source\PSoC6\pdl\drivers\peripheral\ipc/cy_ipc_drv.h ****     REG_IPC_INTR_STRUCT_INTR(base) =  _VAL2FLD(IPC_INTR_STRUCT_INTR_NOTIFY,  ipcAcquireMask) |
 667:Generated_Source\PSoC6\pdl\drivers\peripheral\ipc/cy_ipc_drv.h ****                   _VAL2FLD(IPC_INTR_STRUCT_INTR_RELEASE, ipcReleaseMask);
 668:Generated_Source\PSoC6\pdl\drivers\peripheral\ipc/cy_ipc_drv.h ****     (void)REG_IPC_INTR_STRUCT_INTR(base);  /* Read the register to flush the cache */
 669:Generated_Source\PSoC6\pdl\drivers\peripheral\ipc/cy_ipc_drv.h **** }
 670:Generated_Source\PSoC6\pdl\drivers\peripheral\ipc/cy_ipc_drv.h **** 
 671:Generated_Source\PSoC6\pdl\drivers\peripheral\ipc/cy_ipc_drv.h **** /** \} group_ipc_functions */
 672:Generated_Source\PSoC6\pdl\drivers\peripheral\ipc/cy_ipc_drv.h **** 
 673:Generated_Source\PSoC6\pdl\drivers\peripheral\ipc/cy_ipc_drv.h **** /** \} group_ipc */
ARM GAS  C:\Users\cmila\AppData\Local\Temp\ccIE2zG5.s 			page 17


 674:Generated_Source\PSoC6\pdl\drivers\peripheral\ipc/cy_ipc_drv.h **** 
 675:Generated_Source\PSoC6\pdl\drivers\peripheral\ipc/cy_ipc_drv.h **** 
 676:Generated_Source\PSoC6\pdl\drivers\peripheral\ipc/cy_ipc_drv.h **** /*******************************************************************************
 677:Generated_Source\PSoC6\pdl\drivers\peripheral\ipc/cy_ipc_drv.h **** * Function Name: Cy_IPC_Drv_AcquireNotify
 678:Generated_Source\PSoC6\pdl\drivers\peripheral\ipc/cy_ipc_drv.h **** ****************************************************************************//**
 679:Generated_Source\PSoC6\pdl\drivers\peripheral\ipc/cy_ipc_drv.h **** *
 680:Generated_Source\PSoC6\pdl\drivers\peripheral\ipc/cy_ipc_drv.h **** * The function generates a acquire notification event by IPC interrupt structure.
 681:Generated_Source\PSoC6\pdl\drivers\peripheral\ipc/cy_ipc_drv.h **** *
 682:Generated_Source\PSoC6\pdl\drivers\peripheral\ipc/cy_ipc_drv.h **** * \param base
 683:Generated_Source\PSoC6\pdl\drivers\peripheral\ipc/cy_ipc_drv.h **** * This parameter is a handle that represents the base address of the registers
 684:Generated_Source\PSoC6\pdl\drivers\peripheral\ipc/cy_ipc_drv.h **** * of the IPC channel.
 685:Generated_Source\PSoC6\pdl\drivers\peripheral\ipc/cy_ipc_drv.h **** * The parameter is generally returned from a call to the \ref
 686:Generated_Source\PSoC6\pdl\drivers\peripheral\ipc/cy_ipc_drv.h **** * Cy_IPC_Drv_GetIpcBaseAddress.
 687:Generated_Source\PSoC6\pdl\drivers\peripheral\ipc/cy_ipc_drv.h **** *
 688:Generated_Source\PSoC6\pdl\drivers\peripheral\ipc/cy_ipc_drv.h **** * \param notifyEventIntr
 689:Generated_Source\PSoC6\pdl\drivers\peripheral\ipc/cy_ipc_drv.h **** * Bit encoded list of IPC interrupt structures that are triggered
 690:Generated_Source\PSoC6\pdl\drivers\peripheral\ipc/cy_ipc_drv.h **** * by a notification. Bit number correspond to number of the IPC interrupt
 691:Generated_Source\PSoC6\pdl\drivers\peripheral\ipc/cy_ipc_drv.h **** * structure.
 692:Generated_Source\PSoC6\pdl\drivers\peripheral\ipc/cy_ipc_drv.h **** *
 693:Generated_Source\PSoC6\pdl\drivers\peripheral\ipc/cy_ipc_drv.h **** * \funcusage
 694:Generated_Source\PSoC6\pdl\drivers\peripheral\ipc/cy_ipc_drv.h **** * \snippet IPC_sut_01.cydsn/main_cm4.c snippet_Cy_IPC_Drv_LockAcquire
 695:Generated_Source\PSoC6\pdl\drivers\peripheral\ipc/cy_ipc_drv.h **** *
 696:Generated_Source\PSoC6\pdl\drivers\peripheral\ipc/cy_ipc_drv.h **** *******************************************************************************/
 697:Generated_Source\PSoC6\pdl\drivers\peripheral\ipc/cy_ipc_drv.h **** __STATIC_INLINE void  Cy_IPC_Drv_AcquireNotify (IPC_STRUCT_Type* base, uint32_t notifyEventIntr)
 698:Generated_Source\PSoC6\pdl\drivers\peripheral\ipc/cy_ipc_drv.h **** {
 699:Generated_Source\PSoC6\pdl\drivers\peripheral\ipc/cy_ipc_drv.h ****     CY_ASSERT_L1(0ul == (notifyEventIntr  & ~(uint32_t)(IPC_STRUCT_NOTIFY_INTR_NOTIFY_Msk)));
 700:Generated_Source\PSoC6\pdl\drivers\peripheral\ipc/cy_ipc_drv.h ****     REG_IPC_STRUCT_NOTIFY(base) = _VAL2FLD(IPC_STRUCT_NOTIFY_INTR_NOTIFY, notifyEventIntr);
 701:Generated_Source\PSoC6\pdl\drivers\peripheral\ipc/cy_ipc_drv.h **** }
 702:Generated_Source\PSoC6\pdl\drivers\peripheral\ipc/cy_ipc_drv.h **** 
 703:Generated_Source\PSoC6\pdl\drivers\peripheral\ipc/cy_ipc_drv.h **** 
 704:Generated_Source\PSoC6\pdl\drivers\peripheral\ipc/cy_ipc_drv.h **** /*******************************************************************************
 705:Generated_Source\PSoC6\pdl\drivers\peripheral\ipc/cy_ipc_drv.h **** * Function Name: Cy_IPC_Drv_ReleaseNotify
 706:Generated_Source\PSoC6\pdl\drivers\peripheral\ipc/cy_ipc_drv.h **** ****************************************************************************//**
 707:Generated_Source\PSoC6\pdl\drivers\peripheral\ipc/cy_ipc_drv.h **** *
 708:Generated_Source\PSoC6\pdl\drivers\peripheral\ipc/cy_ipc_drv.h **** * The function generates a release notification event by IPC interrupt structure.
 709:Generated_Source\PSoC6\pdl\drivers\peripheral\ipc/cy_ipc_drv.h **** *
 710:Generated_Source\PSoC6\pdl\drivers\peripheral\ipc/cy_ipc_drv.h **** * \param base
 711:Generated_Source\PSoC6\pdl\drivers\peripheral\ipc/cy_ipc_drv.h **** * This parameter is a handle that represents the base address of the registers
 712:Generated_Source\PSoC6\pdl\drivers\peripheral\ipc/cy_ipc_drv.h **** * of the IPC channel.
 713:Generated_Source\PSoC6\pdl\drivers\peripheral\ipc/cy_ipc_drv.h **** * The parameter is generally returned from a call to the \ref
 714:Generated_Source\PSoC6\pdl\drivers\peripheral\ipc/cy_ipc_drv.h **** * Cy_IPC_Drv_GetIpcBaseAddress.
 715:Generated_Source\PSoC6\pdl\drivers\peripheral\ipc/cy_ipc_drv.h **** *
 716:Generated_Source\PSoC6\pdl\drivers\peripheral\ipc/cy_ipc_drv.h **** * \param notifyEventIntr
 717:Generated_Source\PSoC6\pdl\drivers\peripheral\ipc/cy_ipc_drv.h **** * Bit encoded list of IPC interrupt lines that are triggered by a notification.
 718:Generated_Source\PSoC6\pdl\drivers\peripheral\ipc/cy_ipc_drv.h **** *
 719:Generated_Source\PSoC6\pdl\drivers\peripheral\ipc/cy_ipc_drv.h **** * \funcusage
 720:Generated_Source\PSoC6\pdl\drivers\peripheral\ipc/cy_ipc_drv.h **** * \snippet IPC_sut_01.cydsn/main_cm4.c snippet_Cy_IPC_Drv_ReadMsgWord
 721:Generated_Source\PSoC6\pdl\drivers\peripheral\ipc/cy_ipc_drv.h **** *
 722:Generated_Source\PSoC6\pdl\drivers\peripheral\ipc/cy_ipc_drv.h **** *******************************************************************************/
 723:Generated_Source\PSoC6\pdl\drivers\peripheral\ipc/cy_ipc_drv.h **** __STATIC_INLINE void  Cy_IPC_Drv_ReleaseNotify (IPC_STRUCT_Type* base, uint32_t notifyEventIntr)
 724:Generated_Source\PSoC6\pdl\drivers\peripheral\ipc/cy_ipc_drv.h **** {
 725:Generated_Source\PSoC6\pdl\drivers\peripheral\ipc/cy_ipc_drv.h ****     CY_ASSERT_L1(0ul == (notifyEventIntr  & ~(uint32_t)(IPC_INTR_STRUCT_INTR_RELEASE_Msk)));
 726:Generated_Source\PSoC6\pdl\drivers\peripheral\ipc/cy_ipc_drv.h ****     REG_IPC_STRUCT_RELEASE(base) = _VAL2FLD(IPC_INTR_STRUCT_INTR_RELEASE, notifyEventIntr);
 727:Generated_Source\PSoC6\pdl\drivers\peripheral\ipc/cy_ipc_drv.h **** }
 728:Generated_Source\PSoC6\pdl\drivers\peripheral\ipc/cy_ipc_drv.h **** 
 729:Generated_Source\PSoC6\pdl\drivers\peripheral\ipc/cy_ipc_drv.h **** 
 730:Generated_Source\PSoC6\pdl\drivers\peripheral\ipc/cy_ipc_drv.h **** /*******************************************************************************
ARM GAS  C:\Users\cmila\AppData\Local\Temp\ccIE2zG5.s 			page 18


 731:Generated_Source\PSoC6\pdl\drivers\peripheral\ipc/cy_ipc_drv.h **** * Function Name: Cy_IPC_Drv_WriteDataValue
 732:Generated_Source\PSoC6\pdl\drivers\peripheral\ipc/cy_ipc_drv.h **** ****************************************************************************//**
 733:Generated_Source\PSoC6\pdl\drivers\peripheral\ipc/cy_ipc_drv.h **** *
 734:Generated_Source\PSoC6\pdl\drivers\peripheral\ipc/cy_ipc_drv.h **** * The function writes a value to the DATA register of the IPC channel.
 735:Generated_Source\PSoC6\pdl\drivers\peripheral\ipc/cy_ipc_drv.h **** *
 736:Generated_Source\PSoC6\pdl\drivers\peripheral\ipc/cy_ipc_drv.h **** * This function is internal and should not be called directly by user
 737:Generated_Source\PSoC6\pdl\drivers\peripheral\ipc/cy_ipc_drv.h **** * software.
 738:Generated_Source\PSoC6\pdl\drivers\peripheral\ipc/cy_ipc_drv.h **** *
 739:Generated_Source\PSoC6\pdl\drivers\peripheral\ipc/cy_ipc_drv.h **** * \param base
 740:Generated_Source\PSoC6\pdl\drivers\peripheral\ipc/cy_ipc_drv.h **** * This parameter is a handle that represents the base address of the registers
 741:Generated_Source\PSoC6\pdl\drivers\peripheral\ipc/cy_ipc_drv.h **** * of the IPC channel.
 742:Generated_Source\PSoC6\pdl\drivers\peripheral\ipc/cy_ipc_drv.h **** * The parameter is generally returned from a call to the \ref
 743:Generated_Source\PSoC6\pdl\drivers\peripheral\ipc/cy_ipc_drv.h **** * Cy_IPC_Drv_GetIpcBaseAddress.
 744:Generated_Source\PSoC6\pdl\drivers\peripheral\ipc/cy_ipc_drv.h **** *
 745:Generated_Source\PSoC6\pdl\drivers\peripheral\ipc/cy_ipc_drv.h **** * \param dataValue
 746:Generated_Source\PSoC6\pdl\drivers\peripheral\ipc/cy_ipc_drv.h **** * Value to be written.
 747:Generated_Source\PSoC6\pdl\drivers\peripheral\ipc/cy_ipc_drv.h **** *
 748:Generated_Source\PSoC6\pdl\drivers\peripheral\ipc/cy_ipc_drv.h **** *******************************************************************************/
 749:Generated_Source\PSoC6\pdl\drivers\peripheral\ipc/cy_ipc_drv.h **** __STATIC_INLINE void     Cy_IPC_Drv_WriteDataValue (IPC_STRUCT_Type* base, uint32_t dataValue)
 750:Generated_Source\PSoC6\pdl\drivers\peripheral\ipc/cy_ipc_drv.h **** {
 751:Generated_Source\PSoC6\pdl\drivers\peripheral\ipc/cy_ipc_drv.h ****     REG_IPC_STRUCT_DATA(base) = dataValue;
 752:Generated_Source\PSoC6\pdl\drivers\peripheral\ipc/cy_ipc_drv.h **** }
 753:Generated_Source\PSoC6\pdl\drivers\peripheral\ipc/cy_ipc_drv.h **** 
 754:Generated_Source\PSoC6\pdl\drivers\peripheral\ipc/cy_ipc_drv.h **** 
 755:Generated_Source\PSoC6\pdl\drivers\peripheral\ipc/cy_ipc_drv.h **** /*******************************************************************************
 756:Generated_Source\PSoC6\pdl\drivers\peripheral\ipc/cy_ipc_drv.h **** * Function Name: Cy_IPC_Drv_ReadDataValue
 757:Generated_Source\PSoC6\pdl\drivers\peripheral\ipc/cy_ipc_drv.h **** ****************************************************************************//**
 758:Generated_Source\PSoC6\pdl\drivers\peripheral\ipc/cy_ipc_drv.h **** *
 759:Generated_Source\PSoC6\pdl\drivers\peripheral\ipc/cy_ipc_drv.h **** * The function reads a value from the DATA register of the IPC channel.
 760:Generated_Source\PSoC6\pdl\drivers\peripheral\ipc/cy_ipc_drv.h **** *
 761:Generated_Source\PSoC6\pdl\drivers\peripheral\ipc/cy_ipc_drv.h **** * This function is internal and should not be called directly by user
 762:Generated_Source\PSoC6\pdl\drivers\peripheral\ipc/cy_ipc_drv.h **** * software.
 763:Generated_Source\PSoC6\pdl\drivers\peripheral\ipc/cy_ipc_drv.h **** *
 764:Generated_Source\PSoC6\pdl\drivers\peripheral\ipc/cy_ipc_drv.h **** * \param base
 765:Generated_Source\PSoC6\pdl\drivers\peripheral\ipc/cy_ipc_drv.h **** * This parameter is a handle that represents the base address of the registers
 766:Generated_Source\PSoC6\pdl\drivers\peripheral\ipc/cy_ipc_drv.h **** * of the IPC channel.
 767:Generated_Source\PSoC6\pdl\drivers\peripheral\ipc/cy_ipc_drv.h **** * The parameter is generally returned from a call to the \ref
 768:Generated_Source\PSoC6\pdl\drivers\peripheral\ipc/cy_ipc_drv.h **** * Cy_IPC_Drv_GetIpcBaseAddress.
 769:Generated_Source\PSoC6\pdl\drivers\peripheral\ipc/cy_ipc_drv.h **** *
 770:Generated_Source\PSoC6\pdl\drivers\peripheral\ipc/cy_ipc_drv.h **** * \return
 771:Generated_Source\PSoC6\pdl\drivers\peripheral\ipc/cy_ipc_drv.h **** * Value from DATA register.
 772:Generated_Source\PSoC6\pdl\drivers\peripheral\ipc/cy_ipc_drv.h **** *
 773:Generated_Source\PSoC6\pdl\drivers\peripheral\ipc/cy_ipc_drv.h **** *******************************************************************************/
 774:Generated_Source\PSoC6\pdl\drivers\peripheral\ipc/cy_ipc_drv.h **** __STATIC_INLINE uint32_t Cy_IPC_Drv_ReadDataValue (IPC_STRUCT_Type const * base)
 775:Generated_Source\PSoC6\pdl\drivers\peripheral\ipc/cy_ipc_drv.h **** {
 776:Generated_Source\PSoC6\pdl\drivers\peripheral\ipc/cy_ipc_drv.h ****     return REG_IPC_STRUCT_DATA(base);
 777:Generated_Source\PSoC6\pdl\drivers\peripheral\ipc/cy_ipc_drv.h **** }
 778:Generated_Source\PSoC6\pdl\drivers\peripheral\ipc/cy_ipc_drv.h **** 
 779:Generated_Source\PSoC6\pdl\drivers\peripheral\ipc/cy_ipc_drv.h **** 
 780:Generated_Source\PSoC6\pdl\drivers\peripheral\ipc/cy_ipc_drv.h **** /*******************************************************************************
 781:Generated_Source\PSoC6\pdl\drivers\peripheral\ipc/cy_ipc_drv.h **** * Function Name: Cy_IPC_Drv_IsLockAcquired
 782:Generated_Source\PSoC6\pdl\drivers\peripheral\ipc/cy_ipc_drv.h **** ****************************************************************************//**
 783:Generated_Source\PSoC6\pdl\drivers\peripheral\ipc/cy_ipc_drv.h **** *
 784:Generated_Source\PSoC6\pdl\drivers\peripheral\ipc/cy_ipc_drv.h **** * The function is used to test the status of an IPC channel. The function
 785:Generated_Source\PSoC6\pdl\drivers\peripheral\ipc/cy_ipc_drv.h **** * tells the reader if the IPC channel was in the locked or released state.
 786:Generated_Source\PSoC6\pdl\drivers\peripheral\ipc/cy_ipc_drv.h **** *
 787:Generated_Source\PSoC6\pdl\drivers\peripheral\ipc/cy_ipc_drv.h **** * \param base
ARM GAS  C:\Users\cmila\AppData\Local\Temp\ccIE2zG5.s 			page 19


 788:Generated_Source\PSoC6\pdl\drivers\peripheral\ipc/cy_ipc_drv.h **** * This parameter is a handle that represents the base address of the registers
 789:Generated_Source\PSoC6\pdl\drivers\peripheral\ipc/cy_ipc_drv.h **** * of the IPC channel.
 790:Generated_Source\PSoC6\pdl\drivers\peripheral\ipc/cy_ipc_drv.h **** * The parameter is generally returned from a call to the \ref
 791:Generated_Source\PSoC6\pdl\drivers\peripheral\ipc/cy_ipc_drv.h **** * Cy_IPC_Drv_GetIpcBaseAddress.
 792:Generated_Source\PSoC6\pdl\drivers\peripheral\ipc/cy_ipc_drv.h **** *
 793:Generated_Source\PSoC6\pdl\drivers\peripheral\ipc/cy_ipc_drv.h **** * \return
 794:Generated_Source\PSoC6\pdl\drivers\peripheral\ipc/cy_ipc_drv.h **** *   Status for the function:
 795:Generated_Source\PSoC6\pdl\drivers\peripheral\ipc/cy_ipc_drv.h **** *   true:  The IPC channel is in the Locked state.
 796:Generated_Source\PSoC6\pdl\drivers\peripheral\ipc/cy_ipc_drv.h **** *   false: The IPC channel is in the Released state.
 797:Generated_Source\PSoC6\pdl\drivers\peripheral\ipc/cy_ipc_drv.h **** *
 798:Generated_Source\PSoC6\pdl\drivers\peripheral\ipc/cy_ipc_drv.h **** * \funcusage
 799:Generated_Source\PSoC6\pdl\drivers\peripheral\ipc/cy_ipc_drv.h **** * \snippet IPC_sut_01.cydsn/main_cm4.c snippet_Cy_IPC_Drv_LockAcquire
 800:Generated_Source\PSoC6\pdl\drivers\peripheral\ipc/cy_ipc_drv.h **** *
 801:Generated_Source\PSoC6\pdl\drivers\peripheral\ipc/cy_ipc_drv.h **** *******************************************************************************/
 802:Generated_Source\PSoC6\pdl\drivers\peripheral\ipc/cy_ipc_drv.h **** __STATIC_INLINE bool Cy_IPC_Drv_IsLockAcquired (IPC_STRUCT_Type const * base)
 803:Generated_Source\PSoC6\pdl\drivers\peripheral\ipc/cy_ipc_drv.h **** {
 804:Generated_Source\PSoC6\pdl\drivers\peripheral\ipc/cy_ipc_drv.h ****     return ( 0u != _FLD2VAL(IPC_STRUCT_ACQUIRE_SUCCESS, REG_IPC_STRUCT_LOCK_STATUS(base)) );
 805:Generated_Source\PSoC6\pdl\drivers\peripheral\ipc/cy_ipc_drv.h **** }
 806:Generated_Source\PSoC6\pdl\drivers\peripheral\ipc/cy_ipc_drv.h **** 
 807:Generated_Source\PSoC6\pdl\drivers\peripheral\ipc/cy_ipc_drv.h **** 
 808:Generated_Source\PSoC6\pdl\drivers\peripheral\ipc/cy_ipc_drv.h **** /*******************************************************************************
 809:Generated_Source\PSoC6\pdl\drivers\peripheral\ipc/cy_ipc_drv.h **** * Function Name: Cy_IPC_Drv_GetLockStatus
 810:Generated_Source\PSoC6\pdl\drivers\peripheral\ipc/cy_ipc_drv.h **** ****************************************************************************//**
 811:Generated_Source\PSoC6\pdl\drivers\peripheral\ipc/cy_ipc_drv.h **** *
 812:Generated_Source\PSoC6\pdl\drivers\peripheral\ipc/cy_ipc_drv.h **** * The function is used to get the status of an IPC channel.
 813:Generated_Source\PSoC6\pdl\drivers\peripheral\ipc/cy_ipc_drv.h **** *
 814:Generated_Source\PSoC6\pdl\drivers\peripheral\ipc/cy_ipc_drv.h **** * \param base
 815:Generated_Source\PSoC6\pdl\drivers\peripheral\ipc/cy_ipc_drv.h **** * This parameter is a handle that represents the base address of the registers
 816:Generated_Source\PSoC6\pdl\drivers\peripheral\ipc/cy_ipc_drv.h **** * of the IPC channel.
 817:Generated_Source\PSoC6\pdl\drivers\peripheral\ipc/cy_ipc_drv.h **** * The parameter is generally returned from a call to the \ref
 818:Generated_Source\PSoC6\pdl\drivers\peripheral\ipc/cy_ipc_drv.h **** * Cy_IPC_Drv_GetIpcBaseAddress.
 819:Generated_Source\PSoC6\pdl\drivers\peripheral\ipc/cy_ipc_drv.h **** *
 820:Generated_Source\PSoC6\pdl\drivers\peripheral\ipc/cy_ipc_drv.h **** * \return
 821:Generated_Source\PSoC6\pdl\drivers\peripheral\ipc/cy_ipc_drv.h **** * Value from LOCK_STATUS register.
 822:Generated_Source\PSoC6\pdl\drivers\peripheral\ipc/cy_ipc_drv.h **** *
 823:Generated_Source\PSoC6\pdl\drivers\peripheral\ipc/cy_ipc_drv.h **** * \funcusage
 824:Generated_Source\PSoC6\pdl\drivers\peripheral\ipc/cy_ipc_drv.h **** * \snippet IPC_sut_01.cydsn/main_cm4.c snippet_Cy_IPC_Drv_GetLockStatus
 825:Generated_Source\PSoC6\pdl\drivers\peripheral\ipc/cy_ipc_drv.h **** *
 826:Generated_Source\PSoC6\pdl\drivers\peripheral\ipc/cy_ipc_drv.h **** *******************************************************************************/
 827:Generated_Source\PSoC6\pdl\drivers\peripheral\ipc/cy_ipc_drv.h **** __STATIC_INLINE uint32_t Cy_IPC_Drv_GetLockStatus (IPC_STRUCT_Type const * base)
 828:Generated_Source\PSoC6\pdl\drivers\peripheral\ipc/cy_ipc_drv.h **** {
 829:Generated_Source\PSoC6\pdl\drivers\peripheral\ipc/cy_ipc_drv.h ****     return REG_IPC_STRUCT_LOCK_STATUS(base);
 830:Generated_Source\PSoC6\pdl\drivers\peripheral\ipc/cy_ipc_drv.h **** }
 831:Generated_Source\PSoC6\pdl\drivers\peripheral\ipc/cy_ipc_drv.h **** 
 832:Generated_Source\PSoC6\pdl\drivers\peripheral\ipc/cy_ipc_drv.h **** 
 833:Generated_Source\PSoC6\pdl\drivers\peripheral\ipc/cy_ipc_drv.h **** /*******************************************************************************
 834:Generated_Source\PSoC6\pdl\drivers\peripheral\ipc/cy_ipc_drv.h **** * Function Name: Cy_IPC_Drv_ExtractAcquireMask
 835:Generated_Source\PSoC6\pdl\drivers\peripheral\ipc/cy_ipc_drv.h **** ****************************************************************************//**
 836:Generated_Source\PSoC6\pdl\drivers\peripheral\ipc/cy_ipc_drv.h **** *
 837:Generated_Source\PSoC6\pdl\drivers\peripheral\ipc/cy_ipc_drv.h **** * The function extracts an Acquire mask part from full interrupt mask value.
 838:Generated_Source\PSoC6\pdl\drivers\peripheral\ipc/cy_ipc_drv.h **** *
 839:Generated_Source\PSoC6\pdl\drivers\peripheral\ipc/cy_ipc_drv.h **** * This function is internal and should not be called directly by user
 840:Generated_Source\PSoC6\pdl\drivers\peripheral\ipc/cy_ipc_drv.h **** * software.
 841:Generated_Source\PSoC6\pdl\drivers\peripheral\ipc/cy_ipc_drv.h **** *
 842:Generated_Source\PSoC6\pdl\drivers\peripheral\ipc/cy_ipc_drv.h **** * \param intMask
 843:Generated_Source\PSoC6\pdl\drivers\peripheral\ipc/cy_ipc_drv.h **** * Interrupt mask value to be processed.
 844:Generated_Source\PSoC6\pdl\drivers\peripheral\ipc/cy_ipc_drv.h **** *
ARM GAS  C:\Users\cmila\AppData\Local\Temp\ccIE2zG5.s 			page 20


 845:Generated_Source\PSoC6\pdl\drivers\peripheral\ipc/cy_ipc_drv.h **** * \return
 846:Generated_Source\PSoC6\pdl\drivers\peripheral\ipc/cy_ipc_drv.h **** * Acquire mask value.
 847:Generated_Source\PSoC6\pdl\drivers\peripheral\ipc/cy_ipc_drv.h **** *
 848:Generated_Source\PSoC6\pdl\drivers\peripheral\ipc/cy_ipc_drv.h **** *******************************************************************************/
 849:Generated_Source\PSoC6\pdl\drivers\peripheral\ipc/cy_ipc_drv.h **** __STATIC_INLINE uint32_t Cy_IPC_Drv_ExtractAcquireMask (uint32_t intMask)
 850:Generated_Source\PSoC6\pdl\drivers\peripheral\ipc/cy_ipc_drv.h **** {
 851:Generated_Source\PSoC6\pdl\drivers\peripheral\ipc/cy_ipc_drv.h ****     return _FLD2VAL(IPC_INTR_STRUCT_INTR_MASK_NOTIFY, intMask);
 852:Generated_Source\PSoC6\pdl\drivers\peripheral\ipc/cy_ipc_drv.h **** }
 853:Generated_Source\PSoC6\pdl\drivers\peripheral\ipc/cy_ipc_drv.h **** 
 854:Generated_Source\PSoC6\pdl\drivers\peripheral\ipc/cy_ipc_drv.h **** 
 855:Generated_Source\PSoC6\pdl\drivers\peripheral\ipc/cy_ipc_drv.h **** /*******************************************************************************
 856:Generated_Source\PSoC6\pdl\drivers\peripheral\ipc/cy_ipc_drv.h **** * Function Name: Cy_IPC_Drv_ExtractReleaseMask
 857:Generated_Source\PSoC6\pdl\drivers\peripheral\ipc/cy_ipc_drv.h **** ****************************************************************************//**
 858:Generated_Source\PSoC6\pdl\drivers\peripheral\ipc/cy_ipc_drv.h **** *
 859:Generated_Source\PSoC6\pdl\drivers\peripheral\ipc/cy_ipc_drv.h **** * The function extracts a Release mask part from full interrupt mask value.
 860:Generated_Source\PSoC6\pdl\drivers\peripheral\ipc/cy_ipc_drv.h **** *
 861:Generated_Source\PSoC6\pdl\drivers\peripheral\ipc/cy_ipc_drv.h **** * This function is internal and should not be called directly by user
 862:Generated_Source\PSoC6\pdl\drivers\peripheral\ipc/cy_ipc_drv.h **** * software.
 863:Generated_Source\PSoC6\pdl\drivers\peripheral\ipc/cy_ipc_drv.h **** *
 864:Generated_Source\PSoC6\pdl\drivers\peripheral\ipc/cy_ipc_drv.h **** * \param intMask
 865:Generated_Source\PSoC6\pdl\drivers\peripheral\ipc/cy_ipc_drv.h **** * Interrupt mask value to be processed.
 866:Generated_Source\PSoC6\pdl\drivers\peripheral\ipc/cy_ipc_drv.h **** *
 867:Generated_Source\PSoC6\pdl\drivers\peripheral\ipc/cy_ipc_drv.h **** * \return
 868:Generated_Source\PSoC6\pdl\drivers\peripheral\ipc/cy_ipc_drv.h **** * Release mask value.
 869:Generated_Source\PSoC6\pdl\drivers\peripheral\ipc/cy_ipc_drv.h **** *
 870:Generated_Source\PSoC6\pdl\drivers\peripheral\ipc/cy_ipc_drv.h **** *******************************************************************************/
 871:Generated_Source\PSoC6\pdl\drivers\peripheral\ipc/cy_ipc_drv.h **** __STATIC_INLINE uint32_t Cy_IPC_Drv_ExtractReleaseMask (uint32_t intMask)
 872:Generated_Source\PSoC6\pdl\drivers\peripheral\ipc/cy_ipc_drv.h **** {
 873:Generated_Source\PSoC6\pdl\drivers\peripheral\ipc/cy_ipc_drv.h ****     return _FLD2VAL(IPC_INTR_STRUCT_INTR_MASK_RELEASE, intMask);
 874:Generated_Source\PSoC6\pdl\drivers\peripheral\ipc/cy_ipc_drv.h **** }
 875:Generated_Source\PSoC6\pdl\drivers\peripheral\ipc/cy_ipc_drv.h **** 
 876:Generated_Source\PSoC6\pdl\drivers\peripheral\ipc/cy_ipc_drv.h **** 
 877:Generated_Source\PSoC6\pdl\drivers\peripheral\ipc/cy_ipc_drv.h **** /*******************************************************************************
 878:Generated_Source\PSoC6\pdl\drivers\peripheral\ipc/cy_ipc_drv.h **** * Function Name: Cy_IPC_Drv_SendMsgPtr
 879:Generated_Source\PSoC6\pdl\drivers\peripheral\ipc/cy_ipc_drv.h **** ****************************************************************************//**
 880:Generated_Source\PSoC6\pdl\drivers\peripheral\ipc/cy_ipc_drv.h **** *
 881:Generated_Source\PSoC6\pdl\drivers\peripheral\ipc/cy_ipc_drv.h **** * This function is used to send a message pointer through an IPC channel.
 882:Generated_Source\PSoC6\pdl\drivers\peripheral\ipc/cy_ipc_drv.h **** * The message structure may hold a generic pointer that may contain the address
 883:Generated_Source\PSoC6\pdl\drivers\peripheral\ipc/cy_ipc_drv.h **** * of any user data type or structure. This parameter could be a pointer to a 32-bit
 884:Generated_Source\PSoC6\pdl\drivers\peripheral\ipc/cy_ipc_drv.h **** * integer, an array, or even a data structure defined in the user code. This
 885:Generated_Source\PSoC6\pdl\drivers\peripheral\ipc/cy_ipc_drv.h **** * function acts as a transfer engine for sending the pointer. Any memory
 886:Generated_Source\PSoC6\pdl\drivers\peripheral\ipc/cy_ipc_drv.h **** * management of the pointer allocation and deallocation is up to the application
 887:Generated_Source\PSoC6\pdl\drivers\peripheral\ipc/cy_ipc_drv.h **** * code.
 888:Generated_Source\PSoC6\pdl\drivers\peripheral\ipc/cy_ipc_drv.h **** * The function also has an associated notification field that will let the
 889:Generated_Source\PSoC6\pdl\drivers\peripheral\ipc/cy_ipc_drv.h **** * message notify one or multiple interrupts.
 890:Generated_Source\PSoC6\pdl\drivers\peripheral\ipc/cy_ipc_drv.h **** *
 891:Generated_Source\PSoC6\pdl\drivers\peripheral\ipc/cy_ipc_drv.h **** * \param base
 892:Generated_Source\PSoC6\pdl\drivers\peripheral\ipc/cy_ipc_drv.h **** * This parameter is a handle that represents the base address of the registers
 893:Generated_Source\PSoC6\pdl\drivers\peripheral\ipc/cy_ipc_drv.h **** * of the IPC channel.
 894:Generated_Source\PSoC6\pdl\drivers\peripheral\ipc/cy_ipc_drv.h **** * The parameter is generally returned from a call to the \ref
 895:Generated_Source\PSoC6\pdl\drivers\peripheral\ipc/cy_ipc_drv.h **** * Cy_IPC_Drv_GetIpcBaseAddress.
 896:Generated_Source\PSoC6\pdl\drivers\peripheral\ipc/cy_ipc_drv.h **** *
 897:Generated_Source\PSoC6\pdl\drivers\peripheral\ipc/cy_ipc_drv.h **** * \param notifyEventIntr
 898:Generated_Source\PSoC6\pdl\drivers\peripheral\ipc/cy_ipc_drv.h **** * Bit encoded list of IPC interrupt lines that are triggered during the release
 899:Generated_Source\PSoC6\pdl\drivers\peripheral\ipc/cy_ipc_drv.h **** * action.
 900:Generated_Source\PSoC6\pdl\drivers\peripheral\ipc/cy_ipc_drv.h **** *
 901:Generated_Source\PSoC6\pdl\drivers\peripheral\ipc/cy_ipc_drv.h **** * \param msgPtr
ARM GAS  C:\Users\cmila\AppData\Local\Temp\ccIE2zG5.s 			page 21


 902:Generated_Source\PSoC6\pdl\drivers\peripheral\ipc/cy_ipc_drv.h **** * The message pointer that is being sent over the IPC channel.
 903:Generated_Source\PSoC6\pdl\drivers\peripheral\ipc/cy_ipc_drv.h **** *
 904:Generated_Source\PSoC6\pdl\drivers\peripheral\ipc/cy_ipc_drv.h **** * \return   Status of the operation:
 905:Generated_Source\PSoC6\pdl\drivers\peripheral\ipc/cy_ipc_drv.h **** *   \retval CY_IPC_DRV_SUCCESS: The send operation was successful.
 906:Generated_Source\PSoC6\pdl\drivers\peripheral\ipc/cy_ipc_drv.h **** *   \retval CY_IPC_DRV_ERROR:   The IPC channel is unavailable because
 907:Generated_Source\PSoC6\pdl\drivers\peripheral\ipc/cy_ipc_drv.h **** *                               it is already locked.
 908:Generated_Source\PSoC6\pdl\drivers\peripheral\ipc/cy_ipc_drv.h **** *
 909:Generated_Source\PSoC6\pdl\drivers\peripheral\ipc/cy_ipc_drv.h **** * \funcusage
 910:Generated_Source\PSoC6\pdl\drivers\peripheral\ipc/cy_ipc_drv.h **** * \snippet IPC_sut_01.cydsn/main_cm4.c snippet_Cy_IPC_Drv_SendMsgPtr
 911:Generated_Source\PSoC6\pdl\drivers\peripheral\ipc/cy_ipc_drv.h **** *
 912:Generated_Source\PSoC6\pdl\drivers\peripheral\ipc/cy_ipc_drv.h **** *******************************************************************************/
 913:Generated_Source\PSoC6\pdl\drivers\peripheral\ipc/cy_ipc_drv.h **** __STATIC_INLINE cy_en_ipcdrv_status_t  Cy_IPC_Drv_SendMsgPtr(IPC_STRUCT_Type* base, uint32_t notify
 914:Generated_Source\PSoC6\pdl\drivers\peripheral\ipc/cy_ipc_drv.h **** {
 915:Generated_Source\PSoC6\pdl\drivers\peripheral\ipc/cy_ipc_drv.h ****     CY_ASSERT_L1(NULL != msgPtr);
 916:Generated_Source\PSoC6\pdl\drivers\peripheral\ipc/cy_ipc_drv.h ****     return Cy_IPC_Drv_SendMsgWord(base, notifyEventIntr, (uint32_t)msgPtr);
  93              		.loc 2 916 0
  94 003a 3946     		mov	r1, r7
  95 003c 2246     		mov	r2, r4
  96 003e 3068     		ldr	r0, [r6]
  97 0040 FFF7FEFF 		bl	Cy_IPC_Drv_SendMsgWord
  98              	.LVL7:
  99              	.LBE27:
 100              	.LBE26:
 146:Generated_Source\PSoC6\pdl\drivers\peripheral\ipc/cy_ipc_sema.c **** 
 147:Generated_Source\PSoC6\pdl\drivers\peripheral\ipc/cy_ipc_sema.c ****                  /* Set the IPC Data with the pointer to the array. */
 148:Generated_Source\PSoC6\pdl\drivers\peripheral\ipc/cy_ipc_sema.c ****                 if( CY_IPC_DRV_SUCCESS == Cy_IPC_Drv_SendMsgPtr (cy_semaIpcStruct, CY_IPC_NO_NOTIFI
 101              		.loc 1 148 0
 102 0044 0146     		mov	r1, r0
 103 0046 18B9     		cbnz	r0, .L3
 104              	.LVL8:
 105              	.LBB28:
 106              	.LBB29:
 149:Generated_Source\PSoC6\pdl\drivers\peripheral\ipc/cy_ipc_sema.c ****                 {
 150:Generated_Source\PSoC6\pdl\drivers\peripheral\ipc/cy_ipc_sema.c ****                     if(CY_IPC_DRV_SUCCESS == Cy_IPC_Drv_LockRelease (cy_semaIpcStruct, CY_IPC_NO_NO
 107              		.loc 1 150 0
 108 0048 3068     		ldr	r0, [r6]
 109 004a FFF7FEFF 		bl	Cy_IPC_Drv_LockRelease
 110              	.LVL9:
 111 004e 10B1     		cbz	r0, .L2
 112              	.LVL10:
 113              	.L3:
 151:Generated_Source\PSoC6\pdl\drivers\peripheral\ipc/cy_ipc_sema.c ****                     {
 152:Generated_Source\PSoC6\pdl\drivers\peripheral\ipc/cy_ipc_sema.c ****                         retStatus = CY_IPC_SEMA_SUCCESS;
 153:Generated_Source\PSoC6\pdl\drivers\peripheral\ipc/cy_ipc_sema.c ****                     }
 154:Generated_Source\PSoC6\pdl\drivers\peripheral\ipc/cy_ipc_sema.c ****                     else
 155:Generated_Source\PSoC6\pdl\drivers\peripheral\ipc/cy_ipc_sema.c ****                     {
 156:Generated_Source\PSoC6\pdl\drivers\peripheral\ipc/cy_ipc_sema.c ****                         /* IPC channel not released, still semaphored */
 157:Generated_Source\PSoC6\pdl\drivers\peripheral\ipc/cy_ipc_sema.c ****                         retStatus = CY_IPC_SEMA_ERROR_LOCKED;
 114              		.loc 1 157 0
 115 0050 0348     		ldr	r0, .L9+8
 116 0052 F8BD     		pop	{r3, r4, r5, r6, r7, pc}
 117              	.LVL11:
 118              	.L6:
 119              	.LBE29:
 120              	.LBE28:
 129:Generated_Source\PSoC6\pdl\drivers\peripheral\ipc/cy_ipc_sema.c ****     }
 121              		.loc 1 129 0
ARM GAS  C:\Users\cmila\AppData\Local\Temp\ccIE2zG5.s 			page 22


 122 0054 0348     		ldr	r0, .L9+12
 123              	.LVL12:
 124              	.L2:
 158:Generated_Source\PSoC6\pdl\drivers\peripheral\ipc/cy_ipc_sema.c ****                     }
 159:Generated_Source\PSoC6\pdl\drivers\peripheral\ipc/cy_ipc_sema.c ****                 }
 160:Generated_Source\PSoC6\pdl\drivers\peripheral\ipc/cy_ipc_sema.c ****                 else
 161:Generated_Source\PSoC6\pdl\drivers\peripheral\ipc/cy_ipc_sema.c ****                 {
 162:Generated_Source\PSoC6\pdl\drivers\peripheral\ipc/cy_ipc_sema.c ****                     /* Could not acquire semaphore channel */
 163:Generated_Source\PSoC6\pdl\drivers\peripheral\ipc/cy_ipc_sema.c ****                     retStatus = CY_IPC_SEMA_ERROR_LOCKED;
 164:Generated_Source\PSoC6\pdl\drivers\peripheral\ipc/cy_ipc_sema.c ****                 }
 165:Generated_Source\PSoC6\pdl\drivers\peripheral\ipc/cy_ipc_sema.c ****             }
 166:Generated_Source\PSoC6\pdl\drivers\peripheral\ipc/cy_ipc_sema.c ****             else
 167:Generated_Source\PSoC6\pdl\drivers\peripheral\ipc/cy_ipc_sema.c ****             {
 168:Generated_Source\PSoC6\pdl\drivers\peripheral\ipc/cy_ipc_sema.c ****                 retStatus = CY_IPC_SEMA_BAD_PARAM;
 169:Generated_Source\PSoC6\pdl\drivers\peripheral\ipc/cy_ipc_sema.c ****             }
 170:Generated_Source\PSoC6\pdl\drivers\peripheral\ipc/cy_ipc_sema.c ****         }
 171:Generated_Source\PSoC6\pdl\drivers\peripheral\ipc/cy_ipc_sema.c ****         else
 172:Generated_Source\PSoC6\pdl\drivers\peripheral\ipc/cy_ipc_sema.c ****         {
 173:Generated_Source\PSoC6\pdl\drivers\peripheral\ipc/cy_ipc_sema.c ****             retStatus = CY_IPC_SEMA_BAD_PARAM;
 174:Generated_Source\PSoC6\pdl\drivers\peripheral\ipc/cy_ipc_sema.c ****         }
 175:Generated_Source\PSoC6\pdl\drivers\peripheral\ipc/cy_ipc_sema.c ****     }
 176:Generated_Source\PSoC6\pdl\drivers\peripheral\ipc/cy_ipc_sema.c **** 
 177:Generated_Source\PSoC6\pdl\drivers\peripheral\ipc/cy_ipc_sema.c ****     return(retStatus);
 178:Generated_Source\PSoC6\pdl\drivers\peripheral\ipc/cy_ipc_sema.c **** }
 125              		.loc 1 178 0
 126 0056 F8BD     		pop	{r3, r4, r5, r6, r7, pc}
 127              	.LVL13:
 128              	.L10:
 129              		.align	2
 130              	.L9:
 131 0058 00000000 		.word	cy_device
 132 005c 00000000 		.word	.LANCHOR0
 133 0060 01018A00 		.word	9044225
 134 0064 03018A00 		.word	9044227
 135              		.cfi_endproc
 136              	.LFE152:
 137              		.size	Cy_IPC_Sema_InitExt, .-Cy_IPC_Sema_InitExt
 138              		.section	.text.Cy_IPC_Sema_Init,"ax",%progbits
 139              		.align	1
 140              		.global	Cy_IPC_Sema_Init
 141              		.thumb
 142              		.thumb_func
 143              		.type	Cy_IPC_Sema_Init, %function
 144              	Cy_IPC_Sema_Init:
 145              	.LFB151:
  64:Generated_Source\PSoC6\pdl\drivers\peripheral\ipc/cy_ipc_sema.c ****     /* Structure containing semaphores control data */
 146              		.loc 1 64 0
 147              		.cfi_startproc
 148              		@ args = 0, pretend = 0, frame = 0
 149              		@ frame_needed = 0, uses_anonymous_args = 0
 150              		@ link register save eliminated.
 151              	.LVL14:
 152 0000 10B4     		push	{r4}
 153              		.cfi_def_cfa_offset 4
 154              		.cfi_offset 4, -4
  64:Generated_Source\PSoC6\pdl\drivers\peripheral\ipc/cy_ipc_sema.c ****     /* Structure containing semaphores control data */
 155              		.loc 1 64 0
ARM GAS  C:\Users\cmila\AppData\Local\Temp\ccIE2zG5.s 			page 23


 156 0002 0446     		mov	r4, r0
  70:Generated_Source\PSoC6\pdl\drivers\peripheral\ipc/cy_ipc_sema.c ****     {
 157              		.loc 1 70 0
 158 0004 5AB9     		cbnz	r2, .L12
  70:Generated_Source\PSoC6\pdl\drivers\peripheral\ipc/cy_ipc_sema.c ****     {
 159              		.loc 1 70 0 is_stmt 0 discriminator 1
 160 0006 99B9     		cbnz	r1, .L15
 161              	.LVL15:
 162              	.LBB32:
 163              	.LBB33:
 452:Generated_Source\PSoC6\pdl\drivers\peripheral\ipc/cy_ipc_drv.h **** }
 164              		.loc 2 452 0 is_stmt 1
 165 0008 0B4B     		ldr	r3, .L16
 166 000a 1A68     		ldr	r2, [r3]
 167              	.LVL16:
 168              	.LBE33:
 169              	.LBE32:
  72:Generated_Source\PSoC6\pdl\drivers\peripheral\ipc/cy_ipc_sema.c **** 
 170              		.loc 1 72 0
 171 000c B2F8B030 		ldrh	r3, [r2, #176]
 172 0010 106A     		ldr	r0, [r2, #32]
 173              	.LVL17:
 174 0012 04FB0300 		mla	r0, r4, r3, r0
 175 0016 094B     		ldr	r3, .L16+4
 176 0018 1860     		str	r0, [r3]
 177              	.LVL18:
  74:Generated_Source\PSoC6\pdl\drivers\peripheral\ipc/cy_ipc_sema.c ****     }
 178              		.loc 1 74 0
 179 001a 0846     		mov	r0, r1
 180 001c 09E0     		b	.L13
 181              	.LVL19:
 182              	.L12:
  78:Generated_Source\PSoC6\pdl\drivers\peripheral\ipc/cy_ipc_sema.c ****     {
 183              		.loc 1 78 0 discriminator 1
 184 001e 39B1     		cbz	r1, .L15
  80:Generated_Source\PSoC6\pdl\drivers\peripheral\ipc/cy_ipc_sema.c ****         cy_semaData.arrayPtr = memPtr;
 185              		.loc 1 80 0
 186 0020 064B     		ldr	r3, .L16+4
  92:Generated_Source\PSoC6\pdl\drivers\peripheral\ipc/cy_ipc_sema.c **** 
 187              		.loc 1 92 0
 188 0022 5DF8044B 		ldr	r4, [sp], #4
 189              		.cfi_remember_state
 190              		.cfi_restore 4
 191              		.cfi_def_cfa_offset 0
  80:Generated_Source\PSoC6\pdl\drivers\peripheral\ipc/cy_ipc_sema.c ****         cy_semaData.arrayPtr = memPtr;
 192              		.loc 1 80 0
 193 0026 5960     		str	r1, [r3, #4]
  83:Generated_Source\PSoC6\pdl\drivers\peripheral\ipc/cy_ipc_sema.c ****     }
 194              		.loc 1 83 0
 195 0028 191D     		adds	r1, r3, #4
 196              	.LVL20:
  81:Generated_Source\PSoC6\pdl\drivers\peripheral\ipc/cy_ipc_sema.c **** 
 197              		.loc 1 81 0
 198 002a 9A60     		str	r2, [r3, #8]
  83:Generated_Source\PSoC6\pdl\drivers\peripheral\ipc/cy_ipc_sema.c ****     }
 199              		.loc 1 83 0
 200 002c FFF7FEBF 		b	Cy_IPC_Sema_InitExt
ARM GAS  C:\Users\cmila\AppData\Local\Temp\ccIE2zG5.s 			page 24


 201              	.LVL21:
 202              	.L15:
 203              		.cfi_restore_state
  88:Generated_Source\PSoC6\pdl\drivers\peripheral\ipc/cy_ipc_sema.c ****     }
 204              		.loc 1 88 0
 205 0030 0348     		ldr	r0, .L16+8
 206              	.LVL22:
 207              	.L13:
  92:Generated_Source\PSoC6\pdl\drivers\peripheral\ipc/cy_ipc_sema.c **** 
 208              		.loc 1 92 0
 209 0032 5DF8044B 		ldr	r4, [sp], #4
 210              		.cfi_restore 4
 211              		.cfi_def_cfa_offset 0
 212              	.LVL23:
 213 0036 7047     		bx	lr
 214              	.L17:
 215              		.align	2
 216              	.L16:
 217 0038 00000000 		.word	cy_device
 218 003c 00000000 		.word	.LANCHOR0
 219 0040 03018A00 		.word	9044227
 220              		.cfi_endproc
 221              	.LFE151:
 222              		.size	Cy_IPC_Sema_Init, .-Cy_IPC_Sema_Init
 223              		.section	.text.Cy_IPC_Sema_Set,"ax",%progbits
 224              		.align	1
 225              		.global	Cy_IPC_Sema_Set
 226              		.thumb
 227              		.thumb_func
 228              		.type	Cy_IPC_Sema_Set, %function
 229              	Cy_IPC_Sema_Set:
 230              	.LFB153:
 179:Generated_Source\PSoC6\pdl\drivers\peripheral\ipc/cy_ipc_sema.c **** 
 180:Generated_Source\PSoC6\pdl\drivers\peripheral\ipc/cy_ipc_sema.c **** 
 181:Generated_Source\PSoC6\pdl\drivers\peripheral\ipc/cy_ipc_sema.c **** /*******************************************************************************
 182:Generated_Source\PSoC6\pdl\drivers\peripheral\ipc/cy_ipc_sema.c **** * Function Name: Cy_IPC_Sema_Set
 183:Generated_Source\PSoC6\pdl\drivers\peripheral\ipc/cy_ipc_sema.c **** ****************************************************************************//**
 184:Generated_Source\PSoC6\pdl\drivers\peripheral\ipc/cy_ipc_sema.c **** *
 185:Generated_Source\PSoC6\pdl\drivers\peripheral\ipc/cy_ipc_sema.c **** * This function tries to acquire a semaphore. If the
 186:Generated_Source\PSoC6\pdl\drivers\peripheral\ipc/cy_ipc_sema.c **** * semaphore is not available, this function returns immediately with
 187:Generated_Source\PSoC6\pdl\drivers\peripheral\ipc/cy_ipc_sema.c **** * CY_IPC_SEMA_LOCKED.
 188:Generated_Source\PSoC6\pdl\drivers\peripheral\ipc/cy_ipc_sema.c **** *
 189:Generated_Source\PSoC6\pdl\drivers\peripheral\ipc/cy_ipc_sema.c **** * It first acquires the IPC channel that is used for all the semaphores, sets
 190:Generated_Source\PSoC6\pdl\drivers\peripheral\ipc/cy_ipc_sema.c **** * the semaphore if it is cleared, then releases the IPC channel used for the
 191:Generated_Source\PSoC6\pdl\drivers\peripheral\ipc/cy_ipc_sema.c **** * semaphore.
 192:Generated_Source\PSoC6\pdl\drivers\peripheral\ipc/cy_ipc_sema.c **** *
 193:Generated_Source\PSoC6\pdl\drivers\peripheral\ipc/cy_ipc_sema.c **** * \param semaNumber
 194:Generated_Source\PSoC6\pdl\drivers\peripheral\ipc/cy_ipc_sema.c **** *  The semaphore number to acquire.
 195:Generated_Source\PSoC6\pdl\drivers\peripheral\ipc/cy_ipc_sema.c **** *
 196:Generated_Source\PSoC6\pdl\drivers\peripheral\ipc/cy_ipc_sema.c **** * \param preemptable
 197:Generated_Source\PSoC6\pdl\drivers\peripheral\ipc/cy_ipc_sema.c **** *  When this parameter is enabled the function can be preempted by another
 198:Generated_Source\PSoC6\pdl\drivers\peripheral\ipc/cy_ipc_sema.c **** *  task or other forms of context switching in an RTOS environment.
 199:Generated_Source\PSoC6\pdl\drivers\peripheral\ipc/cy_ipc_sema.c **** *
 200:Generated_Source\PSoC6\pdl\drivers\peripheral\ipc/cy_ipc_sema.c **** * \note
 201:Generated_Source\PSoC6\pdl\drivers\peripheral\ipc/cy_ipc_sema.c **** *  If <b>preemptable</b> is enabled (true), the user must ensure that there are
 202:Generated_Source\PSoC6\pdl\drivers\peripheral\ipc/cy_ipc_sema.c **** *  no deadlocks in the system, which can be caused by an interrupt that occurs
 203:Generated_Source\PSoC6\pdl\drivers\peripheral\ipc/cy_ipc_sema.c **** *  after the IPC channel is locked. Unless the user is ready to handle IPC
ARM GAS  C:\Users\cmila\AppData\Local\Temp\ccIE2zG5.s 			page 25


 204:Generated_Source\PSoC6\pdl\drivers\peripheral\ipc/cy_ipc_sema.c **** *  channel locks correctly at the application level, set <b>preemptable</b> to
 205:Generated_Source\PSoC6\pdl\drivers\peripheral\ipc/cy_ipc_sema.c **** *  false.
 206:Generated_Source\PSoC6\pdl\drivers\peripheral\ipc/cy_ipc_sema.c **** *
 207:Generated_Source\PSoC6\pdl\drivers\peripheral\ipc/cy_ipc_sema.c **** * \return Status of the operation
 208:Generated_Source\PSoC6\pdl\drivers\peripheral\ipc/cy_ipc_sema.c **** *    \retval CY_IPC_SEMA_SUCCESS:      The semaphore was set successfully
 209:Generated_Source\PSoC6\pdl\drivers\peripheral\ipc/cy_ipc_sema.c **** *    \retval CY_IPC_SEMA_LOCKED:       The semaphore channel is busy or locked
 210:Generated_Source\PSoC6\pdl\drivers\peripheral\ipc/cy_ipc_sema.c **** *                              by another process
 211:Generated_Source\PSoC6\pdl\drivers\peripheral\ipc/cy_ipc_sema.c **** *    \retval CY_IPC_SEMA_NOT_ACQUIRED: Semaphore was already set
 212:Generated_Source\PSoC6\pdl\drivers\peripheral\ipc/cy_ipc_sema.c **** *    \retval CY_IPC_SEMA_OUT_OF_RANGE: The semaphore number is not valid
 213:Generated_Source\PSoC6\pdl\drivers\peripheral\ipc/cy_ipc_sema.c **** *
 214:Generated_Source\PSoC6\pdl\drivers\peripheral\ipc/cy_ipc_sema.c **** * \funcusage
 215:Generated_Source\PSoC6\pdl\drivers\peripheral\ipc/cy_ipc_sema.c **** * \snippet IPC_sut_01.cydsn/main_cm4.c snippet_Cy_IPC_Sema_Set
 216:Generated_Source\PSoC6\pdl\drivers\peripheral\ipc/cy_ipc_sema.c **** *
 217:Generated_Source\PSoC6\pdl\drivers\peripheral\ipc/cy_ipc_sema.c **** *******************************************************************************/
 218:Generated_Source\PSoC6\pdl\drivers\peripheral\ipc/cy_ipc_sema.c **** cy_en_ipcsema_status_t Cy_IPC_Sema_Set(uint32_t semaNumber, bool preemptable)
 219:Generated_Source\PSoC6\pdl\drivers\peripheral\ipc/cy_ipc_sema.c **** {
 231              		.loc 1 219 0
 232              		.cfi_startproc
 233              		@ args = 0, pretend = 0, frame = 0
 234              		@ frame_needed = 0, uses_anonymous_args = 0
 235              	.LVL24:
 220:Generated_Source\PSoC6\pdl\drivers\peripheral\ipc/cy_ipc_sema.c ****     uint32_t semaIndex;
 221:Generated_Source\PSoC6\pdl\drivers\peripheral\ipc/cy_ipc_sema.c ****     uint32_t semaMask;
 222:Generated_Source\PSoC6\pdl\drivers\peripheral\ipc/cy_ipc_sema.c ****     uint32_t interruptState = 0ul;
 223:Generated_Source\PSoC6\pdl\drivers\peripheral\ipc/cy_ipc_sema.c **** 
 224:Generated_Source\PSoC6\pdl\drivers\peripheral\ipc/cy_ipc_sema.c ****     cy_stc_ipc_sema_t      *semaStruct;
 225:Generated_Source\PSoC6\pdl\drivers\peripheral\ipc/cy_ipc_sema.c ****     cy_en_ipcsema_status_t  retStatus = CY_IPC_SEMA_LOCKED;
 226:Generated_Source\PSoC6\pdl\drivers\peripheral\ipc/cy_ipc_sema.c **** 
 227:Generated_Source\PSoC6\pdl\drivers\peripheral\ipc/cy_ipc_sema.c ****     /* Get pointer to structure */
 228:Generated_Source\PSoC6\pdl\drivers\peripheral\ipc/cy_ipc_sema.c ****     semaStruct = (cy_stc_ipc_sema_t *)Cy_IPC_Drv_ReadDataValue(cy_semaIpcStruct);
 236              		.loc 1 228 0
 237 0000 1B4B     		ldr	r3, .L29
 238 0002 1A68     		ldr	r2, [r3]
 239              	.LVL25:
 219:Generated_Source\PSoC6\pdl\drivers\peripheral\ipc/cy_ipc_sema.c ****     uint32_t semaIndex;
 240              		.loc 1 219 0
 241 0004 2DE9F041 		push	{r4, r5, r6, r7, r8, lr}
 242              		.cfi_def_cfa_offset 24
 243              		.cfi_offset 4, -24
 244              		.cfi_offset 5, -20
 245              		.cfi_offset 6, -16
 246              		.cfi_offset 7, -12
 247              		.cfi_offset 8, -8
 248              		.cfi_offset 14, -4
 249              	.LBB38:
 250              	.LBB39:
 776:Generated_Source\PSoC6\pdl\drivers\peripheral\ipc/cy_ipc_drv.h **** }
 251              		.loc 2 776 0
 252 0008 D2F80C80 		ldr	r8, [r2, #12]
 253              	.LVL26:
 254              	.LBE39:
 255              	.LBE38:
 229:Generated_Source\PSoC6\pdl\drivers\peripheral\ipc/cy_ipc_sema.c **** 
 230:Generated_Source\PSoC6\pdl\drivers\peripheral\ipc/cy_ipc_sema.c ****     if (semaNumber < semaStruct->maxSema)
 256              		.loc 1 230 0
 257 000c D8F80020 		ldr	r2, [r8]
 258 0010 8242     		cmp	r2, r0
ARM GAS  C:\Users\cmila\AppData\Local\Temp\ccIE2zG5.s 			page 26


 219:Generated_Source\PSoC6\pdl\drivers\peripheral\ipc/cy_ipc_sema.c ****     uint32_t semaIndex;
 259              		.loc 1 219 0
 260 0012 0446     		mov	r4, r0
 261 0014 0D46     		mov	r5, r1
 262 0016 1F46     		mov	r7, r3
 263              		.loc 1 230 0
 264 0018 23D9     		bls	.L25
 265              	.LVL27:
 231:Generated_Source\PSoC6\pdl\drivers\peripheral\ipc/cy_ipc_sema.c ****     {
 232:Generated_Source\PSoC6\pdl\drivers\peripheral\ipc/cy_ipc_sema.c ****         semaIndex = semaNumber / CY_IPC_SEMA_PER_WORD;
 233:Generated_Source\PSoC6\pdl\drivers\peripheral\ipc/cy_ipc_sema.c ****         semaMask = (uint32_t)(1ul << (semaNumber - (semaIndex * CY_IPC_SEMA_PER_WORD) ));
 234:Generated_Source\PSoC6\pdl\drivers\peripheral\ipc/cy_ipc_sema.c **** 
 235:Generated_Source\PSoC6\pdl\drivers\peripheral\ipc/cy_ipc_sema.c ****         if (!preemptable)
 266              		.loc 1 235 0
 267 001a 19B9     		cbnz	r1, .L26
 236:Generated_Source\PSoC6\pdl\drivers\peripheral\ipc/cy_ipc_sema.c ****         {
 237:Generated_Source\PSoC6\pdl\drivers\peripheral\ipc/cy_ipc_sema.c ****             interruptState = Cy_SysLib_EnterCriticalSection();
 268              		.loc 1 237 0
 269 001c FFF7FEFF 		bl	Cy_SysLib_EnterCriticalSection
 270              	.LVL28:
 271 0020 0646     		mov	r6, r0
 272              	.LVL29:
 273 0022 00E0     		b	.L20
 274              	.LVL30:
 275              	.L26:
 222:Generated_Source\PSoC6\pdl\drivers\peripheral\ipc/cy_ipc_sema.c **** 
 276              		.loc 1 222 0
 277 0024 0026     		movs	r6, #0
 278              	.LVL31:
 279              	.L20:
 238:Generated_Source\PSoC6\pdl\drivers\peripheral\ipc/cy_ipc_sema.c ****         }
 239:Generated_Source\PSoC6\pdl\drivers\peripheral\ipc/cy_ipc_sema.c **** 
 240:Generated_Source\PSoC6\pdl\drivers\peripheral\ipc/cy_ipc_sema.c ****         /* Check to make sure the IPC channel is released
 241:Generated_Source\PSoC6\pdl\drivers\peripheral\ipc/cy_ipc_sema.c ****            If so, check if specific channel can be locked. */
 242:Generated_Source\PSoC6\pdl\drivers\peripheral\ipc/cy_ipc_sema.c ****         if(CY_IPC_DRV_SUCCESS == Cy_IPC_Drv_LockAcquire (cy_semaIpcStruct))
 280              		.loc 1 242 0
 281 0026 3868     		ldr	r0, [r7]
 282              	.LVL32:
 283              	.LBB40:
 284              	.LBB41:
 917:Generated_Source\PSoC6\pdl\drivers\peripheral\ipc/cy_ipc_drv.h **** }
 918:Generated_Source\PSoC6\pdl\drivers\peripheral\ipc/cy_ipc_drv.h **** 
 919:Generated_Source\PSoC6\pdl\drivers\peripheral\ipc/cy_ipc_drv.h **** 
 920:Generated_Source\PSoC6\pdl\drivers\peripheral\ipc/cy_ipc_drv.h **** /*******************************************************************************
 921:Generated_Source\PSoC6\pdl\drivers\peripheral\ipc/cy_ipc_drv.h **** * Function Name: Cy_IPC_Drv_ReadMsgPtr
 922:Generated_Source\PSoC6\pdl\drivers\peripheral\ipc/cy_ipc_drv.h **** ****************************************************************************//**
 923:Generated_Source\PSoC6\pdl\drivers\peripheral\ipc/cy_ipc_drv.h **** *
 924:Generated_Source\PSoC6\pdl\drivers\peripheral\ipc/cy_ipc_drv.h **** * This function is used to read a 32-bit pointer message through an IPC channel.
 925:Generated_Source\PSoC6\pdl\drivers\peripheral\ipc/cy_ipc_drv.h **** *
 926:Generated_Source\PSoC6\pdl\drivers\peripheral\ipc/cy_ipc_drv.h **** * \param base
 927:Generated_Source\PSoC6\pdl\drivers\peripheral\ipc/cy_ipc_drv.h **** * This parameter is a handle that represents the base address of the registers
 928:Generated_Source\PSoC6\pdl\drivers\peripheral\ipc/cy_ipc_drv.h **** * of the IPC channel.
 929:Generated_Source\PSoC6\pdl\drivers\peripheral\ipc/cy_ipc_drv.h **** * The parameter is generally returned from a call to the \ref
 930:Generated_Source\PSoC6\pdl\drivers\peripheral\ipc/cy_ipc_drv.h **** * Cy_IPC_Drv_GetIpcBaseAddress.
 931:Generated_Source\PSoC6\pdl\drivers\peripheral\ipc/cy_ipc_drv.h **** *
 932:Generated_Source\PSoC6\pdl\drivers\peripheral\ipc/cy_ipc_drv.h **** * \param msgPtr
 933:Generated_Source\PSoC6\pdl\drivers\peripheral\ipc/cy_ipc_drv.h **** * Pointer variable to hold the data pointer that is being read from the IPC
ARM GAS  C:\Users\cmila\AppData\Local\Temp\ccIE2zG5.s 			page 27


 934:Generated_Source\PSoC6\pdl\drivers\peripheral\ipc/cy_ipc_drv.h **** * channel.
 935:Generated_Source\PSoC6\pdl\drivers\peripheral\ipc/cy_ipc_drv.h **** *
 936:Generated_Source\PSoC6\pdl\drivers\peripheral\ipc/cy_ipc_drv.h **** *
 937:Generated_Source\PSoC6\pdl\drivers\peripheral\ipc/cy_ipc_drv.h **** * \return Status of the operation
 938:Generated_Source\PSoC6\pdl\drivers\peripheral\ipc/cy_ipc_drv.h **** *   \retval CY_IPC_DRV_SUCCESS: The function executed successfully and the IPC
 939:Generated_Source\PSoC6\pdl\drivers\peripheral\ipc/cy_ipc_drv.h **** *                       was acquired.
 940:Generated_Source\PSoC6\pdl\drivers\peripheral\ipc/cy_ipc_drv.h **** *   \retval CY_IPC_DRV_ERROR:   The function encountered an error because the IPC
 941:Generated_Source\PSoC6\pdl\drivers\peripheral\ipc/cy_ipc_drv.h **** *                       channel was already in a released state meaning the data
 942:Generated_Source\PSoC6\pdl\drivers\peripheral\ipc/cy_ipc_drv.h **** *                       in it is invalid.
 943:Generated_Source\PSoC6\pdl\drivers\peripheral\ipc/cy_ipc_drv.h **** *
 944:Generated_Source\PSoC6\pdl\drivers\peripheral\ipc/cy_ipc_drv.h **** * \funcusage
 945:Generated_Source\PSoC6\pdl\drivers\peripheral\ipc/cy_ipc_drv.h **** * \snippet IPC_sut_01.cydsn/main_cm4.c snippet_Cy_IPC_Drv_ReadMsgPtr
 946:Generated_Source\PSoC6\pdl\drivers\peripheral\ipc/cy_ipc_drv.h **** *
 947:Generated_Source\PSoC6\pdl\drivers\peripheral\ipc/cy_ipc_drv.h **** *******************************************************************************/
 948:Generated_Source\PSoC6\pdl\drivers\peripheral\ipc/cy_ipc_drv.h **** __STATIC_INLINE  cy_en_ipcdrv_status_t  Cy_IPC_Drv_ReadMsgPtr (IPC_STRUCT_Type const * base, void *
 949:Generated_Source\PSoC6\pdl\drivers\peripheral\ipc/cy_ipc_drv.h **** {
 950:Generated_Source\PSoC6\pdl\drivers\peripheral\ipc/cy_ipc_drv.h ****     CY_ASSERT_L1(NULL != msgPtr);
 951:Generated_Source\PSoC6\pdl\drivers\peripheral\ipc/cy_ipc_drv.h ****     return Cy_IPC_Drv_ReadMsgWord(base, (uint32_t *)msgPtr);
 952:Generated_Source\PSoC6\pdl\drivers\peripheral\ipc/cy_ipc_drv.h **** }
 953:Generated_Source\PSoC6\pdl\drivers\peripheral\ipc/cy_ipc_drv.h **** 
 954:Generated_Source\PSoC6\pdl\drivers\peripheral\ipc/cy_ipc_drv.h **** 
 955:Generated_Source\PSoC6\pdl\drivers\peripheral\ipc/cy_ipc_drv.h **** /*******************************************************************************
 956:Generated_Source\PSoC6\pdl\drivers\peripheral\ipc/cy_ipc_drv.h **** * Function Name: Cy_IPC_Drv_LockAcquire
 957:Generated_Source\PSoC6\pdl\drivers\peripheral\ipc/cy_ipc_drv.h **** ****************************************************************************//**
 958:Generated_Source\PSoC6\pdl\drivers\peripheral\ipc/cy_ipc_drv.h **** *
 959:Generated_Source\PSoC6\pdl\drivers\peripheral\ipc/cy_ipc_drv.h **** * This function is used to acquire the IPC channel.
 960:Generated_Source\PSoC6\pdl\drivers\peripheral\ipc/cy_ipc_drv.h **** *
 961:Generated_Source\PSoC6\pdl\drivers\peripheral\ipc/cy_ipc_drv.h **** * \param base
 962:Generated_Source\PSoC6\pdl\drivers\peripheral\ipc/cy_ipc_drv.h **** * This parameter is a handle that represents the base address of the registers
 963:Generated_Source\PSoC6\pdl\drivers\peripheral\ipc/cy_ipc_drv.h **** * of the IPC channel.
 964:Generated_Source\PSoC6\pdl\drivers\peripheral\ipc/cy_ipc_drv.h **** * The parameter is generally returned from a call to the \ref
 965:Generated_Source\PSoC6\pdl\drivers\peripheral\ipc/cy_ipc_drv.h **** * Cy_IPC_Drv_GetIpcBaseAddress
 966:Generated_Source\PSoC6\pdl\drivers\peripheral\ipc/cy_ipc_drv.h **** *
 967:Generated_Source\PSoC6\pdl\drivers\peripheral\ipc/cy_ipc_drv.h **** * \return   Status of the operation
 968:Generated_Source\PSoC6\pdl\drivers\peripheral\ipc/cy_ipc_drv.h **** *   \retval CY_IPC_DRV_SUCCESS: The IPC was successfully acquired
 969:Generated_Source\PSoC6\pdl\drivers\peripheral\ipc/cy_ipc_drv.h **** *   \retval CY_IPC_DRV_ERROR:   The IPC was not acquired because it was already acquired
 970:Generated_Source\PSoC6\pdl\drivers\peripheral\ipc/cy_ipc_drv.h **** *                       by another master
 971:Generated_Source\PSoC6\pdl\drivers\peripheral\ipc/cy_ipc_drv.h **** *
 972:Generated_Source\PSoC6\pdl\drivers\peripheral\ipc/cy_ipc_drv.h **** * \funcusage
 973:Generated_Source\PSoC6\pdl\drivers\peripheral\ipc/cy_ipc_drv.h **** * \snippet IPC_sut_01.cydsn/main_cm4.c snippet_Cy_IPC_Drv_LockAcquire
 974:Generated_Source\PSoC6\pdl\drivers\peripheral\ipc/cy_ipc_drv.h **** *
 975:Generated_Source\PSoC6\pdl\drivers\peripheral\ipc/cy_ipc_drv.h **** *******************************************************************************/
 976:Generated_Source\PSoC6\pdl\drivers\peripheral\ipc/cy_ipc_drv.h **** __STATIC_INLINE cy_en_ipcdrv_status_t Cy_IPC_Drv_LockAcquire (IPC_STRUCT_Type const * base)
 977:Generated_Source\PSoC6\pdl\drivers\peripheral\ipc/cy_ipc_drv.h **** {
 978:Generated_Source\PSoC6\pdl\drivers\peripheral\ipc/cy_ipc_drv.h ****     return ( 0ul != _FLD2VAL(IPC_STRUCT_ACQUIRE_SUCCESS, REG_IPC_STRUCT_ACQUIRE(base))) ? CY_IPC_DR
 285              		.loc 2 978 0
 286 0028 0368     		ldr	r3, [r0]
 287 002a 002B     		cmp	r3, #0
 288 002c 01DB     		blt	.L21
 289              	.LBE41:
 290              	.LBE40:
 225:Generated_Source\PSoC6\pdl\drivers\peripheral\ipc/cy_ipc_sema.c **** 
 291              		.loc 1 225 0
 292 002e 114C     		ldr	r4, .L29+4
 293              	.LVL33:
 294 0030 12E0     		b	.L22
 295              	.LVL34:
ARM GAS  C:\Users\cmila\AppData\Local\Temp\ccIE2zG5.s 			page 28


 296              	.L21:
 232:Generated_Source\PSoC6\pdl\drivers\peripheral\ipc/cy_ipc_sema.c ****         semaMask = (uint32_t)(1ul << (semaNumber - (semaIndex * CY_IPC_SEMA_PER_WORD) ));
 297              		.loc 1 232 0
 298 0032 6109     		lsrs	r1, r4, #5
 243:Generated_Source\PSoC6\pdl\drivers\peripheral\ipc/cy_ipc_sema.c ****         {
 244:Generated_Source\PSoC6\pdl\drivers\peripheral\ipc/cy_ipc_sema.c ****             if((semaStruct->arrayPtr[semaIndex] & semaMask) == 0ul)
 299              		.loc 1 244 0
 300 0034 D8F80470 		ldr	r7, [r8, #4]
 233:Generated_Source\PSoC6\pdl\drivers\peripheral\ipc/cy_ipc_sema.c **** 
 301              		.loc 1 233 0
 302 0038 A4EB4112 		sub	r2, r4, r1, lsl #5
 303 003c 0123     		movs	r3, #1
 304 003e 03FA02F2 		lsl	r2, r3, r2
 305              	.LVL35:
 306              		.loc 1 244 0
 307 0042 57F82130 		ldr	r3, [r7, r1, lsl #2]
 308 0046 12EA0304 		ands	r4, r2, r3
 309              	.LVL36:
 310 004a 0CD1     		bne	.L28
 245:Generated_Source\PSoC6\pdl\drivers\peripheral\ipc/cy_ipc_sema.c ****             {
 246:Generated_Source\PSoC6\pdl\drivers\peripheral\ipc/cy_ipc_sema.c ****                 semaStruct->arrayPtr[semaIndex] |= semaMask;
 311              		.loc 1 246 0
 312 004c 1343     		orrs	r3, r3, r2
 313 004e 47F82130 		str	r3, [r7, r1, lsl #2]
 314              	.LVL37:
 315              	.L24:
 247:Generated_Source\PSoC6\pdl\drivers\peripheral\ipc/cy_ipc_sema.c ****                 retStatus = CY_IPC_SEMA_SUCCESS;
 248:Generated_Source\PSoC6\pdl\drivers\peripheral\ipc/cy_ipc_sema.c ****             }
 249:Generated_Source\PSoC6\pdl\drivers\peripheral\ipc/cy_ipc_sema.c ****             else
 250:Generated_Source\PSoC6\pdl\drivers\peripheral\ipc/cy_ipc_sema.c ****             {
 251:Generated_Source\PSoC6\pdl\drivers\peripheral\ipc/cy_ipc_sema.c ****                 retStatus = CY_IPC_SEMA_NOT_ACQUIRED;
 252:Generated_Source\PSoC6\pdl\drivers\peripheral\ipc/cy_ipc_sema.c ****             }
 253:Generated_Source\PSoC6\pdl\drivers\peripheral\ipc/cy_ipc_sema.c **** 
 254:Generated_Source\PSoC6\pdl\drivers\peripheral\ipc/cy_ipc_sema.c ****             /* Release, but do not trigger a release event */
 255:Generated_Source\PSoC6\pdl\drivers\peripheral\ipc/cy_ipc_sema.c ****             (void) Cy_IPC_Drv_LockRelease (cy_semaIpcStruct, CY_IPC_NO_NOTIFICATION);
 316              		.loc 1 255 0
 317 0052 0021     		movs	r1, #0
 318 0054 FFF7FEFF 		bl	Cy_IPC_Drv_LockRelease
 319              	.LVL38:
 320              	.L22:
 256:Generated_Source\PSoC6\pdl\drivers\peripheral\ipc/cy_ipc_sema.c ****         }
 257:Generated_Source\PSoC6\pdl\drivers\peripheral\ipc/cy_ipc_sema.c **** 
 258:Generated_Source\PSoC6\pdl\drivers\peripheral\ipc/cy_ipc_sema.c ****         if (!preemptable)
 321              		.loc 1 258 0
 322 0058 3DB9     		cbnz	r5, .L27
 259:Generated_Source\PSoC6\pdl\drivers\peripheral\ipc/cy_ipc_sema.c ****         {
 260:Generated_Source\PSoC6\pdl\drivers\peripheral\ipc/cy_ipc_sema.c ****             Cy_SysLib_ExitCriticalSection(interruptState);
 323              		.loc 1 260 0
 324 005a 3046     		mov	r0, r6
 325 005c FFF7FEFF 		bl	Cy_SysLib_ExitCriticalSection
 326              	.LVL39:
 327 0060 03E0     		b	.L27
 328              	.LVL40:
 329              	.L25:
 261:Generated_Source\PSoC6\pdl\drivers\peripheral\ipc/cy_ipc_sema.c ****         }
 262:Generated_Source\PSoC6\pdl\drivers\peripheral\ipc/cy_ipc_sema.c ****     }
 263:Generated_Source\PSoC6\pdl\drivers\peripheral\ipc/cy_ipc_sema.c ****     else
ARM GAS  C:\Users\cmila\AppData\Local\Temp\ccIE2zG5.s 			page 29


 264:Generated_Source\PSoC6\pdl\drivers\peripheral\ipc/cy_ipc_sema.c ****     {
 265:Generated_Source\PSoC6\pdl\drivers\peripheral\ipc/cy_ipc_sema.c ****         retStatus = CY_IPC_SEMA_OUT_OF_RANGE;
 330              		.loc 1 265 0
 331 0062 054C     		ldr	r4, .L29+8
 332              	.LVL41:
 266:Generated_Source\PSoC6\pdl\drivers\peripheral\ipc/cy_ipc_sema.c ****     }
 267:Generated_Source\PSoC6\pdl\drivers\peripheral\ipc/cy_ipc_sema.c **** 
 268:Generated_Source\PSoC6\pdl\drivers\peripheral\ipc/cy_ipc_sema.c ****     return(retStatus);
 333              		.loc 1 268 0
 334 0064 01E0     		b	.L27
 335              	.LVL42:
 336              	.L28:
 251:Generated_Source\PSoC6\pdl\drivers\peripheral\ipc/cy_ipc_sema.c ****             }
 337              		.loc 1 251 0
 338 0066 054C     		ldr	r4, .L29+12
 339 0068 F3E7     		b	.L24
 340              	.LVL43:
 341              	.L27:
 269:Generated_Source\PSoC6\pdl\drivers\peripheral\ipc/cy_ipc_sema.c **** }
 342              		.loc 1 269 0
 343 006a 2046     		mov	r0, r4
 344 006c BDE8F081 		pop	{r4, r5, r6, r7, r8, pc}
 345              	.LVL44:
 346              	.L30:
 347              		.align	2
 348              	.L29:
 349 0070 00000000 		.word	.LANCHOR0
 350 0074 03018800 		.word	8913155
 351 0078 04018A00 		.word	9044228
 352 007c 02018800 		.word	8913154
 353              		.cfi_endproc
 354              	.LFE153:
 355              		.size	Cy_IPC_Sema_Set, .-Cy_IPC_Sema_Set
 356              		.section	.text.Cy_IPC_Sema_Clear,"ax",%progbits
 357              		.align	1
 358              		.global	Cy_IPC_Sema_Clear
 359              		.thumb
 360              		.thumb_func
 361              		.type	Cy_IPC_Sema_Clear, %function
 362              	Cy_IPC_Sema_Clear:
 363              	.LFB154:
 270:Generated_Source\PSoC6\pdl\drivers\peripheral\ipc/cy_ipc_sema.c **** 
 271:Generated_Source\PSoC6\pdl\drivers\peripheral\ipc/cy_ipc_sema.c **** 
 272:Generated_Source\PSoC6\pdl\drivers\peripheral\ipc/cy_ipc_sema.c **** /*******************************************************************************
 273:Generated_Source\PSoC6\pdl\drivers\peripheral\ipc/cy_ipc_sema.c **** * Function Name: Cy_IPC_Sema_Clear
 274:Generated_Source\PSoC6\pdl\drivers\peripheral\ipc/cy_ipc_sema.c **** ****************************************************************************//**
 275:Generated_Source\PSoC6\pdl\drivers\peripheral\ipc/cy_ipc_sema.c **** *
 276:Generated_Source\PSoC6\pdl\drivers\peripheral\ipc/cy_ipc_sema.c **** * This functions tries to releases a semaphore.
 277:Generated_Source\PSoC6\pdl\drivers\peripheral\ipc/cy_ipc_sema.c **** *
 278:Generated_Source\PSoC6\pdl\drivers\peripheral\ipc/cy_ipc_sema.c **** * It first acquires the IPC channel that is used for all the semaphores, clears
 279:Generated_Source\PSoC6\pdl\drivers\peripheral\ipc/cy_ipc_sema.c **** * the semaphore if it is set, then releases the IPC channel used for the
 280:Generated_Source\PSoC6\pdl\drivers\peripheral\ipc/cy_ipc_sema.c **** * semaphores.
 281:Generated_Source\PSoC6\pdl\drivers\peripheral\ipc/cy_ipc_sema.c **** *
 282:Generated_Source\PSoC6\pdl\drivers\peripheral\ipc/cy_ipc_sema.c **** * \param semaNumber
 283:Generated_Source\PSoC6\pdl\drivers\peripheral\ipc/cy_ipc_sema.c **** *  The index of the semaphore to release.
 284:Generated_Source\PSoC6\pdl\drivers\peripheral\ipc/cy_ipc_sema.c **** *
 285:Generated_Source\PSoC6\pdl\drivers\peripheral\ipc/cy_ipc_sema.c **** * \param preemptable
ARM GAS  C:\Users\cmila\AppData\Local\Temp\ccIE2zG5.s 			page 30


 286:Generated_Source\PSoC6\pdl\drivers\peripheral\ipc/cy_ipc_sema.c **** *  When this parameter is enabled the function can be preempted by another
 287:Generated_Source\PSoC6\pdl\drivers\peripheral\ipc/cy_ipc_sema.c **** *  task or other forms of context switching in an RTOS environment.
 288:Generated_Source\PSoC6\pdl\drivers\peripheral\ipc/cy_ipc_sema.c **** *
 289:Generated_Source\PSoC6\pdl\drivers\peripheral\ipc/cy_ipc_sema.c **** * \note
 290:Generated_Source\PSoC6\pdl\drivers\peripheral\ipc/cy_ipc_sema.c **** *  If <b>preemptable</b> is enabled (true), the user must ensure that there are
 291:Generated_Source\PSoC6\pdl\drivers\peripheral\ipc/cy_ipc_sema.c **** *  no deadlocks in the system, which can be caused by an interrupt that occurs
 292:Generated_Source\PSoC6\pdl\drivers\peripheral\ipc/cy_ipc_sema.c **** *  after the IPC channel is locked. Unless the user is ready to handle IPC
 293:Generated_Source\PSoC6\pdl\drivers\peripheral\ipc/cy_ipc_sema.c **** *  channel locks correctly at the application level, set <b>preemptable</b> to
 294:Generated_Source\PSoC6\pdl\drivers\peripheral\ipc/cy_ipc_sema.c **** *  false.
 295:Generated_Source\PSoC6\pdl\drivers\peripheral\ipc/cy_ipc_sema.c **** *
 296:Generated_Source\PSoC6\pdl\drivers\peripheral\ipc/cy_ipc_sema.c **** * \return Status of the operation
 297:Generated_Source\PSoC6\pdl\drivers\peripheral\ipc/cy_ipc_sema.c **** *    \retval CY_IPC_SEMA_SUCCESS:         The semaphore was cleared successfully
 298:Generated_Source\PSoC6\pdl\drivers\peripheral\ipc/cy_ipc_sema.c **** *    \retval CY_IPC_SEMA_NOT_ACQUIRED:    The semaphore was already cleared
 299:Generated_Source\PSoC6\pdl\drivers\peripheral\ipc/cy_ipc_sema.c **** *    \retval CY_IPC_SEMA_LOCKED:          The semaphore channel was semaphored or busy
 300:Generated_Source\PSoC6\pdl\drivers\peripheral\ipc/cy_ipc_sema.c **** *    \retval CY_IPC_SEMA_OUT_OF_RANGE:    The semaphore number is not valid
 301:Generated_Source\PSoC6\pdl\drivers\peripheral\ipc/cy_ipc_sema.c **** *
 302:Generated_Source\PSoC6\pdl\drivers\peripheral\ipc/cy_ipc_sema.c **** * \funcusage
 303:Generated_Source\PSoC6\pdl\drivers\peripheral\ipc/cy_ipc_sema.c **** * \snippet IPC_sut_01.cydsn/main_cm4.c snippet_Cy_IPC_Sema_Clear
 304:Generated_Source\PSoC6\pdl\drivers\peripheral\ipc/cy_ipc_sema.c **** *
 305:Generated_Source\PSoC6\pdl\drivers\peripheral\ipc/cy_ipc_sema.c **** *******************************************************************************/
 306:Generated_Source\PSoC6\pdl\drivers\peripheral\ipc/cy_ipc_sema.c **** cy_en_ipcsema_status_t Cy_IPC_Sema_Clear(uint32_t semaNumber, bool preemptable)
 307:Generated_Source\PSoC6\pdl\drivers\peripheral\ipc/cy_ipc_sema.c **** {
 364              		.loc 1 307 0
 365              		.cfi_startproc
 366              		@ args = 0, pretend = 0, frame = 0
 367              		@ frame_needed = 0, uses_anonymous_args = 0
 368              	.LVL45:
 308:Generated_Source\PSoC6\pdl\drivers\peripheral\ipc/cy_ipc_sema.c ****     uint32_t semaIndex;
 309:Generated_Source\PSoC6\pdl\drivers\peripheral\ipc/cy_ipc_sema.c ****     uint32_t semaMask;
 310:Generated_Source\PSoC6\pdl\drivers\peripheral\ipc/cy_ipc_sema.c ****     uint32_t interruptState = 0ul;
 311:Generated_Source\PSoC6\pdl\drivers\peripheral\ipc/cy_ipc_sema.c **** 
 312:Generated_Source\PSoC6\pdl\drivers\peripheral\ipc/cy_ipc_sema.c ****     cy_stc_ipc_sema_t      *semaStruct;
 313:Generated_Source\PSoC6\pdl\drivers\peripheral\ipc/cy_ipc_sema.c ****     cy_en_ipcsema_status_t  retStatus = CY_IPC_SEMA_LOCKED;
 314:Generated_Source\PSoC6\pdl\drivers\peripheral\ipc/cy_ipc_sema.c **** 
 315:Generated_Source\PSoC6\pdl\drivers\peripheral\ipc/cy_ipc_sema.c ****     /* Get pointer to structure */
 316:Generated_Source\PSoC6\pdl\drivers\peripheral\ipc/cy_ipc_sema.c ****     semaStruct = (cy_stc_ipc_sema_t *)Cy_IPC_Drv_ReadDataValue(cy_semaIpcStruct);
 369              		.loc 1 316 0
 370 0000 1C4B     		ldr	r3, .L42
 371 0002 1A68     		ldr	r2, [r3]
 372              	.LVL46:
 307:Generated_Source\PSoC6\pdl\drivers\peripheral\ipc/cy_ipc_sema.c ****     uint32_t semaIndex;
 373              		.loc 1 307 0
 374 0004 2DE9F041 		push	{r4, r5, r6, r7, r8, lr}
 375              		.cfi_def_cfa_offset 24
 376              		.cfi_offset 4, -24
 377              		.cfi_offset 5, -20
 378              		.cfi_offset 6, -16
 379              		.cfi_offset 7, -12
 380              		.cfi_offset 8, -8
 381              		.cfi_offset 14, -4
 382              	.LBB46:
 383              	.LBB47:
 776:Generated_Source\PSoC6\pdl\drivers\peripheral\ipc/cy_ipc_drv.h **** }
 384              		.loc 2 776 0
 385 0008 D2F80C80 		ldr	r8, [r2, #12]
 386              	.LVL47:
 387              	.LBE47:
ARM GAS  C:\Users\cmila\AppData\Local\Temp\ccIE2zG5.s 			page 31


 388              	.LBE46:
 317:Generated_Source\PSoC6\pdl\drivers\peripheral\ipc/cy_ipc_sema.c **** 
 318:Generated_Source\PSoC6\pdl\drivers\peripheral\ipc/cy_ipc_sema.c ****     if (semaNumber < semaStruct->maxSema)
 389              		.loc 1 318 0
 390 000c D8F80020 		ldr	r2, [r8]
 391 0010 8242     		cmp	r2, r0
 307:Generated_Source\PSoC6\pdl\drivers\peripheral\ipc/cy_ipc_sema.c ****     uint32_t semaIndex;
 392              		.loc 1 307 0
 393 0012 0446     		mov	r4, r0
 394 0014 0D46     		mov	r5, r1
 395 0016 1E46     		mov	r6, r3
 396              		.loc 1 318 0
 397 0018 24D9     		bls	.L38
 398              	.LVL48:
 319:Generated_Source\PSoC6\pdl\drivers\peripheral\ipc/cy_ipc_sema.c ****     {
 320:Generated_Source\PSoC6\pdl\drivers\peripheral\ipc/cy_ipc_sema.c ****         semaIndex = semaNumber / CY_IPC_SEMA_PER_WORD;
 321:Generated_Source\PSoC6\pdl\drivers\peripheral\ipc/cy_ipc_sema.c ****         semaMask = (uint32_t)(1ul << (semaNumber - (semaIndex * CY_IPC_SEMA_PER_WORD) ));
 322:Generated_Source\PSoC6\pdl\drivers\peripheral\ipc/cy_ipc_sema.c **** 
 323:Generated_Source\PSoC6\pdl\drivers\peripheral\ipc/cy_ipc_sema.c ****         if (!preemptable)
 399              		.loc 1 323 0
 400 001a 19B9     		cbnz	r1, .L39
 324:Generated_Source\PSoC6\pdl\drivers\peripheral\ipc/cy_ipc_sema.c ****         {
 325:Generated_Source\PSoC6\pdl\drivers\peripheral\ipc/cy_ipc_sema.c ****             interruptState = Cy_SysLib_EnterCriticalSection();
 401              		.loc 1 325 0
 402 001c FFF7FEFF 		bl	Cy_SysLib_EnterCriticalSection
 403              	.LVL49:
 404 0020 0746     		mov	r7, r0
 405              	.LVL50:
 406 0022 00E0     		b	.L33
 407              	.LVL51:
 408              	.L39:
 310:Generated_Source\PSoC6\pdl\drivers\peripheral\ipc/cy_ipc_sema.c **** 
 409              		.loc 1 310 0
 410 0024 0027     		movs	r7, #0
 411              	.LVL52:
 412              	.L33:
 326:Generated_Source\PSoC6\pdl\drivers\peripheral\ipc/cy_ipc_sema.c ****         }
 327:Generated_Source\PSoC6\pdl\drivers\peripheral\ipc/cy_ipc_sema.c **** 
 328:Generated_Source\PSoC6\pdl\drivers\peripheral\ipc/cy_ipc_sema.c ****         /* Check to make sure the IPC channel is released
 329:Generated_Source\PSoC6\pdl\drivers\peripheral\ipc/cy_ipc_sema.c ****            If so, check if specific channel can be locked. */
 330:Generated_Source\PSoC6\pdl\drivers\peripheral\ipc/cy_ipc_sema.c ****         if(CY_IPC_DRV_SUCCESS == Cy_IPC_Drv_LockAcquire (cy_semaIpcStruct))
 413              		.loc 1 330 0
 414 0026 3068     		ldr	r0, [r6]
 415              	.LVL53:
 416              	.LBB48:
 417              	.LBB49:
 418              		.loc 2 978 0
 419 0028 0368     		ldr	r3, [r0]
 420 002a 002B     		cmp	r3, #0
 421 002c 01DB     		blt	.L34
 422              	.LBE49:
 423              	.LBE48:
 313:Generated_Source\PSoC6\pdl\drivers\peripheral\ipc/cy_ipc_sema.c **** 
 424              		.loc 1 313 0
 425 002e 124C     		ldr	r4, .L42+4
 426              	.LVL54:
 427 0030 13E0     		b	.L35
ARM GAS  C:\Users\cmila\AppData\Local\Temp\ccIE2zG5.s 			page 32


 428              	.LVL55:
 429              	.L34:
 320:Generated_Source\PSoC6\pdl\drivers\peripheral\ipc/cy_ipc_sema.c ****         semaMask = (uint32_t)(1ul << (semaNumber - (semaIndex * CY_IPC_SEMA_PER_WORD) ));
 430              		.loc 1 320 0
 431 0032 6209     		lsrs	r2, r4, #5
 331:Generated_Source\PSoC6\pdl\drivers\peripheral\ipc/cy_ipc_sema.c ****         {
 332:Generated_Source\PSoC6\pdl\drivers\peripheral\ipc/cy_ipc_sema.c ****             if((semaStruct->arrayPtr[semaIndex] & semaMask) != 0ul)
 432              		.loc 1 332 0
 433 0034 D8F80410 		ldr	r1, [r8, #4]
 321:Generated_Source\PSoC6\pdl\drivers\peripheral\ipc/cy_ipc_sema.c **** 
 434              		.loc 1 321 0
 435 0038 0123     		movs	r3, #1
 436 003a A4EB4214 		sub	r4, r4, r2, lsl #5
 437              	.LVL56:
 438 003e 03FA04F4 		lsl	r4, r3, r4
 439              	.LVL57:
 440              		.loc 1 332 0
 441 0042 51F82230 		ldr	r3, [r1, r2, lsl #2]
 442 0046 1C42     		tst	r4, r3
 443 0048 0ED0     		beq	.L41
 333:Generated_Source\PSoC6\pdl\drivers\peripheral\ipc/cy_ipc_sema.c ****             {
 334:Generated_Source\PSoC6\pdl\drivers\peripheral\ipc/cy_ipc_sema.c ****                 semaStruct->arrayPtr[semaIndex] &= ~semaMask;
 444              		.loc 1 334 0
 445 004a 23EA0403 		bic	r3, r3, r4
 446 004e 41F82230 		str	r3, [r1, r2, lsl #2]
 447              	.LVL58:
 335:Generated_Source\PSoC6\pdl\drivers\peripheral\ipc/cy_ipc_sema.c ****                 retStatus = CY_IPC_SEMA_SUCCESS;
 448              		.loc 1 335 0
 449 0052 0024     		movs	r4, #0
 450              	.LVL59:
 451              	.L37:
 336:Generated_Source\PSoC6\pdl\drivers\peripheral\ipc/cy_ipc_sema.c ****             }
 337:Generated_Source\PSoC6\pdl\drivers\peripheral\ipc/cy_ipc_sema.c ****             else
 338:Generated_Source\PSoC6\pdl\drivers\peripheral\ipc/cy_ipc_sema.c ****             {
 339:Generated_Source\PSoC6\pdl\drivers\peripheral\ipc/cy_ipc_sema.c ****                 retStatus = CY_IPC_SEMA_NOT_ACQUIRED;
 340:Generated_Source\PSoC6\pdl\drivers\peripheral\ipc/cy_ipc_sema.c ****             }
 341:Generated_Source\PSoC6\pdl\drivers\peripheral\ipc/cy_ipc_sema.c **** 
 342:Generated_Source\PSoC6\pdl\drivers\peripheral\ipc/cy_ipc_sema.c ****             /* Release, but do not trigger a release event */
 343:Generated_Source\PSoC6\pdl\drivers\peripheral\ipc/cy_ipc_sema.c ****             (void) Cy_IPC_Drv_LockRelease (cy_semaIpcStruct, CY_IPC_NO_NOTIFICATION);
 452              		.loc 1 343 0
 453 0054 0021     		movs	r1, #0
 454 0056 FFF7FEFF 		bl	Cy_IPC_Drv_LockRelease
 455              	.LVL60:
 456              	.L35:
 344:Generated_Source\PSoC6\pdl\drivers\peripheral\ipc/cy_ipc_sema.c ****         }
 345:Generated_Source\PSoC6\pdl\drivers\peripheral\ipc/cy_ipc_sema.c **** 
 346:Generated_Source\PSoC6\pdl\drivers\peripheral\ipc/cy_ipc_sema.c ****         if (!preemptable)
 457              		.loc 1 346 0
 458 005a 3DB9     		cbnz	r5, .L40
 347:Generated_Source\PSoC6\pdl\drivers\peripheral\ipc/cy_ipc_sema.c ****         {
 348:Generated_Source\PSoC6\pdl\drivers\peripheral\ipc/cy_ipc_sema.c ****             Cy_SysLib_ExitCriticalSection(interruptState);
 459              		.loc 1 348 0
 460 005c 3846     		mov	r0, r7
 461 005e FFF7FEFF 		bl	Cy_SysLib_ExitCriticalSection
 462              	.LVL61:
 463 0062 03E0     		b	.L40
 464              	.LVL62:
ARM GAS  C:\Users\cmila\AppData\Local\Temp\ccIE2zG5.s 			page 33


 465              	.L38:
 349:Generated_Source\PSoC6\pdl\drivers\peripheral\ipc/cy_ipc_sema.c ****         }
 350:Generated_Source\PSoC6\pdl\drivers\peripheral\ipc/cy_ipc_sema.c ****     }
 351:Generated_Source\PSoC6\pdl\drivers\peripheral\ipc/cy_ipc_sema.c ****     else
 352:Generated_Source\PSoC6\pdl\drivers\peripheral\ipc/cy_ipc_sema.c ****     {
 353:Generated_Source\PSoC6\pdl\drivers\peripheral\ipc/cy_ipc_sema.c ****         retStatus = CY_IPC_SEMA_OUT_OF_RANGE;
 466              		.loc 1 353 0
 467 0064 054C     		ldr	r4, .L42+8
 468              	.LVL63:
 354:Generated_Source\PSoC6\pdl\drivers\peripheral\ipc/cy_ipc_sema.c ****     }
 355:Generated_Source\PSoC6\pdl\drivers\peripheral\ipc/cy_ipc_sema.c ****     return(retStatus);
 469              		.loc 1 355 0
 470 0066 01E0     		b	.L40
 471              	.LVL64:
 472              	.L41:
 339:Generated_Source\PSoC6\pdl\drivers\peripheral\ipc/cy_ipc_sema.c ****             }
 473              		.loc 1 339 0
 474 0068 054C     		ldr	r4, .L42+12
 475 006a F3E7     		b	.L37
 476              	.LVL65:
 477              	.L40:
 356:Generated_Source\PSoC6\pdl\drivers\peripheral\ipc/cy_ipc_sema.c **** }
 478              		.loc 1 356 0
 479 006c 2046     		mov	r0, r4
 480 006e BDE8F081 		pop	{r4, r5, r6, r7, r8, pc}
 481              	.LVL66:
 482              	.L43:
 483 0072 00BF     		.align	2
 484              	.L42:
 485 0074 00000000 		.word	.LANCHOR0
 486 0078 03018800 		.word	8913155
 487 007c 04018A00 		.word	9044228
 488 0080 02018800 		.word	8913154
 489              		.cfi_endproc
 490              	.LFE154:
 491              		.size	Cy_IPC_Sema_Clear, .-Cy_IPC_Sema_Clear
 492              		.section	.text.Cy_IPC_Sema_Status,"ax",%progbits
 493              		.align	1
 494              		.global	Cy_IPC_Sema_Status
 495              		.thumb
 496              		.thumb_func
 497              		.type	Cy_IPC_Sema_Status, %function
 498              	Cy_IPC_Sema_Status:
 499              	.LFB155:
 357:Generated_Source\PSoC6\pdl\drivers\peripheral\ipc/cy_ipc_sema.c **** 
 358:Generated_Source\PSoC6\pdl\drivers\peripheral\ipc/cy_ipc_sema.c **** 
 359:Generated_Source\PSoC6\pdl\drivers\peripheral\ipc/cy_ipc_sema.c **** /*******************************************************************************
 360:Generated_Source\PSoC6\pdl\drivers\peripheral\ipc/cy_ipc_sema.c **** * Function Name: Cy_IPC_Sema_Status
 361:Generated_Source\PSoC6\pdl\drivers\peripheral\ipc/cy_ipc_sema.c **** ****************************************************************************//**
 362:Generated_Source\PSoC6\pdl\drivers\peripheral\ipc/cy_ipc_sema.c **** *
 363:Generated_Source\PSoC6\pdl\drivers\peripheral\ipc/cy_ipc_sema.c **** * This function returns the status of the semaphore.
 364:Generated_Source\PSoC6\pdl\drivers\peripheral\ipc/cy_ipc_sema.c **** *
 365:Generated_Source\PSoC6\pdl\drivers\peripheral\ipc/cy_ipc_sema.c **** * \param semaNumber
 366:Generated_Source\PSoC6\pdl\drivers\peripheral\ipc/cy_ipc_sema.c **** *  The index of the semaphore to return status.
 367:Generated_Source\PSoC6\pdl\drivers\peripheral\ipc/cy_ipc_sema.c **** *
 368:Generated_Source\PSoC6\pdl\drivers\peripheral\ipc/cy_ipc_sema.c **** * \return Status of the operation
 369:Generated_Source\PSoC6\pdl\drivers\peripheral\ipc/cy_ipc_sema.c **** *     \retval CY_IPC_SEMA_STATUS_LOCKED:    The semaphore is in the set state.
ARM GAS  C:\Users\cmila\AppData\Local\Temp\ccIE2zG5.s 			page 34


 370:Generated_Source\PSoC6\pdl\drivers\peripheral\ipc/cy_ipc_sema.c **** *     \retval CY_IPC_SEMA_STATUS_UNLOCKED:  The semaphore is in the cleared state.
 371:Generated_Source\PSoC6\pdl\drivers\peripheral\ipc/cy_ipc_sema.c **** *     \retval CY_IPC_SEMA_OUT_OF_RANGE:     The semaphore number is not valid
 372:Generated_Source\PSoC6\pdl\drivers\peripheral\ipc/cy_ipc_sema.c **** *
 373:Generated_Source\PSoC6\pdl\drivers\peripheral\ipc/cy_ipc_sema.c **** * \funcusage
 374:Generated_Source\PSoC6\pdl\drivers\peripheral\ipc/cy_ipc_sema.c **** * \snippet IPC_sut_01.cydsn/main_cm4.c snippet_Cy_IPC_Sema_Status
 375:Generated_Source\PSoC6\pdl\drivers\peripheral\ipc/cy_ipc_sema.c **** *
 376:Generated_Source\PSoC6\pdl\drivers\peripheral\ipc/cy_ipc_sema.c **** *******************************************************************************/
 377:Generated_Source\PSoC6\pdl\drivers\peripheral\ipc/cy_ipc_sema.c **** cy_en_ipcsema_status_t Cy_IPC_Sema_Status(uint32_t semaNumber)
 378:Generated_Source\PSoC6\pdl\drivers\peripheral\ipc/cy_ipc_sema.c **** {
 500              		.loc 1 378 0
 501              		.cfi_startproc
 502              		@ args = 0, pretend = 0, frame = 0
 503              		@ frame_needed = 0, uses_anonymous_args = 0
 504              		@ link register save eliminated.
 505              	.LVL67:
 379:Generated_Source\PSoC6\pdl\drivers\peripheral\ipc/cy_ipc_sema.c ****     cy_en_ipcsema_status_t   retStatus;
 380:Generated_Source\PSoC6\pdl\drivers\peripheral\ipc/cy_ipc_sema.c ****     uint32_t semaIndex;
 381:Generated_Source\PSoC6\pdl\drivers\peripheral\ipc/cy_ipc_sema.c ****     uint32_t semaMask;
 382:Generated_Source\PSoC6\pdl\drivers\peripheral\ipc/cy_ipc_sema.c ****     cy_stc_ipc_sema_t      *semaStruct;
 383:Generated_Source\PSoC6\pdl\drivers\peripheral\ipc/cy_ipc_sema.c **** 
 384:Generated_Source\PSoC6\pdl\drivers\peripheral\ipc/cy_ipc_sema.c ****     /* Get pointer to structure */
 385:Generated_Source\PSoC6\pdl\drivers\peripheral\ipc/cy_ipc_sema.c ****     semaStruct = (cy_stc_ipc_sema_t *)Cy_IPC_Drv_ReadDataValue(cy_semaIpcStruct);
 506              		.loc 1 385 0
 507 0000 0B4B     		ldr	r3, .L48
 508 0002 1B68     		ldr	r3, [r3]
 509              	.LVL68:
 510              	.LBB50:
 511              	.LBB51:
 776:Generated_Source\PSoC6\pdl\drivers\peripheral\ipc/cy_ipc_drv.h **** }
 512              		.loc 2 776 0
 513 0004 DB68     		ldr	r3, [r3, #12]
 514              	.LVL69:
 515              	.LBE51:
 516              	.LBE50:
 386:Generated_Source\PSoC6\pdl\drivers\peripheral\ipc/cy_ipc_sema.c **** 
 387:Generated_Source\PSoC6\pdl\drivers\peripheral\ipc/cy_ipc_sema.c ****     if (semaNumber < semaStruct->maxSema)
 517              		.loc 1 387 0
 518 0006 1A68     		ldr	r2, [r3]
 519 0008 8242     		cmp	r2, r0
 520 000a 0ED9     		bls	.L46
 388:Generated_Source\PSoC6\pdl\drivers\peripheral\ipc/cy_ipc_sema.c ****     {
 389:Generated_Source\PSoC6\pdl\drivers\peripheral\ipc/cy_ipc_sema.c ****         /* Get the index into the semaphore array and calculate the mask */
 390:Generated_Source\PSoC6\pdl\drivers\peripheral\ipc/cy_ipc_sema.c ****         semaIndex = semaNumber / CY_IPC_SEMA_PER_WORD;
 521              		.loc 1 390 0
 522 000c 4209     		lsrs	r2, r0, #5
 523              	.LVL70:
 391:Generated_Source\PSoC6\pdl\drivers\peripheral\ipc/cy_ipc_sema.c ****         semaMask = (uint32_t)(1ul << (semaNumber - (semaIndex * CY_IPC_SEMA_PER_WORD) ));
 392:Generated_Source\PSoC6\pdl\drivers\peripheral\ipc/cy_ipc_sema.c **** 
 393:Generated_Source\PSoC6\pdl\drivers\peripheral\ipc/cy_ipc_sema.c ****         if((semaStruct->arrayPtr[semaIndex] & semaMask) != 0ul)
 524              		.loc 1 393 0
 525 000e 5968     		ldr	r1, [r3, #4]
 526 0010 A0EB4210 		sub	r0, r0, r2, lsl #5
 527              	.LVL71:
 528 0014 0123     		movs	r3, #1
 529              	.LVL72:
 530 0016 03FA00F0 		lsl	r0, r3, r0
 531 001a 51F82230 		ldr	r3, [r1, r2, lsl #2]
ARM GAS  C:\Users\cmila\AppData\Local\Temp\ccIE2zG5.s 			page 35


 532 001e 1842     		tst	r0, r3
 394:Generated_Source\PSoC6\pdl\drivers\peripheral\ipc/cy_ipc_sema.c ****         {
 395:Generated_Source\PSoC6\pdl\drivers\peripheral\ipc/cy_ipc_sema.c ****             retStatus =  CY_IPC_SEMA_STATUS_LOCKED;
 396:Generated_Source\PSoC6\pdl\drivers\peripheral\ipc/cy_ipc_sema.c ****         }
 397:Generated_Source\PSoC6\pdl\drivers\peripheral\ipc/cy_ipc_sema.c ****         else
 398:Generated_Source\PSoC6\pdl\drivers\peripheral\ipc/cy_ipc_sema.c ****         {
 399:Generated_Source\PSoC6\pdl\drivers\peripheral\ipc/cy_ipc_sema.c ****             retStatus =  CY_IPC_SEMA_STATUS_UNLOCKED;
 533              		.loc 1 399 0
 534 0020 044B     		ldr	r3, .L48+4
 535 0022 0548     		ldr	r0, .L48+8
 536 0024 18BF     		it	ne
 537 0026 1846     		movne	r0, r3
 538 0028 7047     		bx	lr
 539              	.LVL73:
 540              	.L46:
 400:Generated_Source\PSoC6\pdl\drivers\peripheral\ipc/cy_ipc_sema.c ****         }
 401:Generated_Source\PSoC6\pdl\drivers\peripheral\ipc/cy_ipc_sema.c ****     }
 402:Generated_Source\PSoC6\pdl\drivers\peripheral\ipc/cy_ipc_sema.c ****     else
 403:Generated_Source\PSoC6\pdl\drivers\peripheral\ipc/cy_ipc_sema.c ****     {
 404:Generated_Source\PSoC6\pdl\drivers\peripheral\ipc/cy_ipc_sema.c ****         retStatus = CY_IPC_SEMA_OUT_OF_RANGE;
 541              		.loc 1 404 0
 542 002a 0448     		ldr	r0, .L48+12
 543              	.LVL74:
 405:Generated_Source\PSoC6\pdl\drivers\peripheral\ipc/cy_ipc_sema.c ****     }
 406:Generated_Source\PSoC6\pdl\drivers\peripheral\ipc/cy_ipc_sema.c ****     return(retStatus);
 407:Generated_Source\PSoC6\pdl\drivers\peripheral\ipc/cy_ipc_sema.c **** }
 544              		.loc 1 407 0
 545 002c 7047     		bx	lr
 546              	.L49:
 547 002e 00BF     		.align	2
 548              	.L48:
 549 0030 00000000 		.word	.LANCHOR0
 550 0034 01018800 		.word	8913153
 551 0038 00018800 		.word	8913152
 552 003c 04018A00 		.word	9044228
 553              		.cfi_endproc
 554              	.LFE155:
 555              		.size	Cy_IPC_Sema_Status, .-Cy_IPC_Sema_Status
 556              		.section	.text.Cy_IPC_Sema_GetMaxSems,"ax",%progbits
 557              		.align	1
 558              		.global	Cy_IPC_Sema_GetMaxSems
 559              		.thumb
 560              		.thumb_func
 561              		.type	Cy_IPC_Sema_GetMaxSems, %function
 562              	Cy_IPC_Sema_GetMaxSems:
 563              	.LFB156:
 408:Generated_Source\PSoC6\pdl\drivers\peripheral\ipc/cy_ipc_sema.c **** 
 409:Generated_Source\PSoC6\pdl\drivers\peripheral\ipc/cy_ipc_sema.c **** 
 410:Generated_Source\PSoC6\pdl\drivers\peripheral\ipc/cy_ipc_sema.c **** /*******************************************************************************
 411:Generated_Source\PSoC6\pdl\drivers\peripheral\ipc/cy_ipc_sema.c **** * Function Name: Cy_IPC_Sema_GetMaxSems
 412:Generated_Source\PSoC6\pdl\drivers\peripheral\ipc/cy_ipc_sema.c **** ****************************************************************************//**
 413:Generated_Source\PSoC6\pdl\drivers\peripheral\ipc/cy_ipc_sema.c **** *
 414:Generated_Source\PSoC6\pdl\drivers\peripheral\ipc/cy_ipc_sema.c **** * This function returns the number of semaphores in the semaphores subsystem.
 415:Generated_Source\PSoC6\pdl\drivers\peripheral\ipc/cy_ipc_sema.c **** *
 416:Generated_Source\PSoC6\pdl\drivers\peripheral\ipc/cy_ipc_sema.c **** * \return
 417:Generated_Source\PSoC6\pdl\drivers\peripheral\ipc/cy_ipc_sema.c **** *     Returns the semaphores quantity.
 418:Generated_Source\PSoC6\pdl\drivers\peripheral\ipc/cy_ipc_sema.c **** *
ARM GAS  C:\Users\cmila\AppData\Local\Temp\ccIE2zG5.s 			page 36


 419:Generated_Source\PSoC6\pdl\drivers\peripheral\ipc/cy_ipc_sema.c **** * \funcusage
 420:Generated_Source\PSoC6\pdl\drivers\peripheral\ipc/cy_ipc_sema.c **** * \snippet IPC_sut_01.cydsn/main_cm4.c snippet_Cy_IPC_Sema_GetMaxSems
 421:Generated_Source\PSoC6\pdl\drivers\peripheral\ipc/cy_ipc_sema.c **** *
 422:Generated_Source\PSoC6\pdl\drivers\peripheral\ipc/cy_ipc_sema.c **** *******************************************************************************/
 423:Generated_Source\PSoC6\pdl\drivers\peripheral\ipc/cy_ipc_sema.c **** uint32_t Cy_IPC_Sema_GetMaxSems(void)
 424:Generated_Source\PSoC6\pdl\drivers\peripheral\ipc/cy_ipc_sema.c **** {
 564              		.loc 1 424 0
 565              		.cfi_startproc
 566              		@ args = 0, pretend = 0, frame = 0
 567              		@ frame_needed = 0, uses_anonymous_args = 0
 568              		@ link register save eliminated.
 425:Generated_Source\PSoC6\pdl\drivers\peripheral\ipc/cy_ipc_sema.c ****     cy_stc_ipc_sema_t      *semaStruct;
 426:Generated_Source\PSoC6\pdl\drivers\peripheral\ipc/cy_ipc_sema.c **** 
 427:Generated_Source\PSoC6\pdl\drivers\peripheral\ipc/cy_ipc_sema.c ****     /* Get pointer to structure */
 428:Generated_Source\PSoC6\pdl\drivers\peripheral\ipc/cy_ipc_sema.c ****     semaStruct = (cy_stc_ipc_sema_t *)Cy_IPC_Drv_ReadDataValue(cy_semaIpcStruct);
 569              		.loc 1 428 0
 570 0000 024B     		ldr	r3, .L51
 571 0002 1B68     		ldr	r3, [r3]
 572              	.LVL75:
 573              	.LBB52:
 574              	.LBB53:
 776:Generated_Source\PSoC6\pdl\drivers\peripheral\ipc/cy_ipc_drv.h **** }
 575              		.loc 2 776 0
 576 0004 DB68     		ldr	r3, [r3, #12]
 577              	.LVL76:
 578              	.LBE53:
 579              	.LBE52:
 429:Generated_Source\PSoC6\pdl\drivers\peripheral\ipc/cy_ipc_sema.c **** 
 430:Generated_Source\PSoC6\pdl\drivers\peripheral\ipc/cy_ipc_sema.c ****     return (semaStruct->maxSema);
 431:Generated_Source\PSoC6\pdl\drivers\peripheral\ipc/cy_ipc_sema.c **** }
 580              		.loc 1 431 0
 581 0006 1868     		ldr	r0, [r3]
 582 0008 7047     		bx	lr
 583              	.L52:
 584 000a 00BF     		.align	2
 585              	.L51:
 586 000c 00000000 		.word	.LANCHOR0
 587              		.cfi_endproc
 588              	.LFE156:
 589              		.size	Cy_IPC_Sema_GetMaxSems, .-Cy_IPC_Sema_GetMaxSems
 590              		.bss
 591              		.align	2
 592              		.set	.LANCHOR0,. + 0
 593              		.type	cy_semaIpcStruct, %object
 594              		.size	cy_semaIpcStruct, 4
 595              	cy_semaIpcStruct:
 596 0000 00000000 		.space	4
 597              		.type	cy_semaData.10633, %object
 598              		.size	cy_semaData.10633, 8
 599              	cy_semaData.10633:
 600 0004 00000000 		.space	8
 600      00000000 
 601              		.text
 602              	.Letext0:
 603              		.file 3 "c:\\program files (x86)\\cypress\\psoc creator\\4.4\\psoc creator\\import\\gnu\\arm\\5.4.
 604              		.file 4 "c:\\program files (x86)\\cypress\\psoc creator\\4.4\\psoc creator\\import\\gnu\\arm\\5.4.
 605              		.file 5 "Generated_Source\\PSoC6\\pdl\\devices/psoc6/include/ip/cyip_ipc.h"
ARM GAS  C:\Users\cmila\AppData\Local\Temp\ccIE2zG5.s 			page 37


 606              		.file 6 "Generated_Source\\PSoC6\\pdl\\drivers/peripheral/device/cy_device.h"
 607              		.file 7 "Generated_Source\\PSoC6\\pdl\\devices/psoc6/include/psoc6_01_config.h"
 608              		.file 8 "Generated_Source\\PSoC6\\pdl\\drivers\\peripheral\\ipc\\cy_ipc_sema.h"
 609              		.file 9 "Generated_Source\\PSoC6\\pdl\\cmsis/include/core_cm4.h"
 610              		.file 10 "Generated_Source\\PSoC6\\pdl\\drivers/peripheral/syslib/cy_syslib.h"
 611              		.section	.debug_info,"",%progbits
 612              	.Ldebug_info0:
 613 0000 EA0B0000 		.4byte	0xbea
 614 0004 0400     		.2byte	0x4
 615 0006 00000000 		.4byte	.Ldebug_abbrev0
 616 000a 04       		.byte	0x4
 617 000b 01       		.uleb128 0x1
 618 000c 46000000 		.4byte	.LASF168
 619 0010 0C       		.byte	0xc
 620 0011 F9000000 		.4byte	.LASF169
 621 0015 BA010000 		.4byte	.LASF170
 622 0019 18000000 		.4byte	.Ldebug_ranges0+0x18
 623 001d 00000000 		.4byte	0
 624 0021 00000000 		.4byte	.Ldebug_line0
 625 0025 02       		.uleb128 0x2
 626 0026 01       		.byte	0x1
 627 0027 06       		.byte	0x6
 628 0028 EC020000 		.4byte	.LASF0
 629 002c 03       		.uleb128 0x3
 630 002d 7C010000 		.4byte	.LASF2
 631 0031 03       		.byte	0x3
 632 0032 1D       		.byte	0x1d
 633 0033 37000000 		.4byte	0x37
 634 0037 02       		.uleb128 0x2
 635 0038 01       		.byte	0x1
 636 0039 08       		.byte	0x8
 637 003a 6A080000 		.4byte	.LASF1
 638 003e 03       		.uleb128 0x3
 639 003f A7040000 		.4byte	.LASF3
 640 0043 03       		.byte	0x3
 641 0044 29       		.byte	0x29
 642 0045 49000000 		.4byte	0x49
 643 0049 02       		.uleb128 0x2
 644 004a 02       		.byte	0x2
 645 004b 05       		.byte	0x5
 646 004c B5080000 		.4byte	.LASF4
 647 0050 03       		.uleb128 0x3
 648 0051 7C090000 		.4byte	.LASF5
 649 0055 03       		.byte	0x3
 650 0056 2B       		.byte	0x2b
 651 0057 5B000000 		.4byte	0x5b
 652 005b 02       		.uleb128 0x2
 653 005c 02       		.byte	0x2
 654 005d 07       		.byte	0x7
 655 005e 0E040000 		.4byte	.LASF6
 656 0062 03       		.uleb128 0x3
 657 0063 9A090000 		.4byte	.LASF7
 658 0067 03       		.byte	0x3
 659 0068 3F       		.byte	0x3f
 660 0069 6D000000 		.4byte	0x6d
 661 006d 02       		.uleb128 0x2
 662 006e 04       		.byte	0x4
ARM GAS  C:\Users\cmila\AppData\Local\Temp\ccIE2zG5.s 			page 38


 663 006f 05       		.byte	0x5
 664 0070 75030000 		.4byte	.LASF8
 665 0074 03       		.uleb128 0x3
 666 0075 67040000 		.4byte	.LASF9
 667 0079 03       		.byte	0x3
 668 007a 41       		.byte	0x41
 669 007b 7F000000 		.4byte	0x7f
 670 007f 02       		.uleb128 0x2
 671 0080 04       		.byte	0x4
 672 0081 07       		.byte	0x7
 673 0082 48050000 		.4byte	.LASF10
 674 0086 02       		.uleb128 0x2
 675 0087 08       		.byte	0x8
 676 0088 05       		.byte	0x5
 677 0089 DE020000 		.4byte	.LASF11
 678 008d 02       		.uleb128 0x2
 679 008e 08       		.byte	0x8
 680 008f 07       		.byte	0x7
 681 0090 4A020000 		.4byte	.LASF12
 682 0094 04       		.uleb128 0x4
 683 0095 04       		.byte	0x4
 684 0096 05       		.byte	0x5
 685 0097 696E7400 		.ascii	"int\000"
 686 009b 02       		.uleb128 0x2
 687 009c 04       		.byte	0x4
 688 009d 07       		.byte	0x7
 689 009e 8C030000 		.4byte	.LASF13
 690 00a2 03       		.uleb128 0x3
 691 00a3 6B0A0000 		.4byte	.LASF14
 692 00a7 04       		.byte	0x4
 693 00a8 18       		.byte	0x18
 694 00a9 2C000000 		.4byte	0x2c
 695 00ad 03       		.uleb128 0x3
 696 00ae D6020000 		.4byte	.LASF15
 697 00b2 04       		.byte	0x4
 698 00b3 20       		.byte	0x20
 699 00b4 3E000000 		.4byte	0x3e
 700 00b8 03       		.uleb128 0x3
 701 00b9 19050000 		.4byte	.LASF16
 702 00bd 04       		.byte	0x4
 703 00be 24       		.byte	0x24
 704 00bf 50000000 		.4byte	0x50
 705 00c3 03       		.uleb128 0x3
 706 00c4 62080000 		.4byte	.LASF17
 707 00c8 04       		.byte	0x4
 708 00c9 2C       		.byte	0x2c
 709 00ca 62000000 		.4byte	0x62
 710 00ce 03       		.uleb128 0x3
 711 00cf 0D090000 		.4byte	.LASF18
 712 00d3 04       		.byte	0x4
 713 00d4 30       		.byte	0x30
 714 00d5 74000000 		.4byte	0x74
 715 00d9 02       		.uleb128 0x2
 716 00da 08       		.byte	0x8
 717 00db 04       		.byte	0x4
 718 00dc 30090000 		.4byte	.LASF19
 719 00e0 05       		.uleb128 0x5
ARM GAS  C:\Users\cmila\AppData\Local\Temp\ccIE2zG5.s 			page 39


 720 00e1 CE000000 		.4byte	0xce
 721 00e5 06       		.uleb128 0x6
 722 00e6 E0000000 		.4byte	0xe0
 723 00ea 07       		.uleb128 0x7
 724 00eb E5000000 		.4byte	0xe5
 725 00ef FA000000 		.4byte	0xfa
 726 00f3 08       		.uleb128 0x8
 727 00f4 FA000000 		.4byte	0xfa
 728 00f8 02       		.byte	0x2
 729 00f9 00       		.byte	0
 730 00fa 02       		.uleb128 0x2
 731 00fb 04       		.byte	0x4
 732 00fc 07       		.byte	0x7
 733 00fd 1F070000 		.4byte	.LASF20
 734 0101 09       		.uleb128 0x9
 735 0102 20       		.byte	0x20
 736 0103 05       		.byte	0x5
 737 0104 23       		.byte	0x23
 738 0105 52010000 		.4byte	0x152
 739 0109 0A       		.uleb128 0xa
 740 010a 0D030000 		.4byte	.LASF21
 741 010e 05       		.byte	0x5
 742 010f 24       		.byte	0x24
 743 0110 E5000000 		.4byte	0xe5
 744 0114 00       		.byte	0
 745 0115 0A       		.uleb128 0xa
 746 0116 B2010000 		.4byte	.LASF22
 747 011a 05       		.byte	0x5
 748 011b 25       		.byte	0x25
 749 011c E0000000 		.4byte	0xe0
 750 0120 04       		.byte	0x4
 751 0121 0A       		.uleb128 0xa
 752 0122 29090000 		.4byte	.LASF23
 753 0126 05       		.byte	0x5
 754 0127 26       		.byte	0x26
 755 0128 E0000000 		.4byte	0xe0
 756 012c 08       		.byte	0x8
 757 012d 0A       		.uleb128 0xa
 758 012e D8050000 		.4byte	.LASF24
 759 0132 05       		.byte	0x5
 760 0133 27       		.byte	0x27
 761 0134 E0000000 		.4byte	0xe0
 762 0138 0C       		.byte	0xc
 763 0139 0A       		.uleb128 0xa
 764 013a 82040000 		.4byte	.LASF25
 765 013e 05       		.byte	0x5
 766 013f 28       		.byte	0x28
 767 0140 E5000000 		.4byte	0xe5
 768 0144 10       		.byte	0x10
 769 0145 0A       		.uleb128 0xa
 770 0146 D2080000 		.4byte	.LASF26
 771 014a 05       		.byte	0x5
 772 014b 29       		.byte	0x29
 773 014c 57010000 		.4byte	0x157
 774 0150 14       		.byte	0x14
 775 0151 00       		.byte	0
 776 0152 05       		.uleb128 0x5
ARM GAS  C:\Users\cmila\AppData\Local\Temp\ccIE2zG5.s 			page 40


 777 0153 EA000000 		.4byte	0xea
 778 0157 06       		.uleb128 0x6
 779 0158 52010000 		.4byte	0x152
 780 015c 03       		.uleb128 0x3
 781 015d BF080000 		.4byte	.LASF27
 782 0161 05       		.byte	0x5
 783 0162 2A       		.byte	0x2a
 784 0163 01010000 		.4byte	0x101
 785 0167 09       		.uleb128 0x9
 786 0168 B8       		.byte	0xb8
 787 0169 06       		.byte	0x6
 788 016a 34       		.byte	0x34
 789 016b 78050000 		.4byte	0x578
 790 016f 0A       		.uleb128 0xa
 791 0170 1A020000 		.4byte	.LASF28
 792 0174 06       		.byte	0x6
 793 0175 37       		.byte	0x37
 794 0176 CE000000 		.4byte	0xce
 795 017a 00       		.byte	0
 796 017b 0A       		.uleb128 0xa
 797 017c 5C040000 		.4byte	.LASF29
 798 0180 06       		.byte	0x6
 799 0181 38       		.byte	0x38
 800 0182 CE000000 		.4byte	0xce
 801 0186 04       		.byte	0x4
 802 0187 0A       		.uleb128 0xa
 803 0188 99030000 		.4byte	.LASF30
 804 018c 06       		.byte	0x6
 805 018d 39       		.byte	0x39
 806 018e CE000000 		.4byte	0xce
 807 0192 08       		.byte	0x8
 808 0193 0A       		.uleb128 0xa
 809 0194 54080000 		.4byte	.LASF31
 810 0198 06       		.byte	0x6
 811 0199 3A       		.byte	0x3a
 812 019a CE000000 		.4byte	0xce
 813 019e 0C       		.byte	0xc
 814 019f 0A       		.uleb128 0xa
 815 01a0 360A0000 		.4byte	.LASF32
 816 01a4 06       		.byte	0x6
 817 01a5 3B       		.byte	0x3b
 818 01a6 CE000000 		.4byte	0xce
 819 01aa 10       		.byte	0x10
 820 01ab 0A       		.uleb128 0xa
 821 01ac 6B030000 		.4byte	.LASF33
 822 01b0 06       		.byte	0x6
 823 01b1 3C       		.byte	0x3c
 824 01b2 CE000000 		.4byte	0xce
 825 01b6 14       		.byte	0x14
 826 01b7 0A       		.uleb128 0xa
 827 01b8 87050000 		.4byte	.LASF34
 828 01bc 06       		.byte	0x6
 829 01bd 3D       		.byte	0x3d
 830 01be CE000000 		.4byte	0xce
 831 01c2 18       		.byte	0x18
 832 01c3 0A       		.uleb128 0xa
 833 01c4 58010000 		.4byte	.LASF35
ARM GAS  C:\Users\cmila\AppData\Local\Temp\ccIE2zG5.s 			page 41


 834 01c8 06       		.byte	0x6
 835 01c9 3E       		.byte	0x3e
 836 01ca CE000000 		.4byte	0xce
 837 01ce 1C       		.byte	0x1c
 838 01cf 0A       		.uleb128 0xa
 839 01d0 1C0B0000 		.4byte	.LASF36
 840 01d4 06       		.byte	0x6
 841 01d5 3F       		.byte	0x3f
 842 01d6 CE000000 		.4byte	0xce
 843 01da 20       		.byte	0x20
 844 01db 0A       		.uleb128 0xa
 845 01dc FB060000 		.4byte	.LASF37
 846 01e0 06       		.byte	0x6
 847 01e1 40       		.byte	0x40
 848 01e2 CE000000 		.4byte	0xce
 849 01e6 24       		.byte	0x24
 850 01e7 0A       		.uleb128 0xa
 851 01e8 91060000 		.4byte	.LASF38
 852 01ec 06       		.byte	0x6
 853 01ed 43       		.byte	0x43
 854 01ee A2000000 		.4byte	0xa2
 855 01f2 28       		.byte	0x28
 856 01f3 0A       		.uleb128 0xa
 857 01f4 39010000 		.4byte	.LASF39
 858 01f8 06       		.byte	0x6
 859 01f9 44       		.byte	0x44
 860 01fa A2000000 		.4byte	0xa2
 861 01fe 29       		.byte	0x29
 862 01ff 0A       		.uleb128 0xa
 863 0200 120B0000 		.4byte	.LASF40
 864 0204 06       		.byte	0x6
 865 0205 45       		.byte	0x45
 866 0206 A2000000 		.4byte	0xa2
 867 020a 2A       		.byte	0x2a
 868 020b 0A       		.uleb128 0xa
 869 020c 1A080000 		.4byte	.LASF41
 870 0210 06       		.byte	0x6
 871 0211 46       		.byte	0x46
 872 0212 A2000000 		.4byte	0xa2
 873 0216 2B       		.byte	0x2b
 874 0217 0A       		.uleb128 0xa
 875 0218 04060000 		.4byte	.LASF42
 876 021c 06       		.byte	0x6
 877 021d 47       		.byte	0x47
 878 021e A2000000 		.4byte	0xa2
 879 0222 2C       		.byte	0x2c
 880 0223 0A       		.uleb128 0xa
 881 0224 A4090000 		.4byte	.LASF43
 882 0228 06       		.byte	0x6
 883 0229 48       		.byte	0x48
 884 022a A2000000 		.4byte	0xa2
 885 022e 2D       		.byte	0x2d
 886 022f 0A       		.uleb128 0xa
 887 0230 2B030000 		.4byte	.LASF44
 888 0234 06       		.byte	0x6
 889 0235 49       		.byte	0x49
 890 0236 A2000000 		.4byte	0xa2
ARM GAS  C:\Users\cmila\AppData\Local\Temp\ccIE2zG5.s 			page 42


 891 023a 2E       		.byte	0x2e
 892 023b 0A       		.uleb128 0xa
 893 023c 0B070000 		.4byte	.LASF45
 894 0240 06       		.byte	0x6
 895 0241 4A       		.byte	0x4a
 896 0242 A2000000 		.4byte	0xa2
 897 0246 2F       		.byte	0x2f
 898 0247 0A       		.uleb128 0xa
 899 0248 41090000 		.4byte	.LASF46
 900 024c 06       		.byte	0x6
 901 024d 4B       		.byte	0x4b
 902 024e A2000000 		.4byte	0xa2
 903 0252 30       		.byte	0x30
 904 0253 0A       		.uleb128 0xa
 905 0254 69050000 		.4byte	.LASF47
 906 0258 06       		.byte	0x6
 907 0259 4E       		.byte	0x4e
 908 025a A2000000 		.4byte	0xa2
 909 025e 31       		.byte	0x31
 910 025f 0A       		.uleb128 0xa
 911 0260 6E010000 		.4byte	.LASF48
 912 0264 06       		.byte	0x6
 913 0265 4F       		.byte	0x4f
 914 0266 A2000000 		.4byte	0xa2
 915 026a 32       		.byte	0x32
 916 026b 0A       		.uleb128 0xa
 917 026c F6040000 		.4byte	.LASF49
 918 0270 06       		.byte	0x6
 919 0271 50       		.byte	0x50
 920 0272 A2000000 		.4byte	0xa2
 921 0276 33       		.byte	0x33
 922 0277 0A       		.uleb128 0xa
 923 0278 33070000 		.4byte	.LASF50
 924 027c 06       		.byte	0x6
 925 027d 51       		.byte	0x51
 926 027e A2000000 		.4byte	0xa2
 927 0282 34       		.byte	0x34
 928 0283 0A       		.uleb128 0xa
 929 0284 180A0000 		.4byte	.LASF51
 930 0288 06       		.byte	0x6
 931 0289 52       		.byte	0x52
 932 028a AD000000 		.4byte	0xad
 933 028e 36       		.byte	0x36
 934 028f 0A       		.uleb128 0xa
 935 0290 B3030000 		.4byte	.LASF52
 936 0294 06       		.byte	0x6
 937 0295 53       		.byte	0x53
 938 0296 AD000000 		.4byte	0xad
 939 029a 38       		.byte	0x38
 940 029b 0A       		.uleb128 0xa
 941 029c 460A0000 		.4byte	.LASF53
 942 02a0 06       		.byte	0x6
 943 02a1 54       		.byte	0x54
 944 02a2 AD000000 		.4byte	0xad
 945 02a6 3A       		.byte	0x3a
 946 02a7 0A       		.uleb128 0xa
 947 02a8 030B0000 		.4byte	.LASF54
ARM GAS  C:\Users\cmila\AppData\Local\Temp\ccIE2zG5.s 			page 43


 948 02ac 06       		.byte	0x6
 949 02ad 55       		.byte	0x55
 950 02ae A2000000 		.4byte	0xa2
 951 02b2 3C       		.byte	0x3c
 952 02b3 0A       		.uleb128 0xa
 953 02b4 DA030000 		.4byte	.LASF55
 954 02b8 06       		.byte	0x6
 955 02b9 56       		.byte	0x56
 956 02ba A2000000 		.4byte	0xa2
 957 02be 3D       		.byte	0x3d
 958 02bf 0A       		.uleb128 0xa
 959 02c0 EF080000 		.4byte	.LASF56
 960 02c4 06       		.byte	0x6
 961 02c5 57       		.byte	0x57
 962 02c6 A2000000 		.4byte	0xa2
 963 02ca 3E       		.byte	0x3e
 964 02cb 0A       		.uleb128 0xa
 965 02cc 33020000 		.4byte	.LASF57
 966 02d0 06       		.byte	0x6
 967 02d1 58       		.byte	0x58
 968 02d2 A2000000 		.4byte	0xa2
 969 02d6 3F       		.byte	0x3f
 970 02d7 0A       		.uleb128 0xa
 971 02d8 BB070000 		.4byte	.LASF58
 972 02dc 06       		.byte	0x6
 973 02dd 59       		.byte	0x59
 974 02de A2000000 		.4byte	0xa2
 975 02e2 40       		.byte	0x40
 976 02e3 0A       		.uleb128 0xa
 977 02e4 72040000 		.4byte	.LASF59
 978 02e8 06       		.byte	0x6
 979 02e9 5A       		.byte	0x5a
 980 02ea A2000000 		.4byte	0xa2
 981 02ee 41       		.byte	0x41
 982 02ef 0A       		.uleb128 0xa
 983 02f0 70060000 		.4byte	.LASF60
 984 02f4 06       		.byte	0x6
 985 02f5 5B       		.byte	0x5b
 986 02f6 A2000000 		.4byte	0xa2
 987 02fa 42       		.byte	0x42
 988 02fb 0A       		.uleb128 0xa
 989 02fc 96070000 		.4byte	.LASF61
 990 0300 06       		.byte	0x6
 991 0301 5C       		.byte	0x5c
 992 0302 A2000000 		.4byte	0xa2
 993 0306 43       		.byte	0x43
 994 0307 0A       		.uleb128 0xa
 995 0308 A2030000 		.4byte	.LASF62
 996 030c 06       		.byte	0x6
 997 030d 5D       		.byte	0x5d
 998 030e A2000000 		.4byte	0xa2
 999 0312 44       		.byte	0x44
 1000 0313 0A       		.uleb128 0xa
 1001 0314 E9060000 		.4byte	.LASF63
 1002 0318 06       		.byte	0x6
 1003 0319 5E       		.byte	0x5e
 1004 031a CE000000 		.4byte	0xce
ARM GAS  C:\Users\cmila\AppData\Local\Temp\ccIE2zG5.s 			page 44


 1005 031e 48       		.byte	0x48
 1006 031f 0A       		.uleb128 0xa
 1007 0320 7E030000 		.4byte	.LASF64
 1008 0324 06       		.byte	0x6
 1009 0325 5F       		.byte	0x5f
 1010 0326 CE000000 		.4byte	0xce
 1011 032a 4C       		.byte	0x4c
 1012 032b 0A       		.uleb128 0xa
 1013 032c 61020000 		.4byte	.LASF65
 1014 0330 06       		.byte	0x6
 1015 0331 60       		.byte	0x60
 1016 0332 A2000000 		.4byte	0xa2
 1017 0336 50       		.byte	0x50
 1018 0337 0A       		.uleb128 0xa
 1019 0338 B0020000 		.4byte	.LASF66
 1020 033c 06       		.byte	0x6
 1021 033d 61       		.byte	0x61
 1022 033e A2000000 		.4byte	0xa2
 1023 0342 51       		.byte	0x51
 1024 0343 0A       		.uleb128 0xa
 1025 0344 5B0A0000 		.4byte	.LASF67
 1026 0348 06       		.byte	0x6
 1027 0349 62       		.byte	0x62
 1028 034a A2000000 		.4byte	0xa2
 1029 034e 52       		.byte	0x52
 1030 034f 0A       		.uleb128 0xa
 1031 0350 3A0B0000 		.4byte	.LASF68
 1032 0354 06       		.byte	0x6
 1033 0355 63       		.byte	0x63
 1034 0356 A2000000 		.4byte	0xa2
 1035 035a 53       		.byte	0x53
 1036 035b 0A       		.uleb128 0xa
 1037 035c FD080000 		.4byte	.LASF69
 1038 0360 06       		.byte	0x6
 1039 0361 64       		.byte	0x64
 1040 0362 A2000000 		.4byte	0xa2
 1041 0366 54       		.byte	0x54
 1042 0367 0A       		.uleb128 0xa
 1043 0368 C2020000 		.4byte	.LASF70
 1044 036c 06       		.byte	0x6
 1045 036d 65       		.byte	0x65
 1046 036e A2000000 		.4byte	0xa2
 1047 0372 55       		.byte	0x55
 1048 0373 0A       		.uleb128 0xa
 1049 0374 CA090000 		.4byte	.LASF71
 1050 0378 06       		.byte	0x6
 1051 0379 66       		.byte	0x66
 1052 037a A2000000 		.4byte	0xa2
 1053 037e 56       		.byte	0x56
 1054 037f 0A       		.uleb128 0xa
 1055 0380 90050000 		.4byte	.LASF72
 1056 0384 06       		.byte	0x6
 1057 0385 67       		.byte	0x67
 1058 0386 A2000000 		.4byte	0xa2
 1059 038a 57       		.byte	0x57
 1060 038b 0A       		.uleb128 0xa
 1061 038c 1F000000 		.4byte	.LASF73
ARM GAS  C:\Users\cmila\AppData\Local\Temp\ccIE2zG5.s 			page 45


 1062 0390 06       		.byte	0x6
 1063 0391 68       		.byte	0x68
 1064 0392 A2000000 		.4byte	0xa2
 1065 0396 58       		.byte	0x58
 1066 0397 0A       		.uleb128 0xa
 1067 0398 78080000 		.4byte	.LASF74
 1068 039c 06       		.byte	0x6
 1069 039d 69       		.byte	0x69
 1070 039e A2000000 		.4byte	0xa2
 1071 03a2 59       		.byte	0x59
 1072 03a3 0A       		.uleb128 0xa
 1073 03a4 28070000 		.4byte	.LASF75
 1074 03a8 06       		.byte	0x6
 1075 03a9 6E       		.byte	0x6e
 1076 03aa B8000000 		.4byte	0xb8
 1077 03ae 5A       		.byte	0x5a
 1078 03af 0A       		.uleb128 0xa
 1079 03b0 F5090000 		.4byte	.LASF76
 1080 03b4 06       		.byte	0x6
 1081 03b5 6F       		.byte	0x6f
 1082 03b6 B8000000 		.4byte	0xb8
 1083 03ba 5C       		.byte	0x5c
 1084 03bb 0A       		.uleb128 0xa
 1085 03bc 24020000 		.4byte	.LASF77
 1086 03c0 06       		.byte	0x6
 1087 03c1 70       		.byte	0x70
 1088 03c2 A2000000 		.4byte	0xa2
 1089 03c6 5E       		.byte	0x5e
 1090 03c7 0A       		.uleb128 0xa
 1091 03c8 04080000 		.4byte	.LASF78
 1092 03cc 06       		.byte	0x6
 1093 03cd 71       		.byte	0x71
 1094 03ce A2000000 		.4byte	0xa2
 1095 03d2 5F       		.byte	0x5f
 1096 03d3 0A       		.uleb128 0xa
 1097 03d4 69070000 		.4byte	.LASF79
 1098 03d8 06       		.byte	0x6
 1099 03d9 72       		.byte	0x72
 1100 03da A2000000 		.4byte	0xa2
 1101 03de 60       		.byte	0x60
 1102 03df 0A       		.uleb128 0xa
 1103 03e0 CE070000 		.4byte	.LASF80
 1104 03e4 06       		.byte	0x6
 1105 03e5 73       		.byte	0x73
 1106 03e6 CE000000 		.4byte	0xce
 1107 03ea 64       		.byte	0x64
 1108 03eb 0A       		.uleb128 0xa
 1109 03ec 72020000 		.4byte	.LASF81
 1110 03f0 06       		.byte	0x6
 1111 03f1 76       		.byte	0x76
 1112 03f2 B8000000 		.4byte	0xb8
 1113 03f6 68       		.byte	0x68
 1114 03f7 0A       		.uleb128 0xa
 1115 03f8 22050000 		.4byte	.LASF82
 1116 03fc 06       		.byte	0x6
 1117 03fd 77       		.byte	0x77
 1118 03fe B8000000 		.4byte	0xb8
ARM GAS  C:\Users\cmila\AppData\Local\Temp\ccIE2zG5.s 			page 46


 1119 0402 6A       		.byte	0x6a
 1120 0403 0A       		.uleb128 0xa
 1121 0404 DF070000 		.4byte	.LASF83
 1122 0408 06       		.byte	0x6
 1123 0409 78       		.byte	0x78
 1124 040a B8000000 		.4byte	0xb8
 1125 040e 6C       		.byte	0x6c
 1126 040f 0A       		.uleb128 0xa
 1127 0410 61010000 		.4byte	.LASF84
 1128 0414 06       		.byte	0x6
 1129 0415 79       		.byte	0x79
 1130 0416 B8000000 		.4byte	0xb8
 1131 041a 6E       		.byte	0x6e
 1132 041b 0A       		.uleb128 0xa
 1133 041c DB080000 		.4byte	.LASF85
 1134 0420 06       		.byte	0x6
 1135 0421 7B       		.byte	0x7b
 1136 0422 A2000000 		.4byte	0xa2
 1137 0426 70       		.byte	0x70
 1138 0427 0A       		.uleb128 0xa
 1139 0428 F8020000 		.4byte	.LASF86
 1140 042c 06       		.byte	0x6
 1141 042d 7C       		.byte	0x7c
 1142 042e A2000000 		.4byte	0xa2
 1143 0432 71       		.byte	0x71
 1144 0433 0A       		.uleb128 0xa
 1145 0434 240B0000 		.4byte	.LASF87
 1146 0438 06       		.byte	0x6
 1147 0439 7D       		.byte	0x7d
 1148 043a A2000000 		.4byte	0xa2
 1149 043e 72       		.byte	0x72
 1150 043f 0A       		.uleb128 0xa
 1151 0440 44070000 		.4byte	.LASF88
 1152 0444 06       		.byte	0x6
 1153 0445 7E       		.byte	0x7e
 1154 0446 A2000000 		.4byte	0xa2
 1155 044a 73       		.byte	0x73
 1156 044b 0A       		.uleb128 0xa
 1157 044c FC030000 		.4byte	.LASF89
 1158 0450 06       		.byte	0x6
 1159 0451 80       		.byte	0x80
 1160 0452 B8000000 		.4byte	0xb8
 1161 0456 74       		.byte	0x74
 1162 0457 0A       		.uleb128 0xa
 1163 0458 87090000 		.4byte	.LASF90
 1164 045c 06       		.byte	0x6
 1165 045d 81       		.byte	0x81
 1166 045e B8000000 		.4byte	0xb8
 1167 0462 76       		.byte	0x76
 1168 0463 0A       		.uleb128 0xa
 1169 0464 C5030000 		.4byte	.LASF91
 1170 0468 06       		.byte	0x6
 1171 0469 82       		.byte	0x82
 1172 046a B8000000 		.4byte	0xb8
 1173 046e 78       		.byte	0x78
 1174 046f 0A       		.uleb128 0xa
 1175 0470 86010000 		.4byte	.LASF92
ARM GAS  C:\Users\cmila\AppData\Local\Temp\ccIE2zG5.s 			page 47


 1176 0474 06       		.byte	0x6
 1177 0475 83       		.byte	0x83
 1178 0476 B8000000 		.4byte	0xb8
 1179 047a 7A       		.byte	0x7a
 1180 047b 0A       		.uleb128 0xa
 1181 047c 880A0000 		.4byte	.LASF93
 1182 0480 06       		.byte	0x6
 1183 0481 86       		.byte	0x86
 1184 0482 A2000000 		.4byte	0xa2
 1185 0486 7C       		.byte	0x7c
 1186 0487 0A       		.uleb128 0xa
 1187 0488 250A0000 		.4byte	.LASF94
 1188 048c 06       		.byte	0x6
 1189 048d 87       		.byte	0x87
 1190 048e A2000000 		.4byte	0xa2
 1191 0492 7D       		.byte	0x7d
 1192 0493 0A       		.uleb128 0xa
 1193 0494 33000000 		.4byte	.LASF95
 1194 0498 06       		.byte	0x6
 1195 0499 88       		.byte	0x88
 1196 049a A2000000 		.4byte	0xa2
 1197 049e 7E       		.byte	0x7e
 1198 049f 0A       		.uleb128 0xa
 1199 04a0 3F040000 		.4byte	.LASF96
 1200 04a4 06       		.byte	0x6
 1201 04a5 89       		.byte	0x89
 1202 04a6 A2000000 		.4byte	0xa2
 1203 04aa 7F       		.byte	0x7f
 1204 04ab 0A       		.uleb128 0xa
 1205 04ac E2040000 		.4byte	.LASF97
 1206 04b0 06       		.byte	0x6
 1207 04b1 8A       		.byte	0x8a
 1208 04b2 A2000000 		.4byte	0xa2
 1209 04b6 80       		.byte	0x80
 1210 04b7 0A       		.uleb128 0xa
 1211 04b8 9E060000 		.4byte	.LASF98
 1212 04bc 06       		.byte	0x6
 1213 04bd 8D       		.byte	0x8d
 1214 04be CE000000 		.4byte	0xce
 1215 04c2 84       		.byte	0x84
 1216 04c3 0A       		.uleb128 0xa
 1217 04c4 9B010000 		.4byte	.LASF99
 1218 04c8 06       		.byte	0x6
 1219 04c9 8E       		.byte	0x8e
 1220 04ca CE000000 		.4byte	0xce
 1221 04ce 88       		.byte	0x88
 1222 04cf 0A       		.uleb128 0xa
 1223 04d0 730A0000 		.4byte	.LASF100
 1224 04d4 06       		.byte	0x6
 1225 04d5 8F       		.byte	0x8f
 1226 04d6 CE000000 		.4byte	0xce
 1227 04da 8C       		.byte	0x8c
 1228 04db 0A       		.uleb128 0xa
 1229 04dc 8C080000 		.4byte	.LASF101
 1230 04e0 06       		.byte	0x6
 1231 04e1 90       		.byte	0x90
 1232 04e2 CE000000 		.4byte	0xce
ARM GAS  C:\Users\cmila\AppData\Local\Temp\ccIE2zG5.s 			page 48


 1233 04e6 90       		.byte	0x90
 1234 04e7 0A       		.uleb128 0xa
 1235 04e8 CD040000 		.4byte	.LASF102
 1236 04ec 06       		.byte	0x6
 1237 04ed 91       		.byte	0x91
 1238 04ee CE000000 		.4byte	0xce
 1239 04f2 94       		.byte	0x94
 1240 04f3 0A       		.uleb128 0xa
 1241 04f4 15030000 		.4byte	.LASF103
 1242 04f8 06       		.byte	0x6
 1243 04f9 92       		.byte	0x92
 1244 04fa CE000000 		.4byte	0xce
 1245 04fe 98       		.byte	0x98
 1246 04ff 0A       		.uleb128 0xa
 1247 0500 CC0A0000 		.4byte	.LASF104
 1248 0504 06       		.byte	0x6
 1249 0505 93       		.byte	0x93
 1250 0506 CE000000 		.4byte	0xce
 1251 050a 9C       		.byte	0x9c
 1252 050b 0A       		.uleb128 0xa
 1253 050c 82020000 		.4byte	.LASF105
 1254 0510 06       		.byte	0x6
 1255 0511 94       		.byte	0x94
 1256 0512 CE000000 		.4byte	0xce
 1257 0516 A0       		.byte	0xa0
 1258 0517 0A       		.uleb128 0xa
 1259 0518 3D030000 		.4byte	.LASF106
 1260 051c 06       		.byte	0x6
 1261 051d 95       		.byte	0x95
 1262 051e B8000000 		.4byte	0xb8
 1263 0522 A4       		.byte	0xa4
 1264 0523 0A       		.uleb128 0xa
 1265 0524 7C060000 		.4byte	.LASF107
 1266 0528 06       		.byte	0x6
 1267 0529 96       		.byte	0x96
 1268 052a B8000000 		.4byte	0xb8
 1269 052e A6       		.byte	0xa6
 1270 052f 0A       		.uleb128 0xa
 1271 0530 F8070000 		.4byte	.LASF108
 1272 0534 06       		.byte	0x6
 1273 0535 97       		.byte	0x97
 1274 0536 B8000000 		.4byte	0xb8
 1275 053a A8       		.byte	0xa8
 1276 053b 0A       		.uleb128 0xa
 1277 053c 4D090000 		.4byte	.LASF109
 1278 0540 06       		.byte	0x6
 1279 0541 98       		.byte	0x98
 1280 0542 B8000000 		.4byte	0xb8
 1281 0546 AA       		.byte	0xaa
 1282 0547 0A       		.uleb128 0xa
 1283 0548 C3050000 		.4byte	.LASF110
 1284 054c 06       		.byte	0x6
 1285 054d 99       		.byte	0x99
 1286 054e B8000000 		.4byte	0xb8
 1287 0552 AC       		.byte	0xac
 1288 0553 0A       		.uleb128 0xa
 1289 0554 5B070000 		.4byte	.LASF111
ARM GAS  C:\Users\cmila\AppData\Local\Temp\ccIE2zG5.s 			page 49


 1290 0558 06       		.byte	0x6
 1291 0559 9A       		.byte	0x9a
 1292 055a B8000000 		.4byte	0xb8
 1293 055e AE       		.byte	0xae
 1294 055f 0A       		.uleb128 0xa
 1295 0560 0A0A0000 		.4byte	.LASF112
 1296 0564 06       		.byte	0x6
 1297 0565 9D       		.byte	0x9d
 1298 0566 B8000000 		.4byte	0xb8
 1299 056a B0       		.byte	0xb0
 1300 056b 0A       		.uleb128 0xa
 1301 056c A1080000 		.4byte	.LASF113
 1302 0570 06       		.byte	0x6
 1303 0571 9E       		.byte	0x9e
 1304 0572 CE000000 		.4byte	0xce
 1305 0576 B4       		.byte	0xb4
 1306 0577 00       		.byte	0
 1307 0578 03       		.uleb128 0x3
 1308 0579 41060000 		.4byte	.LASF114
 1309 057d 06       		.byte	0x6
 1310 057e 9F       		.byte	0x9f
 1311 057f 67010000 		.4byte	0x167
 1312 0583 0B       		.uleb128 0xb
 1313 0584 F30A0000 		.4byte	.LASF115
 1314 0588 07       		.byte	0x7
 1315 0589 1D06     		.2byte	0x61d
 1316 058b 5C010000 		.4byte	0x15c
 1317 058f 02       		.uleb128 0x2
 1318 0590 01       		.byte	0x1
 1319 0591 08       		.byte	0x8
 1320 0592 3C090000 		.4byte	.LASF116
 1321 0596 02       		.uleb128 0x2
 1322 0597 04       		.byte	0x4
 1323 0598 04       		.byte	0x4
 1324 0599 C8070000 		.4byte	.LASF117
 1325 059d 02       		.uleb128 0x2
 1326 059e 08       		.byte	0x8
 1327 059f 04       		.byte	0x4
 1328 05a0 BE030000 		.4byte	.LASF118
 1329 05a4 0C       		.uleb128 0xc
 1330 05a5 04       		.byte	0x4
 1331 05a6 9B000000 		.4byte	0x9b
 1332 05aa 02       		.byte	0x2
 1333 05ab 7201     		.2byte	0x172
 1334 05ad C1050000 		.4byte	0x5c1
 1335 05b1 0D       		.uleb128 0xd
 1336 05b2 BA040000 		.4byte	.LASF119
 1337 05b6 00       		.byte	0
 1338 05b7 0E       		.uleb128 0xe
 1339 05b8 47010000 		.4byte	.LASF120
 1340 05bc 01008A00 		.4byte	0x8a0001
 1341 05c0 00       		.byte	0
 1342 05c1 0B       		.uleb128 0xb
 1343 05c2 DD050000 		.4byte	.LASF121
 1344 05c6 02       		.byte	0x2
 1345 05c7 7901     		.2byte	0x179
 1346 05c9 A4050000 		.4byte	0x5a4
ARM GAS  C:\Users\cmila\AppData\Local\Temp\ccIE2zG5.s 			page 50


 1347 05cd 0F       		.uleb128 0xf
 1348 05ce 04       		.byte	0x4
 1349 05cf 9B000000 		.4byte	0x9b
 1350 05d3 08       		.byte	0x8
 1351 05d4 47       		.byte	0x47
 1352 05d5 28060000 		.4byte	0x628
 1353 05d9 0D       		.uleb128 0xd
 1354 05da 34050000 		.4byte	.LASF122
 1355 05de 00       		.byte	0
 1356 05df 0E       		.uleb128 0xe
 1357 05e0 8E040000 		.4byte	.LASF123
 1358 05e4 01018A00 		.4byte	0x8a0101
 1359 05e8 0E       		.uleb128 0xe
 1360 05e9 B5060000 		.4byte	.LASF124
 1361 05ed 02018A00 		.4byte	0x8a0102
 1362 05f1 0E       		.uleb128 0xe
 1363 05f2 3E080000 		.4byte	.LASF125
 1364 05f6 03018A00 		.4byte	0x8a0103
 1365 05fa 0E       		.uleb128 0xe
 1366 05fb D0060000 		.4byte	.LASF126
 1367 05ff 04018A00 		.4byte	0x8a0104
 1368 0603 0E       		.uleb128 0xe
 1369 0604 00000000 		.4byte	.LASF127
 1370 0608 02018800 		.4byte	0x880102
 1371 060c 0E       		.uleb128 0xe
 1372 060d 74050000 		.4byte	.LASF128
 1373 0611 03018800 		.4byte	0x880103
 1374 0615 0E       		.uleb128 0xe
 1375 0616 10060000 		.4byte	.LASF129
 1376 061a 01018800 		.4byte	0x880101
 1377 061e 0E       		.uleb128 0xe
 1378 061f 7A070000 		.4byte	.LASF130
 1379 0623 00018800 		.4byte	0x880100
 1380 0627 00       		.byte	0
 1381 0628 03       		.uleb128 0x3
 1382 0629 DE090000 		.4byte	.LASF131
 1383 062d 08       		.byte	0x8
 1384 062e 5C       		.byte	0x5c
 1385 062f CD050000 		.4byte	0x5cd
 1386 0633 09       		.uleb128 0x9
 1387 0634 08       		.byte	0x8
 1388 0635 08       		.byte	0x8
 1389 0636 60       		.byte	0x60
 1390 0637 54060000 		.4byte	0x654
 1391 063b 0A       		.uleb128 0xa
 1392 063c 17070000 		.4byte	.LASF132
 1393 0640 08       		.byte	0x8
 1394 0641 63       		.byte	0x63
 1395 0642 CE000000 		.4byte	0xce
 1396 0646 00       		.byte	0
 1397 0647 0A       		.uleb128 0xa
 1398 0648 B1040000 		.4byte	.LASF133
 1399 064c 08       		.byte	0x8
 1400 064d 65       		.byte	0x65
 1401 064e 54060000 		.4byte	0x654
 1402 0652 04       		.byte	0x4
 1403 0653 00       		.byte	0
ARM GAS  C:\Users\cmila\AppData\Local\Temp\ccIE2zG5.s 			page 51


 1404 0654 10       		.uleb128 0x10
 1405 0655 04       		.byte	0x4
 1406 0656 CE000000 		.4byte	0xce
 1407 065a 03       		.uleb128 0x3
 1408 065b BA0A0000 		.4byte	.LASF134
 1409 065f 08       		.byte	0x8
 1410 0660 66       		.byte	0x66
 1411 0661 33060000 		.4byte	0x633
 1412 0665 11       		.uleb128 0x11
 1413 0666 28080000 		.4byte	.LASF140
 1414 066a 02       		.byte	0x2
 1415 066b 9103     		.2byte	0x391
 1416 066d C1050000 		.4byte	0x5c1
 1417 0671 03       		.byte	0x3
 1418 0672 9B060000 		.4byte	0x69b
 1419 0676 12       		.uleb128 0x12
 1420 0677 06070000 		.4byte	.LASF135
 1421 067b 02       		.byte	0x2
 1422 067c 9103     		.2byte	0x391
 1423 067e 9B060000 		.4byte	0x69b
 1424 0682 12       		.uleb128 0x12
 1425 0683 52030000 		.4byte	.LASF136
 1426 0687 02       		.byte	0x2
 1427 0688 9103     		.2byte	0x391
 1428 068a CE000000 		.4byte	0xce
 1429 068e 12       		.uleb128 0x12
 1430 068f D1050000 		.4byte	.LASF137
 1431 0693 02       		.byte	0x2
 1432 0694 9103     		.2byte	0x391
 1433 0696 A1060000 		.4byte	0x6a1
 1434 069a 00       		.byte	0
 1435 069b 10       		.uleb128 0x10
 1436 069c 04       		.byte	0x4
 1437 069d 83050000 		.4byte	0x583
 1438 06a1 10       		.uleb128 0x10
 1439 06a2 04       		.byte	0x4
 1440 06a3 A7060000 		.4byte	0x6a7
 1441 06a7 13       		.uleb128 0x13
 1442 06a8 14       		.uleb128 0x14
 1443 06a9 AF050000 		.4byte	.LASF171
 1444 06ad 01       		.byte	0x1
 1445 06ae 7B       		.byte	0x7b
 1446 06af 28060000 		.4byte	0x628
 1447 06b3 01       		.byte	0x1
 1448 06b4 DA060000 		.4byte	0x6da
 1449 06b8 15       		.uleb128 0x15
 1450 06b9 A4050000 		.4byte	.LASF138
 1451 06bd 01       		.byte	0x1
 1452 06be 7B       		.byte	0x7b
 1453 06bf CE000000 		.4byte	0xce
 1454 06c3 15       		.uleb128 0x15
 1455 06c4 B3070000 		.4byte	.LASF139
 1456 06c8 01       		.byte	0x1
 1457 06c9 7B       		.byte	0x7b
 1458 06ca DA060000 		.4byte	0x6da
 1459 06ce 16       		.uleb128 0x16
 1460 06cf 4C0B0000 		.4byte	.LASF147
ARM GAS  C:\Users\cmila\AppData\Local\Temp\ccIE2zG5.s 			page 52


 1461 06d3 01       		.byte	0x1
 1462 06d4 7D       		.byte	0x7d
 1463 06d5 28060000 		.4byte	0x628
 1464 06d9 00       		.byte	0
 1465 06da 10       		.uleb128 0x10
 1466 06db 04       		.byte	0x4
 1467 06dc 5A060000 		.4byte	0x65a
 1468 06e0 11       		.uleb128 0x11
 1469 06e1 B1090000 		.4byte	.LASF141
 1470 06e5 02       		.byte	0x2
 1471 06e6 0603     		.2byte	0x306
 1472 06e8 CE000000 		.4byte	0xce
 1473 06ec 03       		.byte	0x3
 1474 06ed FE060000 		.4byte	0x6fe
 1475 06f1 12       		.uleb128 0x12
 1476 06f2 06070000 		.4byte	.LASF135
 1477 06f6 02       		.byte	0x2
 1478 06f7 0603     		.2byte	0x306
 1479 06f9 FE060000 		.4byte	0x6fe
 1480 06fd 00       		.byte	0
 1481 06fe 10       		.uleb128 0x10
 1482 06ff 04       		.byte	0x4
 1483 0700 04070000 		.4byte	0x704
 1484 0704 06       		.uleb128 0x6
 1485 0705 83050000 		.4byte	0x583
 1486 0709 11       		.uleb128 0x11
 1487 070a 9D0A0000 		.4byte	.LASF142
 1488 070e 02       		.byte	0x2
 1489 070f C101     		.2byte	0x1c1
 1490 0711 9B060000 		.4byte	0x69b
 1491 0715 03       		.byte	0x3
 1492 0716 27070000 		.4byte	0x727
 1493 071a 12       		.uleb128 0x12
 1494 071b 53040000 		.4byte	.LASF143
 1495 071f 02       		.byte	0x2
 1496 0720 C101     		.2byte	0x1c1
 1497 0722 CE000000 		.4byte	0xce
 1498 0726 00       		.byte	0
 1499 0727 17       		.uleb128 0x17
 1500 0728 A8060000 		.4byte	0x6a8
 1501 072c 00000000 		.4byte	.LFB152
 1502 0730 68000000 		.4byte	.LFE152-.LFB152
 1503 0734 01       		.uleb128 0x1
 1504 0735 9C       		.byte	0x9c
 1505 0736 1E080000 		.4byte	0x81e
 1506 073a 18       		.uleb128 0x18
 1507 073b B8060000 		.4byte	0x6b8
 1508 073f 00000000 		.4byte	.LLST0
 1509 0743 18       		.uleb128 0x18
 1510 0744 C3060000 		.4byte	0x6c3
 1511 0748 3A000000 		.4byte	.LLST1
 1512 074c 19       		.uleb128 0x19
 1513 074d CE060000 		.4byte	0x6ce
 1514 0751 66000000 		.4byte	.LLST2
 1515 0755 1A       		.uleb128 0x1a
 1516 0756 09070000 		.4byte	0x709
 1517 075a 1A000000 		.4byte	.LBB22
ARM GAS  C:\Users\cmila\AppData\Local\Temp\ccIE2zG5.s 			page 53


 1518 075e 00000000 		.4byte	.Ldebug_ranges0+0
 1519 0762 01       		.byte	0x1
 1520 0763 8A       		.byte	0x8a
 1521 0764 72070000 		.4byte	0x772
 1522 0768 18       		.uleb128 0x18
 1523 0769 1A070000 		.4byte	0x71a
 1524 076d 89000000 		.4byte	.LLST3
 1525 0771 00       		.byte	0
 1526 0772 1B       		.uleb128 0x1b
 1527 0773 65060000 		.4byte	0x665
 1528 0777 3A000000 		.4byte	.LBB26
 1529 077b 0A000000 		.4byte	.LBE26-.LBB26
 1530 077f 01       		.byte	0x1
 1531 0780 94       		.byte	0x94
 1532 0781 B7070000 		.4byte	0x7b7
 1533 0785 18       		.uleb128 0x18
 1534 0786 8E060000 		.4byte	0x68e
 1535 078a 9C000000 		.4byte	.LLST4
 1536 078e 18       		.uleb128 0x18
 1537 078f 82060000 		.4byte	0x682
 1538 0793 AF000000 		.4byte	.LLST5
 1539 0797 18       		.uleb128 0x18
 1540 0798 76060000 		.4byte	0x676
 1541 079c C3000000 		.4byte	.LLST6
 1542 07a0 1C       		.uleb128 0x1c
 1543 07a1 44000000 		.4byte	.LVL7
 1544 07a5 B40B0000 		.4byte	0xbb4
 1545 07a9 1D       		.uleb128 0x1d
 1546 07aa 01       		.uleb128 0x1
 1547 07ab 51       		.byte	0x51
 1548 07ac 02       		.uleb128 0x2
 1549 07ad 77       		.byte	0x77
 1550 07ae 00       		.sleb128 0
 1551 07af 1D       		.uleb128 0x1d
 1552 07b0 01       		.uleb128 0x1
 1553 07b1 52       		.byte	0x52
 1554 07b2 02       		.uleb128 0x2
 1555 07b3 74       		.byte	0x74
 1556 07b4 00       		.sleb128 0
 1557 07b5 00       		.byte	0
 1558 07b6 00       		.byte	0
 1559 07b7 1E       		.uleb128 0x1e
 1560 07b8 48000000 		.4byte	.LBB28
 1561 07bc 0C000000 		.4byte	.LBE28-.LBB28
 1562 07c0 F3070000 		.4byte	0x7f3
 1563 07c4 18       		.uleb128 0x18
 1564 07c5 B8060000 		.4byte	0x6b8
 1565 07c9 DA000000 		.4byte	.LLST7
 1566 07cd 18       		.uleb128 0x18
 1567 07ce C3060000 		.4byte	0x6c3
 1568 07d2 F0000000 		.4byte	.LLST8
 1569 07d6 1F       		.uleb128 0x1f
 1570 07d7 48000000 		.4byte	.LBB29
 1571 07db 0C000000 		.4byte	.LBE29-.LBB29
 1572 07df 19       		.uleb128 0x19
 1573 07e0 CE060000 		.4byte	0x6ce
 1574 07e4 03010000 		.4byte	.LLST9
ARM GAS  C:\Users\cmila\AppData\Local\Temp\ccIE2zG5.s 			page 54


 1575 07e8 20       		.uleb128 0x20
 1576 07e9 4E000000 		.4byte	.LVL9
 1577 07ed C00B0000 		.4byte	0xbc0
 1578 07f1 00       		.byte	0
 1579 07f2 00       		.byte	0
 1580 07f3 21       		.uleb128 0x21
 1581 07f4 32000000 		.4byte	.LVL5
 1582 07f8 CC0B0000 		.4byte	0xbcc
 1583 07fc 07080000 		.4byte	0x807
 1584 0800 1D       		.uleb128 0x1d
 1585 0801 01       		.uleb128 0x1
 1586 0802 51       		.byte	0x51
 1587 0803 02       		.uleb128 0x2
 1588 0804 77       		.byte	0x77
 1589 0805 00       		.sleb128 0
 1590 0806 00       		.byte	0
 1591 0807 1C       		.uleb128 0x1c
 1592 0808 3A000000 		.4byte	.LVL6
 1593 080c C00B0000 		.4byte	0xbc0
 1594 0810 1D       		.uleb128 0x1d
 1595 0811 01       		.uleb128 0x1
 1596 0812 50       		.byte	0x50
 1597 0813 02       		.uleb128 0x2
 1598 0814 75       		.byte	0x75
 1599 0815 00       		.sleb128 0
 1600 0816 1D       		.uleb128 0x1d
 1601 0817 01       		.uleb128 0x1
 1602 0818 51       		.byte	0x51
 1603 0819 02       		.uleb128 0x2
 1604 081a 77       		.byte	0x77
 1605 081b 00       		.sleb128 0
 1606 081c 00       		.byte	0
 1607 081d 00       		.byte	0
 1608 081e 22       		.uleb128 0x22
 1609 081f F3050000 		.4byte	.LASF149
 1610 0823 01       		.byte	0x1
 1611 0824 3E       		.byte	0x3e
 1612 0825 28060000 		.4byte	0x628
 1613 0829 00000000 		.4byte	.LFB151
 1614 082d 44000000 		.4byte	.LFE151-.LFB151
 1615 0831 01       		.uleb128 0x1
 1616 0832 9C       		.byte	0x9c
 1617 0833 B5080000 		.4byte	0x8b5
 1618 0837 23       		.uleb128 0x23
 1619 0838 A4050000 		.4byte	.LASF138
 1620 083c 01       		.byte	0x1
 1621 083d 3E       		.byte	0x3e
 1622 083e CE000000 		.4byte	0xce
 1623 0842 1B010000 		.4byte	.LLST10
 1624 0846 23       		.uleb128 0x23
 1625 0847 19000000 		.4byte	.LASF144
 1626 084b 01       		.byte	0x1
 1627 084c 3F       		.byte	0x3f
 1628 084d CE000000 		.4byte	0xce
 1629 0851 76010000 		.4byte	.LLST11
 1630 0855 23       		.uleb128 0x23
 1631 0856 36030000 		.4byte	.LASF145
ARM GAS  C:\Users\cmila\AppData\Local\Temp\ccIE2zG5.s 			page 55


 1632 085a 01       		.byte	0x1
 1633 085b 3F       		.byte	0x3f
 1634 085c 54060000 		.4byte	0x654
 1635 0860 B1010000 		.4byte	.LLST12
 1636 0864 24       		.uleb128 0x24
 1637 0865 FE090000 		.4byte	.LASF146
 1638 0869 01       		.byte	0x1
 1639 086a 42       		.byte	0x42
 1640 086b 5A060000 		.4byte	0x65a
 1641 086f 05       		.uleb128 0x5
 1642 0870 03       		.byte	0x3
 1643 0871 04000000 		.4byte	cy_semaData.10633
 1644 0875 25       		.uleb128 0x25
 1645 0876 4C0B0000 		.4byte	.LASF147
 1646 087a 01       		.byte	0x1
 1647 087b 44       		.byte	0x44
 1648 087c 28060000 		.4byte	0x628
 1649 0880 04020000 		.4byte	.LLST13
 1650 0884 1B       		.uleb128 0x1b
 1651 0885 09070000 		.4byte	0x709
 1652 0889 08000000 		.4byte	.LBB32
 1653 088d 04000000 		.4byte	.LBE32-.LBB32
 1654 0891 01       		.byte	0x1
 1655 0892 48       		.byte	0x48
 1656 0893 A1080000 		.4byte	0x8a1
 1657 0897 18       		.uleb128 0x18
 1658 0898 1A070000 		.4byte	0x71a
 1659 089c 43020000 		.4byte	.LLST14
 1660 08a0 00       		.byte	0
 1661 08a1 26       		.uleb128 0x26
 1662 08a2 30000000 		.4byte	.LVL21
 1663 08a6 A8060000 		.4byte	0x6a8
 1664 08aa 1D       		.uleb128 0x1d
 1665 08ab 01       		.uleb128 0x1
 1666 08ac 51       		.byte	0x51
 1667 08ad 05       		.uleb128 0x5
 1668 08ae 03       		.byte	0x3
 1669 08af 04000000 		.4byte	.LANCHOR0+4
 1670 08b3 00       		.byte	0
 1671 08b4 00       		.byte	0
 1672 08b5 11       		.uleb128 0x11
 1673 08b6 2A060000 		.4byte	.LASF148
 1674 08ba 02       		.byte	0x2
 1675 08bb D003     		.2byte	0x3d0
 1676 08bd C1050000 		.4byte	0x5c1
 1677 08c1 03       		.byte	0x3
 1678 08c2 D3080000 		.4byte	0x8d3
 1679 08c6 12       		.uleb128 0x12
 1680 08c7 06070000 		.4byte	.LASF135
 1681 08cb 02       		.byte	0x2
 1682 08cc D003     		.2byte	0x3d0
 1683 08ce FE060000 		.4byte	0x6fe
 1684 08d2 00       		.byte	0
 1685 08d3 22       		.uleb128 0x22
 1686 08d4 620B0000 		.4byte	.LASF150
 1687 08d8 01       		.byte	0x1
 1688 08d9 DA       		.byte	0xda
ARM GAS  C:\Users\cmila\AppData\Local\Temp\ccIE2zG5.s 			page 56


 1689 08da 28060000 		.4byte	0x628
 1690 08de 00000000 		.4byte	.LFB153
 1691 08e2 80000000 		.4byte	.LFE153-.LFB153
 1692 08e6 01       		.uleb128 0x1
 1693 08e7 9C       		.byte	0x9c
 1694 08e8 BC090000 		.4byte	0x9bc
 1695 08ec 23       		.uleb128 0x23
 1696 08ed 3F020000 		.4byte	.LASF151
 1697 08f1 01       		.byte	0x1
 1698 08f2 DA       		.byte	0xda
 1699 08f3 CE000000 		.4byte	0xce
 1700 08f7 56020000 		.4byte	.LLST15
 1701 08fb 23       		.uleb128 0x23
 1702 08fc 560B0000 		.4byte	.LASF152
 1703 0900 01       		.byte	0x1
 1704 0901 DA       		.byte	0xda
 1705 0902 BC090000 		.4byte	0x9bc
 1706 0906 CA020000 		.4byte	.LLST16
 1707 090a 25       		.uleb128 0x25
 1708 090b 72090000 		.4byte	.LASF153
 1709 090f 01       		.byte	0x1
 1710 0910 DC       		.byte	0xdc
 1711 0911 CE000000 		.4byte	0xce
 1712 0915 1D030000 		.4byte	.LLST17
 1713 0919 25       		.uleb128 0x25
 1714 091a 62030000 		.4byte	.LASF154
 1715 091e 01       		.byte	0x1
 1716 091f DD       		.byte	0xdd
 1717 0920 CE000000 		.4byte	0xce
 1718 0924 A0030000 		.4byte	.LLST18
 1719 0928 25       		.uleb128 0x25
 1720 0929 5A050000 		.4byte	.LASF155
 1721 092d 01       		.byte	0x1
 1722 092e DE       		.byte	0xde
 1723 092f CE000000 		.4byte	0xce
 1724 0933 5E040000 		.4byte	.LLST19
 1725 0937 25       		.uleb128 0x25
 1726 0938 A5020000 		.4byte	.LASF156
 1727 093c 01       		.byte	0x1
 1728 093d E0       		.byte	0xe0
 1729 093e DA060000 		.4byte	0x6da
 1730 0942 AB040000 		.4byte	.LLST20
 1731 0946 25       		.uleb128 0x25
 1732 0947 4C0B0000 		.4byte	.LASF147
 1733 094b 01       		.byte	0x1
 1734 094c E1       		.byte	0xe1
 1735 094d 28060000 		.4byte	0x628
 1736 0951 BE040000 		.4byte	.LLST21
 1737 0955 1B       		.uleb128 0x1b
 1738 0956 E0060000 		.4byte	0x6e0
 1739 095a 08000000 		.4byte	.LBB38
 1740 095e 04000000 		.4byte	.LBE38-.LBB38
 1741 0962 01       		.byte	0x1
 1742 0963 E4       		.byte	0xe4
 1743 0964 72090000 		.4byte	0x972
 1744 0968 18       		.uleb128 0x18
 1745 0969 F1060000 		.4byte	0x6f1
ARM GAS  C:\Users\cmila\AppData\Local\Temp\ccIE2zG5.s 			page 57


 1746 096d 22050000 		.4byte	.LLST22
 1747 0971 00       		.byte	0
 1748 0972 1B       		.uleb128 0x1b
 1749 0973 B5080000 		.4byte	0x8b5
 1750 0977 28000000 		.4byte	.LBB40
 1751 097b 06000000 		.4byte	.LBE40-.LBB40
 1752 097f 01       		.byte	0x1
 1753 0980 F2       		.byte	0xf2
 1754 0981 8F090000 		.4byte	0x98f
 1755 0985 18       		.uleb128 0x18
 1756 0986 C6080000 		.4byte	0x8c6
 1757 098a 35050000 		.4byte	.LLST23
 1758 098e 00       		.byte	0
 1759 098f 20       		.uleb128 0x20
 1760 0990 20000000 		.4byte	.LVL28
 1761 0994 D50B0000 		.4byte	0xbd5
 1762 0998 21       		.uleb128 0x21
 1763 0999 58000000 		.4byte	.LVL38
 1764 099d C00B0000 		.4byte	0xbc0
 1765 09a1 AB090000 		.4byte	0x9ab
 1766 09a5 1D       		.uleb128 0x1d
 1767 09a6 01       		.uleb128 0x1
 1768 09a7 51       		.byte	0x51
 1769 09a8 01       		.uleb128 0x1
 1770 09a9 30       		.byte	0x30
 1771 09aa 00       		.byte	0
 1772 09ab 1C       		.uleb128 0x1c
 1773 09ac 60000000 		.4byte	.LVL39
 1774 09b0 E10B0000 		.4byte	0xbe1
 1775 09b4 1D       		.uleb128 0x1d
 1776 09b5 01       		.uleb128 0x1
 1777 09b6 50       		.byte	0x50
 1778 09b7 02       		.uleb128 0x2
 1779 09b8 76       		.byte	0x76
 1780 09b9 00       		.sleb128 0
 1781 09ba 00       		.byte	0
 1782 09bb 00       		.byte	0
 1783 09bc 02       		.uleb128 0x2
 1784 09bd 01       		.byte	0x1
 1785 09be 02       		.byte	0x2
 1786 09bf 5C080000 		.4byte	.LASF157
 1787 09c3 27       		.uleb128 0x27
 1788 09c4 A1070000 		.4byte	.LASF158
 1789 09c8 01       		.byte	0x1
 1790 09c9 3201     		.2byte	0x132
 1791 09cb 28060000 		.4byte	0x628
 1792 09cf 00000000 		.4byte	.LFB154
 1793 09d3 84000000 		.4byte	.LFE154-.LFB154
 1794 09d7 01       		.uleb128 0x1
 1795 09d8 9C       		.byte	0x9c
 1796 09d9 B60A0000 		.4byte	0xab6
 1797 09dd 28       		.uleb128 0x28
 1798 09de 3F020000 		.4byte	.LASF151
 1799 09e2 01       		.byte	0x1
 1800 09e3 3201     		.2byte	0x132
 1801 09e5 CE000000 		.4byte	0xce
 1802 09e9 48050000 		.4byte	.LLST24
ARM GAS  C:\Users\cmila\AppData\Local\Temp\ccIE2zG5.s 			page 58


 1803 09ed 28       		.uleb128 0x28
 1804 09ee 560B0000 		.4byte	.LASF152
 1805 09f2 01       		.byte	0x1
 1806 09f3 3201     		.2byte	0x132
 1807 09f5 BC090000 		.4byte	0x9bc
 1808 09f9 BC050000 		.4byte	.LLST25
 1809 09fd 29       		.uleb128 0x29
 1810 09fe 72090000 		.4byte	.LASF153
 1811 0a02 01       		.byte	0x1
 1812 0a03 3401     		.2byte	0x134
 1813 0a05 CE000000 		.4byte	0xce
 1814 0a09 0F060000 		.4byte	.LLST26
 1815 0a0d 29       		.uleb128 0x29
 1816 0a0e 62030000 		.4byte	.LASF154
 1817 0a12 01       		.byte	0x1
 1818 0a13 3501     		.2byte	0x135
 1819 0a15 CE000000 		.4byte	0xce
 1820 0a19 92060000 		.4byte	.LLST27
 1821 0a1d 29       		.uleb128 0x29
 1822 0a1e 5A050000 		.4byte	.LASF155
 1823 0a22 01       		.byte	0x1
 1824 0a23 3601     		.2byte	0x136
 1825 0a25 CE000000 		.4byte	0xce
 1826 0a29 50070000 		.4byte	.LLST28
 1827 0a2d 29       		.uleb128 0x29
 1828 0a2e A5020000 		.4byte	.LASF156
 1829 0a32 01       		.byte	0x1
 1830 0a33 3801     		.2byte	0x138
 1831 0a35 DA060000 		.4byte	0x6da
 1832 0a39 9D070000 		.4byte	.LLST29
 1833 0a3d 29       		.uleb128 0x29
 1834 0a3e 4C0B0000 		.4byte	.LASF147
 1835 0a42 01       		.byte	0x1
 1836 0a43 3901     		.2byte	0x139
 1837 0a45 28060000 		.4byte	0x628
 1838 0a49 B0070000 		.4byte	.LLST30
 1839 0a4d 2A       		.uleb128 0x2a
 1840 0a4e E0060000 		.4byte	0x6e0
 1841 0a52 08000000 		.4byte	.LBB46
 1842 0a56 04000000 		.4byte	.LBE46-.LBB46
 1843 0a5a 01       		.byte	0x1
 1844 0a5b 3C01     		.2byte	0x13c
 1845 0a5d 6B0A0000 		.4byte	0xa6b
 1846 0a61 18       		.uleb128 0x18
 1847 0a62 F1060000 		.4byte	0x6f1
 1848 0a66 20080000 		.4byte	.LLST31
 1849 0a6a 00       		.byte	0
 1850 0a6b 2A       		.uleb128 0x2a
 1851 0a6c B5080000 		.4byte	0x8b5
 1852 0a70 28000000 		.4byte	.LBB48
 1853 0a74 06000000 		.4byte	.LBE48-.LBB48
 1854 0a78 01       		.byte	0x1
 1855 0a79 4A01     		.2byte	0x14a
 1856 0a7b 890A0000 		.4byte	0xa89
 1857 0a7f 18       		.uleb128 0x18
 1858 0a80 C6080000 		.4byte	0x8c6
 1859 0a84 33080000 		.4byte	.LLST32
ARM GAS  C:\Users\cmila\AppData\Local\Temp\ccIE2zG5.s 			page 59


 1860 0a88 00       		.byte	0
 1861 0a89 20       		.uleb128 0x20
 1862 0a8a 20000000 		.4byte	.LVL49
 1863 0a8e D50B0000 		.4byte	0xbd5
 1864 0a92 21       		.uleb128 0x21
 1865 0a93 5A000000 		.4byte	.LVL60
 1866 0a97 C00B0000 		.4byte	0xbc0
 1867 0a9b A50A0000 		.4byte	0xaa5
 1868 0a9f 1D       		.uleb128 0x1d
 1869 0aa0 01       		.uleb128 0x1
 1870 0aa1 51       		.byte	0x51
 1871 0aa2 01       		.uleb128 0x1
 1872 0aa3 30       		.byte	0x30
 1873 0aa4 00       		.byte	0
 1874 0aa5 1C       		.uleb128 0x1c
 1875 0aa6 62000000 		.4byte	.LVL61
 1876 0aaa E10B0000 		.4byte	0xbe1
 1877 0aae 1D       		.uleb128 0x1d
 1878 0aaf 01       		.uleb128 0x1
 1879 0ab0 50       		.byte	0x50
 1880 0ab1 02       		.uleb128 0x2
 1881 0ab2 77       		.byte	0x77
 1882 0ab3 00       		.sleb128 0
 1883 0ab4 00       		.byte	0
 1884 0ab5 00       		.byte	0
 1885 0ab6 27       		.uleb128 0x27
 1886 0ab7 16090000 		.4byte	.LASF159
 1887 0abb 01       		.byte	0x1
 1888 0abc 7901     		.2byte	0x179
 1889 0abe 28060000 		.4byte	0x628
 1890 0ac2 00000000 		.4byte	.LFB155
 1891 0ac6 40000000 		.4byte	.LFE155-.LFB155
 1892 0aca 01       		.uleb128 0x1
 1893 0acb 9C       		.byte	0x9c
 1894 0acc 390B0000 		.4byte	0xb39
 1895 0ad0 28       		.uleb128 0x28
 1896 0ad1 3F020000 		.4byte	.LASF151
 1897 0ad5 01       		.byte	0x1
 1898 0ad6 7901     		.2byte	0x179
 1899 0ad8 CE000000 		.4byte	0xce
 1900 0adc 46080000 		.4byte	.LLST33
 1901 0ae0 2B       		.uleb128 0x2b
 1902 0ae1 4C0B0000 		.4byte	.LASF147
 1903 0ae5 01       		.byte	0x1
 1904 0ae6 7B01     		.2byte	0x17b
 1905 0ae8 28060000 		.4byte	0x628
 1906 0aec 01       		.uleb128 0x1
 1907 0aed 50       		.byte	0x50
 1908 0aee 29       		.uleb128 0x29
 1909 0aef 72090000 		.4byte	.LASF153
 1910 0af3 01       		.byte	0x1
 1911 0af4 7C01     		.2byte	0x17c
 1912 0af6 CE000000 		.4byte	0xce
 1913 0afa 80080000 		.4byte	.LLST34
 1914 0afe 29       		.uleb128 0x29
 1915 0aff 62030000 		.4byte	.LASF154
 1916 0b03 01       		.byte	0x1
ARM GAS  C:\Users\cmila\AppData\Local\Temp\ccIE2zG5.s 			page 60


 1917 0b04 7D01     		.2byte	0x17d
 1918 0b06 CE000000 		.4byte	0xce
 1919 0b0a 93080000 		.4byte	.LLST35
 1920 0b0e 29       		.uleb128 0x29
 1921 0b0f A5020000 		.4byte	.LASF156
 1922 0b13 01       		.byte	0x1
 1923 0b14 7E01     		.2byte	0x17e
 1924 0b16 DA060000 		.4byte	0x6da
 1925 0b1a C4080000 		.4byte	.LLST36
 1926 0b1e 2C       		.uleb128 0x2c
 1927 0b1f E0060000 		.4byte	0x6e0
 1928 0b23 04000000 		.4byte	.LBB50
 1929 0b27 02000000 		.4byte	.LBE50-.LBB50
 1930 0b2b 01       		.byte	0x1
 1931 0b2c 8101     		.2byte	0x181
 1932 0b2e 18       		.uleb128 0x18
 1933 0b2f F1060000 		.4byte	0x6f1
 1934 0b33 E2080000 		.4byte	.LLST37
 1935 0b37 00       		.byte	0
 1936 0b38 00       		.byte	0
 1937 0b39 27       		.uleb128 0x27
 1938 0b3a 02050000 		.4byte	.LASF160
 1939 0b3e 01       		.byte	0x1
 1940 0b3f A701     		.2byte	0x1a7
 1941 0b41 CE000000 		.4byte	0xce
 1942 0b45 00000000 		.4byte	.LFB156
 1943 0b49 10000000 		.4byte	.LFE156-.LFB156
 1944 0b4d 01       		.uleb128 0x1
 1945 0b4e 9C       		.byte	0x9c
 1946 0b4f 7C0B0000 		.4byte	0xb7c
 1947 0b53 2B       		.uleb128 0x2b
 1948 0b54 A5020000 		.4byte	.LASF156
 1949 0b58 01       		.byte	0x1
 1950 0b59 A901     		.2byte	0x1a9
 1951 0b5b DA060000 		.4byte	0x6da
 1952 0b5f 01       		.uleb128 0x1
 1953 0b60 53       		.byte	0x53
 1954 0b61 2C       		.uleb128 0x2c
 1955 0b62 E0060000 		.4byte	0x6e0
 1956 0b66 04000000 		.4byte	.LBB52
 1957 0b6a 02000000 		.4byte	.LBE52-.LBB52
 1958 0b6e 01       		.byte	0x1
 1959 0b6f AC01     		.2byte	0x1ac
 1960 0b71 18       		.uleb128 0x18
 1961 0b72 F1060000 		.4byte	0x6f1
 1962 0b76 F5080000 		.4byte	.LLST38
 1963 0b7a 00       		.byte	0
 1964 0b7b 00       		.byte	0
 1965 0b7c 24       		.uleb128 0x24
 1966 0b7d E20A0000 		.4byte	.LASF161
 1967 0b81 01       		.byte	0x1
 1968 0b82 19       		.byte	0x19
 1969 0b83 9B060000 		.4byte	0x69b
 1970 0b87 05       		.uleb128 0x5
 1971 0b88 03       		.byte	0x3
 1972 0b89 00000000 		.4byte	cy_semaIpcStruct
 1973 0b8d 2D       		.uleb128 0x2d
ARM GAS  C:\Users\cmila\AppData\Local\Temp\ccIE2zG5.s 			page 61


 1974 0b8e EE070000 		.4byte	.LASF162
 1975 0b92 06       		.byte	0x6
 1976 0b93 A7       		.byte	0xa7
 1977 0b94 980B0000 		.4byte	0xb98
 1978 0b98 10       		.uleb128 0x10
 1979 0b99 04       		.byte	0x4
 1980 0b9a 9E0B0000 		.4byte	0xb9e
 1981 0b9e 06       		.uleb128 0x6
 1982 0b9f 78050000 		.4byte	0x578
 1983 0ba3 2E       		.uleb128 0x2e
 1984 0ba4 98020000 		.4byte	.LASF163
 1985 0ba8 09       		.byte	0x9
 1986 0ba9 F907     		.2byte	0x7f9
 1987 0bab AF0B0000 		.4byte	0xbaf
 1988 0baf 05       		.uleb128 0x5
 1989 0bb0 C3000000 		.4byte	0xc3
 1990 0bb4 2F       		.uleb128 0x2f
 1991 0bb5 5B090000 		.4byte	.LASF164
 1992 0bb9 5B090000 		.4byte	.LASF164
 1993 0bbd 02       		.byte	0x2
 1994 0bbe 9C01     		.2byte	0x19c
 1995 0bc0 2F       		.uleb128 0x2f
 1996 0bc1 E5030000 		.4byte	.LASF165
 1997 0bc5 E5030000 		.4byte	.LASF165
 1998 0bc9 02       		.byte	0x2
 1999 0bca 9801     		.2byte	0x198
 2000 0bcc 30       		.uleb128 0x30
 2001 0bcd 3F0A0000 		.4byte	.LASF172
 2002 0bd1 3F0A0000 		.4byte	.LASF172
 2003 0bd5 2F       		.uleb128 0x2f
 2004 0bd6 51060000 		.4byte	.LASF166
 2005 0bda 51060000 		.4byte	.LASF166
 2006 0bde 0A       		.byte	0xa
 2007 0bdf B203     		.2byte	0x3b2
 2008 0be1 2F       		.uleb128 0x2f
 2009 0be2 21040000 		.4byte	.LASF167
 2010 0be6 21040000 		.4byte	.LASF167
 2011 0bea 0A       		.byte	0xa
 2012 0beb C103     		.2byte	0x3c1
 2013 0bed 00       		.byte	0
 2014              		.section	.debug_abbrev,"",%progbits
 2015              	.Ldebug_abbrev0:
 2016 0000 01       		.uleb128 0x1
 2017 0001 11       		.uleb128 0x11
 2018 0002 01       		.byte	0x1
 2019 0003 25       		.uleb128 0x25
 2020 0004 0E       		.uleb128 0xe
 2021 0005 13       		.uleb128 0x13
 2022 0006 0B       		.uleb128 0xb
 2023 0007 03       		.uleb128 0x3
 2024 0008 0E       		.uleb128 0xe
 2025 0009 1B       		.uleb128 0x1b
 2026 000a 0E       		.uleb128 0xe
 2027 000b 55       		.uleb128 0x55
 2028 000c 17       		.uleb128 0x17
 2029 000d 11       		.uleb128 0x11
 2030 000e 01       		.uleb128 0x1
ARM GAS  C:\Users\cmila\AppData\Local\Temp\ccIE2zG5.s 			page 62


 2031 000f 10       		.uleb128 0x10
 2032 0010 17       		.uleb128 0x17
 2033 0011 00       		.byte	0
 2034 0012 00       		.byte	0
 2035 0013 02       		.uleb128 0x2
 2036 0014 24       		.uleb128 0x24
 2037 0015 00       		.byte	0
 2038 0016 0B       		.uleb128 0xb
 2039 0017 0B       		.uleb128 0xb
 2040 0018 3E       		.uleb128 0x3e
 2041 0019 0B       		.uleb128 0xb
 2042 001a 03       		.uleb128 0x3
 2043 001b 0E       		.uleb128 0xe
 2044 001c 00       		.byte	0
 2045 001d 00       		.byte	0
 2046 001e 03       		.uleb128 0x3
 2047 001f 16       		.uleb128 0x16
 2048 0020 00       		.byte	0
 2049 0021 03       		.uleb128 0x3
 2050 0022 0E       		.uleb128 0xe
 2051 0023 3A       		.uleb128 0x3a
 2052 0024 0B       		.uleb128 0xb
 2053 0025 3B       		.uleb128 0x3b
 2054 0026 0B       		.uleb128 0xb
 2055 0027 49       		.uleb128 0x49
 2056 0028 13       		.uleb128 0x13
 2057 0029 00       		.byte	0
 2058 002a 00       		.byte	0
 2059 002b 04       		.uleb128 0x4
 2060 002c 24       		.uleb128 0x24
 2061 002d 00       		.byte	0
 2062 002e 0B       		.uleb128 0xb
 2063 002f 0B       		.uleb128 0xb
 2064 0030 3E       		.uleb128 0x3e
 2065 0031 0B       		.uleb128 0xb
 2066 0032 03       		.uleb128 0x3
 2067 0033 08       		.uleb128 0x8
 2068 0034 00       		.byte	0
 2069 0035 00       		.byte	0
 2070 0036 05       		.uleb128 0x5
 2071 0037 35       		.uleb128 0x35
 2072 0038 00       		.byte	0
 2073 0039 49       		.uleb128 0x49
 2074 003a 13       		.uleb128 0x13
 2075 003b 00       		.byte	0
 2076 003c 00       		.byte	0
 2077 003d 06       		.uleb128 0x6
 2078 003e 26       		.uleb128 0x26
 2079 003f 00       		.byte	0
 2080 0040 49       		.uleb128 0x49
 2081 0041 13       		.uleb128 0x13
 2082 0042 00       		.byte	0
 2083 0043 00       		.byte	0
 2084 0044 07       		.uleb128 0x7
 2085 0045 01       		.uleb128 0x1
 2086 0046 01       		.byte	0x1
 2087 0047 49       		.uleb128 0x49
ARM GAS  C:\Users\cmila\AppData\Local\Temp\ccIE2zG5.s 			page 63


 2088 0048 13       		.uleb128 0x13
 2089 0049 01       		.uleb128 0x1
 2090 004a 13       		.uleb128 0x13
 2091 004b 00       		.byte	0
 2092 004c 00       		.byte	0
 2093 004d 08       		.uleb128 0x8
 2094 004e 21       		.uleb128 0x21
 2095 004f 00       		.byte	0
 2096 0050 49       		.uleb128 0x49
 2097 0051 13       		.uleb128 0x13
 2098 0052 2F       		.uleb128 0x2f
 2099 0053 0B       		.uleb128 0xb
 2100 0054 00       		.byte	0
 2101 0055 00       		.byte	0
 2102 0056 09       		.uleb128 0x9
 2103 0057 13       		.uleb128 0x13
 2104 0058 01       		.byte	0x1
 2105 0059 0B       		.uleb128 0xb
 2106 005a 0B       		.uleb128 0xb
 2107 005b 3A       		.uleb128 0x3a
 2108 005c 0B       		.uleb128 0xb
 2109 005d 3B       		.uleb128 0x3b
 2110 005e 0B       		.uleb128 0xb
 2111 005f 01       		.uleb128 0x1
 2112 0060 13       		.uleb128 0x13
 2113 0061 00       		.byte	0
 2114 0062 00       		.byte	0
 2115 0063 0A       		.uleb128 0xa
 2116 0064 0D       		.uleb128 0xd
 2117 0065 00       		.byte	0
 2118 0066 03       		.uleb128 0x3
 2119 0067 0E       		.uleb128 0xe
 2120 0068 3A       		.uleb128 0x3a
 2121 0069 0B       		.uleb128 0xb
 2122 006a 3B       		.uleb128 0x3b
 2123 006b 0B       		.uleb128 0xb
 2124 006c 49       		.uleb128 0x49
 2125 006d 13       		.uleb128 0x13
 2126 006e 38       		.uleb128 0x38
 2127 006f 0B       		.uleb128 0xb
 2128 0070 00       		.byte	0
 2129 0071 00       		.byte	0
 2130 0072 0B       		.uleb128 0xb
 2131 0073 16       		.uleb128 0x16
 2132 0074 00       		.byte	0
 2133 0075 03       		.uleb128 0x3
 2134 0076 0E       		.uleb128 0xe
 2135 0077 3A       		.uleb128 0x3a
 2136 0078 0B       		.uleb128 0xb
 2137 0079 3B       		.uleb128 0x3b
 2138 007a 05       		.uleb128 0x5
 2139 007b 49       		.uleb128 0x49
 2140 007c 13       		.uleb128 0x13
 2141 007d 00       		.byte	0
 2142 007e 00       		.byte	0
 2143 007f 0C       		.uleb128 0xc
 2144 0080 04       		.uleb128 0x4
ARM GAS  C:\Users\cmila\AppData\Local\Temp\ccIE2zG5.s 			page 64


 2145 0081 01       		.byte	0x1
 2146 0082 0B       		.uleb128 0xb
 2147 0083 0B       		.uleb128 0xb
 2148 0084 49       		.uleb128 0x49
 2149 0085 13       		.uleb128 0x13
 2150 0086 3A       		.uleb128 0x3a
 2151 0087 0B       		.uleb128 0xb
 2152 0088 3B       		.uleb128 0x3b
 2153 0089 05       		.uleb128 0x5
 2154 008a 01       		.uleb128 0x1
 2155 008b 13       		.uleb128 0x13
 2156 008c 00       		.byte	0
 2157 008d 00       		.byte	0
 2158 008e 0D       		.uleb128 0xd
 2159 008f 28       		.uleb128 0x28
 2160 0090 00       		.byte	0
 2161 0091 03       		.uleb128 0x3
 2162 0092 0E       		.uleb128 0xe
 2163 0093 1C       		.uleb128 0x1c
 2164 0094 0B       		.uleb128 0xb
 2165 0095 00       		.byte	0
 2166 0096 00       		.byte	0
 2167 0097 0E       		.uleb128 0xe
 2168 0098 28       		.uleb128 0x28
 2169 0099 00       		.byte	0
 2170 009a 03       		.uleb128 0x3
 2171 009b 0E       		.uleb128 0xe
 2172 009c 1C       		.uleb128 0x1c
 2173 009d 06       		.uleb128 0x6
 2174 009e 00       		.byte	0
 2175 009f 00       		.byte	0
 2176 00a0 0F       		.uleb128 0xf
 2177 00a1 04       		.uleb128 0x4
 2178 00a2 01       		.byte	0x1
 2179 00a3 0B       		.uleb128 0xb
 2180 00a4 0B       		.uleb128 0xb
 2181 00a5 49       		.uleb128 0x49
 2182 00a6 13       		.uleb128 0x13
 2183 00a7 3A       		.uleb128 0x3a
 2184 00a8 0B       		.uleb128 0xb
 2185 00a9 3B       		.uleb128 0x3b
 2186 00aa 0B       		.uleb128 0xb
 2187 00ab 01       		.uleb128 0x1
 2188 00ac 13       		.uleb128 0x13
 2189 00ad 00       		.byte	0
 2190 00ae 00       		.byte	0
 2191 00af 10       		.uleb128 0x10
 2192 00b0 0F       		.uleb128 0xf
 2193 00b1 00       		.byte	0
 2194 00b2 0B       		.uleb128 0xb
 2195 00b3 0B       		.uleb128 0xb
 2196 00b4 49       		.uleb128 0x49
 2197 00b5 13       		.uleb128 0x13
 2198 00b6 00       		.byte	0
 2199 00b7 00       		.byte	0
 2200 00b8 11       		.uleb128 0x11
 2201 00b9 2E       		.uleb128 0x2e
ARM GAS  C:\Users\cmila\AppData\Local\Temp\ccIE2zG5.s 			page 65


 2202 00ba 01       		.byte	0x1
 2203 00bb 03       		.uleb128 0x3
 2204 00bc 0E       		.uleb128 0xe
 2205 00bd 3A       		.uleb128 0x3a
 2206 00be 0B       		.uleb128 0xb
 2207 00bf 3B       		.uleb128 0x3b
 2208 00c0 05       		.uleb128 0x5
 2209 00c1 27       		.uleb128 0x27
 2210 00c2 19       		.uleb128 0x19
 2211 00c3 49       		.uleb128 0x49
 2212 00c4 13       		.uleb128 0x13
 2213 00c5 20       		.uleb128 0x20
 2214 00c6 0B       		.uleb128 0xb
 2215 00c7 01       		.uleb128 0x1
 2216 00c8 13       		.uleb128 0x13
 2217 00c9 00       		.byte	0
 2218 00ca 00       		.byte	0
 2219 00cb 12       		.uleb128 0x12
 2220 00cc 05       		.uleb128 0x5
 2221 00cd 00       		.byte	0
 2222 00ce 03       		.uleb128 0x3
 2223 00cf 0E       		.uleb128 0xe
 2224 00d0 3A       		.uleb128 0x3a
 2225 00d1 0B       		.uleb128 0xb
 2226 00d2 3B       		.uleb128 0x3b
 2227 00d3 05       		.uleb128 0x5
 2228 00d4 49       		.uleb128 0x49
 2229 00d5 13       		.uleb128 0x13
 2230 00d6 00       		.byte	0
 2231 00d7 00       		.byte	0
 2232 00d8 13       		.uleb128 0x13
 2233 00d9 26       		.uleb128 0x26
 2234 00da 00       		.byte	0
 2235 00db 00       		.byte	0
 2236 00dc 00       		.byte	0
 2237 00dd 14       		.uleb128 0x14
 2238 00de 2E       		.uleb128 0x2e
 2239 00df 01       		.byte	0x1
 2240 00e0 3F       		.uleb128 0x3f
 2241 00e1 19       		.uleb128 0x19
 2242 00e2 03       		.uleb128 0x3
 2243 00e3 0E       		.uleb128 0xe
 2244 00e4 3A       		.uleb128 0x3a
 2245 00e5 0B       		.uleb128 0xb
 2246 00e6 3B       		.uleb128 0x3b
 2247 00e7 0B       		.uleb128 0xb
 2248 00e8 27       		.uleb128 0x27
 2249 00e9 19       		.uleb128 0x19
 2250 00ea 49       		.uleb128 0x49
 2251 00eb 13       		.uleb128 0x13
 2252 00ec 20       		.uleb128 0x20
 2253 00ed 0B       		.uleb128 0xb
 2254 00ee 01       		.uleb128 0x1
 2255 00ef 13       		.uleb128 0x13
 2256 00f0 00       		.byte	0
 2257 00f1 00       		.byte	0
 2258 00f2 15       		.uleb128 0x15
ARM GAS  C:\Users\cmila\AppData\Local\Temp\ccIE2zG5.s 			page 66


 2259 00f3 05       		.uleb128 0x5
 2260 00f4 00       		.byte	0
 2261 00f5 03       		.uleb128 0x3
 2262 00f6 0E       		.uleb128 0xe
 2263 00f7 3A       		.uleb128 0x3a
 2264 00f8 0B       		.uleb128 0xb
 2265 00f9 3B       		.uleb128 0x3b
 2266 00fa 0B       		.uleb128 0xb
 2267 00fb 49       		.uleb128 0x49
 2268 00fc 13       		.uleb128 0x13
 2269 00fd 00       		.byte	0
 2270 00fe 00       		.byte	0
 2271 00ff 16       		.uleb128 0x16
 2272 0100 34       		.uleb128 0x34
 2273 0101 00       		.byte	0
 2274 0102 03       		.uleb128 0x3
 2275 0103 0E       		.uleb128 0xe
 2276 0104 3A       		.uleb128 0x3a
 2277 0105 0B       		.uleb128 0xb
 2278 0106 3B       		.uleb128 0x3b
 2279 0107 0B       		.uleb128 0xb
 2280 0108 49       		.uleb128 0x49
 2281 0109 13       		.uleb128 0x13
 2282 010a 00       		.byte	0
 2283 010b 00       		.byte	0
 2284 010c 17       		.uleb128 0x17
 2285 010d 2E       		.uleb128 0x2e
 2286 010e 01       		.byte	0x1
 2287 010f 31       		.uleb128 0x31
 2288 0110 13       		.uleb128 0x13
 2289 0111 11       		.uleb128 0x11
 2290 0112 01       		.uleb128 0x1
 2291 0113 12       		.uleb128 0x12
 2292 0114 06       		.uleb128 0x6
 2293 0115 40       		.uleb128 0x40
 2294 0116 18       		.uleb128 0x18
 2295 0117 9742     		.uleb128 0x2117
 2296 0119 19       		.uleb128 0x19
 2297 011a 01       		.uleb128 0x1
 2298 011b 13       		.uleb128 0x13
 2299 011c 00       		.byte	0
 2300 011d 00       		.byte	0
 2301 011e 18       		.uleb128 0x18
 2302 011f 05       		.uleb128 0x5
 2303 0120 00       		.byte	0
 2304 0121 31       		.uleb128 0x31
 2305 0122 13       		.uleb128 0x13
 2306 0123 02       		.uleb128 0x2
 2307 0124 17       		.uleb128 0x17
 2308 0125 00       		.byte	0
 2309 0126 00       		.byte	0
 2310 0127 19       		.uleb128 0x19
 2311 0128 34       		.uleb128 0x34
 2312 0129 00       		.byte	0
 2313 012a 31       		.uleb128 0x31
 2314 012b 13       		.uleb128 0x13
 2315 012c 02       		.uleb128 0x2
ARM GAS  C:\Users\cmila\AppData\Local\Temp\ccIE2zG5.s 			page 67


 2316 012d 17       		.uleb128 0x17
 2317 012e 00       		.byte	0
 2318 012f 00       		.byte	0
 2319 0130 1A       		.uleb128 0x1a
 2320 0131 1D       		.uleb128 0x1d
 2321 0132 01       		.byte	0x1
 2322 0133 31       		.uleb128 0x31
 2323 0134 13       		.uleb128 0x13
 2324 0135 52       		.uleb128 0x52
 2325 0136 01       		.uleb128 0x1
 2326 0137 55       		.uleb128 0x55
 2327 0138 17       		.uleb128 0x17
 2328 0139 58       		.uleb128 0x58
 2329 013a 0B       		.uleb128 0xb
 2330 013b 59       		.uleb128 0x59
 2331 013c 0B       		.uleb128 0xb
 2332 013d 01       		.uleb128 0x1
 2333 013e 13       		.uleb128 0x13
 2334 013f 00       		.byte	0
 2335 0140 00       		.byte	0
 2336 0141 1B       		.uleb128 0x1b
 2337 0142 1D       		.uleb128 0x1d
 2338 0143 01       		.byte	0x1
 2339 0144 31       		.uleb128 0x31
 2340 0145 13       		.uleb128 0x13
 2341 0146 11       		.uleb128 0x11
 2342 0147 01       		.uleb128 0x1
 2343 0148 12       		.uleb128 0x12
 2344 0149 06       		.uleb128 0x6
 2345 014a 58       		.uleb128 0x58
 2346 014b 0B       		.uleb128 0xb
 2347 014c 59       		.uleb128 0x59
 2348 014d 0B       		.uleb128 0xb
 2349 014e 01       		.uleb128 0x1
 2350 014f 13       		.uleb128 0x13
 2351 0150 00       		.byte	0
 2352 0151 00       		.byte	0
 2353 0152 1C       		.uleb128 0x1c
 2354 0153 898201   		.uleb128 0x4109
 2355 0156 01       		.byte	0x1
 2356 0157 11       		.uleb128 0x11
 2357 0158 01       		.uleb128 0x1
 2358 0159 31       		.uleb128 0x31
 2359 015a 13       		.uleb128 0x13
 2360 015b 00       		.byte	0
 2361 015c 00       		.byte	0
 2362 015d 1D       		.uleb128 0x1d
 2363 015e 8A8201   		.uleb128 0x410a
 2364 0161 00       		.byte	0
 2365 0162 02       		.uleb128 0x2
 2366 0163 18       		.uleb128 0x18
 2367 0164 9142     		.uleb128 0x2111
 2368 0166 18       		.uleb128 0x18
 2369 0167 00       		.byte	0
 2370 0168 00       		.byte	0
 2371 0169 1E       		.uleb128 0x1e
 2372 016a 0B       		.uleb128 0xb
ARM GAS  C:\Users\cmila\AppData\Local\Temp\ccIE2zG5.s 			page 68


 2373 016b 01       		.byte	0x1
 2374 016c 11       		.uleb128 0x11
 2375 016d 01       		.uleb128 0x1
 2376 016e 12       		.uleb128 0x12
 2377 016f 06       		.uleb128 0x6
 2378 0170 01       		.uleb128 0x1
 2379 0171 13       		.uleb128 0x13
 2380 0172 00       		.byte	0
 2381 0173 00       		.byte	0
 2382 0174 1F       		.uleb128 0x1f
 2383 0175 0B       		.uleb128 0xb
 2384 0176 01       		.byte	0x1
 2385 0177 11       		.uleb128 0x11
 2386 0178 01       		.uleb128 0x1
 2387 0179 12       		.uleb128 0x12
 2388 017a 06       		.uleb128 0x6
 2389 017b 00       		.byte	0
 2390 017c 00       		.byte	0
 2391 017d 20       		.uleb128 0x20
 2392 017e 898201   		.uleb128 0x4109
 2393 0181 00       		.byte	0
 2394 0182 11       		.uleb128 0x11
 2395 0183 01       		.uleb128 0x1
 2396 0184 31       		.uleb128 0x31
 2397 0185 13       		.uleb128 0x13
 2398 0186 00       		.byte	0
 2399 0187 00       		.byte	0
 2400 0188 21       		.uleb128 0x21
 2401 0189 898201   		.uleb128 0x4109
 2402 018c 01       		.byte	0x1
 2403 018d 11       		.uleb128 0x11
 2404 018e 01       		.uleb128 0x1
 2405 018f 31       		.uleb128 0x31
 2406 0190 13       		.uleb128 0x13
 2407 0191 01       		.uleb128 0x1
 2408 0192 13       		.uleb128 0x13
 2409 0193 00       		.byte	0
 2410 0194 00       		.byte	0
 2411 0195 22       		.uleb128 0x22
 2412 0196 2E       		.uleb128 0x2e
 2413 0197 01       		.byte	0x1
 2414 0198 3F       		.uleb128 0x3f
 2415 0199 19       		.uleb128 0x19
 2416 019a 03       		.uleb128 0x3
 2417 019b 0E       		.uleb128 0xe
 2418 019c 3A       		.uleb128 0x3a
 2419 019d 0B       		.uleb128 0xb
 2420 019e 3B       		.uleb128 0x3b
 2421 019f 0B       		.uleb128 0xb
 2422 01a0 27       		.uleb128 0x27
 2423 01a1 19       		.uleb128 0x19
 2424 01a2 49       		.uleb128 0x49
 2425 01a3 13       		.uleb128 0x13
 2426 01a4 11       		.uleb128 0x11
 2427 01a5 01       		.uleb128 0x1
 2428 01a6 12       		.uleb128 0x12
 2429 01a7 06       		.uleb128 0x6
ARM GAS  C:\Users\cmila\AppData\Local\Temp\ccIE2zG5.s 			page 69


 2430 01a8 40       		.uleb128 0x40
 2431 01a9 18       		.uleb128 0x18
 2432 01aa 9742     		.uleb128 0x2117
 2433 01ac 19       		.uleb128 0x19
 2434 01ad 01       		.uleb128 0x1
 2435 01ae 13       		.uleb128 0x13
 2436 01af 00       		.byte	0
 2437 01b0 00       		.byte	0
 2438 01b1 23       		.uleb128 0x23
 2439 01b2 05       		.uleb128 0x5
 2440 01b3 00       		.byte	0
 2441 01b4 03       		.uleb128 0x3
 2442 01b5 0E       		.uleb128 0xe
 2443 01b6 3A       		.uleb128 0x3a
 2444 01b7 0B       		.uleb128 0xb
 2445 01b8 3B       		.uleb128 0x3b
 2446 01b9 0B       		.uleb128 0xb
 2447 01ba 49       		.uleb128 0x49
 2448 01bb 13       		.uleb128 0x13
 2449 01bc 02       		.uleb128 0x2
 2450 01bd 17       		.uleb128 0x17
 2451 01be 00       		.byte	0
 2452 01bf 00       		.byte	0
 2453 01c0 24       		.uleb128 0x24
 2454 01c1 34       		.uleb128 0x34
 2455 01c2 00       		.byte	0
 2456 01c3 03       		.uleb128 0x3
 2457 01c4 0E       		.uleb128 0xe
 2458 01c5 3A       		.uleb128 0x3a
 2459 01c6 0B       		.uleb128 0xb
 2460 01c7 3B       		.uleb128 0x3b
 2461 01c8 0B       		.uleb128 0xb
 2462 01c9 49       		.uleb128 0x49
 2463 01ca 13       		.uleb128 0x13
 2464 01cb 02       		.uleb128 0x2
 2465 01cc 18       		.uleb128 0x18
 2466 01cd 00       		.byte	0
 2467 01ce 00       		.byte	0
 2468 01cf 25       		.uleb128 0x25
 2469 01d0 34       		.uleb128 0x34
 2470 01d1 00       		.byte	0
 2471 01d2 03       		.uleb128 0x3
 2472 01d3 0E       		.uleb128 0xe
 2473 01d4 3A       		.uleb128 0x3a
 2474 01d5 0B       		.uleb128 0xb
 2475 01d6 3B       		.uleb128 0x3b
 2476 01d7 0B       		.uleb128 0xb
 2477 01d8 49       		.uleb128 0x49
 2478 01d9 13       		.uleb128 0x13
 2479 01da 02       		.uleb128 0x2
 2480 01db 17       		.uleb128 0x17
 2481 01dc 00       		.byte	0
 2482 01dd 00       		.byte	0
 2483 01de 26       		.uleb128 0x26
 2484 01df 898201   		.uleb128 0x4109
 2485 01e2 01       		.byte	0x1
 2486 01e3 11       		.uleb128 0x11
ARM GAS  C:\Users\cmila\AppData\Local\Temp\ccIE2zG5.s 			page 70


 2487 01e4 01       		.uleb128 0x1
 2488 01e5 9542     		.uleb128 0x2115
 2489 01e7 19       		.uleb128 0x19
 2490 01e8 31       		.uleb128 0x31
 2491 01e9 13       		.uleb128 0x13
 2492 01ea 00       		.byte	0
 2493 01eb 00       		.byte	0
 2494 01ec 27       		.uleb128 0x27
 2495 01ed 2E       		.uleb128 0x2e
 2496 01ee 01       		.byte	0x1
 2497 01ef 3F       		.uleb128 0x3f
 2498 01f0 19       		.uleb128 0x19
 2499 01f1 03       		.uleb128 0x3
 2500 01f2 0E       		.uleb128 0xe
 2501 01f3 3A       		.uleb128 0x3a
 2502 01f4 0B       		.uleb128 0xb
 2503 01f5 3B       		.uleb128 0x3b
 2504 01f6 05       		.uleb128 0x5
 2505 01f7 27       		.uleb128 0x27
 2506 01f8 19       		.uleb128 0x19
 2507 01f9 49       		.uleb128 0x49
 2508 01fa 13       		.uleb128 0x13
 2509 01fb 11       		.uleb128 0x11
 2510 01fc 01       		.uleb128 0x1
 2511 01fd 12       		.uleb128 0x12
 2512 01fe 06       		.uleb128 0x6
 2513 01ff 40       		.uleb128 0x40
 2514 0200 18       		.uleb128 0x18
 2515 0201 9742     		.uleb128 0x2117
 2516 0203 19       		.uleb128 0x19
 2517 0204 01       		.uleb128 0x1
 2518 0205 13       		.uleb128 0x13
 2519 0206 00       		.byte	0
 2520 0207 00       		.byte	0
 2521 0208 28       		.uleb128 0x28
 2522 0209 05       		.uleb128 0x5
 2523 020a 00       		.byte	0
 2524 020b 03       		.uleb128 0x3
 2525 020c 0E       		.uleb128 0xe
 2526 020d 3A       		.uleb128 0x3a
 2527 020e 0B       		.uleb128 0xb
 2528 020f 3B       		.uleb128 0x3b
 2529 0210 05       		.uleb128 0x5
 2530 0211 49       		.uleb128 0x49
 2531 0212 13       		.uleb128 0x13
 2532 0213 02       		.uleb128 0x2
 2533 0214 17       		.uleb128 0x17
 2534 0215 00       		.byte	0
 2535 0216 00       		.byte	0
 2536 0217 29       		.uleb128 0x29
 2537 0218 34       		.uleb128 0x34
 2538 0219 00       		.byte	0
 2539 021a 03       		.uleb128 0x3
 2540 021b 0E       		.uleb128 0xe
 2541 021c 3A       		.uleb128 0x3a
 2542 021d 0B       		.uleb128 0xb
 2543 021e 3B       		.uleb128 0x3b
ARM GAS  C:\Users\cmila\AppData\Local\Temp\ccIE2zG5.s 			page 71


 2544 021f 05       		.uleb128 0x5
 2545 0220 49       		.uleb128 0x49
 2546 0221 13       		.uleb128 0x13
 2547 0222 02       		.uleb128 0x2
 2548 0223 17       		.uleb128 0x17
 2549 0224 00       		.byte	0
 2550 0225 00       		.byte	0
 2551 0226 2A       		.uleb128 0x2a
 2552 0227 1D       		.uleb128 0x1d
 2553 0228 01       		.byte	0x1
 2554 0229 31       		.uleb128 0x31
 2555 022a 13       		.uleb128 0x13
 2556 022b 11       		.uleb128 0x11
 2557 022c 01       		.uleb128 0x1
 2558 022d 12       		.uleb128 0x12
 2559 022e 06       		.uleb128 0x6
 2560 022f 58       		.uleb128 0x58
 2561 0230 0B       		.uleb128 0xb
 2562 0231 59       		.uleb128 0x59
 2563 0232 05       		.uleb128 0x5
 2564 0233 01       		.uleb128 0x1
 2565 0234 13       		.uleb128 0x13
 2566 0235 00       		.byte	0
 2567 0236 00       		.byte	0
 2568 0237 2B       		.uleb128 0x2b
 2569 0238 34       		.uleb128 0x34
 2570 0239 00       		.byte	0
 2571 023a 03       		.uleb128 0x3
 2572 023b 0E       		.uleb128 0xe
 2573 023c 3A       		.uleb128 0x3a
 2574 023d 0B       		.uleb128 0xb
 2575 023e 3B       		.uleb128 0x3b
 2576 023f 05       		.uleb128 0x5
 2577 0240 49       		.uleb128 0x49
 2578 0241 13       		.uleb128 0x13
 2579 0242 02       		.uleb128 0x2
 2580 0243 18       		.uleb128 0x18
 2581 0244 00       		.byte	0
 2582 0245 00       		.byte	0
 2583 0246 2C       		.uleb128 0x2c
 2584 0247 1D       		.uleb128 0x1d
 2585 0248 01       		.byte	0x1
 2586 0249 31       		.uleb128 0x31
 2587 024a 13       		.uleb128 0x13
 2588 024b 11       		.uleb128 0x11
 2589 024c 01       		.uleb128 0x1
 2590 024d 12       		.uleb128 0x12
 2591 024e 06       		.uleb128 0x6
 2592 024f 58       		.uleb128 0x58
 2593 0250 0B       		.uleb128 0xb
 2594 0251 59       		.uleb128 0x59
 2595 0252 05       		.uleb128 0x5
 2596 0253 00       		.byte	0
 2597 0254 00       		.byte	0
 2598 0255 2D       		.uleb128 0x2d
 2599 0256 34       		.uleb128 0x34
 2600 0257 00       		.byte	0
ARM GAS  C:\Users\cmila\AppData\Local\Temp\ccIE2zG5.s 			page 72


 2601 0258 03       		.uleb128 0x3
 2602 0259 0E       		.uleb128 0xe
 2603 025a 3A       		.uleb128 0x3a
 2604 025b 0B       		.uleb128 0xb
 2605 025c 3B       		.uleb128 0x3b
 2606 025d 0B       		.uleb128 0xb
 2607 025e 49       		.uleb128 0x49
 2608 025f 13       		.uleb128 0x13
 2609 0260 3F       		.uleb128 0x3f
 2610 0261 19       		.uleb128 0x19
 2611 0262 3C       		.uleb128 0x3c
 2612 0263 19       		.uleb128 0x19
 2613 0264 00       		.byte	0
 2614 0265 00       		.byte	0
 2615 0266 2E       		.uleb128 0x2e
 2616 0267 34       		.uleb128 0x34
 2617 0268 00       		.byte	0
 2618 0269 03       		.uleb128 0x3
 2619 026a 0E       		.uleb128 0xe
 2620 026b 3A       		.uleb128 0x3a
 2621 026c 0B       		.uleb128 0xb
 2622 026d 3B       		.uleb128 0x3b
 2623 026e 05       		.uleb128 0x5
 2624 026f 49       		.uleb128 0x49
 2625 0270 13       		.uleb128 0x13
 2626 0271 3F       		.uleb128 0x3f
 2627 0272 19       		.uleb128 0x19
 2628 0273 3C       		.uleb128 0x3c
 2629 0274 19       		.uleb128 0x19
 2630 0275 00       		.byte	0
 2631 0276 00       		.byte	0
 2632 0277 2F       		.uleb128 0x2f
 2633 0278 2E       		.uleb128 0x2e
 2634 0279 00       		.byte	0
 2635 027a 3F       		.uleb128 0x3f
 2636 027b 19       		.uleb128 0x19
 2637 027c 3C       		.uleb128 0x3c
 2638 027d 19       		.uleb128 0x19
 2639 027e 6E       		.uleb128 0x6e
 2640 027f 0E       		.uleb128 0xe
 2641 0280 03       		.uleb128 0x3
 2642 0281 0E       		.uleb128 0xe
 2643 0282 3A       		.uleb128 0x3a
 2644 0283 0B       		.uleb128 0xb
 2645 0284 3B       		.uleb128 0x3b
 2646 0285 05       		.uleb128 0x5
 2647 0286 00       		.byte	0
 2648 0287 00       		.byte	0
 2649 0288 30       		.uleb128 0x30
 2650 0289 2E       		.uleb128 0x2e
 2651 028a 00       		.byte	0
 2652 028b 3F       		.uleb128 0x3f
 2653 028c 19       		.uleb128 0x19
 2654 028d 3C       		.uleb128 0x3c
 2655 028e 19       		.uleb128 0x19
 2656 028f 6E       		.uleb128 0x6e
 2657 0290 0E       		.uleb128 0xe
ARM GAS  C:\Users\cmila\AppData\Local\Temp\ccIE2zG5.s 			page 73


 2658 0291 03       		.uleb128 0x3
 2659 0292 0E       		.uleb128 0xe
 2660 0293 00       		.byte	0
 2661 0294 00       		.byte	0
 2662 0295 00       		.byte	0
 2663              		.section	.debug_loc,"",%progbits
 2664              	.Ldebug_loc0:
 2665              	.LLST0:
 2666 0000 00000000 		.4byte	.LVL0
 2667 0004 2C000000 		.4byte	.LVL4
 2668 0008 0100     		.2byte	0x1
 2669 000a 50       		.byte	0x50
 2670 000b 2C000000 		.4byte	.LVL4
 2671 000f 54000000 		.4byte	.LVL11
 2672 0013 0400     		.2byte	0x4
 2673 0015 F3       		.byte	0xf3
 2674 0016 01       		.uleb128 0x1
 2675 0017 50       		.byte	0x50
 2676 0018 9F       		.byte	0x9f
 2677 0019 54000000 		.4byte	.LVL11
 2678 001d 56000000 		.4byte	.LVL12
 2679 0021 0100     		.2byte	0x1
 2680 0023 50       		.byte	0x50
 2681 0024 56000000 		.4byte	.LVL12
 2682 0028 68000000 		.4byte	.LFE152
 2683 002c 0400     		.2byte	0x4
 2684 002e F3       		.byte	0xf3
 2685 002f 01       		.uleb128 0x1
 2686 0030 50       		.byte	0x50
 2687 0031 9F       		.byte	0x9f
 2688 0032 00000000 		.4byte	0
 2689 0036 00000000 		.4byte	0
 2690              	.LLST1:
 2691 003a 00000000 		.4byte	.LVL0
 2692 003e 08000000 		.4byte	.LVL1
 2693 0042 0100     		.2byte	0x1
 2694 0044 51       		.byte	0x51
 2695 0045 08000000 		.4byte	.LVL1
 2696 0049 58000000 		.4byte	.LVL13
 2697 004d 0100     		.2byte	0x1
 2698 004f 54       		.byte	0x54
 2699 0050 58000000 		.4byte	.LVL13
 2700 0054 68000000 		.4byte	.LFE152
 2701 0058 0400     		.2byte	0x4
 2702 005a F3       		.byte	0xf3
 2703 005b 01       		.uleb128 0x1
 2704 005c 51       		.byte	0x51
 2705 005d 9F       		.byte	0x9f
 2706 005e 00000000 		.4byte	0
 2707 0062 00000000 		.4byte	0
 2708              	.LLST2:
 2709 0066 00000000 		.4byte	.LVL0
 2710 006a 56000000 		.4byte	.LVL12
 2711 006e 0600     		.2byte	0x6
 2712 0070 0C       		.byte	0xc
 2713 0071 03018A00 		.4byte	0x8a0103
 2714 0075 9F       		.byte	0x9f
ARM GAS  C:\Users\cmila\AppData\Local\Temp\ccIE2zG5.s 			page 74


 2715 0076 56000000 		.4byte	.LVL12
 2716 007a 68000000 		.4byte	.LFE152
 2717 007e 0100     		.2byte	0x1
 2718 0080 50       		.byte	0x50
 2719 0081 00000000 		.4byte	0
 2720 0085 00000000 		.4byte	0
 2721              	.LLST3:
 2722 0089 1A000000 		.4byte	.LVL2
 2723 008d 26000000 		.4byte	.LVL3
 2724 0091 0100     		.2byte	0x1
 2725 0093 50       		.byte	0x50
 2726 0094 00000000 		.4byte	0
 2727 0098 00000000 		.4byte	0
 2728              	.LLST4:
 2729 009c 3A000000 		.4byte	.LVL6
 2730 00a0 44000000 		.4byte	.LVL7
 2731 00a4 0100     		.2byte	0x1
 2732 00a6 54       		.byte	0x54
 2733 00a7 00000000 		.4byte	0
 2734 00ab 00000000 		.4byte	0
 2735              	.LLST5:
 2736 00af 3A000000 		.4byte	.LVL6
 2737 00b3 44000000 		.4byte	.LVL7
 2738 00b7 0200     		.2byte	0x2
 2739 00b9 30       		.byte	0x30
 2740 00ba 9F       		.byte	0x9f
 2741 00bb 00000000 		.4byte	0
 2742 00bf 00000000 		.4byte	0
 2743              	.LLST6:
 2744 00c3 3A000000 		.4byte	.LVL6
 2745 00c7 43000000 		.4byte	.LVL7-1
 2746 00cb 0500     		.2byte	0x5
 2747 00cd 03       		.byte	0x3
 2748 00ce 00000000 		.4byte	cy_semaIpcStruct
 2749 00d2 00000000 		.4byte	0
 2750 00d6 00000000 		.4byte	0
 2751              	.LLST7:
 2752 00da 48000000 		.4byte	.LVL8
 2753 00de 50000000 		.4byte	.LVL10
 2754 00e2 0400     		.2byte	0x4
 2755 00e4 F3       		.byte	0xf3
 2756 00e5 01       		.uleb128 0x1
 2757 00e6 50       		.byte	0x50
 2758 00e7 9F       		.byte	0x9f
 2759 00e8 00000000 		.4byte	0
 2760 00ec 00000000 		.4byte	0
 2761              	.LLST8:
 2762 00f0 48000000 		.4byte	.LVL8
 2763 00f4 50000000 		.4byte	.LVL10
 2764 00f8 0100     		.2byte	0x1
 2765 00fa 54       		.byte	0x54
 2766 00fb 00000000 		.4byte	0
 2767 00ff 00000000 		.4byte	0
 2768              	.LLST9:
 2769 0103 50000000 		.4byte	.LVL10
 2770 0107 54000000 		.4byte	.LVL11
 2771 010b 0600     		.2byte	0x6
ARM GAS  C:\Users\cmila\AppData\Local\Temp\ccIE2zG5.s 			page 75


 2772 010d 0C       		.byte	0xc
 2773 010e 01018A00 		.4byte	0x8a0101
 2774 0112 9F       		.byte	0x9f
 2775 0113 00000000 		.4byte	0
 2776 0117 00000000 		.4byte	0
 2777              	.LLST10:
 2778 011b 00000000 		.4byte	.LVL14
 2779 011f 12000000 		.4byte	.LVL17
 2780 0123 0100     		.2byte	0x1
 2781 0125 50       		.byte	0x50
 2782 0126 12000000 		.4byte	.LVL17
 2783 012a 1E000000 		.4byte	.LVL19
 2784 012e 0100     		.2byte	0x1
 2785 0130 54       		.byte	0x54
 2786 0131 1E000000 		.4byte	.LVL19
 2787 0135 2F000000 		.4byte	.LVL21-1
 2788 0139 0100     		.2byte	0x1
 2789 013b 50       		.byte	0x50
 2790 013c 2F000000 		.4byte	.LVL21-1
 2791 0140 30000000 		.4byte	.LVL21
 2792 0144 0400     		.2byte	0x4
 2793 0146 F3       		.byte	0xf3
 2794 0147 01       		.uleb128 0x1
 2795 0148 50       		.byte	0x50
 2796 0149 9F       		.byte	0x9f
 2797 014a 30000000 		.4byte	.LVL21
 2798 014e 32000000 		.4byte	.LVL22
 2799 0152 0100     		.2byte	0x1
 2800 0154 50       		.byte	0x50
 2801 0155 32000000 		.4byte	.LVL22
 2802 0159 36000000 		.4byte	.LVL23
 2803 015d 0100     		.2byte	0x1
 2804 015f 54       		.byte	0x54
 2805 0160 36000000 		.4byte	.LVL23
 2806 0164 44000000 		.4byte	.LFE151
 2807 0168 0400     		.2byte	0x4
 2808 016a F3       		.byte	0xf3
 2809 016b 01       		.uleb128 0x1
 2810 016c 50       		.byte	0x50
 2811 016d 9F       		.byte	0x9f
 2812 016e 00000000 		.4byte	0
 2813 0172 00000000 		.4byte	0
 2814              	.LLST11:
 2815 0176 00000000 		.4byte	.LVL14
 2816 017a 2A000000 		.4byte	.LVL20
 2817 017e 0100     		.2byte	0x1
 2818 0180 51       		.byte	0x51
 2819 0181 2A000000 		.4byte	.LVL20
 2820 0185 2F000000 		.4byte	.LVL21-1
 2821 0189 0500     		.2byte	0x5
 2822 018b 03       		.byte	0x3
 2823 018c 04000000 		.4byte	cy_semaData.10633
 2824 0190 2F000000 		.4byte	.LVL21-1
 2825 0194 30000000 		.4byte	.LVL21
 2826 0198 0400     		.2byte	0x4
 2827 019a F3       		.byte	0xf3
 2828 019b 01       		.uleb128 0x1
ARM GAS  C:\Users\cmila\AppData\Local\Temp\ccIE2zG5.s 			page 76


 2829 019c 51       		.byte	0x51
 2830 019d 9F       		.byte	0x9f
 2831 019e 30000000 		.4byte	.LVL21
 2832 01a2 44000000 		.4byte	.LFE151
 2833 01a6 0100     		.2byte	0x1
 2834 01a8 51       		.byte	0x51
 2835 01a9 00000000 		.4byte	0
 2836 01ad 00000000 		.4byte	0
 2837              	.LLST12:
 2838 01b1 00000000 		.4byte	.LVL14
 2839 01b5 0C000000 		.4byte	.LVL16
 2840 01b9 0100     		.2byte	0x1
 2841 01bb 52       		.byte	0x52
 2842 01bc 0C000000 		.4byte	.LVL16
 2843 01c0 1E000000 		.4byte	.LVL19
 2844 01c4 0400     		.2byte	0x4
 2845 01c6 F3       		.byte	0xf3
 2846 01c7 01       		.uleb128 0x1
 2847 01c8 52       		.byte	0x52
 2848 01c9 9F       		.byte	0x9f
 2849 01ca 1E000000 		.4byte	.LVL19
 2850 01ce 2F000000 		.4byte	.LVL21-1
 2851 01d2 0100     		.2byte	0x1
 2852 01d4 52       		.byte	0x52
 2853 01d5 2F000000 		.4byte	.LVL21-1
 2854 01d9 30000000 		.4byte	.LVL21
 2855 01dd 0400     		.2byte	0x4
 2856 01df F3       		.byte	0xf3
 2857 01e0 01       		.uleb128 0x1
 2858 01e1 52       		.byte	0x52
 2859 01e2 9F       		.byte	0x9f
 2860 01e3 30000000 		.4byte	.LVL21
 2861 01e7 32000000 		.4byte	.LVL22
 2862 01eb 0100     		.2byte	0x1
 2863 01ed 52       		.byte	0x52
 2864 01ee 32000000 		.4byte	.LVL22
 2865 01f2 44000000 		.4byte	.LFE151
 2866 01f6 0400     		.2byte	0x4
 2867 01f8 F3       		.byte	0xf3
 2868 01f9 01       		.uleb128 0x1
 2869 01fa 52       		.byte	0x52
 2870 01fb 9F       		.byte	0x9f
 2871 01fc 00000000 		.4byte	0
 2872 0200 00000000 		.4byte	0
 2873              	.LLST13:
 2874 0204 00000000 		.4byte	.LVL14
 2875 0208 1A000000 		.4byte	.LVL18
 2876 020c 0600     		.2byte	0x6
 2877 020e 0C       		.byte	0xc
 2878 020f 03018A00 		.4byte	0x8a0103
 2879 0213 9F       		.byte	0x9f
 2880 0214 1A000000 		.4byte	.LVL18
 2881 0218 1E000000 		.4byte	.LVL19
 2882 021c 0200     		.2byte	0x2
 2883 021e 30       		.byte	0x30
 2884 021f 9F       		.byte	0x9f
 2885 0220 1E000000 		.4byte	.LVL19
ARM GAS  C:\Users\cmila\AppData\Local\Temp\ccIE2zG5.s 			page 77


 2886 0224 32000000 		.4byte	.LVL22
 2887 0228 0600     		.2byte	0x6
 2888 022a 0C       		.byte	0xc
 2889 022b 03018A00 		.4byte	0x8a0103
 2890 022f 9F       		.byte	0x9f
 2891 0230 32000000 		.4byte	.LVL22
 2892 0234 44000000 		.4byte	.LFE151
 2893 0238 0100     		.2byte	0x1
 2894 023a 50       		.byte	0x50
 2895 023b 00000000 		.4byte	0
 2896 023f 00000000 		.4byte	0
 2897              	.LLST14:
 2898 0243 08000000 		.4byte	.LVL15
 2899 0247 0C000000 		.4byte	.LVL16
 2900 024b 0100     		.2byte	0x1
 2901 024d 50       		.byte	0x50
 2902 024e 00000000 		.4byte	0
 2903 0252 00000000 		.4byte	0
 2904              	.LLST15:
 2905 0256 00000000 		.4byte	.LVL24
 2906 025a 1F000000 		.4byte	.LVL28-1
 2907 025e 0100     		.2byte	0x1
 2908 0260 50       		.byte	0x50
 2909 0261 1F000000 		.4byte	.LVL28-1
 2910 0265 24000000 		.4byte	.LVL30
 2911 0269 0100     		.2byte	0x1
 2912 026b 54       		.byte	0x54
 2913 026c 24000000 		.4byte	.LVL30
 2914 0270 26000000 		.4byte	.LVL31
 2915 0274 0100     		.2byte	0x1
 2916 0276 50       		.byte	0x50
 2917 0277 26000000 		.4byte	.LVL31
 2918 027b 30000000 		.4byte	.LVL33
 2919 027f 0100     		.2byte	0x1
 2920 0281 54       		.byte	0x54
 2921 0282 30000000 		.4byte	.LVL33
 2922 0286 32000000 		.4byte	.LVL34
 2923 028a 0400     		.2byte	0x4
 2924 028c F3       		.byte	0xf3
 2925 028d 01       		.uleb128 0x1
 2926 028e 50       		.byte	0x50
 2927 028f 9F       		.byte	0x9f
 2928 0290 32000000 		.4byte	.LVL34
 2929 0294 4A000000 		.4byte	.LVL36
 2930 0298 0100     		.2byte	0x1
 2931 029a 54       		.byte	0x54
 2932 029b 4A000000 		.4byte	.LVL36
 2933 029f 62000000 		.4byte	.LVL40
 2934 02a3 0400     		.2byte	0x4
 2935 02a5 F3       		.byte	0xf3
 2936 02a6 01       		.uleb128 0x1
 2937 02a7 50       		.byte	0x50
 2938 02a8 9F       		.byte	0x9f
 2939 02a9 62000000 		.4byte	.LVL40
 2940 02ad 66000000 		.4byte	.LVL42
 2941 02b1 0100     		.2byte	0x1
 2942 02b3 50       		.byte	0x50
ARM GAS  C:\Users\cmila\AppData\Local\Temp\ccIE2zG5.s 			page 78


 2943 02b4 66000000 		.4byte	.LVL42
 2944 02b8 80000000 		.4byte	.LFE153
 2945 02bc 0400     		.2byte	0x4
 2946 02be F3       		.byte	0xf3
 2947 02bf 01       		.uleb128 0x1
 2948 02c0 50       		.byte	0x50
 2949 02c1 9F       		.byte	0x9f
 2950 02c2 00000000 		.4byte	0
 2951 02c6 00000000 		.4byte	0
 2952              	.LLST16:
 2953 02ca 00000000 		.4byte	.LVL24
 2954 02ce 1F000000 		.4byte	.LVL28-1
 2955 02d2 0100     		.2byte	0x1
 2956 02d4 51       		.byte	0x51
 2957 02d5 1F000000 		.4byte	.LVL28-1
 2958 02d9 24000000 		.4byte	.LVL30
 2959 02dd 0400     		.2byte	0x4
 2960 02df F3       		.byte	0xf3
 2961 02e0 01       		.uleb128 0x1
 2962 02e1 51       		.byte	0x51
 2963 02e2 9F       		.byte	0x9f
 2964 02e3 24000000 		.4byte	.LVL30
 2965 02e7 26000000 		.4byte	.LVL31
 2966 02eb 0100     		.2byte	0x1
 2967 02ed 51       		.byte	0x51
 2968 02ee 26000000 		.4byte	.LVL31
 2969 02f2 62000000 		.4byte	.LVL40
 2970 02f6 0400     		.2byte	0x4
 2971 02f8 F3       		.byte	0xf3
 2972 02f9 01       		.uleb128 0x1
 2973 02fa 51       		.byte	0x51
 2974 02fb 9F       		.byte	0x9f
 2975 02fc 62000000 		.4byte	.LVL40
 2976 0300 66000000 		.4byte	.LVL42
 2977 0304 0100     		.2byte	0x1
 2978 0306 51       		.byte	0x51
 2979 0307 66000000 		.4byte	.LVL42
 2980 030b 80000000 		.4byte	.LFE153
 2981 030f 0400     		.2byte	0x4
 2982 0311 F3       		.byte	0xf3
 2983 0312 01       		.uleb128 0x1
 2984 0313 51       		.byte	0x51
 2985 0314 9F       		.byte	0x9f
 2986 0315 00000000 		.4byte	0
 2987 0319 00000000 		.4byte	0
 2988              	.LLST17:
 2989 031d 1A000000 		.4byte	.LVL27
 2990 0321 1F000000 		.4byte	.LVL28-1
 2991 0325 0500     		.2byte	0x5
 2992 0327 70       		.byte	0x70
 2993 0328 00       		.sleb128 0
 2994 0329 35       		.byte	0x35
 2995 032a 25       		.byte	0x25
 2996 032b 9F       		.byte	0x9f
 2997 032c 1F000000 		.4byte	.LVL28-1
 2998 0330 24000000 		.4byte	.LVL30
 2999 0334 0500     		.2byte	0x5
ARM GAS  C:\Users\cmila\AppData\Local\Temp\ccIE2zG5.s 			page 79


 3000 0336 74       		.byte	0x74
 3001 0337 00       		.sleb128 0
 3002 0338 35       		.byte	0x35
 3003 0339 25       		.byte	0x25
 3004 033a 9F       		.byte	0x9f
 3005 033b 24000000 		.4byte	.LVL30
 3006 033f 26000000 		.4byte	.LVL31
 3007 0343 0500     		.2byte	0x5
 3008 0345 70       		.byte	0x70
 3009 0346 00       		.sleb128 0
 3010 0347 35       		.byte	0x35
 3011 0348 25       		.byte	0x25
 3012 0349 9F       		.byte	0x9f
 3013 034a 26000000 		.4byte	.LVL31
 3014 034e 30000000 		.4byte	.LVL33
 3015 0352 0500     		.2byte	0x5
 3016 0354 74       		.byte	0x74
 3017 0355 00       		.sleb128 0
 3018 0356 35       		.byte	0x35
 3019 0357 25       		.byte	0x25
 3020 0358 9F       		.byte	0x9f
 3021 0359 30000000 		.4byte	.LVL33
 3022 035d 32000000 		.4byte	.LVL34
 3023 0361 0600     		.2byte	0x6
 3024 0363 F3       		.byte	0xf3
 3025 0364 01       		.uleb128 0x1
 3026 0365 50       		.byte	0x50
 3027 0366 35       		.byte	0x35
 3028 0367 25       		.byte	0x25
 3029 0368 9F       		.byte	0x9f
 3030 0369 32000000 		.4byte	.LVL34
 3031 036d 4A000000 		.4byte	.LVL36
 3032 0371 0500     		.2byte	0x5
 3033 0373 74       		.byte	0x74
 3034 0374 00       		.sleb128 0
 3035 0375 35       		.byte	0x35
 3036 0376 25       		.byte	0x25
 3037 0377 9F       		.byte	0x9f
 3038 0378 4A000000 		.4byte	.LVL36
 3039 037c 62000000 		.4byte	.LVL40
 3040 0380 0600     		.2byte	0x6
 3041 0382 F3       		.byte	0xf3
 3042 0383 01       		.uleb128 0x1
 3043 0384 50       		.byte	0x50
 3044 0385 35       		.byte	0x35
 3045 0386 25       		.byte	0x25
 3046 0387 9F       		.byte	0x9f
 3047 0388 66000000 		.4byte	.LVL42
 3048 038c 6A000000 		.4byte	.LVL43
 3049 0390 0600     		.2byte	0x6
 3050 0392 F3       		.byte	0xf3
 3051 0393 01       		.uleb128 0x1
 3052 0394 50       		.byte	0x50
 3053 0395 35       		.byte	0x35
 3054 0396 25       		.byte	0x25
 3055 0397 9F       		.byte	0x9f
 3056 0398 00000000 		.4byte	0
ARM GAS  C:\Users\cmila\AppData\Local\Temp\ccIE2zG5.s 			page 80


 3057 039c 00000000 		.4byte	0
 3058              	.LLST18:
 3059 03a0 1A000000 		.4byte	.LVL27
 3060 03a4 1F000000 		.4byte	.LVL28-1
 3061 03a8 0C00     		.2byte	0xc
 3062 03aa 31       		.byte	0x31
 3063 03ab 70       		.byte	0x70
 3064 03ac 00       		.sleb128 0
 3065 03ad 70       		.byte	0x70
 3066 03ae 00       		.sleb128 0
 3067 03af 35       		.byte	0x35
 3068 03b0 25       		.byte	0x25
 3069 03b1 35       		.byte	0x35
 3070 03b2 24       		.byte	0x24
 3071 03b3 1C       		.byte	0x1c
 3072 03b4 24       		.byte	0x24
 3073 03b5 9F       		.byte	0x9f
 3074 03b6 1F000000 		.4byte	.LVL28-1
 3075 03ba 24000000 		.4byte	.LVL30
 3076 03be 0C00     		.2byte	0xc
 3077 03c0 31       		.byte	0x31
 3078 03c1 74       		.byte	0x74
 3079 03c2 00       		.sleb128 0
 3080 03c3 74       		.byte	0x74
 3081 03c4 00       		.sleb128 0
 3082 03c5 35       		.byte	0x35
 3083 03c6 25       		.byte	0x25
 3084 03c7 35       		.byte	0x35
 3085 03c8 24       		.byte	0x24
 3086 03c9 1C       		.byte	0x1c
 3087 03ca 24       		.byte	0x24
 3088 03cb 9F       		.byte	0x9f
 3089 03cc 24000000 		.4byte	.LVL30
 3090 03d0 26000000 		.4byte	.LVL31
 3091 03d4 0C00     		.2byte	0xc
 3092 03d6 31       		.byte	0x31
 3093 03d7 70       		.byte	0x70
 3094 03d8 00       		.sleb128 0
 3095 03d9 70       		.byte	0x70
 3096 03da 00       		.sleb128 0
 3097 03db 35       		.byte	0x35
 3098 03dc 25       		.byte	0x25
 3099 03dd 35       		.byte	0x35
 3100 03de 24       		.byte	0x24
 3101 03df 1C       		.byte	0x1c
 3102 03e0 24       		.byte	0x24
 3103 03e1 9F       		.byte	0x9f
 3104 03e2 26000000 		.4byte	.LVL31
 3105 03e6 30000000 		.4byte	.LVL33
 3106 03ea 0C00     		.2byte	0xc
 3107 03ec 31       		.byte	0x31
 3108 03ed 74       		.byte	0x74
 3109 03ee 00       		.sleb128 0
 3110 03ef 74       		.byte	0x74
 3111 03f0 00       		.sleb128 0
 3112 03f1 35       		.byte	0x35
 3113 03f2 25       		.byte	0x25
ARM GAS  C:\Users\cmila\AppData\Local\Temp\ccIE2zG5.s 			page 81


 3114 03f3 35       		.byte	0x35
 3115 03f4 24       		.byte	0x24
 3116 03f5 1C       		.byte	0x1c
 3117 03f6 24       		.byte	0x24
 3118 03f7 9F       		.byte	0x9f
 3119 03f8 30000000 		.4byte	.LVL33
 3120 03fc 32000000 		.4byte	.LVL34
 3121 0400 0E00     		.2byte	0xe
 3122 0402 31       		.byte	0x31
 3123 0403 F3       		.byte	0xf3
 3124 0404 01       		.uleb128 0x1
 3125 0405 50       		.byte	0x50
 3126 0406 F3       		.byte	0xf3
 3127 0407 01       		.uleb128 0x1
 3128 0408 50       		.byte	0x50
 3129 0409 35       		.byte	0x35
 3130 040a 25       		.byte	0x25
 3131 040b 35       		.byte	0x35
 3132 040c 24       		.byte	0x24
 3133 040d 1C       		.byte	0x1c
 3134 040e 24       		.byte	0x24
 3135 040f 9F       		.byte	0x9f
 3136 0410 32000000 		.4byte	.LVL34
 3137 0414 4A000000 		.4byte	.LVL36
 3138 0418 0C00     		.2byte	0xc
 3139 041a 31       		.byte	0x31
 3140 041b 74       		.byte	0x74
 3141 041c 00       		.sleb128 0
 3142 041d 74       		.byte	0x74
 3143 041e 00       		.sleb128 0
 3144 041f 35       		.byte	0x35
 3145 0420 25       		.byte	0x25
 3146 0421 35       		.byte	0x35
 3147 0422 24       		.byte	0x24
 3148 0423 1C       		.byte	0x1c
 3149 0424 24       		.byte	0x24
 3150 0425 9F       		.byte	0x9f
 3151 0426 4A000000 		.4byte	.LVL36
 3152 042a 62000000 		.4byte	.LVL40
 3153 042e 0E00     		.2byte	0xe
 3154 0430 31       		.byte	0x31
 3155 0431 F3       		.byte	0xf3
 3156 0432 01       		.uleb128 0x1
 3157 0433 50       		.byte	0x50
 3158 0434 F3       		.byte	0xf3
 3159 0435 01       		.uleb128 0x1
 3160 0436 50       		.byte	0x50
 3161 0437 35       		.byte	0x35
 3162 0438 25       		.byte	0x25
 3163 0439 35       		.byte	0x35
 3164 043a 24       		.byte	0x24
 3165 043b 1C       		.byte	0x1c
 3166 043c 24       		.byte	0x24
 3167 043d 9F       		.byte	0x9f
 3168 043e 66000000 		.4byte	.LVL42
 3169 0442 6A000000 		.4byte	.LVL43
 3170 0446 0E00     		.2byte	0xe
ARM GAS  C:\Users\cmila\AppData\Local\Temp\ccIE2zG5.s 			page 82


 3171 0448 31       		.byte	0x31
 3172 0449 F3       		.byte	0xf3
 3173 044a 01       		.uleb128 0x1
 3174 044b 50       		.byte	0x50
 3175 044c F3       		.byte	0xf3
 3176 044d 01       		.uleb128 0x1
 3177 044e 50       		.byte	0x50
 3178 044f 35       		.byte	0x35
 3179 0450 25       		.byte	0x25
 3180 0451 35       		.byte	0x35
 3181 0452 24       		.byte	0x24
 3182 0453 1C       		.byte	0x1c
 3183 0454 24       		.byte	0x24
 3184 0455 9F       		.byte	0x9f
 3185 0456 00000000 		.4byte	0
 3186 045a 00000000 		.4byte	0
 3187              	.LLST19:
 3188 045e 00000000 		.4byte	.LVL24
 3189 0462 22000000 		.4byte	.LVL29
 3190 0466 0200     		.2byte	0x2
 3191 0468 30       		.byte	0x30
 3192 0469 9F       		.byte	0x9f
 3193 046a 22000000 		.4byte	.LVL29
 3194 046e 24000000 		.4byte	.LVL30
 3195 0472 0100     		.2byte	0x1
 3196 0474 50       		.byte	0x50
 3197 0475 24000000 		.4byte	.LVL30
 3198 0479 26000000 		.4byte	.LVL31
 3199 047d 0200     		.2byte	0x2
 3200 047f 30       		.byte	0x30
 3201 0480 9F       		.byte	0x9f
 3202 0481 26000000 		.4byte	.LVL31
 3203 0485 62000000 		.4byte	.LVL40
 3204 0489 0100     		.2byte	0x1
 3205 048b 56       		.byte	0x56
 3206 048c 62000000 		.4byte	.LVL40
 3207 0490 66000000 		.4byte	.LVL42
 3208 0494 0200     		.2byte	0x2
 3209 0496 30       		.byte	0x30
 3210 0497 9F       		.byte	0x9f
 3211 0498 66000000 		.4byte	.LVL42
 3212 049c 6A000000 		.4byte	.LVL43
 3213 04a0 0100     		.2byte	0x1
 3214 04a2 56       		.byte	0x56
 3215 04a3 00000000 		.4byte	0
 3216 04a7 00000000 		.4byte	0
 3217              	.LLST20:
 3218 04ab 0C000000 		.4byte	.LVL26
 3219 04af 70000000 		.4byte	.LVL44
 3220 04b3 0100     		.2byte	0x1
 3221 04b5 58       		.byte	0x58
 3222 04b6 00000000 		.4byte	0
 3223 04ba 00000000 		.4byte	0
 3224              	.LLST21:
 3225 04be 00000000 		.4byte	.LVL24
 3226 04c2 52000000 		.4byte	.LVL37
 3227 04c6 0600     		.2byte	0x6
ARM GAS  C:\Users\cmila\AppData\Local\Temp\ccIE2zG5.s 			page 83


 3228 04c8 0C       		.byte	0xc
 3229 04c9 03018800 		.4byte	0x880103
 3230 04cd 9F       		.byte	0x9f
 3231 04ce 52000000 		.4byte	.LVL37
 3232 04d2 62000000 		.4byte	.LVL40
 3233 04d6 0100     		.2byte	0x1
 3234 04d8 54       		.byte	0x54
 3235 04d9 62000000 		.4byte	.LVL40
 3236 04dd 64000000 		.4byte	.LVL41
 3237 04e1 0600     		.2byte	0x6
 3238 04e3 0C       		.byte	0xc
 3239 04e4 03018800 		.4byte	0x880103
 3240 04e8 9F       		.byte	0x9f
 3241 04e9 64000000 		.4byte	.LVL41
 3242 04ed 66000000 		.4byte	.LVL42
 3243 04f1 0100     		.2byte	0x1
 3244 04f3 54       		.byte	0x54
 3245 04f4 66000000 		.4byte	.LVL42
 3246 04f8 6A000000 		.4byte	.LVL43
 3247 04fc 0600     		.2byte	0x6
 3248 04fe 0C       		.byte	0xc
 3249 04ff 03018800 		.4byte	0x880103
 3250 0503 9F       		.byte	0x9f
 3251 0504 6A000000 		.4byte	.LVL43
 3252 0508 70000000 		.4byte	.LVL44
 3253 050c 0100     		.2byte	0x1
 3254 050e 54       		.byte	0x54
 3255 050f 70000000 		.4byte	.LVL44
 3256 0513 80000000 		.4byte	.LFE153
 3257 0517 0100     		.2byte	0x1
 3258 0519 50       		.byte	0x50
 3259 051a 00000000 		.4byte	0
 3260 051e 00000000 		.4byte	0
 3261              	.LLST22:
 3262 0522 04000000 		.4byte	.LVL25
 3263 0526 0C000000 		.4byte	.LVL26
 3264 052a 0100     		.2byte	0x1
 3265 052c 52       		.byte	0x52
 3266 052d 00000000 		.4byte	0
 3267 0531 00000000 		.4byte	0
 3268              	.LLST23:
 3269 0535 28000000 		.4byte	.LVL32
 3270 0539 42000000 		.4byte	.LVL35
 3271 053d 0100     		.2byte	0x1
 3272 053f 50       		.byte	0x50
 3273 0540 00000000 		.4byte	0
 3274 0544 00000000 		.4byte	0
 3275              	.LLST24:
 3276 0548 00000000 		.4byte	.LVL45
 3277 054c 1F000000 		.4byte	.LVL49-1
 3278 0550 0100     		.2byte	0x1
 3279 0552 50       		.byte	0x50
 3280 0553 1F000000 		.4byte	.LVL49-1
 3281 0557 24000000 		.4byte	.LVL51
 3282 055b 0100     		.2byte	0x1
 3283 055d 54       		.byte	0x54
 3284 055e 24000000 		.4byte	.LVL51
ARM GAS  C:\Users\cmila\AppData\Local\Temp\ccIE2zG5.s 			page 84


 3285 0562 26000000 		.4byte	.LVL52
 3286 0566 0100     		.2byte	0x1
 3287 0568 50       		.byte	0x50
 3288 0569 26000000 		.4byte	.LVL52
 3289 056d 30000000 		.4byte	.LVL54
 3290 0571 0100     		.2byte	0x1
 3291 0573 54       		.byte	0x54
 3292 0574 30000000 		.4byte	.LVL54
 3293 0578 32000000 		.4byte	.LVL55
 3294 057c 0400     		.2byte	0x4
 3295 057e F3       		.byte	0xf3
 3296 057f 01       		.uleb128 0x1
 3297 0580 50       		.byte	0x50
 3298 0581 9F       		.byte	0x9f
 3299 0582 32000000 		.4byte	.LVL55
 3300 0586 3E000000 		.4byte	.LVL56
 3301 058a 0100     		.2byte	0x1
 3302 058c 54       		.byte	0x54
 3303 058d 3E000000 		.4byte	.LVL56
 3304 0591 64000000 		.4byte	.LVL62
 3305 0595 0400     		.2byte	0x4
 3306 0597 F3       		.byte	0xf3
 3307 0598 01       		.uleb128 0x1
 3308 0599 50       		.byte	0x50
 3309 059a 9F       		.byte	0x9f
 3310 059b 64000000 		.4byte	.LVL62
 3311 059f 68000000 		.4byte	.LVL64
 3312 05a3 0100     		.2byte	0x1
 3313 05a5 50       		.byte	0x50
 3314 05a6 68000000 		.4byte	.LVL64
 3315 05aa 84000000 		.4byte	.LFE154
 3316 05ae 0400     		.2byte	0x4
 3317 05b0 F3       		.byte	0xf3
 3318 05b1 01       		.uleb128 0x1
 3319 05b2 50       		.byte	0x50
 3320 05b3 9F       		.byte	0x9f
 3321 05b4 00000000 		.4byte	0
 3322 05b8 00000000 		.4byte	0
 3323              	.LLST25:
 3324 05bc 00000000 		.4byte	.LVL45
 3325 05c0 1F000000 		.4byte	.LVL49-1
 3326 05c4 0100     		.2byte	0x1
 3327 05c6 51       		.byte	0x51
 3328 05c7 1F000000 		.4byte	.LVL49-1
 3329 05cb 24000000 		.4byte	.LVL51
 3330 05cf 0400     		.2byte	0x4
 3331 05d1 F3       		.byte	0xf3
 3332 05d2 01       		.uleb128 0x1
 3333 05d3 51       		.byte	0x51
 3334 05d4 9F       		.byte	0x9f
 3335 05d5 24000000 		.4byte	.LVL51
 3336 05d9 26000000 		.4byte	.LVL52
 3337 05dd 0100     		.2byte	0x1
 3338 05df 51       		.byte	0x51
 3339 05e0 26000000 		.4byte	.LVL52
 3340 05e4 64000000 		.4byte	.LVL62
 3341 05e8 0400     		.2byte	0x4
ARM GAS  C:\Users\cmila\AppData\Local\Temp\ccIE2zG5.s 			page 85


 3342 05ea F3       		.byte	0xf3
 3343 05eb 01       		.uleb128 0x1
 3344 05ec 51       		.byte	0x51
 3345 05ed 9F       		.byte	0x9f
 3346 05ee 64000000 		.4byte	.LVL62
 3347 05f2 68000000 		.4byte	.LVL64
 3348 05f6 0100     		.2byte	0x1
 3349 05f8 51       		.byte	0x51
 3350 05f9 68000000 		.4byte	.LVL64
 3351 05fd 84000000 		.4byte	.LFE154
 3352 0601 0400     		.2byte	0x4
 3353 0603 F3       		.byte	0xf3
 3354 0604 01       		.uleb128 0x1
 3355 0605 51       		.byte	0x51
 3356 0606 9F       		.byte	0x9f
 3357 0607 00000000 		.4byte	0
 3358 060b 00000000 		.4byte	0
 3359              	.LLST26:
 3360 060f 1A000000 		.4byte	.LVL48
 3361 0613 1F000000 		.4byte	.LVL49-1
 3362 0617 0500     		.2byte	0x5
 3363 0619 70       		.byte	0x70
 3364 061a 00       		.sleb128 0
 3365 061b 35       		.byte	0x35
 3366 061c 25       		.byte	0x25
 3367 061d 9F       		.byte	0x9f
 3368 061e 1F000000 		.4byte	.LVL49-1
 3369 0622 24000000 		.4byte	.LVL51
 3370 0626 0500     		.2byte	0x5
 3371 0628 74       		.byte	0x74
 3372 0629 00       		.sleb128 0
 3373 062a 35       		.byte	0x35
 3374 062b 25       		.byte	0x25
 3375 062c 9F       		.byte	0x9f
 3376 062d 24000000 		.4byte	.LVL51
 3377 0631 26000000 		.4byte	.LVL52
 3378 0635 0500     		.2byte	0x5
 3379 0637 70       		.byte	0x70
 3380 0638 00       		.sleb128 0
 3381 0639 35       		.byte	0x35
 3382 063a 25       		.byte	0x25
 3383 063b 9F       		.byte	0x9f
 3384 063c 26000000 		.4byte	.LVL52
 3385 0640 30000000 		.4byte	.LVL54
 3386 0644 0500     		.2byte	0x5
 3387 0646 74       		.byte	0x74
 3388 0647 00       		.sleb128 0
 3389 0648 35       		.byte	0x35
 3390 0649 25       		.byte	0x25
 3391 064a 9F       		.byte	0x9f
 3392 064b 30000000 		.4byte	.LVL54
 3393 064f 32000000 		.4byte	.LVL55
 3394 0653 0600     		.2byte	0x6
 3395 0655 F3       		.byte	0xf3
 3396 0656 01       		.uleb128 0x1
 3397 0657 50       		.byte	0x50
 3398 0658 35       		.byte	0x35
ARM GAS  C:\Users\cmila\AppData\Local\Temp\ccIE2zG5.s 			page 86


 3399 0659 25       		.byte	0x25
 3400 065a 9F       		.byte	0x9f
 3401 065b 32000000 		.4byte	.LVL55
 3402 065f 3E000000 		.4byte	.LVL56
 3403 0663 0500     		.2byte	0x5
 3404 0665 74       		.byte	0x74
 3405 0666 00       		.sleb128 0
 3406 0667 35       		.byte	0x35
 3407 0668 25       		.byte	0x25
 3408 0669 9F       		.byte	0x9f
 3409 066a 3E000000 		.4byte	.LVL56
 3410 066e 64000000 		.4byte	.LVL62
 3411 0672 0600     		.2byte	0x6
 3412 0674 F3       		.byte	0xf3
 3413 0675 01       		.uleb128 0x1
 3414 0676 50       		.byte	0x50
 3415 0677 35       		.byte	0x35
 3416 0678 25       		.byte	0x25
 3417 0679 9F       		.byte	0x9f
 3418 067a 68000000 		.4byte	.LVL64
 3419 067e 6C000000 		.4byte	.LVL65
 3420 0682 0600     		.2byte	0x6
 3421 0684 F3       		.byte	0xf3
 3422 0685 01       		.uleb128 0x1
 3423 0686 50       		.byte	0x50
 3424 0687 35       		.byte	0x35
 3425 0688 25       		.byte	0x25
 3426 0689 9F       		.byte	0x9f
 3427 068a 00000000 		.4byte	0
 3428 068e 00000000 		.4byte	0
 3429              	.LLST27:
 3430 0692 1A000000 		.4byte	.LVL48
 3431 0696 1F000000 		.4byte	.LVL49-1
 3432 069a 0C00     		.2byte	0xc
 3433 069c 31       		.byte	0x31
 3434 069d 70       		.byte	0x70
 3435 069e 00       		.sleb128 0
 3436 069f 70       		.byte	0x70
 3437 06a0 00       		.sleb128 0
 3438 06a1 35       		.byte	0x35
 3439 06a2 25       		.byte	0x25
 3440 06a3 35       		.byte	0x35
 3441 06a4 24       		.byte	0x24
 3442 06a5 1C       		.byte	0x1c
 3443 06a6 24       		.byte	0x24
 3444 06a7 9F       		.byte	0x9f
 3445 06a8 1F000000 		.4byte	.LVL49-1
 3446 06ac 24000000 		.4byte	.LVL51
 3447 06b0 0C00     		.2byte	0xc
 3448 06b2 31       		.byte	0x31
 3449 06b3 74       		.byte	0x74
 3450 06b4 00       		.sleb128 0
 3451 06b5 74       		.byte	0x74
 3452 06b6 00       		.sleb128 0
 3453 06b7 35       		.byte	0x35
 3454 06b8 25       		.byte	0x25
 3455 06b9 35       		.byte	0x35
ARM GAS  C:\Users\cmila\AppData\Local\Temp\ccIE2zG5.s 			page 87


 3456 06ba 24       		.byte	0x24
 3457 06bb 1C       		.byte	0x1c
 3458 06bc 24       		.byte	0x24
 3459 06bd 9F       		.byte	0x9f
 3460 06be 24000000 		.4byte	.LVL51
 3461 06c2 26000000 		.4byte	.LVL52
 3462 06c6 0C00     		.2byte	0xc
 3463 06c8 31       		.byte	0x31
 3464 06c9 70       		.byte	0x70
 3465 06ca 00       		.sleb128 0
 3466 06cb 70       		.byte	0x70
 3467 06cc 00       		.sleb128 0
 3468 06cd 35       		.byte	0x35
 3469 06ce 25       		.byte	0x25
 3470 06cf 35       		.byte	0x35
 3471 06d0 24       		.byte	0x24
 3472 06d1 1C       		.byte	0x1c
 3473 06d2 24       		.byte	0x24
 3474 06d3 9F       		.byte	0x9f
 3475 06d4 26000000 		.4byte	.LVL52
 3476 06d8 30000000 		.4byte	.LVL54
 3477 06dc 0C00     		.2byte	0xc
 3478 06de 31       		.byte	0x31
 3479 06df 74       		.byte	0x74
 3480 06e0 00       		.sleb128 0
 3481 06e1 74       		.byte	0x74
 3482 06e2 00       		.sleb128 0
 3483 06e3 35       		.byte	0x35
 3484 06e4 25       		.byte	0x25
 3485 06e5 35       		.byte	0x35
 3486 06e6 24       		.byte	0x24
 3487 06e7 1C       		.byte	0x1c
 3488 06e8 24       		.byte	0x24
 3489 06e9 9F       		.byte	0x9f
 3490 06ea 30000000 		.4byte	.LVL54
 3491 06ee 32000000 		.4byte	.LVL55
 3492 06f2 0E00     		.2byte	0xe
 3493 06f4 31       		.byte	0x31
 3494 06f5 F3       		.byte	0xf3
 3495 06f6 01       		.uleb128 0x1
 3496 06f7 50       		.byte	0x50
 3497 06f8 F3       		.byte	0xf3
 3498 06f9 01       		.uleb128 0x1
 3499 06fa 50       		.byte	0x50
 3500 06fb 35       		.byte	0x35
 3501 06fc 25       		.byte	0x25
 3502 06fd 35       		.byte	0x35
 3503 06fe 24       		.byte	0x24
 3504 06ff 1C       		.byte	0x1c
 3505 0700 24       		.byte	0x24
 3506 0701 9F       		.byte	0x9f
 3507 0702 32000000 		.4byte	.LVL55
 3508 0706 3E000000 		.4byte	.LVL56
 3509 070a 0C00     		.2byte	0xc
 3510 070c 31       		.byte	0x31
 3511 070d 74       		.byte	0x74
 3512 070e 00       		.sleb128 0
ARM GAS  C:\Users\cmila\AppData\Local\Temp\ccIE2zG5.s 			page 88


 3513 070f 74       		.byte	0x74
 3514 0710 00       		.sleb128 0
 3515 0711 35       		.byte	0x35
 3516 0712 25       		.byte	0x25
 3517 0713 35       		.byte	0x35
 3518 0714 24       		.byte	0x24
 3519 0715 1C       		.byte	0x1c
 3520 0716 24       		.byte	0x24
 3521 0717 9F       		.byte	0x9f
 3522 0718 3E000000 		.4byte	.LVL56
 3523 071c 64000000 		.4byte	.LVL62
 3524 0720 0E00     		.2byte	0xe
 3525 0722 31       		.byte	0x31
 3526 0723 F3       		.byte	0xf3
 3527 0724 01       		.uleb128 0x1
 3528 0725 50       		.byte	0x50
 3529 0726 F3       		.byte	0xf3
 3530 0727 01       		.uleb128 0x1
 3531 0728 50       		.byte	0x50
 3532 0729 35       		.byte	0x35
 3533 072a 25       		.byte	0x25
 3534 072b 35       		.byte	0x35
 3535 072c 24       		.byte	0x24
 3536 072d 1C       		.byte	0x1c
 3537 072e 24       		.byte	0x24
 3538 072f 9F       		.byte	0x9f
 3539 0730 68000000 		.4byte	.LVL64
 3540 0734 6C000000 		.4byte	.LVL65
 3541 0738 0E00     		.2byte	0xe
 3542 073a 31       		.byte	0x31
 3543 073b F3       		.byte	0xf3
 3544 073c 01       		.uleb128 0x1
 3545 073d 50       		.byte	0x50
 3546 073e F3       		.byte	0xf3
 3547 073f 01       		.uleb128 0x1
 3548 0740 50       		.byte	0x50
 3549 0741 35       		.byte	0x35
 3550 0742 25       		.byte	0x25
 3551 0743 35       		.byte	0x35
 3552 0744 24       		.byte	0x24
 3553 0745 1C       		.byte	0x1c
 3554 0746 24       		.byte	0x24
 3555 0747 9F       		.byte	0x9f
 3556 0748 00000000 		.4byte	0
 3557 074c 00000000 		.4byte	0
 3558              	.LLST28:
 3559 0750 00000000 		.4byte	.LVL45
 3560 0754 22000000 		.4byte	.LVL50
 3561 0758 0200     		.2byte	0x2
 3562 075a 30       		.byte	0x30
 3563 075b 9F       		.byte	0x9f
 3564 075c 22000000 		.4byte	.LVL50
 3565 0760 24000000 		.4byte	.LVL51
 3566 0764 0100     		.2byte	0x1
 3567 0766 50       		.byte	0x50
 3568 0767 24000000 		.4byte	.LVL51
 3569 076b 26000000 		.4byte	.LVL52
ARM GAS  C:\Users\cmila\AppData\Local\Temp\ccIE2zG5.s 			page 89


 3570 076f 0200     		.2byte	0x2
 3571 0771 30       		.byte	0x30
 3572 0772 9F       		.byte	0x9f
 3573 0773 26000000 		.4byte	.LVL52
 3574 0777 64000000 		.4byte	.LVL62
 3575 077b 0100     		.2byte	0x1
 3576 077d 57       		.byte	0x57
 3577 077e 64000000 		.4byte	.LVL62
 3578 0782 68000000 		.4byte	.LVL64
 3579 0786 0200     		.2byte	0x2
 3580 0788 30       		.byte	0x30
 3581 0789 9F       		.byte	0x9f
 3582 078a 68000000 		.4byte	.LVL64
 3583 078e 6C000000 		.4byte	.LVL65
 3584 0792 0100     		.2byte	0x1
 3585 0794 57       		.byte	0x57
 3586 0795 00000000 		.4byte	0
 3587 0799 00000000 		.4byte	0
 3588              	.LLST29:
 3589 079d 0C000000 		.4byte	.LVL47
 3590 07a1 72000000 		.4byte	.LVL66
 3591 07a5 0100     		.2byte	0x1
 3592 07a7 58       		.byte	0x58
 3593 07a8 00000000 		.4byte	0
 3594 07ac 00000000 		.4byte	0
 3595              	.LLST30:
 3596 07b0 00000000 		.4byte	.LVL45
 3597 07b4 52000000 		.4byte	.LVL58
 3598 07b8 0600     		.2byte	0x6
 3599 07ba 0C       		.byte	0xc
 3600 07bb 03018800 		.4byte	0x880103
 3601 07bf 9F       		.byte	0x9f
 3602 07c0 52000000 		.4byte	.LVL58
 3603 07c4 54000000 		.4byte	.LVL59
 3604 07c8 0200     		.2byte	0x2
 3605 07ca 30       		.byte	0x30
 3606 07cb 9F       		.byte	0x9f
 3607 07cc 54000000 		.4byte	.LVL59
 3608 07d0 64000000 		.4byte	.LVL62
 3609 07d4 0100     		.2byte	0x1
 3610 07d6 54       		.byte	0x54
 3611 07d7 64000000 		.4byte	.LVL62
 3612 07db 66000000 		.4byte	.LVL63
 3613 07df 0600     		.2byte	0x6
 3614 07e1 0C       		.byte	0xc
 3615 07e2 03018800 		.4byte	0x880103
 3616 07e6 9F       		.byte	0x9f
 3617 07e7 66000000 		.4byte	.LVL63
 3618 07eb 68000000 		.4byte	.LVL64
 3619 07ef 0100     		.2byte	0x1
 3620 07f1 54       		.byte	0x54
 3621 07f2 68000000 		.4byte	.LVL64
 3622 07f6 6C000000 		.4byte	.LVL65
 3623 07fa 0600     		.2byte	0x6
 3624 07fc 0C       		.byte	0xc
 3625 07fd 03018800 		.4byte	0x880103
 3626 0801 9F       		.byte	0x9f
ARM GAS  C:\Users\cmila\AppData\Local\Temp\ccIE2zG5.s 			page 90


 3627 0802 6C000000 		.4byte	.LVL65
 3628 0806 72000000 		.4byte	.LVL66
 3629 080a 0100     		.2byte	0x1
 3630 080c 54       		.byte	0x54
 3631 080d 72000000 		.4byte	.LVL66
 3632 0811 84000000 		.4byte	.LFE154
 3633 0815 0100     		.2byte	0x1
 3634 0817 50       		.byte	0x50
 3635 0818 00000000 		.4byte	0
 3636 081c 00000000 		.4byte	0
 3637              	.LLST31:
 3638 0820 04000000 		.4byte	.LVL46
 3639 0824 0C000000 		.4byte	.LVL47
 3640 0828 0100     		.2byte	0x1
 3641 082a 52       		.byte	0x52
 3642 082b 00000000 		.4byte	0
 3643 082f 00000000 		.4byte	0
 3644              	.LLST32:
 3645 0833 28000000 		.4byte	.LVL53
 3646 0837 42000000 		.4byte	.LVL57
 3647 083b 0100     		.2byte	0x1
 3648 083d 50       		.byte	0x50
 3649 083e 00000000 		.4byte	0
 3650 0842 00000000 		.4byte	0
 3651              	.LLST33:
 3652 0846 00000000 		.4byte	.LVL67
 3653 084a 14000000 		.4byte	.LVL71
 3654 084e 0100     		.2byte	0x1
 3655 0850 50       		.byte	0x50
 3656 0851 14000000 		.4byte	.LVL71
 3657 0855 2A000000 		.4byte	.LVL73
 3658 0859 0400     		.2byte	0x4
 3659 085b F3       		.byte	0xf3
 3660 085c 01       		.uleb128 0x1
 3661 085d 50       		.byte	0x50
 3662 085e 9F       		.byte	0x9f
 3663 085f 2A000000 		.4byte	.LVL73
 3664 0863 2C000000 		.4byte	.LVL74
 3665 0867 0100     		.2byte	0x1
 3666 0869 50       		.byte	0x50
 3667 086a 2C000000 		.4byte	.LVL74
 3668 086e 40000000 		.4byte	.LFE155
 3669 0872 0400     		.2byte	0x4
 3670 0874 F3       		.byte	0xf3
 3671 0875 01       		.uleb128 0x1
 3672 0876 50       		.byte	0x50
 3673 0877 9F       		.byte	0x9f
 3674 0878 00000000 		.4byte	0
 3675 087c 00000000 		.4byte	0
 3676              	.LLST34:
 3677 0880 0E000000 		.4byte	.LVL70
 3678 0884 2A000000 		.4byte	.LVL73
 3679 0888 0100     		.2byte	0x1
 3680 088a 52       		.byte	0x52
 3681 088b 00000000 		.4byte	0
 3682 088f 00000000 		.4byte	0
 3683              	.LLST35:
ARM GAS  C:\Users\cmila\AppData\Local\Temp\ccIE2zG5.s 			page 91


 3684 0893 0E000000 		.4byte	.LVL70
 3685 0897 14000000 		.4byte	.LVL71
 3686 089b 0A00     		.2byte	0xa
 3687 089d 31       		.byte	0x31
 3688 089e 70       		.byte	0x70
 3689 089f 00       		.sleb128 0
 3690 08a0 72       		.byte	0x72
 3691 08a1 00       		.sleb128 0
 3692 08a2 35       		.byte	0x35
 3693 08a3 24       		.byte	0x24
 3694 08a4 1C       		.byte	0x1c
 3695 08a5 24       		.byte	0x24
 3696 08a6 9F       		.byte	0x9f
 3697 08a7 14000000 		.4byte	.LVL71
 3698 08ab 2A000000 		.4byte	.LVL73
 3699 08af 0B00     		.2byte	0xb
 3700 08b1 31       		.byte	0x31
 3701 08b2 F3       		.byte	0xf3
 3702 08b3 01       		.uleb128 0x1
 3703 08b4 50       		.byte	0x50
 3704 08b5 72       		.byte	0x72
 3705 08b6 00       		.sleb128 0
 3706 08b7 35       		.byte	0x35
 3707 08b8 24       		.byte	0x24
 3708 08b9 1C       		.byte	0x1c
 3709 08ba 24       		.byte	0x24
 3710 08bb 9F       		.byte	0x9f
 3711 08bc 00000000 		.4byte	0
 3712 08c0 00000000 		.4byte	0
 3713              	.LLST36:
 3714 08c4 06000000 		.4byte	.LVL69
 3715 08c8 16000000 		.4byte	.LVL72
 3716 08cc 0100     		.2byte	0x1
 3717 08ce 53       		.byte	0x53
 3718 08cf 2A000000 		.4byte	.LVL73
 3719 08d3 40000000 		.4byte	.LFE155
 3720 08d7 0100     		.2byte	0x1
 3721 08d9 53       		.byte	0x53
 3722 08da 00000000 		.4byte	0
 3723 08de 00000000 		.4byte	0
 3724              	.LLST37:
 3725 08e2 04000000 		.4byte	.LVL68
 3726 08e6 06000000 		.4byte	.LVL69
 3727 08ea 0100     		.2byte	0x1
 3728 08ec 53       		.byte	0x53
 3729 08ed 00000000 		.4byte	0
 3730 08f1 00000000 		.4byte	0
 3731              	.LLST38:
 3732 08f5 04000000 		.4byte	.LVL75
 3733 08f9 06000000 		.4byte	.LVL76
 3734 08fd 0100     		.2byte	0x1
 3735 08ff 53       		.byte	0x53
 3736 0900 00000000 		.4byte	0
 3737 0904 00000000 		.4byte	0
 3738              		.section	.debug_aranges,"",%progbits
 3739 0000 44000000 		.4byte	0x44
 3740 0004 0200     		.2byte	0x2
ARM GAS  C:\Users\cmila\AppData\Local\Temp\ccIE2zG5.s 			page 92


 3741 0006 00000000 		.4byte	.Ldebug_info0
 3742 000a 04       		.byte	0x4
 3743 000b 00       		.byte	0
 3744 000c 0000     		.2byte	0
 3745 000e 0000     		.2byte	0
 3746 0010 00000000 		.4byte	.LFB152
 3747 0014 68000000 		.4byte	.LFE152-.LFB152
 3748 0018 00000000 		.4byte	.LFB151
 3749 001c 44000000 		.4byte	.LFE151-.LFB151
 3750 0020 00000000 		.4byte	.LFB153
 3751 0024 80000000 		.4byte	.LFE153-.LFB153
 3752 0028 00000000 		.4byte	.LFB154
 3753 002c 84000000 		.4byte	.LFE154-.LFB154
 3754 0030 00000000 		.4byte	.LFB155
 3755 0034 40000000 		.4byte	.LFE155-.LFB155
 3756 0038 00000000 		.4byte	.LFB156
 3757 003c 10000000 		.4byte	.LFE156-.LFB156
 3758 0040 00000000 		.4byte	0
 3759 0044 00000000 		.4byte	0
 3760              		.section	.debug_ranges,"",%progbits
 3761              	.Ldebug_ranges0:
 3762 0000 1A000000 		.4byte	.LBB22
 3763 0004 20000000 		.4byte	.LBE22
 3764 0008 22000000 		.4byte	.LBB25
 3765 000c 26000000 		.4byte	.LBE25
 3766 0010 00000000 		.4byte	0
 3767 0014 00000000 		.4byte	0
 3768 0018 00000000 		.4byte	.LFB152
 3769 001c 68000000 		.4byte	.LFE152
 3770 0020 00000000 		.4byte	.LFB151
 3771 0024 44000000 		.4byte	.LFE151
 3772 0028 00000000 		.4byte	.LFB153
 3773 002c 80000000 		.4byte	.LFE153
 3774 0030 00000000 		.4byte	.LFB154
 3775 0034 84000000 		.4byte	.LFE154
 3776 0038 00000000 		.4byte	.LFB155
 3777 003c 40000000 		.4byte	.LFE155
 3778 0040 00000000 		.4byte	.LFB156
 3779 0044 10000000 		.4byte	.LFE156
 3780 0048 00000000 		.4byte	0
 3781 004c 00000000 		.4byte	0
 3782              		.section	.debug_line,"",%progbits
 3783              	.Ldebug_line0:
 3784 0000 21040000 		.section	.debug_str,"MS",%progbits,1
 3784      0200BB02 
 3784      00000201 
 3784      FB0E0D00 
 3784      01010101 
 3785              	.LASF127:
 3786 0000 43595F49 		.ascii	"CY_IPC_SEMA_NOT_ACQUIRED\000"
 3786      50435F53 
 3786      454D415F 
 3786      4E4F545F 
 3786      41435155 
 3787              	.LASF144:
 3788 0019 636F756E 		.ascii	"count\000"
 3788      7400
ARM GAS  C:\Users\cmila\AppData\Local\Temp\ccIE2zG5.s 			page 93


 3789              	.LASF73:
 3790 001f 666C6173 		.ascii	"flashCtlMainWs3Freq\000"
 3790      6843746C 
 3790      4D61696E 
 3790      57733346 
 3790      72657100 
 3791              	.LASF95:
 3792 0033 6770696F 		.ascii	"gpioPrtCfgInOffset\000"
 3792      50727443 
 3792      6667496E 
 3792      4F666673 
 3792      657400
 3793              	.LASF168:
 3794 0046 474E5520 		.ascii	"GNU C11 5.4.1 20160609 (release) [ARM/embedded-5-br"
 3794      43313120 
 3794      352E342E 
 3794      31203230 
 3794      31363036 
 3795 0079 616E6368 		.ascii	"anch revision 237715] -mcpu=cortex-m4 -mfloat-abi=s"
 3795      20726576 
 3795      6973696F 
 3795      6E203233 
 3795      37373135 
 3796 00ac 6F667466 		.ascii	"oftfp -mfpu=fpv4-sp-d16 -mthumb -g -Os -ffunction-s"
 3796      70202D6D 
 3796      6670753D 
 3796      66707634 
 3796      2D73702D 
 3797 00df 65637469 		.ascii	"ections -ffat-lto-objects\000"
 3797      6F6E7320 
 3797      2D666661 
 3797      742D6C74 
 3797      6F2D6F62 
 3798              	.LASF169:
 3799 00f9 47656E65 		.ascii	"Generated_Source\\PSoC6\\pdl\\drivers\\peripheral\\"
 3799      72617465 
 3799      645F536F 
 3799      75726365 
 3799      5C50536F 
 3800 0127 6970635C 		.ascii	"ipc\\cy_ipc_sema.c\000"
 3800      63795F69 
 3800      70635F73 
 3800      656D612E 
 3800      6300
 3801              	.LASF39:
 3802 0139 63727970 		.ascii	"cryptoVersion\000"
 3802      746F5665 
 3802      7273696F 
 3802      6E00
 3803              	.LASF120:
 3804 0147 43595F49 		.ascii	"CY_IPC_DRV_ERROR\000"
 3804      50435F44 
 3804      52565F45 
 3804      52524F52 
 3804      00
 3805              	.LASF35:
 3806 0158 70617373 		.ascii	"passBase\000"
ARM GAS  C:\Users\cmila\AppData\Local\Temp\ccIE2zG5.s 			page 94


 3806      42617365 
 3806      00
 3807              	.LASF84:
 3808 0161 70657269 		.ascii	"periTrGrSize\000"
 3808      54724772 
 3808      53697A65 
 3808      00
 3809              	.LASF48:
 3810 016e 63707573 		.ascii	"cpussIpcIrqNr\000"
 3810      73497063 
 3810      4972714E 
 3810      7200
 3811              	.LASF2:
 3812 017c 5F5F7569 		.ascii	"__uint8_t\000"
 3812      6E74385F 
 3812      7400
 3813              	.LASF92:
 3814 0186 70657269 		.ascii	"periDiv24_5CtlOffset\000"
 3814      44697632 
 3814      345F3543 
 3814      746C4F66 
 3814      66736574 
 3815              	.LASF99:
 3816 019b 63707573 		.ascii	"cpussCm4ClockCtlOffset\000"
 3816      73436D34 
 3816      436C6F63 
 3816      6B43746C 
 3816      4F666673 
 3817              	.LASF22:
 3818 01b2 52454C45 		.ascii	"RELEASE\000"
 3818      41534500 
 3819              	.LASF170:
 3820 01ba 433A5C55 		.ascii	"C:\\Users\\cmila\\uni\\projects\\Neural-Stimulator-"
 3820      73657273 
 3820      5C636D69 
 3820      6C615C75 
 3820      6E695C70 
 3821 01e8 4669726D 		.ascii	"Firmware\\new\\PSOC6\\TIMER\\SampleMicroSeconds.cyd"
 3821      77617265 
 3821      5C6E6577 
 3821      5C50534F 
 3821      43365C54 
 3822 0217 736E00   		.ascii	"sn\000"
 3823              	.LASF28:
 3824 021a 63707573 		.ascii	"cpussBase\000"
 3824      73426173 
 3824      6500
 3825              	.LASF77:
 3826 0224 64774368 		.ascii	"dwChCtlPrioPos\000"
 3826      43746C50 
 3826      72696F50 
 3826      6F7300
 3827              	.LASF57:
 3828 0233 70657269 		.ascii	"periClockNr\000"
 3828      436C6F63 
 3828      6B4E7200 
 3829              	.LASF151:
ARM GAS  C:\Users\cmila\AppData\Local\Temp\ccIE2zG5.s 			page 95


 3830 023f 73656D61 		.ascii	"semaNumber\000"
 3830      4E756D62 
 3830      657200
 3831              	.LASF12:
 3832 024a 6C6F6E67 		.ascii	"long long unsigned int\000"
 3832      206C6F6E 
 3832      6720756E 
 3832      7369676E 
 3832      65642069 
 3833              	.LASF65:
 3834 0261 666C6173 		.ascii	"flashRwwRequired\000"
 3834      68527777 
 3834      52657175 
 3834      69726564 
 3834      00
 3835              	.LASF81:
 3836 0272 70657269 		.ascii	"periTrCmdOffset\000"
 3836      5472436D 
 3836      644F6666 
 3836      73657400 
 3837              	.LASF105:
 3838 0282 63707573 		.ascii	"cpussSysTickCtlOffset\000"
 3838      73537973 
 3838      5469636B 
 3838      43746C4F 
 3838      66667365 
 3839              	.LASF163:
 3840 0298 49544D5F 		.ascii	"ITM_RxBuffer\000"
 3840      52784275 
 3840      66666572 
 3840      00
 3841              	.LASF156:
 3842 02a5 73656D61 		.ascii	"semaStruct\000"
 3842      53747275 
 3842      637400
 3843              	.LASF66:
 3844 02b0 666C6173 		.ascii	"flashPipeRequired\000"
 3844      68506970 
 3844      65526571 
 3844      75697265 
 3844      6400
 3845              	.LASF70:
 3846 02c2 666C6173 		.ascii	"flashCtlMainWs0Freq\000"
 3846      6843746C 
 3846      4D61696E 
 3846      57733046 
 3846      72657100 
 3847              	.LASF15:
 3848 02d6 696E7431 		.ascii	"int16_t\000"
 3848      365F7400 
 3849              	.LASF11:
 3850 02de 6C6F6E67 		.ascii	"long long int\000"
 3850      206C6F6E 
 3850      6720696E 
 3850      7400
 3851              	.LASF0:
 3852 02ec 7369676E 		.ascii	"signed char\000"
ARM GAS  C:\Users\cmila\AppData\Local\Temp\ccIE2zG5.s 			page 96


 3852      65642063 
 3852      68617200 
 3853              	.LASF86:
 3854 02f8 70657269 		.ascii	"periDivCmdTypeSelPos\000"
 3854      44697643 
 3854      6D645479 
 3854      70655365 
 3854      6C506F73 
 3855              	.LASF21:
 3856 030d 41435155 		.ascii	"ACQUIRE\000"
 3856      49524500 
 3857              	.LASF103:
 3858 0315 63707573 		.ascii	"cpussTrimRamCtlOffset\000"
 3858      73547269 
 3858      6D52616D 
 3858      43746C4F 
 3858      66667365 
 3859              	.LASF44:
 3860 032b 69706356 		.ascii	"ipcVersion\000"
 3860      65727369 
 3860      6F6E00
 3861              	.LASF145:
 3862 0336 6D656D50 		.ascii	"memPtr\000"
 3862      747200
 3863              	.LASF106:
 3864 033d 63707573 		.ascii	"cpussCm0NmiCtlOffset\000"
 3864      73436D30 
 3864      4E6D6943 
 3864      746C4F66 
 3864      66736574 
 3865              	.LASF136:
 3866 0352 6E6F7469 		.ascii	"notifyEventIntr\000"
 3866      66794576 
 3866      656E7449 
 3866      6E747200 
 3867              	.LASF154:
 3868 0362 73656D61 		.ascii	"semaMask\000"
 3868      4D61736B 
 3868      00
 3869              	.LASF33:
 3870 036b 6873696F 		.ascii	"hsiomBase\000"
 3870      6D426173 
 3870      6500
 3871              	.LASF8:
 3872 0375 6C6F6E67 		.ascii	"long int\000"
 3872      20696E74 
 3872      00
 3873              	.LASF64:
 3874 037e 63727970 		.ascii	"cryptoMemSize\000"
 3874      746F4D65 
 3874      6D53697A 
 3874      6500
 3875              	.LASF13:
 3876 038c 756E7369 		.ascii	"unsigned int\000"
 3876      676E6564 
 3876      20696E74 
 3876      00
ARM GAS  C:\Users\cmila\AppData\Local\Temp\ccIE2zG5.s 			page 97


 3877              	.LASF30:
 3878 0399 70657269 		.ascii	"periBase\000"
 3878      42617365 
 3878      00
 3879              	.LASF62:
 3880 03a2 73797350 		.ascii	"sysPmSimoPresent\000"
 3880      6D53696D 
 3880      6F507265 
 3880      73656E74 
 3880      00
 3881              	.LASF52:
 3882 03b3 63707573 		.ascii	"cpussFmIrq\000"
 3882      73466D49 
 3882      727100
 3883              	.LASF118:
 3884 03be 646F7562 		.ascii	"double\000"
 3884      6C6500
 3885              	.LASF91:
 3886 03c5 70657269 		.ascii	"periDiv16_5CtlOffset\000"
 3886      44697631 
 3886      365F3543 
 3886      746C4F66 
 3886      66736574 
 3887              	.LASF55:
 3888 03da 73727373 		.ascii	"srssNumPll\000"
 3888      4E756D50 
 3888      6C6C00
 3889              	.LASF165:
 3890 03e5 43795F49 		.ascii	"Cy_IPC_Drv_LockRelease\000"
 3890      50435F44 
 3890      72765F4C 
 3890      6F636B52 
 3890      656C6561 
 3891              	.LASF89:
 3892 03fc 70657269 		.ascii	"periDiv8CtlOffset\000"
 3892      44697638 
 3892      43746C4F 
 3892      66667365 
 3892      7400
 3893              	.LASF6:
 3894 040e 73686F72 		.ascii	"short unsigned int\000"
 3894      7420756E 
 3894      7369676E 
 3894      65642069 
 3894      6E7400
 3895              	.LASF167:
 3896 0421 43795F53 		.ascii	"Cy_SysLib_ExitCriticalSection\000"
 3896      79734C69 
 3896      625F4578 
 3896      69744372 
 3896      69746963 
 3897              	.LASF96:
 3898 043f 6770696F 		.ascii	"gpioPrtCfgOutOffset\000"
 3898      50727443 
 3898      66674F75 
 3898      744F6666 
 3898      73657400 
ARM GAS  C:\Users\cmila\AppData\Local\Temp\ccIE2zG5.s 			page 98


 3899              	.LASF143:
 3900 0453 69706349 		.ascii	"ipcIndex\000"
 3900      6E646578 
 3900      00
 3901              	.LASF29:
 3902 045c 666C6173 		.ascii	"flashcBase\000"
 3902      68634261 
 3902      736500
 3903              	.LASF9:
 3904 0467 5F5F7569 		.ascii	"__uint32_t\000"
 3904      6E743332 
 3904      5F7400
 3905              	.LASF59:
 3906 0472 70617373 		.ascii	"passSarChannels\000"
 3906      53617243 
 3906      68616E6E 
 3906      656C7300 
 3907              	.LASF25:
 3908 0482 4C4F434B 		.ascii	"LOCK_STATUS\000"
 3908      5F535441 
 3908      54555300 
 3909              	.LASF123:
 3910 048e 43595F49 		.ascii	"CY_IPC_SEMA_ERROR_LOCKED\000"
 3910      50435F53 
 3910      454D415F 
 3910      4552524F 
 3910      525F4C4F 
 3911              	.LASF3:
 3912 04a7 5F5F696E 		.ascii	"__int16_t\000"
 3912      7431365F 
 3912      7400
 3913              	.LASF133:
 3914 04b1 61727261 		.ascii	"arrayPtr\000"
 3914      79507472 
 3914      00
 3915              	.LASF119:
 3916 04ba 43595F49 		.ascii	"CY_IPC_DRV_SUCCESS\000"
 3916      50435F44 
 3916      52565F53 
 3916      55434345 
 3916      535300
 3917              	.LASF102:
 3918 04cd 63707573 		.ascii	"cpussCm4PwrCtlOffset\000"
 3918      73436D34 
 3918      50777243 
 3918      746C4F66 
 3918      66736574 
 3919              	.LASF97:
 3920 04e2 6770696F 		.ascii	"gpioPrtCfgSioOffset\000"
 3920      50727443 
 3920      66675369 
 3920      6F4F6666 
 3920      73657400 
 3921              	.LASF49:
 3922 04f6 63707573 		.ascii	"cpussDwChNr\000"
 3922      73447743 
 3922      684E7200 
ARM GAS  C:\Users\cmila\AppData\Local\Temp\ccIE2zG5.s 			page 99


 3923              	.LASF160:
 3924 0502 43795F49 		.ascii	"Cy_IPC_Sema_GetMaxSems\000"
 3924      50435F53 
 3924      656D615F 
 3924      4765744D 
 3924      61785365 
 3925              	.LASF16:
 3926 0519 75696E74 		.ascii	"uint16_t\000"
 3926      31365F74 
 3926      00
 3927              	.LASF82:
 3928 0522 70657269 		.ascii	"periTrCmdGrSelMsk\000"
 3928      5472436D 
 3928      64477253 
 3928      656C4D73 
 3928      6B00
 3929              	.LASF122:
 3930 0534 43595F49 		.ascii	"CY_IPC_SEMA_SUCCESS\000"
 3930      50435F53 
 3930      454D415F 
 3930      53554343 
 3930      45535300 
 3931              	.LASF10:
 3932 0548 6C6F6E67 		.ascii	"long unsigned int\000"
 3932      20756E73 
 3932      69676E65 
 3932      6420696E 
 3932      7400
 3933              	.LASF155:
 3934 055a 696E7465 		.ascii	"interruptState\000"
 3934      72727570 
 3934      74537461 
 3934      746500
 3935              	.LASF47:
 3936 0569 63707573 		.ascii	"cpussIpcNr\000"
 3936      73497063 
 3936      4E7200
 3937              	.LASF128:
 3938 0574 43595F49 		.ascii	"CY_IPC_SEMA_LOCKED\000"
 3938      50435F53 
 3938      454D415F 
 3938      4C4F434B 
 3938      454400
 3939              	.LASF34:
 3940 0587 6770696F 		.ascii	"gpioBase\000"
 3940      42617365 
 3940      00
 3941              	.LASF72:
 3942 0590 666C6173 		.ascii	"flashCtlMainWs2Freq\000"
 3942      6843746C 
 3942      4D61696E 
 3942      57733246 
 3942      72657100 
 3943              	.LASF138:
 3944 05a4 69706343 		.ascii	"ipcChannel\000"
 3944      68616E6E 
 3944      656C00
ARM GAS  C:\Users\cmila\AppData\Local\Temp\ccIE2zG5.s 			page 100


 3945              	.LASF171:
 3946 05af 43795F49 		.ascii	"Cy_IPC_Sema_InitExt\000"
 3946      50435F53 
 3946      656D615F 
 3946      496E6974 
 3946      45787400 
 3947              	.LASF110:
 3948 05c3 63707573 		.ascii	"cpussRam1Ctl0\000"
 3948      7352616D 
 3948      3143746C 
 3948      3000
 3949              	.LASF137:
 3950 05d1 6D736750 		.ascii	"msgPtr\000"
 3950      747200
 3951              	.LASF24:
 3952 05d8 44415441 		.ascii	"DATA\000"
 3952      00
 3953              	.LASF121:
 3954 05dd 63795F65 		.ascii	"cy_en_ipcdrv_status_t\000"
 3954      6E5F6970 
 3954      63647276 
 3954      5F737461 
 3954      7475735F 
 3955              	.LASF149:
 3956 05f3 43795F49 		.ascii	"Cy_IPC_Sema_Init\000"
 3956      50435F53 
 3956      656D615F 
 3956      496E6974 
 3956      00
 3957              	.LASF42:
 3958 0604 6770696F 		.ascii	"gpioVersion\000"
 3958      56657273 
 3958      696F6E00 
 3959              	.LASF129:
 3960 0610 43595F49 		.ascii	"CY_IPC_SEMA_STATUS_LOCKED\000"
 3960      50435F53 
 3960      454D415F 
 3960      53544154 
 3960      55535F4C 
 3961              	.LASF148:
 3962 062a 43795F49 		.ascii	"Cy_IPC_Drv_LockAcquire\000"
 3962      50435F44 
 3962      72765F4C 
 3962      6F636B41 
 3962      63717569 
 3963              	.LASF114:
 3964 0641 63795F73 		.ascii	"cy_stc_device_t\000"
 3964      74635F64 
 3964      65766963 
 3964      655F7400 
 3965              	.LASF166:
 3966 0651 43795F53 		.ascii	"Cy_SysLib_EnterCriticalSection\000"
 3966      79734C69 
 3966      625F456E 
 3966      74657243 
 3966      72697469 
 3967              	.LASF60:
ARM GAS  C:\Users\cmila\AppData\Local\Temp\ccIE2zG5.s 			page 101


 3968 0670 65704D6F 		.ascii	"epMonitorNr\000"
 3968      6E69746F 
 3968      724E7200 
 3969              	.LASF107:
 3970 067c 63707573 		.ascii	"cpussCm4NmiCtlOffset\000"
 3970      73436D34 
 3970      4E6D6943 
 3970      746C4F66 
 3970      66736574 
 3971              	.LASF38:
 3972 0691 63707573 		.ascii	"cpussVersion\000"
 3972      73566572 
 3972      73696F6E 
 3972      00
 3973              	.LASF98:
 3974 069e 63707573 		.ascii	"cpussCm0ClockCtlOffset\000"
 3974      73436D30 
 3974      436C6F63 
 3974      6B43746C 
 3974      4F666673 
 3975              	.LASF124:
 3976 06b5 43595F49 		.ascii	"CY_IPC_SEMA_ERROR_UNLOCKED\000"
 3976      50435F53 
 3976      454D415F 
 3976      4552524F 
 3976      525F554E 
 3977              	.LASF126:
 3978 06d0 43595F49 		.ascii	"CY_IPC_SEMA_OUT_OF_RANGE\000"
 3978      50435F53 
 3978      454D415F 
 3978      4F55545F 
 3978      4F465F52 
 3979              	.LASF63:
 3980 06e9 70726F74 		.ascii	"protBusMasterMask\000"
 3980      4275734D 
 3980      61737465 
 3980      724D6173 
 3980      6B00
 3981              	.LASF37:
 3982 06fb 63727970 		.ascii	"cryptoBase\000"
 3982      746F4261 
 3982      736500
 3983              	.LASF135:
 3984 0706 62617365 		.ascii	"base\000"
 3984      00
 3985              	.LASF45:
 3986 070b 70657269 		.ascii	"periVersion\000"
 3986      56657273 
 3986      696F6E00 
 3987              	.LASF132:
 3988 0717 6D617853 		.ascii	"maxSema\000"
 3988      656D6100 
 3989              	.LASF20:
 3990 071f 73697A65 		.ascii	"sizetype\000"
 3990      74797065 
 3990      00
 3991              	.LASF75:
ARM GAS  C:\Users\cmila\AppData\Local\Temp\ccIE2zG5.s 			page 102


 3992 0728 64774368 		.ascii	"dwChOffset\000"
 3992      4F666673 
 3992      657400
 3993              	.LASF50:
 3994 0733 63707573 		.ascii	"cpussFlashPaSize\000"
 3994      73466C61 
 3994      73685061 
 3994      53697A65 
 3994      00
 3995              	.LASF88:
 3996 0744 70657269 		.ascii	"periDivCmdPaTypeSelPos\000"
 3996      44697643 
 3996      6D645061 
 3996      54797065 
 3996      53656C50 
 3997              	.LASF111:
 3998 075b 63707573 		.ascii	"cpussRam2Ctl0\000"
 3998      7352616D 
 3998      3243746C 
 3998      3000
 3999              	.LASF79:
 4000 0769 64775374 		.ascii	"dwStatusChIdxPos\000"
 4000      61747573 
 4000      43684964 
 4000      78506F73 
 4000      00
 4001              	.LASF130:
 4002 077a 43595F49 		.ascii	"CY_IPC_SEMA_STATUS_UNLOCKED\000"
 4002      50435F53 
 4002      454D415F 
 4002      53544154 
 4002      55535F55 
 4003              	.LASF61:
 4004 0796 75646250 		.ascii	"udbPresent\000"
 4004      72657365 
 4004      6E7400
 4005              	.LASF158:
 4006 07a1 43795F49 		.ascii	"Cy_IPC_Sema_Clear\000"
 4006      50435F53 
 4006      656D615F 
 4006      436C6561 
 4006      7200
 4007              	.LASF139:
 4008 07b3 69706353 		.ascii	"ipcSema\000"
 4008      656D6100 
 4009              	.LASF58:
 4010 07bb 736D6966 		.ascii	"smifDeviceNr\000"
 4010      44657669 
 4010      63654E72 
 4010      00
 4011              	.LASF117:
 4012 07c8 666C6F61 		.ascii	"float\000"
 4012      7400
 4013              	.LASF80:
 4014 07ce 64775374 		.ascii	"dwStatusChIdxMsk\000"
 4014      61747573 
 4014      43684964 
ARM GAS  C:\Users\cmila\AppData\Local\Temp\ccIE2zG5.s 			page 103


 4014      784D736B 
 4014      00
 4015              	.LASF83:
 4016 07df 70657269 		.ascii	"periTrGrOffset\000"
 4016      54724772 
 4016      4F666673 
 4016      657400
 4017              	.LASF162:
 4018 07ee 63795F64 		.ascii	"cy_device\000"
 4018      65766963 
 4018      6500
 4019              	.LASF108:
 4020 07f8 63707573 		.ascii	"cpussRomCtl\000"
 4020      73526F6D 
 4020      43746C00 
 4021              	.LASF78:
 4022 0804 64774368 		.ascii	"dwChCtlPreemptablePos\000"
 4022      43746C50 
 4022      7265656D 
 4022      70746162 
 4022      6C65506F 
 4023              	.LASF41:
 4024 081a 666C6173 		.ascii	"flashcVersion\000"
 4024      68635665 
 4024      7273696F 
 4024      6E00
 4025              	.LASF140:
 4026 0828 43795F49 		.ascii	"Cy_IPC_Drv_SendMsgPtr\000"
 4026      50435F44 
 4026      72765F53 
 4026      656E644D 
 4026      73675074 
 4027              	.LASF125:
 4028 083e 43595F49 		.ascii	"CY_IPC_SEMA_BAD_PARAM\000"
 4028      50435F53 
 4028      454D415F 
 4028      4241445F 
 4028      50415241 
 4029              	.LASF31:
 4030 0854 75646242 		.ascii	"udbBase\000"
 4030      61736500 
 4031              	.LASF157:
 4032 085c 5F426F6F 		.ascii	"_Bool\000"
 4032      6C00
 4033              	.LASF17:
 4034 0862 696E7433 		.ascii	"int32_t\000"
 4034      325F7400 
 4035              	.LASF1:
 4036 086a 756E7369 		.ascii	"unsigned char\000"
 4036      676E6564 
 4036      20636861 
 4036      7200
 4037              	.LASF74:
 4038 0878 666C6173 		.ascii	"flashCtlMainWs4Freq\000"
 4038      6843746C 
 4038      4D61696E 
 4038      57733446 
ARM GAS  C:\Users\cmila\AppData\Local\Temp\ccIE2zG5.s 			page 104


 4038      72657100 
 4039              	.LASF101:
 4040 088c 63707573 		.ascii	"cpussCm0StatusOffset\000"
 4040      73436D30 
 4040      53746174 
 4040      75734F66 
 4040      66736574 
 4041              	.LASF113:
 4042 08a1 6970634C 		.ascii	"ipcLockStatusOffset\000"
 4042      6F636B53 
 4042      74617475 
 4042      734F6666 
 4042      73657400 
 4043              	.LASF4:
 4044 08b5 73686F72 		.ascii	"short int\000"
 4044      7420696E 
 4044      7400
 4045              	.LASF27:
 4046 08bf 4950435F 		.ascii	"IPC_STRUCT_V1_Type\000"
 4046      53545255 
 4046      43545F56 
 4046      315F5479 
 4046      706500
 4047              	.LASF26:
 4048 08d2 52455345 		.ascii	"RESERVED\000"
 4048      52564544 
 4048      00
 4049              	.LASF85:
 4050 08db 70657269 		.ascii	"periDivCmdDivSelMsk\000"
 4050      44697643 
 4050      6D644469 
 4050      7653656C 
 4050      4D736B00 
 4051              	.LASF56:
 4052 08ef 73727373 		.ascii	"srssNumHfroot\000"
 4052      4E756D48 
 4052      66726F6F 
 4052      7400
 4053              	.LASF69:
 4054 08fd 666C6173 		.ascii	"flashEraseDelay\000"
 4054      68457261 
 4054      73654465 
 4054      6C617900 
 4055              	.LASF18:
 4056 090d 75696E74 		.ascii	"uint32_t\000"
 4056      33325F74 
 4056      00
 4057              	.LASF159:
 4058 0916 43795F49 		.ascii	"Cy_IPC_Sema_Status\000"
 4058      50435F53 
 4058      656D615F 
 4058      53746174 
 4058      757300
 4059              	.LASF23:
 4060 0929 4E4F5449 		.ascii	"NOTIFY\000"
 4060      465900
 4061              	.LASF19:
ARM GAS  C:\Users\cmila\AppData\Local\Temp\ccIE2zG5.s 			page 105


 4062 0930 6C6F6E67 		.ascii	"long double\000"
 4062      20646F75 
 4062      626C6500 
 4063              	.LASF116:
 4064 093c 63686172 		.ascii	"char\000"
 4064      00
 4065              	.LASF46:
 4066 0941 70726F74 		.ascii	"protVersion\000"
 4066      56657273 
 4066      696F6E00 
 4067              	.LASF109:
 4068 094d 63707573 		.ascii	"cpussRam0Ctl0\000"
 4068      7352616D 
 4068      3043746C 
 4068      3000
 4069              	.LASF164:
 4070 095b 43795F49 		.ascii	"Cy_IPC_Drv_SendMsgWord\000"
 4070      50435F44 
 4070      72765F53 
 4070      656E644D 
 4070      7367576F 
 4071              	.LASF153:
 4072 0972 73656D61 		.ascii	"semaIndex\000"
 4072      496E6465 
 4072      7800
 4073              	.LASF5:
 4074 097c 5F5F7569 		.ascii	"__uint16_t\000"
 4074      6E743136 
 4074      5F7400
 4075              	.LASF90:
 4076 0987 70657269 		.ascii	"periDiv16CtlOffset\000"
 4076      44697631 
 4076      3643746C 
 4076      4F666673 
 4076      657400
 4077              	.LASF7:
 4078 099a 5F5F696E 		.ascii	"__int32_t\000"
 4078      7433325F 
 4078      7400
 4079              	.LASF43:
 4080 09a4 6873696F 		.ascii	"hsiomVersion\000"
 4080      6D566572 
 4080      73696F6E 
 4080      00
 4081              	.LASF141:
 4082 09b1 43795F49 		.ascii	"Cy_IPC_Drv_ReadDataValue\000"
 4082      50435F44 
 4082      72765F52 
 4082      65616444 
 4082      61746156 
 4083              	.LASF71:
 4084 09ca 666C6173 		.ascii	"flashCtlMainWs1Freq\000"
 4084      6843746C 
 4084      4D61696E 
 4084      57733146 
 4084      72657100 
 4085              	.LASF131:
ARM GAS  C:\Users\cmila\AppData\Local\Temp\ccIE2zG5.s 			page 106


 4086 09de 63795F65 		.ascii	"cy_en_ipcsema_status_t\000"
 4086      6E5F6970 
 4086      6373656D 
 4086      615F7374 
 4086      61747573 
 4087              	.LASF76:
 4088 09f5 64774368 		.ascii	"dwChSize\000"
 4088      53697A65 
 4088      00
 4089              	.LASF146:
 4090 09fe 63795F73 		.ascii	"cy_semaData\000"
 4090      656D6144 
 4090      61746100 
 4091              	.LASF112:
 4092 0a0a 69706353 		.ascii	"ipcStructSize\000"
 4092      74727563 
 4092      7453697A 
 4092      6500
 4093              	.LASF51:
 4094 0a18 63707573 		.ascii	"cpussIpc0Irq\000"
 4094      73497063 
 4094      30497271 
 4094      00
 4095              	.LASF94:
 4096 0a25 6770696F 		.ascii	"gpioPrtCfgOffset\000"
 4096      50727443 
 4096      66674F66 
 4096      66736574 
 4096      00
 4097              	.LASF32:
 4098 0a36 70726F74 		.ascii	"protBase\000"
 4098      42617365 
 4098      00
 4099              	.LASF172:
 4100 0a3f 6D656D73 		.ascii	"memset\000"
 4100      657400
 4101              	.LASF53:
 4102 0a46 63707573 		.ascii	"cpussNotConnectedIrq\000"
 4102      734E6F74 
 4102      436F6E6E 
 4102      65637465 
 4102      64497271 
 4103              	.LASF67:
 4104 0a5b 666C6173 		.ascii	"flashWriteDelay\000"
 4104      68577269 
 4104      74654465 
 4104      6C617900 
 4105              	.LASF14:
 4106 0a6b 75696E74 		.ascii	"uint8_t\000"
 4106      385F7400 
 4107              	.LASF100:
 4108 0a73 63707573 		.ascii	"cpussCm4StatusOffset\000"
 4108      73436D34 
 4108      53746174 
 4108      75734F66 
 4108      66736574 
 4109              	.LASF93:
ARM GAS  C:\Users\cmila\AppData\Local\Temp\ccIE2zG5.s 			page 107


 4110 0a88 6770696F 		.ascii	"gpioPrtIntrCfgOffset\000"
 4110      50727449 
 4110      6E747243 
 4110      66674F66 
 4110      66736574 
 4111              	.LASF142:
 4112 0a9d 43795F49 		.ascii	"Cy_IPC_Drv_GetIpcBaseAddress\000"
 4112      50435F44 
 4112      72765F47 
 4112      65744970 
 4112      63426173 
 4113              	.LASF134:
 4114 0aba 63795F73 		.ascii	"cy_stc_ipc_sema_t\000"
 4114      74635F69 
 4114      70635F73 
 4114      656D615F 
 4114      7400
 4115              	.LASF104:
 4116 0acc 63707573 		.ascii	"cpussTrimRomCtlOffset\000"
 4116      73547269 
 4116      6D526F6D 
 4116      43746C4F 
 4116      66667365 
 4117              	.LASF161:
 4118 0ae2 63795F73 		.ascii	"cy_semaIpcStruct\000"
 4118      656D6149 
 4118      70635374 
 4118      72756374 
 4118      00
 4119              	.LASF115:
 4120 0af3 4950435F 		.ascii	"IPC_STRUCT_Type\000"
 4120      53545255 
 4120      43545F54 
 4120      79706500 
 4121              	.LASF54:
 4122 0b03 73727373 		.ascii	"srssNumClkpath\000"
 4122      4E756D43 
 4122      6C6B7061 
 4122      746800
 4123              	.LASF40:
 4124 0b12 64775665 		.ascii	"dwVersion\000"
 4124      7273696F 
 4124      6E00
 4125              	.LASF36:
 4126 0b1c 69706342 		.ascii	"ipcBase\000"
 4126      61736500 
 4127              	.LASF87:
 4128 0b24 70657269 		.ascii	"periDivCmdPaDivSelPos\000"
 4128      44697643 
 4128      6D645061 
 4128      44697653 
 4128      656C506F 
 4129              	.LASF68:
 4130 0b3a 666C6173 		.ascii	"flashProgramDelay\000"
 4130      6850726F 
 4130      6772616D 
 4130      44656C61 
ARM GAS  C:\Users\cmila\AppData\Local\Temp\ccIE2zG5.s 			page 108


 4130      7900
 4131              	.LASF147:
 4132 0b4c 72657453 		.ascii	"retStatus\000"
 4132      74617475 
 4132      7300
 4133              	.LASF152:
 4134 0b56 70726565 		.ascii	"preemptable\000"
 4134      6D707461 
 4134      626C6500 
 4135              	.LASF150:
 4136 0b62 43795F49 		.ascii	"Cy_IPC_Sema_Set\000"
 4136      50435F53 
 4136      656D615F 
 4136      53657400 
 4137              		.ident	"GCC: (GNU Tools for ARM Embedded Processors) 5.4.1 20160609 (release) [ARM/embedded-5-bran
