ARM GAS  C:\Users\cmila\AppData\Local\Temp\ccgsVvSe.s 			page 1


   1              		.syntax unified
   2              		.cpu cortex-m4
   3              		.eabi_attribute 27, 1
   4              		.fpu fpv4-sp-d16
   5              		.eabi_attribute 20, 1
   6              		.eabi_attribute 21, 1
   7              		.eabi_attribute 23, 3
   8              		.eabi_attribute 24, 1
   9              		.eabi_attribute 25, 1
  10              		.eabi_attribute 26, 1
  11              		.eabi_attribute 30, 4
  12              		.eabi_attribute 34, 1
  13              		.eabi_attribute 18, 4
  14              		.thumb
  15              		.syntax unified
  16              		.file	"cy_systick.c"
  17              		.text
  18              	.Ltext0:
  19              		.cfi_sections	.debug_frame
  20              		.section	.text.Cy_SysTick_ServiceCallbacks,"ax",%progbits
  21              		.align	1
  22              		.thumb
  23              		.thumb_func
  24              		.type	Cy_SysTick_ServiceCallbacks, %function
  25              	Cy_SysTick_ServiceCallbacks:
  26              	.LFB146:
  27              		.file 1 "Generated_Source\\PSoC6\\pdl\\drivers\\peripheral\\systick\\cy_systick.c"
   1:Generated_Source\PSoC6\pdl\drivers\peripheral\systick/cy_systick.c **** /***************************************************************************//**
   2:Generated_Source\PSoC6\pdl\drivers\peripheral\systick/cy_systick.c **** * \file cy_systick.c
   3:Generated_Source\PSoC6\pdl\drivers\peripheral\systick/cy_systick.c **** * \version 1.10
   4:Generated_Source\PSoC6\pdl\drivers\peripheral\systick/cy_systick.c **** *
   5:Generated_Source\PSoC6\pdl\drivers\peripheral\systick/cy_systick.c **** * Provides the API definitions of the SisTick driver.
   6:Generated_Source\PSoC6\pdl\drivers\peripheral\systick/cy_systick.c **** *
   7:Generated_Source\PSoC6\pdl\drivers\peripheral\systick/cy_systick.c **** ********************************************************************************
   8:Generated_Source\PSoC6\pdl\drivers\peripheral\systick/cy_systick.c **** * \copyright
   9:Generated_Source\PSoC6\pdl\drivers\peripheral\systick/cy_systick.c **** * Copyright 2016-2018, Cypress Semiconductor Corporation.  All rights reserved.
  10:Generated_Source\PSoC6\pdl\drivers\peripheral\systick/cy_systick.c **** * You may use this file only in accordance with the license, terms, conditions,
  11:Generated_Source\PSoC6\pdl\drivers\peripheral\systick/cy_systick.c **** * disclaimers, and limitations in the end user license agreement accompanying
  12:Generated_Source\PSoC6\pdl\drivers\peripheral\systick/cy_systick.c **** * the software package with which this file was provided.
  13:Generated_Source\PSoC6\pdl\drivers\peripheral\systick/cy_systick.c **** *******************************************************************************/
  14:Generated_Source\PSoC6\pdl\drivers\peripheral\systick/cy_systick.c **** 
  15:Generated_Source\PSoC6\pdl\drivers\peripheral\systick/cy_systick.c **** #include "cy_systick.h"
  16:Generated_Source\PSoC6\pdl\drivers\peripheral\systick/cy_systick.c **** #include <stddef.h>     /* for NULL */
  17:Generated_Source\PSoC6\pdl\drivers\peripheral\systick/cy_systick.c **** 
  18:Generated_Source\PSoC6\pdl\drivers\peripheral\systick/cy_systick.c **** 
  19:Generated_Source\PSoC6\pdl\drivers\peripheral\systick/cy_systick.c **** static Cy_SysTick_Callback Cy_SysTick_Callbacks[CY_SYS_SYST_NUM_OF_CALLBACKS];
  20:Generated_Source\PSoC6\pdl\drivers\peripheral\systick/cy_systick.c **** static void Cy_SysTick_ServiceCallbacks(void);
  21:Generated_Source\PSoC6\pdl\drivers\peripheral\systick/cy_systick.c **** 
  22:Generated_Source\PSoC6\pdl\drivers\peripheral\systick/cy_systick.c **** 
  23:Generated_Source\PSoC6\pdl\drivers\peripheral\systick/cy_systick.c **** /*******************************************************************************
  24:Generated_Source\PSoC6\pdl\drivers\peripheral\systick/cy_systick.c **** * Function Name: Cy_SysTick_Init
  25:Generated_Source\PSoC6\pdl\drivers\peripheral\systick/cy_systick.c **** ****************************************************************************//**
  26:Generated_Source\PSoC6\pdl\drivers\peripheral\systick/cy_systick.c **** *
  27:Generated_Source\PSoC6\pdl\drivers\peripheral\systick/cy_systick.c **** * Initializes the SysTick driver:
  28:Generated_Source\PSoC6\pdl\drivers\peripheral\systick/cy_systick.c **** * - Initializes the callback addresses with pointers to NULL
  29:Generated_Source\PSoC6\pdl\drivers\peripheral\systick/cy_systick.c **** * - Associates the SysTick system vector with the callback functions
  30:Generated_Source\PSoC6\pdl\drivers\peripheral\systick/cy_systick.c **** * - Sets the SysTick clock by calling \ref Cy_SysTick_SetClockSource()
ARM GAS  C:\Users\cmila\AppData\Local\Temp\ccgsVvSe.s 			page 2


  31:Generated_Source\PSoC6\pdl\drivers\peripheral\systick/cy_systick.c **** * - Sets the SysTick reload interval by calling \ref Cy_SysTick_SetReload()
  32:Generated_Source\PSoC6\pdl\drivers\peripheral\systick/cy_systick.c **** * - Clears the SysTick counter value by calling \ref Cy_SysTick_Clear()
  33:Generated_Source\PSoC6\pdl\drivers\peripheral\systick/cy_systick.c **** * - Enables the SysTick by calling \ref Cy_SysTick_Enable(). Note the \ref
  34:Generated_Source\PSoC6\pdl\drivers\peripheral\systick/cy_systick.c **** *   Cy_SysTick_Enable() function also enables the SysTick interrupt by calling
  35:Generated_Source\PSoC6\pdl\drivers\peripheral\systick/cy_systick.c **** *   \ref Cy_SysTick_EnableInterrupt().
  36:Generated_Source\PSoC6\pdl\drivers\peripheral\systick/cy_systick.c **** *
  37:Generated_Source\PSoC6\pdl\drivers\peripheral\systick/cy_systick.c **** * \param clockSource The SysTick clock source \ref cy_en_systick_clock_source_t
  38:Generated_Source\PSoC6\pdl\drivers\peripheral\systick/cy_systick.c **** * \param interval The SysTick reload value.
  39:Generated_Source\PSoC6\pdl\drivers\peripheral\systick/cy_systick.c **** *
  40:Generated_Source\PSoC6\pdl\drivers\peripheral\systick/cy_systick.c **** * \sideeffect Clears the SysTick count flag if it was set.
  41:Generated_Source\PSoC6\pdl\drivers\peripheral\systick/cy_systick.c **** *
  42:Generated_Source\PSoC6\pdl\drivers\peripheral\systick/cy_systick.c **** *******************************************************************************/
  43:Generated_Source\PSoC6\pdl\drivers\peripheral\systick/cy_systick.c **** void Cy_SysTick_Init(cy_en_systick_clock_source_t clockSource, uint32_t interval)
  44:Generated_Source\PSoC6\pdl\drivers\peripheral\systick/cy_systick.c **** {
  45:Generated_Source\PSoC6\pdl\drivers\peripheral\systick/cy_systick.c ****     uint32_t i;
  46:Generated_Source\PSoC6\pdl\drivers\peripheral\systick/cy_systick.c **** 
  47:Generated_Source\PSoC6\pdl\drivers\peripheral\systick/cy_systick.c ****     for (i = 0u; i<CY_SYS_SYST_NUM_OF_CALLBACKS; i++)
  48:Generated_Source\PSoC6\pdl\drivers\peripheral\systick/cy_systick.c ****     {
  49:Generated_Source\PSoC6\pdl\drivers\peripheral\systick/cy_systick.c ****         Cy_SysTick_Callbacks[i] = NULL;
  50:Generated_Source\PSoC6\pdl\drivers\peripheral\systick/cy_systick.c ****     }
  51:Generated_Source\PSoC6\pdl\drivers\peripheral\systick/cy_systick.c **** 
  52:Generated_Source\PSoC6\pdl\drivers\peripheral\systick/cy_systick.c ****     __ramVectors[CY_SYSTICK_IRQ_NUM] = &Cy_SysTick_ServiceCallbacks;
  53:Generated_Source\PSoC6\pdl\drivers\peripheral\systick/cy_systick.c ****     Cy_SysTick_SetClockSource(clockSource);
  54:Generated_Source\PSoC6\pdl\drivers\peripheral\systick/cy_systick.c **** 
  55:Generated_Source\PSoC6\pdl\drivers\peripheral\systick/cy_systick.c ****     Cy_SysTick_SetReload(interval);
  56:Generated_Source\PSoC6\pdl\drivers\peripheral\systick/cy_systick.c ****     Cy_SysTick_Clear();
  57:Generated_Source\PSoC6\pdl\drivers\peripheral\systick/cy_systick.c ****     Cy_SysTick_Enable();
  58:Generated_Source\PSoC6\pdl\drivers\peripheral\systick/cy_systick.c **** }
  59:Generated_Source\PSoC6\pdl\drivers\peripheral\systick/cy_systick.c **** 
  60:Generated_Source\PSoC6\pdl\drivers\peripheral\systick/cy_systick.c **** 
  61:Generated_Source\PSoC6\pdl\drivers\peripheral\systick/cy_systick.c **** /*******************************************************************************
  62:Generated_Source\PSoC6\pdl\drivers\peripheral\systick/cy_systick.c **** * Function Name: Cy_SysTick_Enable
  63:Generated_Source\PSoC6\pdl\drivers\peripheral\systick/cy_systick.c **** ****************************************************************************//**
  64:Generated_Source\PSoC6\pdl\drivers\peripheral\systick/cy_systick.c **** *
  65:Generated_Source\PSoC6\pdl\drivers\peripheral\systick/cy_systick.c **** * Enables the SysTick timer and its interrupt.
  66:Generated_Source\PSoC6\pdl\drivers\peripheral\systick/cy_systick.c **** *
  67:Generated_Source\PSoC6\pdl\drivers\peripheral\systick/cy_systick.c **** * \sideeffect Clears the SysTick count flag if it was set
  68:Generated_Source\PSoC6\pdl\drivers\peripheral\systick/cy_systick.c **** *
  69:Generated_Source\PSoC6\pdl\drivers\peripheral\systick/cy_systick.c **** *******************************************************************************/
  70:Generated_Source\PSoC6\pdl\drivers\peripheral\systick/cy_systick.c **** void Cy_SysTick_Enable(void)
  71:Generated_Source\PSoC6\pdl\drivers\peripheral\systick/cy_systick.c **** {
  72:Generated_Source\PSoC6\pdl\drivers\peripheral\systick/cy_systick.c ****     Cy_SysTick_EnableInterrupt();
  73:Generated_Source\PSoC6\pdl\drivers\peripheral\systick/cy_systick.c ****     SYSTICK_CTRL |= SysTick_CTRL_ENABLE_Msk;
  74:Generated_Source\PSoC6\pdl\drivers\peripheral\systick/cy_systick.c **** }
  75:Generated_Source\PSoC6\pdl\drivers\peripheral\systick/cy_systick.c **** 
  76:Generated_Source\PSoC6\pdl\drivers\peripheral\systick/cy_systick.c **** 
  77:Generated_Source\PSoC6\pdl\drivers\peripheral\systick/cy_systick.c **** /*******************************************************************************
  78:Generated_Source\PSoC6\pdl\drivers\peripheral\systick/cy_systick.c **** * Function Name: Cy_SysTick_Disable
  79:Generated_Source\PSoC6\pdl\drivers\peripheral\systick/cy_systick.c **** ****************************************************************************//**
  80:Generated_Source\PSoC6\pdl\drivers\peripheral\systick/cy_systick.c **** *
  81:Generated_Source\PSoC6\pdl\drivers\peripheral\systick/cy_systick.c **** * Disables the SysTick timer and its interrupt.
  82:Generated_Source\PSoC6\pdl\drivers\peripheral\systick/cy_systick.c **** *
  83:Generated_Source\PSoC6\pdl\drivers\peripheral\systick/cy_systick.c **** * \sideeffect Clears the SysTick count flag if it was set
  84:Generated_Source\PSoC6\pdl\drivers\peripheral\systick/cy_systick.c **** *
  85:Generated_Source\PSoC6\pdl\drivers\peripheral\systick/cy_systick.c **** *******************************************************************************/
  86:Generated_Source\PSoC6\pdl\drivers\peripheral\systick/cy_systick.c **** void Cy_SysTick_Disable(void)
  87:Generated_Source\PSoC6\pdl\drivers\peripheral\systick/cy_systick.c **** {
ARM GAS  C:\Users\cmila\AppData\Local\Temp\ccgsVvSe.s 			page 3


  88:Generated_Source\PSoC6\pdl\drivers\peripheral\systick/cy_systick.c ****     Cy_SysTick_DisableInterrupt();
  89:Generated_Source\PSoC6\pdl\drivers\peripheral\systick/cy_systick.c ****     SYSTICK_CTRL &= ~SysTick_CTRL_ENABLE_Msk;
  90:Generated_Source\PSoC6\pdl\drivers\peripheral\systick/cy_systick.c **** }
  91:Generated_Source\PSoC6\pdl\drivers\peripheral\systick/cy_systick.c **** 
  92:Generated_Source\PSoC6\pdl\drivers\peripheral\systick/cy_systick.c **** 
  93:Generated_Source\PSoC6\pdl\drivers\peripheral\systick/cy_systick.c **** /*******************************************************************************
  94:Generated_Source\PSoC6\pdl\drivers\peripheral\systick/cy_systick.c **** * Function Name: Cy_SysTick_SetClockSource
  95:Generated_Source\PSoC6\pdl\drivers\peripheral\systick/cy_systick.c **** ****************************************************************************//**
  96:Generated_Source\PSoC6\pdl\drivers\peripheral\systick/cy_systick.c **** *
  97:Generated_Source\PSoC6\pdl\drivers\peripheral\systick/cy_systick.c **** * Sets the clock source for the SysTick counter.
  98:Generated_Source\PSoC6\pdl\drivers\peripheral\systick/cy_systick.c **** *
  99:Generated_Source\PSoC6\pdl\drivers\peripheral\systick/cy_systick.c **** * Clears the SysTick count flag if it was set. If the clock source is not ready
 100:Generated_Source\PSoC6\pdl\drivers\peripheral\systick/cy_systick.c **** * this function call will have no effect. After changing the clock source to the
 101:Generated_Source\PSoC6\pdl\drivers\peripheral\systick/cy_systick.c **** * low frequency clock, the counter and reload register values will remain
 102:Generated_Source\PSoC6\pdl\drivers\peripheral\systick/cy_systick.c **** * unchanged so the time to the interrupt will be significantly longer and vice
 103:Generated_Source\PSoC6\pdl\drivers\peripheral\systick/cy_systick.c **** * versa.
 104:Generated_Source\PSoC6\pdl\drivers\peripheral\systick/cy_systick.c **** *
 105:Generated_Source\PSoC6\pdl\drivers\peripheral\systick/cy_systick.c **** * Changing the SysTick clock source and/or its frequency will change
 106:Generated_Source\PSoC6\pdl\drivers\peripheral\systick/cy_systick.c **** * the interrupt interval and Cy_SysTick_SetReload() should be
 107:Generated_Source\PSoC6\pdl\drivers\peripheral\systick/cy_systick.c **** * called to compensate this change.
 108:Generated_Source\PSoC6\pdl\drivers\peripheral\systick/cy_systick.c **** *
 109:Generated_Source\PSoC6\pdl\drivers\peripheral\systick/cy_systick.c **** * \param clockSource \ref cy_en_systick_clock_source_t Clock source.
 110:Generated_Source\PSoC6\pdl\drivers\peripheral\systick/cy_systick.c **** *
 111:Generated_Source\PSoC6\pdl\drivers\peripheral\systick/cy_systick.c **** *******************************************************************************/
 112:Generated_Source\PSoC6\pdl\drivers\peripheral\systick/cy_systick.c **** void Cy_SysTick_SetClockSource(cy_en_systick_clock_source_t clockSource)
 113:Generated_Source\PSoC6\pdl\drivers\peripheral\systick/cy_systick.c **** {
 114:Generated_Source\PSoC6\pdl\drivers\peripheral\systick/cy_systick.c ****     if (clockSource == CY_SYSTICK_CLOCK_SOURCE_CLK_CPU)
 115:Generated_Source\PSoC6\pdl\drivers\peripheral\systick/cy_systick.c ****     {
 116:Generated_Source\PSoC6\pdl\drivers\peripheral\systick/cy_systick.c ****         SYSTICK_CTRL |= SysTick_CTRL_CLKSOURCE_Msk;
 117:Generated_Source\PSoC6\pdl\drivers\peripheral\systick/cy_systick.c ****     }
 118:Generated_Source\PSoC6\pdl\drivers\peripheral\systick/cy_systick.c ****     else
 119:Generated_Source\PSoC6\pdl\drivers\peripheral\systick/cy_systick.c ****     {
 120:Generated_Source\PSoC6\pdl\drivers\peripheral\systick/cy_systick.c ****         CPUSS_SYSTICK_CTL = _VAL2FLD(CPUSS_SYSTICK_CTL_CLOCK_SOURCE, (uint32_t) clockSource);
 121:Generated_Source\PSoC6\pdl\drivers\peripheral\systick/cy_systick.c ****         SYSTICK_CTRL &= ~SysTick_CTRL_CLKSOURCE_Msk;
 122:Generated_Source\PSoC6\pdl\drivers\peripheral\systick/cy_systick.c ****     }
 123:Generated_Source\PSoC6\pdl\drivers\peripheral\systick/cy_systick.c **** }
 124:Generated_Source\PSoC6\pdl\drivers\peripheral\systick/cy_systick.c **** 
 125:Generated_Source\PSoC6\pdl\drivers\peripheral\systick/cy_systick.c **** 
 126:Generated_Source\PSoC6\pdl\drivers\peripheral\systick/cy_systick.c **** /*******************************************************************************
 127:Generated_Source\PSoC6\pdl\drivers\peripheral\systick/cy_systick.c **** * Function Name: Cy_SysTick_GetClockSource
 128:Generated_Source\PSoC6\pdl\drivers\peripheral\systick/cy_systick.c **** ****************************************************************************//**
 129:Generated_Source\PSoC6\pdl\drivers\peripheral\systick/cy_systick.c **** *
 130:Generated_Source\PSoC6\pdl\drivers\peripheral\systick/cy_systick.c **** * Gets the clock source for the SysTick counter.
 131:Generated_Source\PSoC6\pdl\drivers\peripheral\systick/cy_systick.c **** *
 132:Generated_Source\PSoC6\pdl\drivers\peripheral\systick/cy_systick.c **** * \returns \ref cy_en_systick_clock_source_t Clock source
 133:Generated_Source\PSoC6\pdl\drivers\peripheral\systick/cy_systick.c **** *
 134:Generated_Source\PSoC6\pdl\drivers\peripheral\systick/cy_systick.c **** *******************************************************************************/
 135:Generated_Source\PSoC6\pdl\drivers\peripheral\systick/cy_systick.c **** cy_en_systick_clock_source_t Cy_SysTick_GetClockSource(void)
 136:Generated_Source\PSoC6\pdl\drivers\peripheral\systick/cy_systick.c **** {
 137:Generated_Source\PSoC6\pdl\drivers\peripheral\systick/cy_systick.c ****     cy_en_systick_clock_source_t returnValue;
 138:Generated_Source\PSoC6\pdl\drivers\peripheral\systick/cy_systick.c **** 
 139:Generated_Source\PSoC6\pdl\drivers\peripheral\systick/cy_systick.c ****     if ((SYSTICK_CTRL & SysTick_CTRL_CLKSOURCE_Msk) != 0u)
 140:Generated_Source\PSoC6\pdl\drivers\peripheral\systick/cy_systick.c ****     {
 141:Generated_Source\PSoC6\pdl\drivers\peripheral\systick/cy_systick.c ****         returnValue = CY_SYSTICK_CLOCK_SOURCE_CLK_CPU;
 142:Generated_Source\PSoC6\pdl\drivers\peripheral\systick/cy_systick.c ****     }
 143:Generated_Source\PSoC6\pdl\drivers\peripheral\systick/cy_systick.c ****     else
 144:Generated_Source\PSoC6\pdl\drivers\peripheral\systick/cy_systick.c ****     {
ARM GAS  C:\Users\cmila\AppData\Local\Temp\ccgsVvSe.s 			page 4


 145:Generated_Source\PSoC6\pdl\drivers\peripheral\systick/cy_systick.c ****         returnValue =  (cy_en_systick_clock_source_t) ((uint32_t) _FLD2VAL(CPUSS_SYSTICK_CTL_CLOCK_
 146:Generated_Source\PSoC6\pdl\drivers\peripheral\systick/cy_systick.c ****     }
 147:Generated_Source\PSoC6\pdl\drivers\peripheral\systick/cy_systick.c **** 
 148:Generated_Source\PSoC6\pdl\drivers\peripheral\systick/cy_systick.c ****     return(returnValue);
 149:Generated_Source\PSoC6\pdl\drivers\peripheral\systick/cy_systick.c **** }
 150:Generated_Source\PSoC6\pdl\drivers\peripheral\systick/cy_systick.c **** 
 151:Generated_Source\PSoC6\pdl\drivers\peripheral\systick/cy_systick.c **** 
 152:Generated_Source\PSoC6\pdl\drivers\peripheral\systick/cy_systick.c **** /*******************************************************************************
 153:Generated_Source\PSoC6\pdl\drivers\peripheral\systick/cy_systick.c **** * Function Name: Cy_SysTick_SetCallback
 154:Generated_Source\PSoC6\pdl\drivers\peripheral\systick/cy_systick.c **** ****************************************************************************//**
 155:Generated_Source\PSoC6\pdl\drivers\peripheral\systick/cy_systick.c **** *
 156:Generated_Source\PSoC6\pdl\drivers\peripheral\systick/cy_systick.c **** * Sets the callback function to the specified callback number.
 157:Generated_Source\PSoC6\pdl\drivers\peripheral\systick/cy_systick.c **** *
 158:Generated_Source\PSoC6\pdl\drivers\peripheral\systick/cy_systick.c **** * \param number The number of the callback function addresses to be set.
 159:Generated_Source\PSoC6\pdl\drivers\peripheral\systick/cy_systick.c **** * The valid range is from 0 to \ref CY_SYS_SYST_NUM_OF_CALLBACKS - 1.
 160:Generated_Source\PSoC6\pdl\drivers\peripheral\systick/cy_systick.c **** *
 161:Generated_Source\PSoC6\pdl\drivers\peripheral\systick/cy_systick.c **** * \param function The pointer to the function that will be associated with the
 162:Generated_Source\PSoC6\pdl\drivers\peripheral\systick/cy_systick.c **** * SysTick ISR for the specified number.
 163:Generated_Source\PSoC6\pdl\drivers\peripheral\systick/cy_systick.c **** *
 164:Generated_Source\PSoC6\pdl\drivers\peripheral\systick/cy_systick.c **** * \return Returns the address of the previous callback function.
 165:Generated_Source\PSoC6\pdl\drivers\peripheral\systick/cy_systick.c **** * The NULL is returned if the specified address in not set or incorrect
 166:Generated_Source\PSoC6\pdl\drivers\peripheral\systick/cy_systick.c **** * parameter is specified.
 167:Generated_Source\PSoC6\pdl\drivers\peripheral\systick/cy_systick.c **** 
 168:Generated_Source\PSoC6\pdl\drivers\peripheral\systick/cy_systick.c **** * \sideeffect
 169:Generated_Source\PSoC6\pdl\drivers\peripheral\systick/cy_systick.c **** * The registered callback functions will be executed in the interrupt.
 170:Generated_Source\PSoC6\pdl\drivers\peripheral\systick/cy_systick.c **** *
 171:Generated_Source\PSoC6\pdl\drivers\peripheral\systick/cy_systick.c **** *******************************************************************************/
 172:Generated_Source\PSoC6\pdl\drivers\peripheral\systick/cy_systick.c **** Cy_SysTick_Callback Cy_SysTick_SetCallback(uint32_t number, Cy_SysTick_Callback function)
 173:Generated_Source\PSoC6\pdl\drivers\peripheral\systick/cy_systick.c **** {
 174:Generated_Source\PSoC6\pdl\drivers\peripheral\systick/cy_systick.c ****     Cy_SysTick_Callback retVal;
 175:Generated_Source\PSoC6\pdl\drivers\peripheral\systick/cy_systick.c **** 
 176:Generated_Source\PSoC6\pdl\drivers\peripheral\systick/cy_systick.c ****     if (number < CY_SYS_SYST_NUM_OF_CALLBACKS)
 177:Generated_Source\PSoC6\pdl\drivers\peripheral\systick/cy_systick.c ****     {
 178:Generated_Source\PSoC6\pdl\drivers\peripheral\systick/cy_systick.c ****         retVal = Cy_SysTick_Callbacks[number];
 179:Generated_Source\PSoC6\pdl\drivers\peripheral\systick/cy_systick.c ****         Cy_SysTick_Callbacks[number] = function;
 180:Generated_Source\PSoC6\pdl\drivers\peripheral\systick/cy_systick.c ****     }
 181:Generated_Source\PSoC6\pdl\drivers\peripheral\systick/cy_systick.c ****     else
 182:Generated_Source\PSoC6\pdl\drivers\peripheral\systick/cy_systick.c ****     {
 183:Generated_Source\PSoC6\pdl\drivers\peripheral\systick/cy_systick.c ****         retVal = NULL;
 184:Generated_Source\PSoC6\pdl\drivers\peripheral\systick/cy_systick.c ****     }
 185:Generated_Source\PSoC6\pdl\drivers\peripheral\systick/cy_systick.c **** 
 186:Generated_Source\PSoC6\pdl\drivers\peripheral\systick/cy_systick.c ****     return (retVal);
 187:Generated_Source\PSoC6\pdl\drivers\peripheral\systick/cy_systick.c **** }
 188:Generated_Source\PSoC6\pdl\drivers\peripheral\systick/cy_systick.c **** 
 189:Generated_Source\PSoC6\pdl\drivers\peripheral\systick/cy_systick.c **** 
 190:Generated_Source\PSoC6\pdl\drivers\peripheral\systick/cy_systick.c **** /*******************************************************************************
 191:Generated_Source\PSoC6\pdl\drivers\peripheral\systick/cy_systick.c **** * Function Name: Cy_SysTick_GetCallback
 192:Generated_Source\PSoC6\pdl\drivers\peripheral\systick/cy_systick.c **** ****************************************************************************//**
 193:Generated_Source\PSoC6\pdl\drivers\peripheral\systick/cy_systick.c **** *
 194:Generated_Source\PSoC6\pdl\drivers\peripheral\systick/cy_systick.c **** * Gets the specified callback function address.
 195:Generated_Source\PSoC6\pdl\drivers\peripheral\systick/cy_systick.c **** *
 196:Generated_Source\PSoC6\pdl\drivers\peripheral\systick/cy_systick.c **** * \param number The number of the callback function address to get. The valid
 197:Generated_Source\PSoC6\pdl\drivers\peripheral\systick/cy_systick.c **** * range is from 0 to \ref CY_SYS_SYST_NUM_OF_CALLBACKS - 1.
 198:Generated_Source\PSoC6\pdl\drivers\peripheral\systick/cy_systick.c **** *
 199:Generated_Source\PSoC6\pdl\drivers\peripheral\systick/cy_systick.c **** * \return Returns the address of the specified callback function.
 200:Generated_Source\PSoC6\pdl\drivers\peripheral\systick/cy_systick.c **** * The NULL is returned if the specified address in not initialized or incorrect
 201:Generated_Source\PSoC6\pdl\drivers\peripheral\systick/cy_systick.c **** * parameter is specified.
ARM GAS  C:\Users\cmila\AppData\Local\Temp\ccgsVvSe.s 			page 5


 202:Generated_Source\PSoC6\pdl\drivers\peripheral\systick/cy_systick.c **** *
 203:Generated_Source\PSoC6\pdl\drivers\peripheral\systick/cy_systick.c **** *******************************************************************************/
 204:Generated_Source\PSoC6\pdl\drivers\peripheral\systick/cy_systick.c **** Cy_SysTick_Callback Cy_SysTick_GetCallback(uint32_t number)
 205:Generated_Source\PSoC6\pdl\drivers\peripheral\systick/cy_systick.c **** {
 206:Generated_Source\PSoC6\pdl\drivers\peripheral\systick/cy_systick.c ****     Cy_SysTick_Callback retVal;
 207:Generated_Source\PSoC6\pdl\drivers\peripheral\systick/cy_systick.c **** 
 208:Generated_Source\PSoC6\pdl\drivers\peripheral\systick/cy_systick.c ****     if (number < CY_SYS_SYST_NUM_OF_CALLBACKS)
 209:Generated_Source\PSoC6\pdl\drivers\peripheral\systick/cy_systick.c ****     {
 210:Generated_Source\PSoC6\pdl\drivers\peripheral\systick/cy_systick.c ****         retVal = Cy_SysTick_Callbacks[number];
 211:Generated_Source\PSoC6\pdl\drivers\peripheral\systick/cy_systick.c ****     }
 212:Generated_Source\PSoC6\pdl\drivers\peripheral\systick/cy_systick.c ****     else
 213:Generated_Source\PSoC6\pdl\drivers\peripheral\systick/cy_systick.c ****     {
 214:Generated_Source\PSoC6\pdl\drivers\peripheral\systick/cy_systick.c ****         retVal = NULL;
 215:Generated_Source\PSoC6\pdl\drivers\peripheral\systick/cy_systick.c ****     }
 216:Generated_Source\PSoC6\pdl\drivers\peripheral\systick/cy_systick.c **** 
 217:Generated_Source\PSoC6\pdl\drivers\peripheral\systick/cy_systick.c ****     return (retVal);
 218:Generated_Source\PSoC6\pdl\drivers\peripheral\systick/cy_systick.c **** }
 219:Generated_Source\PSoC6\pdl\drivers\peripheral\systick/cy_systick.c **** 
 220:Generated_Source\PSoC6\pdl\drivers\peripheral\systick/cy_systick.c **** 
 221:Generated_Source\PSoC6\pdl\drivers\peripheral\systick/cy_systick.c **** /*******************************************************************************
 222:Generated_Source\PSoC6\pdl\drivers\peripheral\systick/cy_systick.c **** * Function Name: Cy_SysTick_ServiceCallbacks
 223:Generated_Source\PSoC6\pdl\drivers\peripheral\systick/cy_systick.c **** ****************************************************************************//**
 224:Generated_Source\PSoC6\pdl\drivers\peripheral\systick/cy_systick.c **** *
 225:Generated_Source\PSoC6\pdl\drivers\peripheral\systick/cy_systick.c **** * The system Tick timer interrupt routine.
 226:Generated_Source\PSoC6\pdl\drivers\peripheral\systick/cy_systick.c **** *
 227:Generated_Source\PSoC6\pdl\drivers\peripheral\systick/cy_systick.c **** *******************************************************************************/
 228:Generated_Source\PSoC6\pdl\drivers\peripheral\systick/cy_systick.c **** static void Cy_SysTick_ServiceCallbacks(void)
 229:Generated_Source\PSoC6\pdl\drivers\peripheral\systick/cy_systick.c **** {
  28              		.loc 1 229 0
  29              		.cfi_startproc
  30              		@ args = 0, pretend = 0, frame = 0
  31              		@ frame_needed = 0, uses_anonymous_args = 0
  32 0000 38B5     		push	{r3, r4, r5, lr}
  33              		.cfi_def_cfa_offset 16
  34              		.cfi_offset 3, -16
  35              		.cfi_offset 4, -12
  36              		.cfi_offset 5, -8
  37              		.cfi_offset 14, -4
  38              	.LBB16:
  39              	.LBB17:
  40              		.file 2 "Generated_Source\\PSoC6\\pdl\\drivers\\peripheral\\systick\\cy_systick.h"
   1:Generated_Source\PSoC6\pdl\drivers\peripheral\systick/cy_systick.h **** /***************************************************************************//**
   2:Generated_Source\PSoC6\pdl\drivers\peripheral\systick/cy_systick.h **** * \file cy_systick.h
   3:Generated_Source\PSoC6\pdl\drivers\peripheral\systick/cy_systick.h **** * \version 1.10
   4:Generated_Source\PSoC6\pdl\drivers\peripheral\systick/cy_systick.h **** *
   5:Generated_Source\PSoC6\pdl\drivers\peripheral\systick/cy_systick.h **** * Provides the API declarations of the SysTick driver.
   6:Generated_Source\PSoC6\pdl\drivers\peripheral\systick/cy_systick.h **** *
   7:Generated_Source\PSoC6\pdl\drivers\peripheral\systick/cy_systick.h **** ********************************************************************************
   8:Generated_Source\PSoC6\pdl\drivers\peripheral\systick/cy_systick.h **** * \copyright
   9:Generated_Source\PSoC6\pdl\drivers\peripheral\systick/cy_systick.h **** * Copyright 2016-2018, Cypress Semiconductor Corporation.  All rights reserved.
  10:Generated_Source\PSoC6\pdl\drivers\peripheral\systick/cy_systick.h **** * You may use this file only in accordance with the license, terms, conditions,
  11:Generated_Source\PSoC6\pdl\drivers\peripheral\systick/cy_systick.h **** * disclaimers, and limitations in the end user license agreement accompanying
  12:Generated_Source\PSoC6\pdl\drivers\peripheral\systick/cy_systick.h **** * the software package with which this file was provided.
  13:Generated_Source\PSoC6\pdl\drivers\peripheral\systick/cy_systick.h **** *******************************************************************************/
  14:Generated_Source\PSoC6\pdl\drivers\peripheral\systick/cy_systick.h **** 
  15:Generated_Source\PSoC6\pdl\drivers\peripheral\systick/cy_systick.h **** #ifndef CY_SYSTICK_H
  16:Generated_Source\PSoC6\pdl\drivers\peripheral\systick/cy_systick.h **** #define CY_SYSTICK_H
ARM GAS  C:\Users\cmila\AppData\Local\Temp\ccgsVvSe.s 			page 6


  17:Generated_Source\PSoC6\pdl\drivers\peripheral\systick/cy_systick.h **** 
  18:Generated_Source\PSoC6\pdl\drivers\peripheral\systick/cy_systick.h **** /**
  19:Generated_Source\PSoC6\pdl\drivers\peripheral\systick/cy_systick.h **** * \addtogroup group_arm_system_timer
  20:Generated_Source\PSoC6\pdl\drivers\peripheral\systick/cy_systick.h **** * \{
  21:Generated_Source\PSoC6\pdl\drivers\peripheral\systick/cy_systick.h **** * Provides vendor-specific SysTick API.
  22:Generated_Source\PSoC6\pdl\drivers\peripheral\systick/cy_systick.h **** *
  23:Generated_Source\PSoC6\pdl\drivers\peripheral\systick/cy_systick.h **** * The functions and other declarations used in this driver are in cy_systick.h. 
  24:Generated_Source\PSoC6\pdl\drivers\peripheral\systick/cy_systick.h **** * You can include cy_pdl.h (ModusToolbox only) to get access to all functions and declarations in t
  25:Generated_Source\PSoC6\pdl\drivers\peripheral\systick/cy_systick.h **** *
  26:Generated_Source\PSoC6\pdl\drivers\peripheral\systick/cy_systick.h **** * The SysTick timer is part of the CPU. The timer is a down counter with a 24-bit reload/tick value
  27:Generated_Source\PSoC6\pdl\drivers\peripheral\systick/cy_systick.h **** * the FastClk/SlowClk. The timer has the capability to generate an interrupt when the set number of
  28:Generated_Source\PSoC6\pdl\drivers\peripheral\systick/cy_systick.h **** * the counter is reloaded. This interrupt is available as part of the Nested Vectored Interrupt Con
  29:Generated_Source\PSoC6\pdl\drivers\peripheral\systick/cy_systick.h **** * service by the CPU and can be used for general-purpose timing control in user code.
  30:Generated_Source\PSoC6\pdl\drivers\peripheral\systick/cy_systick.h **** *
  31:Generated_Source\PSoC6\pdl\drivers\peripheral\systick/cy_systick.h **** * The timer is independent of the CPU (except for the clock), which is useful in applications requi
  32:Generated_Source\PSoC6\pdl\drivers\peripheral\systick/cy_systick.h **** * precise timing that do not have a dedicated timer/counter available for the job.
  33:Generated_Source\PSoC6\pdl\drivers\peripheral\systick/cy_systick.h **** *
  34:Generated_Source\PSoC6\pdl\drivers\peripheral\systick/cy_systick.h **** * \section group_systick_configuration Configuration Considerations
  35:Generated_Source\PSoC6\pdl\drivers\peripheral\systick/cy_systick.h **** *
  36:Generated_Source\PSoC6\pdl\drivers\peripheral\systick/cy_systick.h **** * The \ref Cy_SysTick_Init() performs all required driver's initialization and enables the timer. T
  37:Generated_Source\PSoC6\pdl\drivers\peripheral\systick/cy_systick.h **** * two parameters: clock source \ref cy_en_systick_clock_source_t and the timer interval. You must e
  38:Generated_Source\PSoC6\pdl\drivers\peripheral\systick/cy_systick.h **** * the selected clock source for SysTick is enabled.
  39:Generated_Source\PSoC6\pdl\drivers\peripheral\systick/cy_systick.h **** * The callbacks can be registered/unregistered any time after \ref Cy_SysTick_Init() by calling
  40:Generated_Source\PSoC6\pdl\drivers\peripheral\systick/cy_systick.h **** * \ref Cy_SysTick_SetCallback().
  41:Generated_Source\PSoC6\pdl\drivers\peripheral\systick/cy_systick.h **** *
  42:Generated_Source\PSoC6\pdl\drivers\peripheral\systick/cy_systick.h **** * Changing the SysTick clock source and/or its frequency will change the interrupt interval and the
  43:Generated_Source\PSoC6\pdl\drivers\peripheral\systick/cy_systick.h **** * \ref Cy_SysTick_SetReload() should be called to compensate for this change.
  44:Generated_Source\PSoC6\pdl\drivers\peripheral\systick/cy_systick.h **** *
  45:Generated_Source\PSoC6\pdl\drivers\peripheral\systick/cy_systick.h **** * \section group_systick_more_information More Information
  46:Generated_Source\PSoC6\pdl\drivers\peripheral\systick/cy_systick.h **** *
  47:Generated_Source\PSoC6\pdl\drivers\peripheral\systick/cy_systick.h **** * Refer to the SysTick section of the ARM reference guide for complete details on the registers and
  48:Generated_Source\PSoC6\pdl\drivers\peripheral\systick/cy_systick.h **** * See also the "CPU Subsystem (CPUSS)" chapter of the device technical reference manual (TRM).
  49:Generated_Source\PSoC6\pdl\drivers\peripheral\systick/cy_systick.h **** *
  50:Generated_Source\PSoC6\pdl\drivers\peripheral\systick/cy_systick.h **** * \section group_systick_MISRA MISRA-C Compliance
  51:Generated_Source\PSoC6\pdl\drivers\peripheral\systick/cy_systick.h **** *
  52:Generated_Source\PSoC6\pdl\drivers\peripheral\systick/cy_systick.h **** * <table class="doxtable">
  53:Generated_Source\PSoC6\pdl\drivers\peripheral\systick/cy_systick.h **** *   <tr>
  54:Generated_Source\PSoC6\pdl\drivers\peripheral\systick/cy_systick.h **** *       <th>MISRA Rule</th>
  55:Generated_Source\PSoC6\pdl\drivers\peripheral\systick/cy_systick.h **** *       <th>Rule Class (Required/Advisory)</th>
  56:Generated_Source\PSoC6\pdl\drivers\peripheral\systick/cy_systick.h **** *       <th>Rule Description</th>
  57:Generated_Source\PSoC6\pdl\drivers\peripheral\systick/cy_systick.h **** *       <th>Description of Deviation(s)</th>
  58:Generated_Source\PSoC6\pdl\drivers\peripheral\systick/cy_systick.h **** *   </tr>
  59:Generated_Source\PSoC6\pdl\drivers\peripheral\systick/cy_systick.h **** *   <tr>
  60:Generated_Source\PSoC6\pdl\drivers\peripheral\systick/cy_systick.h **** *       <td>8.12</td>
  61:Generated_Source\PSoC6\pdl\drivers\peripheral\systick/cy_systick.h **** *       <td>Required</td>
  62:Generated_Source\PSoC6\pdl\drivers\peripheral\systick/cy_systick.h **** *       <td>When an array is declared with external linkage, its size shall be
  63:Generated_Source\PSoC6\pdl\drivers\peripheral\systick/cy_systick.h **** *           stated explicitly or defined implicitly by initialization.</td>
  64:Generated_Source\PSoC6\pdl\drivers\peripheral\systick/cy_systick.h **** *       <td>The warning is related to the __ramVectors symbol defined in the assembly startup code.
  65:Generated_Source\PSoC6\pdl\drivers\peripheral\systick/cy_systick.h **** *           It's size is device-specific and unknown to the SysTick driver.</td>
  66:Generated_Source\PSoC6\pdl\drivers\peripheral\systick/cy_systick.h **** *   </tr>
  67:Generated_Source\PSoC6\pdl\drivers\peripheral\systick/cy_systick.h **** * </table>
  68:Generated_Source\PSoC6\pdl\drivers\peripheral\systick/cy_systick.h **** *
  69:Generated_Source\PSoC6\pdl\drivers\peripheral\systick/cy_systick.h **** * \section group_systick_changelog Changelog
  70:Generated_Source\PSoC6\pdl\drivers\peripheral\systick/cy_systick.h **** *
  71:Generated_Source\PSoC6\pdl\drivers\peripheral\systick/cy_systick.h **** * <table class="doxtable">
  72:Generated_Source\PSoC6\pdl\drivers\peripheral\systick/cy_systick.h **** * <tr><th>Version</th><th>Changes</th><th>Reason for Change</th></tr>
  73:Generated_Source\PSoC6\pdl\drivers\peripheral\systick/cy_systick.h **** * <tr>
ARM GAS  C:\Users\cmila\AppData\Local\Temp\ccgsVvSe.s 			page 7


  74:Generated_Source\PSoC6\pdl\drivers\peripheral\systick/cy_systick.h **** *   <td rowspan="2">1.10</td>
  75:Generated_Source\PSoC6\pdl\drivers\peripheral\systick/cy_systick.h **** *     <td>Flattened the organization of the driver source code into the single 
  76:Generated_Source\PSoC6\pdl\drivers\peripheral\systick/cy_systick.h **** *         source directory and the single include directory.
  77:Generated_Source\PSoC6\pdl\drivers\peripheral\systick/cy_systick.h **** *     </td>
  78:Generated_Source\PSoC6\pdl\drivers\peripheral\systick/cy_systick.h **** *     <td>Driver library directory-structure simplification.</td>
  79:Generated_Source\PSoC6\pdl\drivers\peripheral\systick/cy_systick.h **** * </tr>
  80:Generated_Source\PSoC6\pdl\drivers\peripheral\systick/cy_systick.h **** *   <tr>
  81:Generated_Source\PSoC6\pdl\drivers\peripheral\systick/cy_systick.h **** *     <td>Added register access layer. Use register access macros instead
  82:Generated_Source\PSoC6\pdl\drivers\peripheral\systick/cy_systick.h **** *         of direct register access using dereferenced pointers.</td>
  83:Generated_Source\PSoC6\pdl\drivers\peripheral\systick/cy_systick.h **** *     <td>Makes register access device-independent, so that the PDL does 
  84:Generated_Source\PSoC6\pdl\drivers\peripheral\systick/cy_systick.h **** *         not need to be recompiled for each supported part number.</td>
  85:Generated_Source\PSoC6\pdl\drivers\peripheral\systick/cy_systick.h **** *   </tr>
  86:Generated_Source\PSoC6\pdl\drivers\peripheral\systick/cy_systick.h **** * <tr>
  87:Generated_Source\PSoC6\pdl\drivers\peripheral\systick/cy_systick.h **** * <td>1.0.1</td>
  88:Generated_Source\PSoC6\pdl\drivers\peripheral\systick/cy_systick.h **** * <td>Fixed a warning issued when the compilation of C++ source code was
  89:Generated_Source\PSoC6\pdl\drivers\peripheral\systick/cy_systick.h **** *     enabled.</td> 
  90:Generated_Source\PSoC6\pdl\drivers\peripheral\systick/cy_systick.h **** * <td></td>
  91:Generated_Source\PSoC6\pdl\drivers\peripheral\systick/cy_systick.h **** * </tr>
  92:Generated_Source\PSoC6\pdl\drivers\peripheral\systick/cy_systick.h **** * <tr>
  93:Generated_Source\PSoC6\pdl\drivers\peripheral\systick/cy_systick.h **** * <td>1.0</td>
  94:Generated_Source\PSoC6\pdl\drivers\peripheral\systick/cy_systick.h **** * <td>Initial version</td>
  95:Generated_Source\PSoC6\pdl\drivers\peripheral\systick/cy_systick.h **** * <td></td>
  96:Generated_Source\PSoC6\pdl\drivers\peripheral\systick/cy_systick.h **** * </tr>
  97:Generated_Source\PSoC6\pdl\drivers\peripheral\systick/cy_systick.h **** * </table>
  98:Generated_Source\PSoC6\pdl\drivers\peripheral\systick/cy_systick.h **** *
  99:Generated_Source\PSoC6\pdl\drivers\peripheral\systick/cy_systick.h **** * \defgroup group_systick_macros Macros
 100:Generated_Source\PSoC6\pdl\drivers\peripheral\systick/cy_systick.h **** * \defgroup group_systick_functions Functions
 101:Generated_Source\PSoC6\pdl\drivers\peripheral\systick/cy_systick.h **** * \defgroup group_systick_data_structures Data Structures
 102:Generated_Source\PSoC6\pdl\drivers\peripheral\systick/cy_systick.h **** */
 103:Generated_Source\PSoC6\pdl\drivers\peripheral\systick/cy_systick.h **** 
 104:Generated_Source\PSoC6\pdl\drivers\peripheral\systick/cy_systick.h **** #include <stdint.h>
 105:Generated_Source\PSoC6\pdl\drivers\peripheral\systick/cy_systick.h **** #include "cy_syslib.h"
 106:Generated_Source\PSoC6\pdl\drivers\peripheral\systick/cy_systick.h **** #include "cy_device.h"
 107:Generated_Source\PSoC6\pdl\drivers\peripheral\systick/cy_systick.h **** 
 108:Generated_Source\PSoC6\pdl\drivers\peripheral\systick/cy_systick.h **** #ifdef __cplusplus
 109:Generated_Source\PSoC6\pdl\drivers\peripheral\systick/cy_systick.h **** extern "C" {
 110:Generated_Source\PSoC6\pdl\drivers\peripheral\systick/cy_systick.h **** #endif
 111:Generated_Source\PSoC6\pdl\drivers\peripheral\systick/cy_systick.h **** 
 112:Generated_Source\PSoC6\pdl\drivers\peripheral\systick/cy_systick.h **** /** \cond */
 113:Generated_Source\PSoC6\pdl\drivers\peripheral\systick/cy_systick.h **** extern cy_israddress __ramVectors[];
 114:Generated_Source\PSoC6\pdl\drivers\peripheral\systick/cy_systick.h **** typedef void (*Cy_SysTick_Callback)(void);
 115:Generated_Source\PSoC6\pdl\drivers\peripheral\systick/cy_systick.h **** /** \endcond */
 116:Generated_Source\PSoC6\pdl\drivers\peripheral\systick/cy_systick.h **** 
 117:Generated_Source\PSoC6\pdl\drivers\peripheral\systick/cy_systick.h **** /**
 118:Generated_Source\PSoC6\pdl\drivers\peripheral\systick/cy_systick.h **** * \addtogroup group_systick_data_structures
 119:Generated_Source\PSoC6\pdl\drivers\peripheral\systick/cy_systick.h **** * \{
 120:Generated_Source\PSoC6\pdl\drivers\peripheral\systick/cy_systick.h **** */
 121:Generated_Source\PSoC6\pdl\drivers\peripheral\systick/cy_systick.h **** /** SysTick clocks sources */
 122:Generated_Source\PSoC6\pdl\drivers\peripheral\systick/cy_systick.h **** typedef enum
 123:Generated_Source\PSoC6\pdl\drivers\peripheral\systick/cy_systick.h **** {
 124:Generated_Source\PSoC6\pdl\drivers\peripheral\systick/cy_systick.h ****     CY_SYSTICK_CLOCK_SOURCE_CLK_LF    = 0u,     /**< The low frequency clock clk_lf is selected. */
 125:Generated_Source\PSoC6\pdl\drivers\peripheral\systick/cy_systick.h ****     CY_SYSTICK_CLOCK_SOURCE_CLK_IMO   = 1u,     /**< The internal main oscillator (IMO) clock clk_i
 126:Generated_Source\PSoC6\pdl\drivers\peripheral\systick/cy_systick.h ****     CY_SYSTICK_CLOCK_SOURCE_CLK_ECO   = 2u,     /**< The external crystal oscillator (ECO) clock cl
 127:Generated_Source\PSoC6\pdl\drivers\peripheral\systick/cy_systick.h ****     CY_SYSTICK_CLOCK_SOURCE_CLK_TIMER = 3u,     /**< The SRSS clk_timer is selected. */
 128:Generated_Source\PSoC6\pdl\drivers\peripheral\systick/cy_systick.h ****     CY_SYSTICK_CLOCK_SOURCE_CLK_CPU   = 4u,     /**< The CPU clock is selected. */
 129:Generated_Source\PSoC6\pdl\drivers\peripheral\systick/cy_systick.h **** } cy_en_systick_clock_source_t;
 130:Generated_Source\PSoC6\pdl\drivers\peripheral\systick/cy_systick.h **** 
ARM GAS  C:\Users\cmila\AppData\Local\Temp\ccgsVvSe.s 			page 8


 131:Generated_Source\PSoC6\pdl\drivers\peripheral\systick/cy_systick.h **** /** \} group_systick_data_structures */
 132:Generated_Source\PSoC6\pdl\drivers\peripheral\systick/cy_systick.h **** 
 133:Generated_Source\PSoC6\pdl\drivers\peripheral\systick/cy_systick.h **** 
 134:Generated_Source\PSoC6\pdl\drivers\peripheral\systick/cy_systick.h **** /**
 135:Generated_Source\PSoC6\pdl\drivers\peripheral\systick/cy_systick.h **** * \addtogroup group_systick_functions
 136:Generated_Source\PSoC6\pdl\drivers\peripheral\systick/cy_systick.h **** * \{
 137:Generated_Source\PSoC6\pdl\drivers\peripheral\systick/cy_systick.h **** */
 138:Generated_Source\PSoC6\pdl\drivers\peripheral\systick/cy_systick.h **** 
 139:Generated_Source\PSoC6\pdl\drivers\peripheral\systick/cy_systick.h **** void Cy_SysTick_Init(cy_en_systick_clock_source_t clockSource, uint32_t interval);
 140:Generated_Source\PSoC6\pdl\drivers\peripheral\systick/cy_systick.h **** void Cy_SysTick_Enable(void);
 141:Generated_Source\PSoC6\pdl\drivers\peripheral\systick/cy_systick.h **** void Cy_SysTick_Disable(void);
 142:Generated_Source\PSoC6\pdl\drivers\peripheral\systick/cy_systick.h **** Cy_SysTick_Callback Cy_SysTick_SetCallback(uint32_t number, Cy_SysTick_Callback function);
 143:Generated_Source\PSoC6\pdl\drivers\peripheral\systick/cy_systick.h **** Cy_SysTick_Callback Cy_SysTick_GetCallback(uint32_t number);
 144:Generated_Source\PSoC6\pdl\drivers\peripheral\systick/cy_systick.h **** void Cy_SysTick_SetClockSource(cy_en_systick_clock_source_t clockSource);
 145:Generated_Source\PSoC6\pdl\drivers\peripheral\systick/cy_systick.h **** cy_en_systick_clock_source_t Cy_SysTick_GetClockSource(void);
 146:Generated_Source\PSoC6\pdl\drivers\peripheral\systick/cy_systick.h **** __STATIC_INLINE void Cy_SysTick_EnableInterrupt(void);
 147:Generated_Source\PSoC6\pdl\drivers\peripheral\systick/cy_systick.h **** __STATIC_INLINE void Cy_SysTick_DisableInterrupt(void);
 148:Generated_Source\PSoC6\pdl\drivers\peripheral\systick/cy_systick.h **** __STATIC_INLINE void Cy_SysTick_SetReload(uint32_t value);
 149:Generated_Source\PSoC6\pdl\drivers\peripheral\systick/cy_systick.h **** __STATIC_INLINE uint32_t Cy_SysTick_GetReload(void);
 150:Generated_Source\PSoC6\pdl\drivers\peripheral\systick/cy_systick.h **** __STATIC_INLINE uint32_t Cy_SysTick_GetValue(void);
 151:Generated_Source\PSoC6\pdl\drivers\peripheral\systick/cy_systick.h **** __STATIC_INLINE uint32_t Cy_SysTick_GetCountFlag(void);
 152:Generated_Source\PSoC6\pdl\drivers\peripheral\systick/cy_systick.h **** __STATIC_INLINE void Cy_SysTick_Clear(void);
 153:Generated_Source\PSoC6\pdl\drivers\peripheral\systick/cy_systick.h **** 
 154:Generated_Source\PSoC6\pdl\drivers\peripheral\systick/cy_systick.h **** /** \} group_systick_functions */
 155:Generated_Source\PSoC6\pdl\drivers\peripheral\systick/cy_systick.h **** 
 156:Generated_Source\PSoC6\pdl\drivers\peripheral\systick/cy_systick.h **** 
 157:Generated_Source\PSoC6\pdl\drivers\peripheral\systick/cy_systick.h **** /**
 158:Generated_Source\PSoC6\pdl\drivers\peripheral\systick/cy_systick.h **** * \addtogroup group_systick_macros
 159:Generated_Source\PSoC6\pdl\drivers\peripheral\systick/cy_systick.h **** * \{
 160:Generated_Source\PSoC6\pdl\drivers\peripheral\systick/cy_systick.h **** */
 161:Generated_Source\PSoC6\pdl\drivers\peripheral\systick/cy_systick.h **** 
 162:Generated_Source\PSoC6\pdl\drivers\peripheral\systick/cy_systick.h **** /** Driver major version */
 163:Generated_Source\PSoC6\pdl\drivers\peripheral\systick/cy_systick.h **** #define SYSTICK_DRV_VERSION_MAJOR       1
 164:Generated_Source\PSoC6\pdl\drivers\peripheral\systick/cy_systick.h **** 
 165:Generated_Source\PSoC6\pdl\drivers\peripheral\systick/cy_systick.h **** /** Driver minor version */
 166:Generated_Source\PSoC6\pdl\drivers\peripheral\systick/cy_systick.h **** #define SYSTICK_DRV_VERSION_MINOR       10
 167:Generated_Source\PSoC6\pdl\drivers\peripheral\systick/cy_systick.h **** 
 168:Generated_Source\PSoC6\pdl\drivers\peripheral\systick/cy_systick.h **** /** Number of the callbacks assigned to the SysTick interrupt */
 169:Generated_Source\PSoC6\pdl\drivers\peripheral\systick/cy_systick.h **** #define CY_SYS_SYST_NUM_OF_CALLBACKS         (5u)
 170:Generated_Source\PSoC6\pdl\drivers\peripheral\systick/cy_systick.h **** 
 171:Generated_Source\PSoC6\pdl\drivers\peripheral\systick/cy_systick.h **** /** \} group_systick_macros */
 172:Generated_Source\PSoC6\pdl\drivers\peripheral\systick/cy_systick.h **** 
 173:Generated_Source\PSoC6\pdl\drivers\peripheral\systick/cy_systick.h **** 
 174:Generated_Source\PSoC6\pdl\drivers\peripheral\systick/cy_systick.h **** /** \cond */
 175:Generated_Source\PSoC6\pdl\drivers\peripheral\systick/cy_systick.h **** /** Interrupt number in the vector table */
 176:Generated_Source\PSoC6\pdl\drivers\peripheral\systick/cy_systick.h **** #define CY_SYSTICK_IRQ_NUM                   (15u)
 177:Generated_Source\PSoC6\pdl\drivers\peripheral\systick/cy_systick.h **** /** \endcond */
 178:Generated_Source\PSoC6\pdl\drivers\peripheral\systick/cy_systick.h **** 
 179:Generated_Source\PSoC6\pdl\drivers\peripheral\systick/cy_systick.h **** /**
 180:Generated_Source\PSoC6\pdl\drivers\peripheral\systick/cy_systick.h **** * \addtogroup group_systick_functions
 181:Generated_Source\PSoC6\pdl\drivers\peripheral\systick/cy_systick.h **** * \{
 182:Generated_Source\PSoC6\pdl\drivers\peripheral\systick/cy_systick.h **** */
 183:Generated_Source\PSoC6\pdl\drivers\peripheral\systick/cy_systick.h **** 
 184:Generated_Source\PSoC6\pdl\drivers\peripheral\systick/cy_systick.h **** /*******************************************************************************
 185:Generated_Source\PSoC6\pdl\drivers\peripheral\systick/cy_systick.h **** * Function Name: Cy_SysTick_EnableInterrupt
 186:Generated_Source\PSoC6\pdl\drivers\peripheral\systick/cy_systick.h **** ****************************************************************************//**
 187:Generated_Source\PSoC6\pdl\drivers\peripheral\systick/cy_systick.h **** *
ARM GAS  C:\Users\cmila\AppData\Local\Temp\ccgsVvSe.s 			page 9


 188:Generated_Source\PSoC6\pdl\drivers\peripheral\systick/cy_systick.h **** * Enables the SysTick interrupt.
 189:Generated_Source\PSoC6\pdl\drivers\peripheral\systick/cy_systick.h **** *
 190:Generated_Source\PSoC6\pdl\drivers\peripheral\systick/cy_systick.h **** * \sideeffect Clears the SysTick count flag if it was set
 191:Generated_Source\PSoC6\pdl\drivers\peripheral\systick/cy_systick.h **** *
 192:Generated_Source\PSoC6\pdl\drivers\peripheral\systick/cy_systick.h **** *******************************************************************************/
 193:Generated_Source\PSoC6\pdl\drivers\peripheral\systick/cy_systick.h **** __STATIC_INLINE void Cy_SysTick_EnableInterrupt(void)
 194:Generated_Source\PSoC6\pdl\drivers\peripheral\systick/cy_systick.h **** {
 195:Generated_Source\PSoC6\pdl\drivers\peripheral\systick/cy_systick.h ****     SYSTICK_CTRL = SYSTICK_CTRL | SysTick_CTRL_TICKINT_Msk;
 196:Generated_Source\PSoC6\pdl\drivers\peripheral\systick/cy_systick.h **** }
 197:Generated_Source\PSoC6\pdl\drivers\peripheral\systick/cy_systick.h **** 
 198:Generated_Source\PSoC6\pdl\drivers\peripheral\systick/cy_systick.h **** 
 199:Generated_Source\PSoC6\pdl\drivers\peripheral\systick/cy_systick.h **** /*******************************************************************************
 200:Generated_Source\PSoC6\pdl\drivers\peripheral\systick/cy_systick.h **** * Function Name: Cy_SysTick_DisableInterrupt
 201:Generated_Source\PSoC6\pdl\drivers\peripheral\systick/cy_systick.h **** ****************************************************************************//**
 202:Generated_Source\PSoC6\pdl\drivers\peripheral\systick/cy_systick.h **** *
 203:Generated_Source\PSoC6\pdl\drivers\peripheral\systick/cy_systick.h **** * Disables the SysTick interrupt.
 204:Generated_Source\PSoC6\pdl\drivers\peripheral\systick/cy_systick.h **** *
 205:Generated_Source\PSoC6\pdl\drivers\peripheral\systick/cy_systick.h **** * \sideeffect Clears the SysTick count flag if it was set
 206:Generated_Source\PSoC6\pdl\drivers\peripheral\systick/cy_systick.h **** *
 207:Generated_Source\PSoC6\pdl\drivers\peripheral\systick/cy_systick.h **** *******************************************************************************/
 208:Generated_Source\PSoC6\pdl\drivers\peripheral\systick/cy_systick.h **** __STATIC_INLINE void Cy_SysTick_DisableInterrupt(void)
 209:Generated_Source\PSoC6\pdl\drivers\peripheral\systick/cy_systick.h **** {
 210:Generated_Source\PSoC6\pdl\drivers\peripheral\systick/cy_systick.h ****     SYSTICK_CTRL = SYSTICK_CTRL & ~SysTick_CTRL_TICKINT_Msk;
 211:Generated_Source\PSoC6\pdl\drivers\peripheral\systick/cy_systick.h **** }
 212:Generated_Source\PSoC6\pdl\drivers\peripheral\systick/cy_systick.h **** 
 213:Generated_Source\PSoC6\pdl\drivers\peripheral\systick/cy_systick.h **** 
 214:Generated_Source\PSoC6\pdl\drivers\peripheral\systick/cy_systick.h **** /*******************************************************************************
 215:Generated_Source\PSoC6\pdl\drivers\peripheral\systick/cy_systick.h **** * Function Name: Cy_SysTick_SetReload
 216:Generated_Source\PSoC6\pdl\drivers\peripheral\systick/cy_systick.h **** ****************************************************************************//**
 217:Generated_Source\PSoC6\pdl\drivers\peripheral\systick/cy_systick.h **** *
 218:Generated_Source\PSoC6\pdl\drivers\peripheral\systick/cy_systick.h **** * Sets the value the counter is set to on a startup and after it reaches zero.
 219:Generated_Source\PSoC6\pdl\drivers\peripheral\systick/cy_systick.h **** * This function does not change or reset the current sysTick counter value, so
 220:Generated_Source\PSoC6\pdl\drivers\peripheral\systick/cy_systick.h **** * it should be cleared using the Cy_SysTick_Clear() API.
 221:Generated_Source\PSoC6\pdl\drivers\peripheral\systick/cy_systick.h **** *
 222:Generated_Source\PSoC6\pdl\drivers\peripheral\systick/cy_systick.h **** * \param value: The valid range is [0x0-0x00FFFFFF]. The counter reset value.
 223:Generated_Source\PSoC6\pdl\drivers\peripheral\systick/cy_systick.h **** *
 224:Generated_Source\PSoC6\pdl\drivers\peripheral\systick/cy_systick.h **** *******************************************************************************/
 225:Generated_Source\PSoC6\pdl\drivers\peripheral\systick/cy_systick.h **** __STATIC_INLINE void Cy_SysTick_SetReload(uint32_t value)
 226:Generated_Source\PSoC6\pdl\drivers\peripheral\systick/cy_systick.h **** {
 227:Generated_Source\PSoC6\pdl\drivers\peripheral\systick/cy_systick.h ****     SYSTICK_LOAD = (value & SysTick_LOAD_RELOAD_Msk);
 228:Generated_Source\PSoC6\pdl\drivers\peripheral\systick/cy_systick.h **** }
 229:Generated_Source\PSoC6\pdl\drivers\peripheral\systick/cy_systick.h **** 
 230:Generated_Source\PSoC6\pdl\drivers\peripheral\systick/cy_systick.h **** 
 231:Generated_Source\PSoC6\pdl\drivers\peripheral\systick/cy_systick.h **** /*******************************************************************************
 232:Generated_Source\PSoC6\pdl\drivers\peripheral\systick/cy_systick.h **** * Function Name: Cy_SysTick_GetReload
 233:Generated_Source\PSoC6\pdl\drivers\peripheral\systick/cy_systick.h **** ****************************************************************************//**
 234:Generated_Source\PSoC6\pdl\drivers\peripheral\systick/cy_systick.h **** *
 235:Generated_Source\PSoC6\pdl\drivers\peripheral\systick/cy_systick.h **** * Gets the value the counter is set to on a startup and after it reaches zero.
 236:Generated_Source\PSoC6\pdl\drivers\peripheral\systick/cy_systick.h **** *
 237:Generated_Source\PSoC6\pdl\drivers\peripheral\systick/cy_systick.h **** * \return The counter reset value.
 238:Generated_Source\PSoC6\pdl\drivers\peripheral\systick/cy_systick.h **** *
 239:Generated_Source\PSoC6\pdl\drivers\peripheral\systick/cy_systick.h **** *******************************************************************************/
 240:Generated_Source\PSoC6\pdl\drivers\peripheral\systick/cy_systick.h **** __STATIC_INLINE uint32_t Cy_SysTick_GetReload(void)
 241:Generated_Source\PSoC6\pdl\drivers\peripheral\systick/cy_systick.h **** {
 242:Generated_Source\PSoC6\pdl\drivers\peripheral\systick/cy_systick.h ****     return (SYSTICK_LOAD);
 243:Generated_Source\PSoC6\pdl\drivers\peripheral\systick/cy_systick.h **** }
 244:Generated_Source\PSoC6\pdl\drivers\peripheral\systick/cy_systick.h **** 
ARM GAS  C:\Users\cmila\AppData\Local\Temp\ccgsVvSe.s 			page 10


 245:Generated_Source\PSoC6\pdl\drivers\peripheral\systick/cy_systick.h **** 
 246:Generated_Source\PSoC6\pdl\drivers\peripheral\systick/cy_systick.h **** /*******************************************************************************
 247:Generated_Source\PSoC6\pdl\drivers\peripheral\systick/cy_systick.h **** * Function Name: Cy_SysTick_GetValue
 248:Generated_Source\PSoC6\pdl\drivers\peripheral\systick/cy_systick.h **** ****************************************************************************//**
 249:Generated_Source\PSoC6\pdl\drivers\peripheral\systick/cy_systick.h **** *
 250:Generated_Source\PSoC6\pdl\drivers\peripheral\systick/cy_systick.h **** * Gets the current SysTick counter value.
 251:Generated_Source\PSoC6\pdl\drivers\peripheral\systick/cy_systick.h **** *
 252:Generated_Source\PSoC6\pdl\drivers\peripheral\systick/cy_systick.h **** * \return The current SysTick counter value.
 253:Generated_Source\PSoC6\pdl\drivers\peripheral\systick/cy_systick.h **** *
 254:Generated_Source\PSoC6\pdl\drivers\peripheral\systick/cy_systick.h **** *******************************************************************************/
 255:Generated_Source\PSoC6\pdl\drivers\peripheral\systick/cy_systick.h **** __STATIC_INLINE uint32_t Cy_SysTick_GetValue(void)
 256:Generated_Source\PSoC6\pdl\drivers\peripheral\systick/cy_systick.h **** {
 257:Generated_Source\PSoC6\pdl\drivers\peripheral\systick/cy_systick.h ****     return (SYSTICK_VAL);
 258:Generated_Source\PSoC6\pdl\drivers\peripheral\systick/cy_systick.h **** }
 259:Generated_Source\PSoC6\pdl\drivers\peripheral\systick/cy_systick.h **** 
 260:Generated_Source\PSoC6\pdl\drivers\peripheral\systick/cy_systick.h **** /*******************************************************************************
 261:Generated_Source\PSoC6\pdl\drivers\peripheral\systick/cy_systick.h **** * Function Name: Cy_SysTick_Clear
 262:Generated_Source\PSoC6\pdl\drivers\peripheral\systick/cy_systick.h **** ****************************************************************************//**
 263:Generated_Source\PSoC6\pdl\drivers\peripheral\systick/cy_systick.h **** *
 264:Generated_Source\PSoC6\pdl\drivers\peripheral\systick/cy_systick.h **** * Clears the SysTick counter for a well-defined startup.
 265:Generated_Source\PSoC6\pdl\drivers\peripheral\systick/cy_systick.h **** *
 266:Generated_Source\PSoC6\pdl\drivers\peripheral\systick/cy_systick.h **** *******************************************************************************/
 267:Generated_Source\PSoC6\pdl\drivers\peripheral\systick/cy_systick.h **** __STATIC_INLINE void Cy_SysTick_Clear(void)
 268:Generated_Source\PSoC6\pdl\drivers\peripheral\systick/cy_systick.h **** {
 269:Generated_Source\PSoC6\pdl\drivers\peripheral\systick/cy_systick.h ****     SYSTICK_VAL = 0u;
 270:Generated_Source\PSoC6\pdl\drivers\peripheral\systick/cy_systick.h **** }
 271:Generated_Source\PSoC6\pdl\drivers\peripheral\systick/cy_systick.h **** 
 272:Generated_Source\PSoC6\pdl\drivers\peripheral\systick/cy_systick.h **** 
 273:Generated_Source\PSoC6\pdl\drivers\peripheral\systick/cy_systick.h **** /*******************************************************************************
 274:Generated_Source\PSoC6\pdl\drivers\peripheral\systick/cy_systick.h **** * Function Name: Cy_SysTick_GetCountFlag
 275:Generated_Source\PSoC6\pdl\drivers\peripheral\systick/cy_systick.h **** ****************************************************************************//**
 276:Generated_Source\PSoC6\pdl\drivers\peripheral\systick/cy_systick.h **** *
 277:Generated_Source\PSoC6\pdl\drivers\peripheral\systick/cy_systick.h **** * Gets the values of the count flag. The count flag is set once the SysTick
 278:Generated_Source\PSoC6\pdl\drivers\peripheral\systick/cy_systick.h **** * counter reaches zero. The flag is cleared on read.
 279:Generated_Source\PSoC6\pdl\drivers\peripheral\systick/cy_systick.h **** *
 280:Generated_Source\PSoC6\pdl\drivers\peripheral\systick/cy_systick.h **** * \return Returns a non-zero value if a flag is set; otherwise a zero is
 281:Generated_Source\PSoC6\pdl\drivers\peripheral\systick/cy_systick.h **** * returned.
 282:Generated_Source\PSoC6\pdl\drivers\peripheral\systick/cy_systick.h **** *
 283:Generated_Source\PSoC6\pdl\drivers\peripheral\systick/cy_systick.h **** * \sideeffect Clears the SysTick count flag if it was set.
 284:Generated_Source\PSoC6\pdl\drivers\peripheral\systick/cy_systick.h **** *
 285:Generated_Source\PSoC6\pdl\drivers\peripheral\systick/cy_systick.h **** *******************************************************************************/
 286:Generated_Source\PSoC6\pdl\drivers\peripheral\systick/cy_systick.h **** __STATIC_INLINE uint32_t Cy_SysTick_GetCountFlag(void)
 287:Generated_Source\PSoC6\pdl\drivers\peripheral\systick/cy_systick.h **** {
 288:Generated_Source\PSoC6\pdl\drivers\peripheral\systick/cy_systick.h ****     return (SYSTICK_CTRL & SysTick_CTRL_COUNTFLAG_Msk);
  41              		.loc 2 288 0
  42 0002 074B     		ldr	r3, .L11
  43 0004 1B68     		ldr	r3, [r3]
  44              	.LBE17:
  45              	.LBE16:
 230:Generated_Source\PSoC6\pdl\drivers\peripheral\systick/cy_systick.c ****     uint32_t i;
 231:Generated_Source\PSoC6\pdl\drivers\peripheral\systick/cy_systick.c **** 
 232:Generated_Source\PSoC6\pdl\drivers\peripheral\systick/cy_systick.c ****     /* Verify that tick timer flag was set */
 233:Generated_Source\PSoC6\pdl\drivers\peripheral\systick/cy_systick.c ****     if (0u != Cy_SysTick_GetCountFlag())
  46              		.loc 1 233 0
  47 0006 DB03     		lsls	r3, r3, #15
  48 0008 08D5     		bpl	.L1
  49              	.LBB18:
ARM GAS  C:\Users\cmila\AppData\Local\Temp\ccgsVvSe.s 			page 11


 234:Generated_Source\PSoC6\pdl\drivers\peripheral\systick/cy_systick.c ****     {
 235:Generated_Source\PSoC6\pdl\drivers\peripheral\systick/cy_systick.c ****         for (i=0u; i < CY_SYS_SYST_NUM_OF_CALLBACKS; i++)
 236:Generated_Source\PSoC6\pdl\drivers\peripheral\systick/cy_systick.c ****         {
 237:Generated_Source\PSoC6\pdl\drivers\peripheral\systick/cy_systick.c ****             if (Cy_SysTick_Callbacks[i] != NULL)
  50              		.loc 1 237 0
  51 000a 064D     		ldr	r5, .L11+4
  52              	.LBE18:
  53 000c 0024     		movs	r4, #0
  54              	.L4:
  55              	.LVL0:
  56              	.LBB19:
  57 000e 55F82430 		ldr	r3, [r5, r4, lsl #2]
  58 0012 03B1     		cbz	r3, .L3
 238:Generated_Source\PSoC6\pdl\drivers\peripheral\systick/cy_systick.c ****             {
 239:Generated_Source\PSoC6\pdl\drivers\peripheral\systick/cy_systick.c ****                 (void)(Cy_SysTick_Callbacks[i])();
  59              		.loc 1 239 0
  60 0014 9847     		blx	r3
  61              	.LVL1:
  62              	.L3:
 235:Generated_Source\PSoC6\pdl\drivers\peripheral\systick/cy_systick.c ****         {
  63              		.loc 1 235 0
  64 0016 0134     		adds	r4, r4, #1
  65              	.LVL2:
  66 0018 052C     		cmp	r4, #5
  67 001a F8D1     		bne	.L4
  68              	.LVL3:
  69              	.L1:
  70 001c 38BD     		pop	{r3, r4, r5, pc}
  71              	.L12:
  72 001e 00BF     		.align	2
  73              	.L11:
  74 0020 10E000E0 		.word	-536813552
  75 0024 00000000 		.word	.LANCHOR0
  76              	.LBE19:
  77              		.cfi_endproc
  78              	.LFE146:
  79              		.size	Cy_SysTick_ServiceCallbacks, .-Cy_SysTick_ServiceCallbacks
  80              		.section	.text.Cy_SysTick_Enable,"ax",%progbits
  81              		.align	1
  82              		.global	Cy_SysTick_Enable
  83              		.thumb
  84              		.thumb_func
  85              		.type	Cy_SysTick_Enable, %function
  86              	Cy_SysTick_Enable:
  87              	.LFB140:
  71:Generated_Source\PSoC6\pdl\drivers\peripheral\systick/cy_systick.c ****     Cy_SysTick_EnableInterrupt();
  88              		.loc 1 71 0
  89              		.cfi_startproc
  90              		@ args = 0, pretend = 0, frame = 0
  91              		@ frame_needed = 0, uses_anonymous_args = 0
  92              		@ link register save eliminated.
  93              	.LBB22:
  94              	.LBB23:
 195:Generated_Source\PSoC6\pdl\drivers\peripheral\systick/cy_systick.h **** }
  95              		.loc 2 195 0
  96 0000 044B     		ldr	r3, .L14
  97 0002 1A68     		ldr	r2, [r3]
ARM GAS  C:\Users\cmila\AppData\Local\Temp\ccgsVvSe.s 			page 12


  98 0004 42F00202 		orr	r2, r2, #2
  99 0008 1A60     		str	r2, [r3]
 100              	.LBE23:
 101              	.LBE22:
  73:Generated_Source\PSoC6\pdl\drivers\peripheral\systick/cy_systick.c **** }
 102              		.loc 1 73 0
 103 000a 1A68     		ldr	r2, [r3]
 104 000c 42F00102 		orr	r2, r2, #1
 105 0010 1A60     		str	r2, [r3]
 106 0012 7047     		bx	lr
 107              	.L15:
 108              		.align	2
 109              	.L14:
 110 0014 10E000E0 		.word	-536813552
 111              		.cfi_endproc
 112              	.LFE140:
 113              		.size	Cy_SysTick_Enable, .-Cy_SysTick_Enable
 114              		.section	.text.Cy_SysTick_Disable,"ax",%progbits
 115              		.align	1
 116              		.global	Cy_SysTick_Disable
 117              		.thumb
 118              		.thumb_func
 119              		.type	Cy_SysTick_Disable, %function
 120              	Cy_SysTick_Disable:
 121              	.LFB141:
  87:Generated_Source\PSoC6\pdl\drivers\peripheral\systick/cy_systick.c ****     Cy_SysTick_DisableInterrupt();
 122              		.loc 1 87 0
 123              		.cfi_startproc
 124              		@ args = 0, pretend = 0, frame = 0
 125              		@ frame_needed = 0, uses_anonymous_args = 0
 126              		@ link register save eliminated.
 127              	.LBB26:
 128              	.LBB27:
 210:Generated_Source\PSoC6\pdl\drivers\peripheral\systick/cy_systick.h **** }
 129              		.loc 2 210 0
 130 0000 044B     		ldr	r3, .L17
 131 0002 1A68     		ldr	r2, [r3]
 132 0004 22F00202 		bic	r2, r2, #2
 133 0008 1A60     		str	r2, [r3]
 134              	.LBE27:
 135              	.LBE26:
  89:Generated_Source\PSoC6\pdl\drivers\peripheral\systick/cy_systick.c **** }
 136              		.loc 1 89 0
 137 000a 1A68     		ldr	r2, [r3]
 138 000c 22F00102 		bic	r2, r2, #1
 139 0010 1A60     		str	r2, [r3]
 140 0012 7047     		bx	lr
 141              	.L18:
 142              		.align	2
 143              	.L17:
 144 0014 10E000E0 		.word	-536813552
 145              		.cfi_endproc
 146              	.LFE141:
 147              		.size	Cy_SysTick_Disable, .-Cy_SysTick_Disable
 148              		.section	.text.Cy_SysTick_SetClockSource,"ax",%progbits
 149              		.align	1
 150              		.global	Cy_SysTick_SetClockSource
ARM GAS  C:\Users\cmila\AppData\Local\Temp\ccgsVvSe.s 			page 13


 151              		.thumb
 152              		.thumb_func
 153              		.type	Cy_SysTick_SetClockSource, %function
 154              	Cy_SysTick_SetClockSource:
 155              	.LFB142:
 113:Generated_Source\PSoC6\pdl\drivers\peripheral\systick/cy_systick.c ****     if (clockSource == CY_SYSTICK_CLOCK_SOURCE_CLK_CPU)
 156              		.loc 1 113 0
 157              		.cfi_startproc
 158              		@ args = 0, pretend = 0, frame = 0
 159              		@ frame_needed = 0, uses_anonymous_args = 0
 160              		@ link register save eliminated.
 161              	.LVL4:
 114:Generated_Source\PSoC6\pdl\drivers\peripheral\systick/cy_systick.c ****     {
 162              		.loc 1 114 0
 163 0000 0428     		cmp	r0, #4
 164 0002 0A4B     		ldr	r3, .L23
 165 0004 03D1     		bne	.L20
 166              	.LVL5:
 167              	.LBB30:
 168              	.LBB31:
 116:Generated_Source\PSoC6\pdl\drivers\peripheral\systick/cy_systick.c ****     }
 169              		.loc 1 116 0
 170 0006 1A68     		ldr	r2, [r3]
 171 0008 42F00402 		orr	r2, r2, #4
 172 000c 0BE0     		b	.L22
 173              	.LVL6:
 174              	.L20:
 175              	.LBE31:
 176              	.LBE30:
 120:Generated_Source\PSoC6\pdl\drivers\peripheral\systick/cy_systick.c ****         SYSTICK_CTRL &= ~SysTick_CTRL_CLKSOURCE_Msk;
 177              		.loc 1 120 0
 178 000e 084A     		ldr	r2, .L23+4
 179 0010 1268     		ldr	r2, [r2]
 180 0012 0006     		lsls	r0, r0, #24
 181              	.LVL7:
 182 0014 1168     		ldr	r1, [r2]
 183 0016 D2F8A020 		ldr	r2, [r2, #160]
 184 001a 00F04070 		and	r0, r0, #50331648
 185 001e 8850     		str	r0, [r1, r2]
 121:Generated_Source\PSoC6\pdl\drivers\peripheral\systick/cy_systick.c ****     }
 186              		.loc 1 121 0
 187 0020 1A68     		ldr	r2, [r3]
 188 0022 22F00402 		bic	r2, r2, #4
 189              	.L22:
 190 0026 1A60     		str	r2, [r3]
 191 0028 7047     		bx	lr
 192              	.L24:
 193 002a 00BF     		.align	2
 194              	.L23:
 195 002c 10E000E0 		.word	-536813552
 196 0030 00000000 		.word	cy_device
 197              		.cfi_endproc
 198              	.LFE142:
 199              		.size	Cy_SysTick_SetClockSource, .-Cy_SysTick_SetClockSource
 200              		.section	.text.Cy_SysTick_Init,"ax",%progbits
 201              		.align	1
 202              		.global	Cy_SysTick_Init
ARM GAS  C:\Users\cmila\AppData\Local\Temp\ccgsVvSe.s 			page 14


 203              		.thumb
 204              		.thumb_func
 205              		.type	Cy_SysTick_Init, %function
 206              	Cy_SysTick_Init:
 207              	.LFB139:
  44:Generated_Source\PSoC6\pdl\drivers\peripheral\systick/cy_systick.c ****     uint32_t i;
 208              		.loc 1 44 0
 209              		.cfi_startproc
 210              		@ args = 0, pretend = 0, frame = 0
 211              		@ frame_needed = 0, uses_anonymous_args = 0
 212              	.LVL8:
 213 0000 38B5     		push	{r3, r4, r5, lr}
 214              		.cfi_def_cfa_offset 16
 215              		.cfi_offset 3, -16
 216              		.cfi_offset 4, -12
 217              		.cfi_offset 5, -8
 218              		.cfi_offset 14, -4
  49:Generated_Source\PSoC6\pdl\drivers\peripheral\systick/cy_systick.c ****     }
 219              		.loc 1 49 0
 220 0002 0B4B     		ldr	r3, .L26
  52:Generated_Source\PSoC6\pdl\drivers\peripheral\systick/cy_systick.c ****     Cy_SysTick_SetClockSource(clockSource);
 221              		.loc 1 52 0
 222 0004 0B4A     		ldr	r2, .L26+4
  49:Generated_Source\PSoC6\pdl\drivers\peripheral\systick/cy_systick.c ****     }
 223              		.loc 1 49 0
 224 0006 0024     		movs	r4, #0
 225 0008 1C60     		str	r4, [r3]
 226              	.LVL9:
 227 000a 5C60     		str	r4, [r3, #4]
 228              	.LVL10:
 229 000c 9C60     		str	r4, [r3, #8]
 230              	.LVL11:
 231 000e DC60     		str	r4, [r3, #12]
 232              	.LVL12:
 233 0010 1C61     		str	r4, [r3, #16]
 234              	.LVL13:
  52:Generated_Source\PSoC6\pdl\drivers\peripheral\systick/cy_systick.c ****     Cy_SysTick_SetClockSource(clockSource);
 235              		.loc 1 52 0
 236 0012 094B     		ldr	r3, .L26+8
  44:Generated_Source\PSoC6\pdl\drivers\peripheral\systick/cy_systick.c ****     uint32_t i;
 237              		.loc 1 44 0
 238 0014 0D46     		mov	r5, r1
  52:Generated_Source\PSoC6\pdl\drivers\peripheral\systick/cy_systick.c ****     Cy_SysTick_SetClockSource(clockSource);
 239              		.loc 1 52 0
 240 0016 DA63     		str	r2, [r3, #60]
  53:Generated_Source\PSoC6\pdl\drivers\peripheral\systick/cy_systick.c **** 
 241              		.loc 1 53 0
 242 0018 FFF7FEFF 		bl	Cy_SysTick_SetClockSource
 243              	.LVL14:
 244              	.LBB32:
 245              	.LBB33:
 227:Generated_Source\PSoC6\pdl\drivers\peripheral\systick/cy_systick.h **** }
 246              		.loc 2 227 0
 247 001c 074B     		ldr	r3, .L26+12
 248 001e 25F07F45 		bic	r5, r5, #-16777216
 249              	.LVL15:
 250 0022 5D60     		str	r5, [r3, #4]
ARM GAS  C:\Users\cmila\AppData\Local\Temp\ccgsVvSe.s 			page 15


 251              	.LVL16:
 252              	.LBE33:
 253              	.LBE32:
 254              	.LBB34:
 255              	.LBB35:
 269:Generated_Source\PSoC6\pdl\drivers\peripheral\systick/cy_systick.h **** }
 256              		.loc 2 269 0
 257 0024 9C60     		str	r4, [r3, #8]
 258              	.LBE35:
 259              	.LBE34:
  58:Generated_Source\PSoC6\pdl\drivers\peripheral\systick/cy_systick.c **** 
 260              		.loc 1 58 0
 261 0026 BDE83840 		pop	{r3, r4, r5, lr}
 262              		.cfi_restore 14
 263              		.cfi_restore 5
 264              		.cfi_restore 4
 265              		.cfi_restore 3
 266              		.cfi_def_cfa_offset 0
  57:Generated_Source\PSoC6\pdl\drivers\peripheral\systick/cy_systick.c **** }
 267              		.loc 1 57 0
 268 002a FFF7FEBF 		b	Cy_SysTick_Enable
 269              	.LVL17:
 270              	.L27:
 271 002e 00BF     		.align	2
 272              	.L26:
 273 0030 00000000 		.word	.LANCHOR0
 274 0034 00000000 		.word	Cy_SysTick_ServiceCallbacks
 275 0038 00000000 		.word	__ramVectors
 276 003c 10E000E0 		.word	-536813552
 277              		.cfi_endproc
 278              	.LFE139:
 279              		.size	Cy_SysTick_Init, .-Cy_SysTick_Init
 280              		.section	.text.Cy_SysTick_GetClockSource,"ax",%progbits
 281              		.align	1
 282              		.global	Cy_SysTick_GetClockSource
 283              		.thumb
 284              		.thumb_func
 285              		.type	Cy_SysTick_GetClockSource, %function
 286              	Cy_SysTick_GetClockSource:
 287              	.LFB143:
 136:Generated_Source\PSoC6\pdl\drivers\peripheral\systick/cy_systick.c ****     cy_en_systick_clock_source_t returnValue;
 288              		.loc 1 136 0
 289              		.cfi_startproc
 290              		@ args = 0, pretend = 0, frame = 0
 291              		@ frame_needed = 0, uses_anonymous_args = 0
 292              		@ link register save eliminated.
 139:Generated_Source\PSoC6\pdl\drivers\peripheral\systick/cy_systick.c ****     {
 293              		.loc 1 139 0
 294 0000 074B     		ldr	r3, .L31
 295 0002 1B68     		ldr	r3, [r3]
 296 0004 5B07     		lsls	r3, r3, #29
 145:Generated_Source\PSoC6\pdl\drivers\peripheral\systick/cy_systick.c ****     }
 297              		.loc 1 145 0
 298 0006 5FBF     		itttt	pl
 299 0008 064B     		ldrpl	r3, .L31+4
 300 000a 1B68     		ldrpl	r3, [r3]
 301 000c 1A68     		ldrpl	r2, [r3]
ARM GAS  C:\Users\cmila\AppData\Local\Temp\ccgsVvSe.s 			page 16


 302 000e D3F8A030 		ldrpl	r3, [r3, #160]
 303 0012 5ABF     		itte	pl
 304 0014 D058     		ldrpl	r0, [r2, r3]
 305 0016 C0F30160 		ubfxpl	r0, r0, #24, #2
 306              	.LVL18:
 141:Generated_Source\PSoC6\pdl\drivers\peripheral\systick/cy_systick.c ****     }
 307              		.loc 1 141 0
 308 001a 0420     		movmi	r0, #4
 309              	.LVL19:
 149:Generated_Source\PSoC6\pdl\drivers\peripheral\systick/cy_systick.c **** 
 310              		.loc 1 149 0
 311 001c 7047     		bx	lr
 312              	.L32:
 313 001e 00BF     		.align	2
 314              	.L31:
 315 0020 10E000E0 		.word	-536813552
 316 0024 00000000 		.word	cy_device
 317              		.cfi_endproc
 318              	.LFE143:
 319              		.size	Cy_SysTick_GetClockSource, .-Cy_SysTick_GetClockSource
 320              		.section	.text.Cy_SysTick_SetCallback,"ax",%progbits
 321              		.align	1
 322              		.global	Cy_SysTick_SetCallback
 323              		.thumb
 324              		.thumb_func
 325              		.type	Cy_SysTick_SetCallback, %function
 326              	Cy_SysTick_SetCallback:
 327              	.LFB144:
 173:Generated_Source\PSoC6\pdl\drivers\peripheral\systick/cy_systick.c ****     Cy_SysTick_Callback retVal;
 328              		.loc 1 173 0
 329              		.cfi_startproc
 330              		@ args = 0, pretend = 0, frame = 0
 331              		@ frame_needed = 0, uses_anonymous_args = 0
 332              		@ link register save eliminated.
 333              	.LVL20:
 176:Generated_Source\PSoC6\pdl\drivers\peripheral\systick/cy_systick.c ****     {
 334              		.loc 1 176 0
 335 0000 0428     		cmp	r0, #4
 173:Generated_Source\PSoC6\pdl\drivers\peripheral\systick/cy_systick.c ****     Cy_SysTick_Callback retVal;
 336              		.loc 1 173 0
 337 0002 0346     		mov	r3, r0
 178:Generated_Source\PSoC6\pdl\drivers\peripheral\systick/cy_systick.c ****         Cy_SysTick_Callbacks[number] = function;
 338              		.loc 1 178 0
 339 0004 9DBF     		ittte	ls
 340 0006 034A     		ldrls	r2, .L36
 341 0008 52F82000 		ldrls	r0, [r2, r0, lsl #2]
 342              	.LVL21:
 179:Generated_Source\PSoC6\pdl\drivers\peripheral\systick/cy_systick.c ****     }
 343              		.loc 1 179 0
 344 000c 42F82310 		strls	r1, [r2, r3, lsl #2]
 183:Generated_Source\PSoC6\pdl\drivers\peripheral\systick/cy_systick.c ****     }
 345              		.loc 1 183 0
 346 0010 0020     		movhi	r0, #0
 347              	.LVL22:
 187:Generated_Source\PSoC6\pdl\drivers\peripheral\systick/cy_systick.c **** 
 348              		.loc 1 187 0
 349 0012 7047     		bx	lr
ARM GAS  C:\Users\cmila\AppData\Local\Temp\ccgsVvSe.s 			page 17


 350              	.L37:
 351              		.align	2
 352              	.L36:
 353 0014 00000000 		.word	.LANCHOR0
 354              		.cfi_endproc
 355              	.LFE144:
 356              		.size	Cy_SysTick_SetCallback, .-Cy_SysTick_SetCallback
 357              		.section	.text.Cy_SysTick_GetCallback,"ax",%progbits
 358              		.align	1
 359              		.global	Cy_SysTick_GetCallback
 360              		.thumb
 361              		.thumb_func
 362              		.type	Cy_SysTick_GetCallback, %function
 363              	Cy_SysTick_GetCallback:
 364              	.LFB145:
 205:Generated_Source\PSoC6\pdl\drivers\peripheral\systick/cy_systick.c ****     Cy_SysTick_Callback retVal;
 365              		.loc 1 205 0
 366              		.cfi_startproc
 367              		@ args = 0, pretend = 0, frame = 0
 368              		@ frame_needed = 0, uses_anonymous_args = 0
 369              		@ link register save eliminated.
 370              	.LVL23:
 208:Generated_Source\PSoC6\pdl\drivers\peripheral\systick/cy_systick.c ****     {
 371              		.loc 1 208 0
 372 0000 0428     		cmp	r0, #4
 210:Generated_Source\PSoC6\pdl\drivers\peripheral\systick/cy_systick.c ****     }
 373              		.loc 1 210 0
 374 0002 9ABF     		itte	ls
 375 0004 024B     		ldrls	r3, .L41
 376 0006 53F82000 		ldrls	r0, [r3, r0, lsl #2]
 377              	.LVL24:
 214:Generated_Source\PSoC6\pdl\drivers\peripheral\systick/cy_systick.c ****     }
 378              		.loc 1 214 0
 379 000a 0020     		movhi	r0, #0
 380              	.LVL25:
 218:Generated_Source\PSoC6\pdl\drivers\peripheral\systick/cy_systick.c **** 
 381              		.loc 1 218 0
 382 000c 7047     		bx	lr
 383              	.L42:
 384 000e 00BF     		.align	2
 385              	.L41:
 386 0010 00000000 		.word	.LANCHOR0
 387              		.cfi_endproc
 388              	.LFE145:
 389              		.size	Cy_SysTick_GetCallback, .-Cy_SysTick_GetCallback
 390              		.bss
 391              		.align	2
 392              		.set	.LANCHOR0,. + 0
 393              		.type	Cy_SysTick_Callbacks, %object
 394              		.size	Cy_SysTick_Callbacks, 20
 395              	Cy_SysTick_Callbacks:
 396 0000 00000000 		.space	20
 396      00000000 
 396      00000000 
 396      00000000 
 396      00000000 
 397              		.text
ARM GAS  C:\Users\cmila\AppData\Local\Temp\ccgsVvSe.s 			page 18


 398              	.Letext0:
 399              		.file 3 "c:\\program files (x86)\\cypress\\psoc creator\\4.4\\psoc creator\\import\\gnu\\arm\\5.4.
 400              		.file 4 "c:\\program files (x86)\\cypress\\psoc creator\\4.4\\psoc creator\\import\\gnu\\arm\\5.4.
 401              		.file 5 "Generated_Source\\PSoC6\\pdl\\drivers/peripheral/device/cy_device.h"
 402              		.file 6 "Generated_Source\\PSoC6\\pdl\\cmsis/include/core_cm4.h"
 403              		.file 7 "Generated_Source\\PSoC6\\pdl\\drivers/peripheral/syslib/cy_syslib.h"