ARM GAS  C:\Users\cmila\AppData\Local\Temp\cciunhHD.s 			page 1


   1              		.syntax unified
   2              		.cpu cortex-m4
   3              		.eabi_attribute 27, 1
   4              		.fpu fpv4-sp-d16
   5              		.eabi_attribute 20, 1
   6              		.eabi_attribute 21, 1
   7              		.eabi_attribute 23, 3
   8              		.eabi_attribute 24, 1
   9              		.eabi_attribute 25, 1
  10              		.eabi_attribute 26, 1
  11              		.eabi_attribute 30, 1
  12              		.eabi_attribute 34, 1
  13              		.eabi_attribute 18, 4
  14              		.thumb
  15              		.syntax unified
  16              		.file	"command_queue.c"
  17              		.text
  18              	.Ltext0:
  19              		.cfi_sections	.debug_frame
  20              		.section	.text.InitQueue,"ax",%progbits
  21              		.align	2
  22              		.global	InitQueue
  23              		.thumb
  24              		.thumb_func
  25              		.type	InitQueue, %function
  26              	InitQueue:
  27              	.LFB597:
  28              		.file 1 "command_queue.c"
   1:command_queue.c **** /* ========================================
   2:command_queue.c ****  *
   3:command_queue.c ****  * Copyright YOUR COMPANY, THE YEAR
   4:command_queue.c ****  * All Rights Reserved
   5:command_queue.c ****  * UNPUBLISHED, LICENSED SOFTWARE.
   6:command_queue.c ****  *
   7:command_queue.c ****  * CONFIDENTIAL AND PROPRIETARY INFORMATION
   8:command_queue.c ****  * WHICH IS THE PROPERTY OF your company.
   9:command_queue.c ****  *
  10:command_queue.c ****  * ========================================
  11:command_queue.c **** */
  12:command_queue.c **** 
  13:command_queue.c **** #include "command_queue.h"
  14:command_queue.c **** #include "main.h"
  15:command_queue.c **** 
  16:command_queue.c **** void InitQueue(PQueue queue){
  29              		.loc 1 16 0
  30              		.cfi_startproc
  31              		@ args = 0, pretend = 0, frame = 0
  32              		@ frame_needed = 0, uses_anonymous_args = 0
  33              	.LVL0:
  34 0000 10B5     		push	{r4, lr}
  35              		.cfi_def_cfa_offset 8
  36              		.cfi_offset 4, -8
  37              		.cfi_offset 14, -4
  38 0002 0446     		mov	r4, r0
  17:command_queue.c **** 	queue->Front = queue->Rear = (PNODE)malloc(sizeof(NODE));
  39              		.loc 1 17 0
  40 0004 4420     		movs	r0, #68
ARM GAS  C:\Users\cmila\AppData\Local\Temp\cciunhHD.s 			page 2


  41              	.LVL1:
  42 0006 FFF7FEFF 		bl	malloc
  43              	.LVL2:
  44 000a 6060     		str	r0, [r4, #4]
  45 000c 2060     		str	r0, [r4]
  18:command_queue.c **** 	if (queue->Front != NULL) {
  46              		.loc 1 18 0
  47 000e 08B1     		cbz	r0, .L1
  19:command_queue.c **** 		queue->Front->Next = NULL;
  48              		.loc 1 19 0
  49 0010 0023     		movs	r3, #0
  50 0012 0364     		str	r3, [r0, #64]
  51              	.L1:
  52 0014 10BD     		pop	{r4, pc}
  53              		.cfi_endproc
  54              	.LFE597:
  55              		.size	InitQueue, .-InitQueue
  56 0016 00BF     		.section	.text.IsEmptyQueue,"ax",%progbits
  57              		.align	2
  58              		.global	IsEmptyQueue
  59              		.thumb
  60              		.thumb_func
  61              		.type	IsEmptyQueue, %function
  62              	IsEmptyQueue:
  63              	.LFB598:
  20:command_queue.c **** 	}else{
  21:command_queue.c **** 		//should reboot here
  22:command_queue.c **** 		
  23:command_queue.c **** 	}
  24:command_queue.c **** }
  25:command_queue.c **** 
  26:command_queue.c **** uint8_t IsEmptyQueue(PQueue queue) {
  64              		.loc 1 26 0
  65              		.cfi_startproc
  66              		@ args = 0, pretend = 0, frame = 0
  67              		@ frame_needed = 0, uses_anonymous_args = 0
  68              		@ link register save eliminated.
  69              	.LVL3:
  27:command_queue.c ****     if (queue->Front == queue->Rear) {
  70              		.loc 1 27 0
  71 0000 0268     		ldr	r2, [r0]
  72 0002 4368     		ldr	r3, [r0, #4]
  73 0004 9A42     		cmp	r2, r3
  74 0006 01D1     		bne	.L6
  28:command_queue.c ****         return 1;
  75              		.loc 1 28 0
  76 0008 0120     		movs	r0, #1
  77              	.LVL4:
  78 000a 7047     		bx	lr
  79              	.LVL5:
  80              	.L6:
  29:command_queue.c ****     }
  30:command_queue.c ****     else {
  31:command_queue.c ****         return 0;
  81              		.loc 1 31 0
  82 000c 0020     		movs	r0, #0
  83              	.LVL6:
ARM GAS  C:\Users\cmila\AppData\Local\Temp\cciunhHD.s 			page 3


  32:command_queue.c ****     }
  33:command_queue.c **** }
  84              		.loc 1 33 0
  85 000e 7047     		bx	lr
  86              		.cfi_endproc
  87              	.LFE598:
  88              		.size	IsEmptyQueue, .-IsEmptyQueue
  89              		.section	.text.EnQueue,"ax",%progbits
  90              		.align	2
  91              		.global	EnQueue
  92              		.thumb
  93              		.thumb_func
  94              		.type	EnQueue, %function
  95              	EnQueue:
  96              	.LFB599:
  34:command_queue.c **** 
  35:command_queue.c **** void EnQueue(PQueue queue, uint8_t *commands,uint8_t commands_len) {
  97              		.loc 1 35 0
  98              		.cfi_startproc
  99              		@ args = 0, pretend = 0, frame = 0
 100              		@ frame_needed = 0, uses_anonymous_args = 0
 101              	.LVL7:
 102 0000 F8B5     		push	{r3, r4, r5, r6, r7, lr}
 103              		.cfi_def_cfa_offset 24
 104              		.cfi_offset 3, -24
 105              		.cfi_offset 4, -20
 106              		.cfi_offset 5, -16
 107              		.cfi_offset 6, -12
 108              		.cfi_offset 7, -8
 109              		.cfi_offset 14, -4
 110 0002 0546     		mov	r5, r0
 111 0004 0E46     		mov	r6, r1
 112 0006 1746     		mov	r7, r2
  36:command_queue.c ****     PNODE P = (PNODE)calloc(1,sizeof(NODE));
 113              		.loc 1 36 0
 114 0008 4421     		movs	r1, #68
 115              	.LVL8:
 116 000a 0120     		movs	r0, #1
 117              	.LVL9:
 118 000c FFF7FEFF 		bl	calloc
 119              	.LVL10:
  37:command_queue.c ****     if (P != NULL) {
 120              		.loc 1 37 0
 121 0010 48B1     		cbz	r0, .L7
 122 0012 0446     		mov	r4, r0
  38:command_queue.c ****     	memcpy(P->command,commands,commands_len);
 123              		.loc 1 38 0
 124 0014 3A46     		mov	r2, r7
 125 0016 3146     		mov	r1, r6
 126 0018 FFF7FEFF 		bl	memcpy
 127              	.LVL11:
  39:command_queue.c **** 		P->Next = NULL;
 128              		.loc 1 39 0
 129 001c 0023     		movs	r3, #0
 130 001e 2364     		str	r3, [r4, #64]
  40:command_queue.c **** 		queue->Rear->Next = P;
 131              		.loc 1 40 0
ARM GAS  C:\Users\cmila\AppData\Local\Temp\cciunhHD.s 			page 4


 132 0020 6B68     		ldr	r3, [r5, #4]
 133 0022 1C64     		str	r4, [r3, #64]
  41:command_queue.c **** 		queue->Rear = P;
 134              		.loc 1 41 0
 135 0024 6C60     		str	r4, [r5, #4]
 136              	.LVL12:
 137              	.L7:
 138 0026 F8BD     		pop	{r3, r4, r5, r6, r7, pc}
 139              		.cfi_endproc
 140              	.LFE599:
 141              		.size	EnQueue, .-EnQueue
 142              		.section	.text.DeQueue,"ax",%progbits
 143              		.align	2
 144              		.global	DeQueue
 145              		.thumb
 146              		.thumb_func
 147              		.type	DeQueue, %function
 148              	DeQueue:
 149              	.LFB600:
  42:command_queue.c ****     }
  43:command_queue.c **** }
  44:command_queue.c **** 
  45:command_queue.c **** void DeQueue(PQueue queue,uint8_t *commands) {
 150              		.loc 1 45 0
 151              		.cfi_startproc
 152              		@ args = 0, pretend = 0, frame = 0
 153              		@ frame_needed = 0, uses_anonymous_args = 0
 154              	.LVL13:
 155 0000 38B5     		push	{r3, r4, r5, lr}
 156              		.cfi_def_cfa_offset 16
 157              		.cfi_offset 3, -16
 158              		.cfi_offset 4, -12
 159              		.cfi_offset 5, -8
 160              		.cfi_offset 14, -4
 161 0002 0446     		mov	r4, r0
 162 0004 0D46     		mov	r5, r1
  46:command_queue.c ****     if (IsEmptyQueue(queue)!=1) {
 163              		.loc 1 46 0
 164 0006 FFF7FEFF 		bl	IsEmptyQueue
 165              	.LVL14:
 166 000a 0128     		cmp	r0, #1
 167 000c 0FD0     		beq	.L10
 168              	.LBB2:
  47:command_queue.c ****     	PNODE  P= queue->Front->Next;
 169              		.loc 1 47 0
 170 000e 2368     		ldr	r3, [r4]
 171 0010 186C     		ldr	r0, [r3, #64]
 172              	.LVL15:
  48:command_queue.c ****     	memcpy(commands,P->command,5);
 173              		.loc 1 48 0
 174 0012 0368     		ldr	r3, [r0]	@ unaligned
 175 0014 2B60     		str	r3, [r5]	@ unaligned
 176 0016 0379     		ldrb	r3, [r0, #4]	@ zero_extendqisi2
 177 0018 2B71     		strb	r3, [r5, #4]
  49:command_queue.c **** 		queue->Front->Next = P->Next;
 178              		.loc 1 49 0
 179 001a 2368     		ldr	r3, [r4]
ARM GAS  C:\Users\cmila\AppData\Local\Temp\cciunhHD.s 			page 5


 180 001c 026C     		ldr	r2, [r0, #64]
 181 001e 1A64     		str	r2, [r3, #64]
  50:command_queue.c **** 		if (queue->Rear==P)
 182              		.loc 1 50 0
 183 0020 6368     		ldr	r3, [r4, #4]
 184 0022 9842     		cmp	r0, r3
 185 0024 01D1     		bne	.L12
  51:command_queue.c **** 			queue->Rear = queue->Front;
 186              		.loc 1 51 0
 187 0026 2368     		ldr	r3, [r4]
 188 0028 6360     		str	r3, [r4, #4]
 189              	.L12:
  52:command_queue.c **** 		free(P);
 190              		.loc 1 52 0
 191 002a FFF7FEFF 		bl	free
 192              	.LVL16:
 193              	.L10:
 194 002e 38BD     		pop	{r3, r4, r5, pc}
 195              	.LBE2:
 196              		.cfi_endproc
 197              	.LFE600:
 198              		.size	DeQueue, .-DeQueue
 199              		.section	.text.DestroyQueue,"ax",%progbits
 200              		.align	2
 201              		.global	DestroyQueue
 202              		.thumb
 203              		.thumb_func
 204              		.type	DestroyQueue, %function
 205              	DestroyQueue:
 206              	.LFB601:
  53:command_queue.c **** 		P = NULL;
  54:command_queue.c ****     }
  55:command_queue.c **** }
  56:command_queue.c **** 
  57:command_queue.c **** void DestroyQueue(PQueue queue) {
 207              		.loc 1 57 0
 208              		.cfi_startproc
 209              		@ args = 0, pretend = 0, frame = 0
 210              		@ frame_needed = 0, uses_anonymous_args = 0
 211              	.LVL17:
 212 0000 10B5     		push	{r4, lr}
 213              		.cfi_def_cfa_offset 8
 214              		.cfi_offset 4, -8
 215              		.cfi_offset 14, -4
 216 0002 0446     		mov	r4, r0
  58:command_queue.c ****     while (queue->Front != NULL) {
 217              		.loc 1 58 0
 218 0004 05E0     		b	.L15
 219              	.LVL18:
 220              	.L16:
  59:command_queue.c ****         queue->Rear = queue->Front->Next;
 221              		.loc 1 59 0
 222 0006 036C     		ldr	r3, [r0, #64]
 223 0008 6360     		str	r3, [r4, #4]
  60:command_queue.c ****         free(queue->Front);
 224              		.loc 1 60 0
 225 000a FFF7FEFF 		bl	free
ARM GAS  C:\Users\cmila\AppData\Local\Temp\cciunhHD.s 			page 6


 226              	.LVL19:
  61:command_queue.c ****         queue->Front = queue->Rear;
 227              		.loc 1 61 0
 228 000e 6368     		ldr	r3, [r4, #4]
 229 0010 2360     		str	r3, [r4]
 230              	.L15:
  58:command_queue.c ****         queue->Rear = queue->Front->Next;
 231              		.loc 1 58 0
 232 0012 2068     		ldr	r0, [r4]
 233 0014 0028     		cmp	r0, #0
 234 0016 F6D1     		bne	.L16
  62:command_queue.c ****     }
  63:command_queue.c **** }
 235              		.loc 1 63 0
 236 0018 10BD     		pop	{r4, pc}
 237              		.cfi_endproc
 238              	.LFE601:
 239              		.size	DestroyQueue, .-DestroyQueue
 240              		.global	dacWrite
 241              		.comm	current_phase,4,4
 242              		.comm	SHORT_ELECTRODE,1,1
 243              		.comm	RAMP_UP,1,1
 244              		.comm	PULSE_NUM_IN_ONE_BURST,4,4
 245              		.comm	INTER_BURST_DELAY,4,4
 246              		.comm	BURST_NUM,4,4
 247              		.comm	STIM_TYPE,1,1
 248              		.comm	ANODIC_CATHODIC,1,1
 249              		.comm	PULSE_NUM,4,4
 250              		.comm	INTER_STIM_DELAY,4,4
 251              		.comm	INTER_PHASE_GAP,4,4
 252              		.comm	PHASE_TWO_TIME,4,4
 253              		.comm	PHASE_ONE_TIME,4,4
 254              		.comm	STIM_AMP,2,2
 255              		.comm	COMMAND_QUEUE,8,4
 256 001a 00BF     		.data
 257              		.align	2
 258              		.type	dacWrite, %object
 259              		.size	dacWrite, 4
 260              	dacWrite:
 261 0000 00080000 		.word	2048
 262              		.text
 263              	.Letext0:
 264              		.file 2 "c:\\program files (x86)\\cypress\\psoc creator\\4.4\\psoc creator\\import\\gnu\\arm\\5.4.
 265              		.file 3 "c:\\program files (x86)\\cypress\\psoc creator\\4.4\\psoc creator\\import\\gnu\\arm\\5.4.
 266              		.file 4 "command_queue.h"
 267              		.file 5 "Generated_Source\\PSoC6\\pdl\\drivers/peripheral/device/cy_device.h"
 268              		.file 6 "Generated_Source\\PSoC6\\pdl\\drivers/peripheral/ctb/cy_ctb.h"
 269              		.file 7 "Generated_Source\\PSoC6\\pdl\\drivers/peripheral/sysclk/cy_sysclk.h"
 270              		.file 8 "Generated_Source\\PSoC6\\pdl\\drivers/peripheral/ctdac/cy_ctdac.h"
 271              		.file 9 "Generated_Source\\PSoC6\\pdl\\drivers/peripheral/scb/cy_scb_uart.h"
 272              		.file 10 "Generated_Source\\PSoC6\\pdl\\drivers/peripheral/tcpwm/cy_tcpwm_counter.h"
 273              		.file 11 "Generated_Source\\PSoC6\\pdl\\cmsis/include/core_cm4.h"
 274              		.file 12 "Generated_Source\\PSoC6/Timer.h"
 275              		.file 13 "Generated_Source\\PSoC6/UART.h"
 276              		.file 14 "Generated_Source\\PSoC6/VDAC_1.h"
 277              		.file 15 "main.h"
 278              		.file 16 "c:\\program files (x86)\\cypress\\psoc creator\\4.4\\psoc creator\\import\\gnu\\arm\\5.4
ARM GAS  C:\Users\cmila\AppData\Local\Temp\cciunhHD.s 			page 7

