ARM GAS  C:\Users\subra\AppData\Local\Temp\cckfOUaB.s 			page 1


   1              		.syntax unified
   2              		.cpu cortex-m3
   3              		.fpu softvfp
   4              		.eabi_attribute 20, 1
   5              		.eabi_attribute 21, 1
   6              		.eabi_attribute 23, 3
   7              		.eabi_attribute 24, 1
   8              		.eabi_attribute 25, 1
   9              		.eabi_attribute 26, 1
  10              		.eabi_attribute 30, 6
  11              		.eabi_attribute 34, 1
  12              		.eabi_attribute 18, 4
  13              		.thumb
  14              		.syntax unified
  15              		.file	"CySpc.c"
  16              		.text
  17              	.Ltext0:
  18              		.cfi_sections	.debug_frame
  19              		.global	SpcLockState
  20              		.bss
  21              		.type	SpcLockState, %object
  22              		.size	SpcLockState, 1
  23              	SpcLockState:
  24 0000 00       		.space	1
  25 0001 000000   		.align	2
  26              	spcWaitPipeBypass:
  27 0004 00000000 		.space	4
  28              		.section	.text.CySpcStart,"ax",%progbits
  29              		.align	2
  30              		.global	CySpcStart
  31              		.thumb
  32              		.thumb_func
  33              		.type	CySpcStart, %function
  34              	CySpcStart:
  35              	.LFB0:
  36              		.file 1 "Generated_Source\\PSoC5\\CySpc.c"
   1:Generated_Source\PSoC5/CySpc.c **** /***************************************************************************//**
   2:Generated_Source\PSoC5/CySpc.c **** * \file CySpc.c
   3:Generated_Source\PSoC5/CySpc.c **** * \version 5.70
   4:Generated_Source\PSoC5/CySpc.c **** *
   5:Generated_Source\PSoC5/CySpc.c **** * \brief Provides an API for the System Performance Component.
   6:Generated_Source\PSoC5/CySpc.c **** * The SPC functions are not meant to be called directly by the user
   7:Generated_Source\PSoC5/CySpc.c **** * application.
   8:Generated_Source\PSoC5/CySpc.c **** *
   9:Generated_Source\PSoC5/CySpc.c **** ********************************************************************************
  10:Generated_Source\PSoC5/CySpc.c **** * \copyright
  11:Generated_Source\PSoC5/CySpc.c **** * Copyright 2008-2018, Cypress Semiconductor Corporation.  All rights reserved.
  12:Generated_Source\PSoC5/CySpc.c **** * You may use this file only in accordance with the license, terms, conditions,
  13:Generated_Source\PSoC5/CySpc.c **** * disclaimers, and limitations in the end user license agreement accompanying
  14:Generated_Source\PSoC5/CySpc.c **** * the software package with which this file was provided.
  15:Generated_Source\PSoC5/CySpc.c **** *******************************************************************************/
  16:Generated_Source\PSoC5/CySpc.c **** 
  17:Generated_Source\PSoC5/CySpc.c **** #include "CySpc.h"
  18:Generated_Source\PSoC5/CySpc.c **** 
  19:Generated_Source\PSoC5/CySpc.c **** #define CY_SPC_KEY_ONE                      (0xB6u)
  20:Generated_Source\PSoC5/CySpc.c **** #define CY_SPC_KEY_TWO(x)                   ((uint8) (((uint16) 0xD3u) + ((uint16) (x))))
  21:Generated_Source\PSoC5/CySpc.c **** 
ARM GAS  C:\Users\subra\AppData\Local\Temp\cckfOUaB.s 			page 2


  22:Generated_Source\PSoC5/CySpc.c **** /* Command Codes */
  23:Generated_Source\PSoC5/CySpc.c **** #define CY_SPC_CMD_LD_BYTE                  (0x00u)
  24:Generated_Source\PSoC5/CySpc.c **** #define CY_SPC_CMD_LD_MULTI_BYTE            (0x01u)
  25:Generated_Source\PSoC5/CySpc.c **** #define CY_SPC_CMD_LD_ROW                   (0x02u)
  26:Generated_Source\PSoC5/CySpc.c **** #define CY_SPC_CMD_RD_BYTE                  (0x03u)
  27:Generated_Source\PSoC5/CySpc.c **** #define CY_SPC_CMD_RD_MULTI_BYTE            (0x04u)
  28:Generated_Source\PSoC5/CySpc.c **** #define CY_SPC_CMD_WR_ROW                   (0x05u)
  29:Generated_Source\PSoC5/CySpc.c **** #define CY_SPC_CMD_WR_USER_NVL              (0x06u)
  30:Generated_Source\PSoC5/CySpc.c **** #define CY_SPC_CMD_PRG_ROW                  (0x07u)
  31:Generated_Source\PSoC5/CySpc.c **** #define CY_SPC_CMD_ER_SECTOR                (0x08u)
  32:Generated_Source\PSoC5/CySpc.c **** #define CY_SPC_CMD_ER_ALL                   (0x09u)
  33:Generated_Source\PSoC5/CySpc.c **** #define CY_SPC_CMD_RD_HIDDEN                (0x0Au)
  34:Generated_Source\PSoC5/CySpc.c **** #define CY_SPC_CMD_PRG_PROTECT              (0x0Bu)
  35:Generated_Source\PSoC5/CySpc.c **** #define CY_SPC_CMD_CHECKSUM                 (0x0Cu)
  36:Generated_Source\PSoC5/CySpc.c **** #define CY_SPC_CMD_DWNLD_ALGORITHM          (0x0Du)
  37:Generated_Source\PSoC5/CySpc.c **** #define CY_SPC_CMD_GET_TEMP                 (0x0Eu)
  38:Generated_Source\PSoC5/CySpc.c **** #define CY_SPC_CMD_GET_ADC                  (0x0Fu)
  39:Generated_Source\PSoC5/CySpc.c **** #define CY_SPC_CMD_RD_NVL_VOLATILE          (0x10u)
  40:Generated_Source\PSoC5/CySpc.c **** #define CY_SPC_CMD_SETUP_TS                 (0x11u)
  41:Generated_Source\PSoC5/CySpc.c **** #define CY_SPC_CMD_DISABLE_TS               (0x12u)
  42:Generated_Source\PSoC5/CySpc.c **** #define CY_SPC_CMD_ER_ROW                   (0x13u)
  43:Generated_Source\PSoC5/CySpc.c **** 
  44:Generated_Source\PSoC5/CySpc.c **** /* Enable bit in Active and Alternate Active mode templates */
  45:Generated_Source\PSoC5/CySpc.c **** #define PM_SPC_PM_EN                        (0x08u)
  46:Generated_Source\PSoC5/CySpc.c **** 
  47:Generated_Source\PSoC5/CySpc.c **** /* Gate calls to the SPC. */
  48:Generated_Source\PSoC5/CySpc.c **** uint8 SpcLockState = CY_SPC_UNLOCKED;
  49:Generated_Source\PSoC5/CySpc.c **** 
  50:Generated_Source\PSoC5/CySpc.c **** 
  51:Generated_Source\PSoC5/CySpc.c **** #if(CY_PSOC5)
  52:Generated_Source\PSoC5/CySpc.c **** 
  53:Generated_Source\PSoC5/CySpc.c ****     /***************************************************************************
  54:Generated_Source\PSoC5/CySpc.c ****     * The wait-state pipeline must be enabled prior to accessing the SPC
  55:Generated_Source\PSoC5/CySpc.c ****     * register interface regardless of CPU frequency. The CySpcLock() saves
  56:Generated_Source\PSoC5/CySpc.c ****     * current wait-state pipeline state and enables it. The CySpcUnlock()
  57:Generated_Source\PSoC5/CySpc.c ****     * function, which must be called after SPC transaction, restores original
  58:Generated_Source\PSoC5/CySpc.c ****     * state.
  59:Generated_Source\PSoC5/CySpc.c ****     ***************************************************************************/
  60:Generated_Source\PSoC5/CySpc.c ****     static uint32 spcWaitPipeBypass = 0u;
  61:Generated_Source\PSoC5/CySpc.c **** 
  62:Generated_Source\PSoC5/CySpc.c **** #endif  /* (CY_PSOC5) */
  63:Generated_Source\PSoC5/CySpc.c **** 
  64:Generated_Source\PSoC5/CySpc.c **** 
  65:Generated_Source\PSoC5/CySpc.c **** /*******************************************************************************
  66:Generated_Source\PSoC5/CySpc.c **** * Function Name: CySpcStart
  67:Generated_Source\PSoC5/CySpc.c **** ****************************************************************************//**
  68:Generated_Source\PSoC5/CySpc.c **** *  Starts the SPC.
  69:Generated_Source\PSoC5/CySpc.c **** *
  70:Generated_Source\PSoC5/CySpc.c **** *******************************************************************************/
  71:Generated_Source\PSoC5/CySpc.c **** void CySpcStart(void) 
  72:Generated_Source\PSoC5/CySpc.c **** {
  37              		.loc 1 72 0
  38              		.cfi_startproc
  39              		@ args = 0, pretend = 0, frame = 8
  40              		@ frame_needed = 1, uses_anonymous_args = 0
  41 0000 80B5     		push	{r7, lr}
  42              		.cfi_def_cfa_offset 8
ARM GAS  C:\Users\subra\AppData\Local\Temp\cckfOUaB.s 			page 3


  43              		.cfi_offset 7, -8
  44              		.cfi_offset 14, -4
  45 0002 82B0     		sub	sp, sp, #8
  46              		.cfi_def_cfa_offset 16
  47 0004 00AF     		add	r7, sp, #0
  48              		.cfi_def_cfa_register 7
  73:Generated_Source\PSoC5/CySpc.c ****     /* Save current global interrupt enable and disable it */
  74:Generated_Source\PSoC5/CySpc.c ****     uint8 interruptState = CyEnterCriticalSection();
  49              		.loc 1 74 0
  50 0006 FFF7FEFF 		bl	CyEnterCriticalSection
  51 000a 0346     		mov	r3, r0
  52 000c FB71     		strb	r3, [r7, #7]
  75:Generated_Source\PSoC5/CySpc.c **** 
  76:Generated_Source\PSoC5/CySpc.c ****     CY_SPC_PM_ACT_REG  |= PM_SPC_PM_EN;
  53              		.loc 1 76 0
  54 000e 0C4A     		ldr	r2, .L2
  55 0010 0B4B     		ldr	r3, .L2
  56 0012 1B78     		ldrb	r3, [r3]
  57 0014 DBB2     		uxtb	r3, r3
  58 0016 43F00803 		orr	r3, r3, #8
  59 001a DBB2     		uxtb	r3, r3
  60 001c 1370     		strb	r3, [r2]
  77:Generated_Source\PSoC5/CySpc.c ****     CY_SPC_PM_STBY_REG |= PM_SPC_PM_EN;
  61              		.loc 1 77 0
  62 001e 094A     		ldr	r2, .L2+4
  63 0020 084B     		ldr	r3, .L2+4
  64 0022 1B78     		ldrb	r3, [r3]
  65 0024 DBB2     		uxtb	r3, r3
  66 0026 43F00803 		orr	r3, r3, #8
  67 002a DBB2     		uxtb	r3, r3
  68 002c 1370     		strb	r3, [r2]
  78:Generated_Source\PSoC5/CySpc.c **** 
  79:Generated_Source\PSoC5/CySpc.c ****     /* Restore global interrupt enable state */
  80:Generated_Source\PSoC5/CySpc.c ****     CyExitCriticalSection(interruptState);
  69              		.loc 1 80 0
  70 002e FB79     		ldrb	r3, [r7, #7]	@ zero_extendqisi2
  71 0030 1846     		mov	r0, r3
  72 0032 FFF7FEFF 		bl	CyExitCriticalSection
  81:Generated_Source\PSoC5/CySpc.c **** }
  73              		.loc 1 81 0
  74 0036 00BF     		nop
  75 0038 0837     		adds	r7, r7, #8
  76              		.cfi_def_cfa_offset 8
  77 003a BD46     		mov	sp, r7
  78              		.cfi_def_cfa_register 13
  79              		@ sp needed
  80 003c 80BD     		pop	{r7, pc}
  81              	.L3:
  82 003e 00BF     		.align	2
  83              	.L2:
  84 0040 A0430040 		.word	1073759136
  85 0044 B0430040 		.word	1073759152
  86              		.cfi_endproc
  87              	.LFE0:
  88              		.size	CySpcStart, .-CySpcStart
  89              		.section	.text.CySpcStop,"ax",%progbits
  90              		.align	2
ARM GAS  C:\Users\subra\AppData\Local\Temp\cckfOUaB.s 			page 4


  91              		.global	CySpcStop
  92              		.thumb
  93              		.thumb_func
  94              		.type	CySpcStop, %function
  95              	CySpcStop:
  96              	.LFB1:
  82:Generated_Source\PSoC5/CySpc.c **** 
  83:Generated_Source\PSoC5/CySpc.c **** 
  84:Generated_Source\PSoC5/CySpc.c **** /*******************************************************************************
  85:Generated_Source\PSoC5/CySpc.c **** * Function Name: CySpcStop
  86:Generated_Source\PSoC5/CySpc.c **** ****************************************************************************//**
  87:Generated_Source\PSoC5/CySpc.c **** *  Stops the SPC.
  88:Generated_Source\PSoC5/CySpc.c **** *
  89:Generated_Source\PSoC5/CySpc.c **** *******************************************************************************/
  90:Generated_Source\PSoC5/CySpc.c **** void CySpcStop(void) 
  91:Generated_Source\PSoC5/CySpc.c **** {
  97              		.loc 1 91 0
  98              		.cfi_startproc
  99              		@ args = 0, pretend = 0, frame = 8
 100              		@ frame_needed = 1, uses_anonymous_args = 0
 101 0000 80B5     		push	{r7, lr}
 102              		.cfi_def_cfa_offset 8
 103              		.cfi_offset 7, -8
 104              		.cfi_offset 14, -4
 105 0002 82B0     		sub	sp, sp, #8
 106              		.cfi_def_cfa_offset 16
 107 0004 00AF     		add	r7, sp, #0
 108              		.cfi_def_cfa_register 7
  92:Generated_Source\PSoC5/CySpc.c ****     /* Save current global interrupt enable and disable it */
  93:Generated_Source\PSoC5/CySpc.c ****     uint8 interruptState = CyEnterCriticalSection();
 109              		.loc 1 93 0
 110 0006 FFF7FEFF 		bl	CyEnterCriticalSection
 111 000a 0346     		mov	r3, r0
 112 000c FB71     		strb	r3, [r7, #7]
  94:Generated_Source\PSoC5/CySpc.c **** 
  95:Generated_Source\PSoC5/CySpc.c ****     CY_SPC_PM_ACT_REG  &= ((uint8)(~PM_SPC_PM_EN));
 113              		.loc 1 95 0
 114 000e 0C4A     		ldr	r2, .L5
 115 0010 0B4B     		ldr	r3, .L5
 116 0012 1B78     		ldrb	r3, [r3]
 117 0014 DBB2     		uxtb	r3, r3
 118 0016 23F00803 		bic	r3, r3, #8
 119 001a DBB2     		uxtb	r3, r3
 120 001c 1370     		strb	r3, [r2]
  96:Generated_Source\PSoC5/CySpc.c ****     CY_SPC_PM_STBY_REG &= ((uint8)(~PM_SPC_PM_EN));
 121              		.loc 1 96 0
 122 001e 094A     		ldr	r2, .L5+4
 123 0020 084B     		ldr	r3, .L5+4
 124 0022 1B78     		ldrb	r3, [r3]
 125 0024 DBB2     		uxtb	r3, r3
 126 0026 23F00803 		bic	r3, r3, #8
 127 002a DBB2     		uxtb	r3, r3
 128 002c 1370     		strb	r3, [r2]
  97:Generated_Source\PSoC5/CySpc.c **** 
  98:Generated_Source\PSoC5/CySpc.c ****     /* Restore global interrupt enable state */
  99:Generated_Source\PSoC5/CySpc.c ****     CyExitCriticalSection(interruptState);
 129              		.loc 1 99 0
ARM GAS  C:\Users\subra\AppData\Local\Temp\cckfOUaB.s 			page 5


 130 002e FB79     		ldrb	r3, [r7, #7]	@ zero_extendqisi2
 131 0030 1846     		mov	r0, r3
 132 0032 FFF7FEFF 		bl	CyExitCriticalSection
 100:Generated_Source\PSoC5/CySpc.c **** }
 133              		.loc 1 100 0
 134 0036 00BF     		nop
 135 0038 0837     		adds	r7, r7, #8
 136              		.cfi_def_cfa_offset 8
 137 003a BD46     		mov	sp, r7
 138              		.cfi_def_cfa_register 13
 139              		@ sp needed
 140 003c 80BD     		pop	{r7, pc}
 141              	.L6:
 142 003e 00BF     		.align	2
 143              	.L5:
 144 0040 A0430040 		.word	1073759136
 145 0044 B0430040 		.word	1073759152
 146              		.cfi_endproc
 147              	.LFE1:
 148              		.size	CySpcStop, .-CySpcStop
 149              		.section	.text.CySpcReadData,"ax",%progbits
 150              		.align	2
 151              		.global	CySpcReadData
 152              		.thumb
 153              		.thumb_func
 154              		.type	CySpcReadData, %function
 155              	CySpcReadData:
 156              	.LFB2:
 101:Generated_Source\PSoC5/CySpc.c **** 
 102:Generated_Source\PSoC5/CySpc.c **** 
 103:Generated_Source\PSoC5/CySpc.c **** /*******************************************************************************
 104:Generated_Source\PSoC5/CySpc.c **** * Function Name: CySpcReadData
 105:Generated_Source\PSoC5/CySpc.c **** ****************************************************************************//**
 106:Generated_Source\PSoC5/CySpc.c **** *  Reads data from the SPC.
 107:Generated_Source\PSoC5/CySpc.c **** *
 108:Generated_Source\PSoC5/CySpc.c **** *  \param uint8 buffer:
 109:Generated_Source\PSoC5/CySpc.c **** *   Address to store data read.
 110:Generated_Source\PSoC5/CySpc.c **** *
 111:Generated_Source\PSoC5/CySpc.c **** *  \param uint8 size:
 112:Generated_Source\PSoC5/CySpc.c **** *   Number of bytes to read from the SPC.
 113:Generated_Source\PSoC5/CySpc.c **** *
 114:Generated_Source\PSoC5/CySpc.c **** * \return
 115:Generated_Source\PSoC5/CySpc.c **** *  uint8:
 116:Generated_Source\PSoC5/CySpc.c **** *   The number of bytes read from the SPC.
 117:Generated_Source\PSoC5/CySpc.c **** *
 118:Generated_Source\PSoC5/CySpc.c **** *******************************************************************************/
 119:Generated_Source\PSoC5/CySpc.c **** uint8 CySpcReadData(uint8 buffer[], uint8 size) 
 120:Generated_Source\PSoC5/CySpc.c **** {
 157              		.loc 1 120 0
 158              		.cfi_startproc
 159              		@ args = 0, pretend = 0, frame = 16
 160              		@ frame_needed = 1, uses_anonymous_args = 0
 161 0000 80B5     		push	{r7, lr}
 162              		.cfi_def_cfa_offset 8
 163              		.cfi_offset 7, -8
 164              		.cfi_offset 14, -4
 165 0002 84B0     		sub	sp, sp, #16
ARM GAS  C:\Users\subra\AppData\Local\Temp\cckfOUaB.s 			page 6


 166              		.cfi_def_cfa_offset 24
 167 0004 00AF     		add	r7, sp, #0
 168              		.cfi_def_cfa_register 7
 169 0006 7860     		str	r0, [r7, #4]
 170 0008 0B46     		mov	r3, r1
 171 000a FB70     		strb	r3, [r7, #3]
 121:Generated_Source\PSoC5/CySpc.c ****     uint8 i;
 122:Generated_Source\PSoC5/CySpc.c **** 
 123:Generated_Source\PSoC5/CySpc.c ****     for(i = 0u; i < size; i++)
 172              		.loc 1 123 0
 173 000c 0023     		movs	r3, #0
 174 000e FB73     		strb	r3, [r7, #15]
 175 0010 13E0     		b	.L8
 176              	.L10:
 124:Generated_Source\PSoC5/CySpc.c ****     {
 125:Generated_Source\PSoC5/CySpc.c ****         while(!CY_SPC_DATA_READY)
 126:Generated_Source\PSoC5/CySpc.c ****         {
 127:Generated_Source\PSoC5/CySpc.c ****             CyDelayUs(1u);
 177              		.loc 1 127 0
 178 0012 0120     		movs	r0, #1
 179 0014 FFF7FEFF 		bl	CyDelayUs
 180              	.L9:
 125:Generated_Source\PSoC5/CySpc.c ****         {
 181              		.loc 1 125 0
 182 0018 0C4B     		ldr	r3, .L13
 183 001a 1B78     		ldrb	r3, [r3]
 184 001c DBB2     		uxtb	r3, r3
 185 001e 03F00103 		and	r3, r3, #1
 186 0022 002B     		cmp	r3, #0
 187 0024 F5D0     		beq	.L10
 128:Generated_Source\PSoC5/CySpc.c ****         }
 129:Generated_Source\PSoC5/CySpc.c ****         buffer[i] = CY_SPC_CPU_DATA_REG;
 188              		.loc 1 129 0 discriminator 2
 189 0026 FB7B     		ldrb	r3, [r7, #15]	@ zero_extendqisi2
 190 0028 7A68     		ldr	r2, [r7, #4]
 191 002a 1344     		add	r3, r3, r2
 192 002c 084A     		ldr	r2, .L13+4
 193 002e 1278     		ldrb	r2, [r2]
 194 0030 D2B2     		uxtb	r2, r2
 195 0032 1A70     		strb	r2, [r3]
 123:Generated_Source\PSoC5/CySpc.c ****     {
 196              		.loc 1 123 0 discriminator 2
 197 0034 FB7B     		ldrb	r3, [r7, #15]	@ zero_extendqisi2
 198 0036 0133     		adds	r3, r3, #1
 199 0038 FB73     		strb	r3, [r7, #15]
 200              	.L8:
 123:Generated_Source\PSoC5/CySpc.c ****     {
 201              		.loc 1 123 0 is_stmt 0 discriminator 1
 202 003a FA7B     		ldrb	r2, [r7, #15]	@ zero_extendqisi2
 203 003c FB78     		ldrb	r3, [r7, #3]	@ zero_extendqisi2
 204 003e 9A42     		cmp	r2, r3
 205 0040 EAD3     		bcc	.L9
 130:Generated_Source\PSoC5/CySpc.c ****     }
 131:Generated_Source\PSoC5/CySpc.c **** 
 132:Generated_Source\PSoC5/CySpc.c ****     return(i);
 206              		.loc 1 132 0 is_stmt 1
 207 0042 FB7B     		ldrb	r3, [r7, #15]	@ zero_extendqisi2
ARM GAS  C:\Users\subra\AppData\Local\Temp\cckfOUaB.s 			page 7


 133:Generated_Source\PSoC5/CySpc.c **** }
 208              		.loc 1 133 0
 209 0044 1846     		mov	r0, r3
 210 0046 1037     		adds	r7, r7, #16
 211              		.cfi_def_cfa_offset 8
 212 0048 BD46     		mov	sp, r7
 213              		.cfi_def_cfa_register 13
 214              		@ sp needed
 215 004a 80BD     		pop	{r7, pc}
 216              	.L14:
 217              		.align	2
 218              	.L13:
 219 004c 22470040 		.word	1073760034
 220 0050 20470040 		.word	1073760032
 221              		.cfi_endproc
 222              	.LFE2:
 223              		.size	CySpcReadData, .-CySpcReadData
 224              		.section	.text.CySpcLoadMultiByte,"ax",%progbits
 225              		.align	2
 226              		.global	CySpcLoadMultiByte
 227              		.thumb
 228              		.thumb_func
 229              		.type	CySpcLoadMultiByte, %function
 230              	CySpcLoadMultiByte:
 231              	.LFB3:
 134:Generated_Source\PSoC5/CySpc.c **** 
 135:Generated_Source\PSoC5/CySpc.c **** 
 136:Generated_Source\PSoC5/CySpc.c **** /*******************************************************************************
 137:Generated_Source\PSoC5/CySpc.c **** * Function Name: CySpcLoadMultiByte
 138:Generated_Source\PSoC5/CySpc.c **** ****************************************************************************//**
 139:Generated_Source\PSoC5/CySpc.c **** *  Loads 1 to 32 bytes of data into the row latch of a Flash/EEPROM array.
 140:Generated_Source\PSoC5/CySpc.c **** *
 141:Generated_Source\PSoC5/CySpc.c **** *  \param uint8 array:
 142:Generated_Source\PSoC5/CySpc.c **** *   Id of the array.
 143:Generated_Source\PSoC5/CySpc.c **** *
 144:Generated_Source\PSoC5/CySpc.c **** *  \param uint16 address:
 145:Generated_Source\PSoC5/CySpc.c **** *   Flash/eeprom addrress
 146:Generated_Source\PSoC5/CySpc.c **** *
 147:Generated_Source\PSoC5/CySpc.c **** *  \param uint8* buffer:
 148:Generated_Source\PSoC5/CySpc.c **** *   Data to load to the row latch
 149:Generated_Source\PSoC5/CySpc.c **** *
 150:Generated_Source\PSoC5/CySpc.c **** *  \param uint16 number:
 151:Generated_Source\PSoC5/CySpc.c **** *   Number bytes to load.
 152:Generated_Source\PSoC5/CySpc.c **** *
 153:Generated_Source\PSoC5/CySpc.c **** * \return
 154:Generated_Source\PSoC5/CySpc.c **** *  CYRET_STARTED
 155:Generated_Source\PSoC5/CySpc.c **** *  CYRET_CANCELED
 156:Generated_Source\PSoC5/CySpc.c **** *  CYRET_LOCKED
 157:Generated_Source\PSoC5/CySpc.c **** *  CYRET_BAD_PARAM
 158:Generated_Source\PSoC5/CySpc.c **** *
 159:Generated_Source\PSoC5/CySpc.c **** *******************************************************************************/
 160:Generated_Source\PSoC5/CySpc.c **** cystatus CySpcLoadMultiByte(uint8 array, uint16 address, const uint8 buffer[], uint8 size)\
 161:Generated_Source\PSoC5/CySpc.c **** 
 162:Generated_Source\PSoC5/CySpc.c **** {
 232              		.loc 1 162 0
 233              		.cfi_startproc
 234              		@ args = 0, pretend = 0, frame = 16
ARM GAS  C:\Users\subra\AppData\Local\Temp\cckfOUaB.s 			page 8


 235              		@ frame_needed = 1, uses_anonymous_args = 0
 236              		@ link register save eliminated.
 237 0000 80B4     		push	{r7}
 238              		.cfi_def_cfa_offset 4
 239              		.cfi_offset 7, -4
 240 0002 85B0     		sub	sp, sp, #20
 241              		.cfi_def_cfa_offset 24
 242 0004 00AF     		add	r7, sp, #0
 243              		.cfi_def_cfa_register 7
 244 0006 3A60     		str	r2, [r7]
 245 0008 1A46     		mov	r2, r3
 246 000a 0346     		mov	r3, r0
 247 000c FB71     		strb	r3, [r7, #7]
 248 000e 0B46     		mov	r3, r1	@ movhi
 249 0010 BB80     		strh	r3, [r7, #4]	@ movhi
 250 0012 1346     		mov	r3, r2
 251 0014 BB71     		strb	r3, [r7, #6]
 163:Generated_Source\PSoC5/CySpc.c ****     cystatus status = CYRET_STARTED;
 252              		.loc 1 163 0
 253 0016 0723     		movs	r3, #7
 254 0018 FB60     		str	r3, [r7, #12]
 164:Generated_Source\PSoC5/CySpc.c ****     uint8 i;
 165:Generated_Source\PSoC5/CySpc.c **** 
 166:Generated_Source\PSoC5/CySpc.c ****     /***************************************************************************
 167:Generated_Source\PSoC5/CySpc.c ****     * Check if number is correct for array. Number must be less than
 168:Generated_Source\PSoC5/CySpc.c ****     * 32 for Flash or less than 16 for EEPROM.
 169:Generated_Source\PSoC5/CySpc.c ****     ***************************************************************************/
 170:Generated_Source\PSoC5/CySpc.c ****     if(((array < CY_SPC_LAST_FLASH_ARRAYID) && (size < 32u)) ||
 255              		.loc 1 170 0
 256 001a FB79     		ldrb	r3, [r7, #7]	@ zero_extendqisi2
 257 001c 3E2B     		cmp	r3, #62
 258 001e 02D8     		bhi	.L16
 259              		.loc 1 170 0 is_stmt 0 discriminator 1
 260 0020 BB79     		ldrb	r3, [r7, #6]	@ zero_extendqisi2
 261 0022 1F2B     		cmp	r3, #31
 262 0024 05D9     		bls	.L17
 263              	.L16:
 264              		.loc 1 170 0 discriminator 3
 265 0026 FB79     		ldrb	r3, [r7, #7]	@ zero_extendqisi2
 266 0028 3F2B     		cmp	r3, #63
 267 002a 45D9     		bls	.L18
 171:Generated_Source\PSoC5/CySpc.c ****        ((array > CY_SPC_LAST_FLASH_ARRAYID) && (size < 16u)))
 268              		.loc 1 171 0 is_stmt 1
 269 002c BB79     		ldrb	r3, [r7, #6]	@ zero_extendqisi2
 270 002e 0F2B     		cmp	r3, #15
 271 0030 42D8     		bhi	.L18
 272              	.L17:
 172:Generated_Source\PSoC5/CySpc.c ****     {
 173:Generated_Source\PSoC5/CySpc.c ****         if(CY_SPC_IDLE)
 273              		.loc 1 173 0
 274 0032 254B     		ldr	r3, .L27
 275 0034 1B78     		ldrb	r3, [r3]
 276 0036 DBB2     		uxtb	r3, r3
 277 0038 03F00203 		and	r3, r3, #2
 278 003c 002B     		cmp	r3, #0
 279 003e 38D0     		beq	.L19
 174:Generated_Source\PSoC5/CySpc.c ****         {
ARM GAS  C:\Users\subra\AppData\Local\Temp\cckfOUaB.s 			page 9


 175:Generated_Source\PSoC5/CySpc.c ****             CY_SPC_CPU_DATA_REG = CY_SPC_KEY_ONE;
 280              		.loc 1 175 0
 281 0040 224B     		ldr	r3, .L27+4
 282 0042 B622     		movs	r2, #182
 283 0044 1A70     		strb	r2, [r3]
 176:Generated_Source\PSoC5/CySpc.c ****             CY_SPC_CPU_DATA_REG = CY_SPC_KEY_TWO(CY_SPC_CMD_LD_MULTI_BYTE);
 284              		.loc 1 176 0
 285 0046 214B     		ldr	r3, .L27+4
 286 0048 D422     		movs	r2, #212
 287 004a 1A70     		strb	r2, [r3]
 177:Generated_Source\PSoC5/CySpc.c ****             CY_SPC_CPU_DATA_REG = CY_SPC_CMD_LD_MULTI_BYTE;
 288              		.loc 1 177 0
 289 004c 1F4B     		ldr	r3, .L27+4
 290 004e 0122     		movs	r2, #1
 291 0050 1A70     		strb	r2, [r3]
 178:Generated_Source\PSoC5/CySpc.c **** 
 179:Generated_Source\PSoC5/CySpc.c ****             if(CY_SPC_BUSY)
 292              		.loc 1 179 0
 293 0052 1D4B     		ldr	r3, .L27
 294 0054 1B78     		ldrb	r3, [r3]
 295 0056 DBB2     		uxtb	r3, r3
 296 0058 03F00203 		and	r3, r3, #2
 297 005c 002B     		cmp	r3, #0
 298 005e 25D1     		bne	.L20
 180:Generated_Source\PSoC5/CySpc.c ****             {
 181:Generated_Source\PSoC5/CySpc.c ****                 CY_SPC_CPU_DATA_REG = array;
 299              		.loc 1 181 0
 300 0060 1A4A     		ldr	r2, .L27+4
 301 0062 FB79     		ldrb	r3, [r7, #7]
 302 0064 1370     		strb	r3, [r2]
 182:Generated_Source\PSoC5/CySpc.c ****                 CY_SPC_CPU_DATA_REG = 1u & HI8(address);
 303              		.loc 1 182 0
 304 0066 194A     		ldr	r2, .L27+4
 305 0068 BB88     		ldrh	r3, [r7, #4]
 306 006a 1B0A     		lsrs	r3, r3, #8
 307 006c 9BB2     		uxth	r3, r3
 308 006e DBB2     		uxtb	r3, r3
 309 0070 03F00103 		and	r3, r3, #1
 310 0074 DBB2     		uxtb	r3, r3
 311 0076 1370     		strb	r3, [r2]
 183:Generated_Source\PSoC5/CySpc.c ****                 CY_SPC_CPU_DATA_REG = LO8(address);
 312              		.loc 1 183 0
 313 0078 144B     		ldr	r3, .L27+4
 314 007a BA88     		ldrh	r2, [r7, #4]	@ movhi
 315 007c D2B2     		uxtb	r2, r2
 316 007e 1A70     		strb	r2, [r3]
 184:Generated_Source\PSoC5/CySpc.c ****                 CY_SPC_CPU_DATA_REG = ((uint8)(size - 1u));
 317              		.loc 1 184 0
 318 0080 124A     		ldr	r2, .L27+4
 319 0082 BB79     		ldrb	r3, [r7, #6]
 320 0084 013B     		subs	r3, r3, #1
 321 0086 DBB2     		uxtb	r3, r3
 322 0088 1370     		strb	r3, [r2]
 185:Generated_Source\PSoC5/CySpc.c **** 
 186:Generated_Source\PSoC5/CySpc.c ****                 for(i = 0u; i < size; i++)
 323              		.loc 1 186 0
 324 008a 0023     		movs	r3, #0
ARM GAS  C:\Users\subra\AppData\Local\Temp\cckfOUaB.s 			page 10


 325 008c FB72     		strb	r3, [r7, #11]
 326 008e 08E0     		b	.L21
 327              	.L22:
 187:Generated_Source\PSoC5/CySpc.c ****                 {
 188:Generated_Source\PSoC5/CySpc.c ****                     CY_SPC_CPU_DATA_REG = buffer[i];
 328              		.loc 1 188 0 discriminator 3
 329 0090 0E49     		ldr	r1, .L27+4
 330 0092 FB7A     		ldrb	r3, [r7, #11]	@ zero_extendqisi2
 331 0094 3A68     		ldr	r2, [r7]
 332 0096 1344     		add	r3, r3, r2
 333 0098 1B78     		ldrb	r3, [r3]	@ zero_extendqisi2
 334 009a 0B70     		strb	r3, [r1]
 186:Generated_Source\PSoC5/CySpc.c ****                 {
 335              		.loc 1 186 0 discriminator 3
 336 009c FB7A     		ldrb	r3, [r7, #11]	@ zero_extendqisi2
 337 009e 0133     		adds	r3, r3, #1
 338 00a0 FB72     		strb	r3, [r7, #11]
 339              	.L21:
 186:Generated_Source\PSoC5/CySpc.c ****                 {
 340              		.loc 1 186 0 is_stmt 0 discriminator 1
 341 00a2 FA7A     		ldrb	r2, [r7, #11]	@ zero_extendqisi2
 342 00a4 BB79     		ldrb	r3, [r7, #6]	@ zero_extendqisi2
 343 00a6 9A42     		cmp	r2, r3
 344 00a8 F2D3     		bcc	.L22
 173:Generated_Source\PSoC5/CySpc.c ****         {
 345              		.loc 1 173 0 is_stmt 1
 346 00aa 07E0     		b	.L25
 347              	.L20:
 189:Generated_Source\PSoC5/CySpc.c ****                 }
 190:Generated_Source\PSoC5/CySpc.c ****             }
 191:Generated_Source\PSoC5/CySpc.c ****             else
 192:Generated_Source\PSoC5/CySpc.c ****             {
 193:Generated_Source\PSoC5/CySpc.c ****                 status = CYRET_CANCELED;
 348              		.loc 1 193 0
 349 00ac 0923     		movs	r3, #9
 350 00ae FB60     		str	r3, [r7, #12]
 173:Generated_Source\PSoC5/CySpc.c ****         {
 351              		.loc 1 173 0
 352 00b0 04E0     		b	.L25
 353              	.L19:
 194:Generated_Source\PSoC5/CySpc.c ****             }
 195:Generated_Source\PSoC5/CySpc.c ****         }
 196:Generated_Source\PSoC5/CySpc.c ****         else
 197:Generated_Source\PSoC5/CySpc.c ****         {
 198:Generated_Source\PSoC5/CySpc.c ****             status = CYRET_LOCKED;
 354              		.loc 1 198 0
 355 00b2 0423     		movs	r3, #4
 356 00b4 FB60     		str	r3, [r7, #12]
 173:Generated_Source\PSoC5/CySpc.c ****         {
 357              		.loc 1 173 0
 358 00b6 01E0     		b	.L25
 359              	.L18:
 199:Generated_Source\PSoC5/CySpc.c ****         }
 200:Generated_Source\PSoC5/CySpc.c ****     }
 201:Generated_Source\PSoC5/CySpc.c ****     else
 202:Generated_Source\PSoC5/CySpc.c ****     {
 203:Generated_Source\PSoC5/CySpc.c ****         status = CYRET_BAD_PARAM;
ARM GAS  C:\Users\subra\AppData\Local\Temp\cckfOUaB.s 			page 11


 360              		.loc 1 203 0
 361 00b8 0123     		movs	r3, #1
 362 00ba FB60     		str	r3, [r7, #12]
 363              	.L25:
 204:Generated_Source\PSoC5/CySpc.c ****     }
 205:Generated_Source\PSoC5/CySpc.c **** 
 206:Generated_Source\PSoC5/CySpc.c ****     return(status);
 364              		.loc 1 206 0
 365 00bc FB68     		ldr	r3, [r7, #12]
 207:Generated_Source\PSoC5/CySpc.c **** }
 366              		.loc 1 207 0
 367 00be 1846     		mov	r0, r3
 368 00c0 1437     		adds	r7, r7, #20
 369              		.cfi_def_cfa_offset 4
 370 00c2 BD46     		mov	sp, r7
 371              		.cfi_def_cfa_register 13
 372              		@ sp needed
 373 00c4 80BC     		pop	{r7}
 374              		.cfi_restore 7
 375              		.cfi_def_cfa_offset 0
 376 00c6 7047     		bx	lr
 377              	.L28:
 378              		.align	2
 379              	.L27:
 380 00c8 22470040 		.word	1073760034
 381 00cc 20470040 		.word	1073760032
 382              		.cfi_endproc
 383              	.LFE3:
 384              		.size	CySpcLoadMultiByte, .-CySpcLoadMultiByte
 385              		.section	.text.CySpcLoadRow,"ax",%progbits
 386              		.align	2
 387              		.global	CySpcLoadRow
 388              		.thumb
 389              		.thumb_func
 390              		.type	CySpcLoadRow, %function
 391              	CySpcLoadRow:
 392              	.LFB4:
 208:Generated_Source\PSoC5/CySpc.c **** 
 209:Generated_Source\PSoC5/CySpc.c **** 
 210:Generated_Source\PSoC5/CySpc.c **** /*******************************************************************************
 211:Generated_Source\PSoC5/CySpc.c **** * Function Name: CySpcLoadRow
 212:Generated_Source\PSoC5/CySpc.c **** ****************************************************************************//**
 213:Generated_Source\PSoC5/CySpc.c **** *  Loads a row of data into the row latch of a Flash/EEPROM array.
 214:Generated_Source\PSoC5/CySpc.c **** *
 215:Generated_Source\PSoC5/CySpc.c **** *  The buffer pointer should point to the data that should be written to the
 216:Generated_Source\PSoC5/CySpc.c **** *  flash row directly (no data in ECC/flash will be preserved). It is Flash API
 217:Generated_Source\PSoC5/CySpc.c **** *  responsibility to prepare data: the preserved data are copied from flash into
 218:Generated_Source\PSoC5/CySpc.c **** *  array with the modified data.
 219:Generated_Source\PSoC5/CySpc.c **** *
 220:Generated_Source\PSoC5/CySpc.c **** *  \param uint8 array:
 221:Generated_Source\PSoC5/CySpc.c **** *   Id of the array.
 222:Generated_Source\PSoC5/CySpc.c **** *
 223:Generated_Source\PSoC5/CySpc.c **** *  \param uint8* buffer:
 224:Generated_Source\PSoC5/CySpc.c **** *   Data to be loaded to the row latch
 225:Generated_Source\PSoC5/CySpc.c **** *
 226:Generated_Source\PSoC5/CySpc.c **** *  \param uint8 size:
 227:Generated_Source\PSoC5/CySpc.c **** *   The number of data bytes that the SPC expects to be written. Depends on the
ARM GAS  C:\Users\subra\AppData\Local\Temp\cckfOUaB.s 			page 12


 228:Generated_Source\PSoC5/CySpc.c **** *   type of the array and, if the array is Flash, whether ECC is being enabled
 229:Generated_Source\PSoC5/CySpc.c **** *   or not. There are following values: flash row latch size with ECC enabled,
 230:Generated_Source\PSoC5/CySpc.c **** *   flash row latch size with ECC disabled and EEPROM row latch size.
 231:Generated_Source\PSoC5/CySpc.c **** *
 232:Generated_Source\PSoC5/CySpc.c **** * \return
 233:Generated_Source\PSoC5/CySpc.c **** *  CYRET_STARTED
 234:Generated_Source\PSoC5/CySpc.c **** *  CYRET_CANCELED
 235:Generated_Source\PSoC5/CySpc.c **** *  CYRET_LOCKED
 236:Generated_Source\PSoC5/CySpc.c **** *
 237:Generated_Source\PSoC5/CySpc.c **** *******************************************************************************/
 238:Generated_Source\PSoC5/CySpc.c **** cystatus CySpcLoadRow(uint8 array, const uint8 buffer[], uint16 size)
 239:Generated_Source\PSoC5/CySpc.c **** {
 393              		.loc 1 239 0
 394              		.cfi_startproc
 395              		@ args = 0, pretend = 0, frame = 16
 396              		@ frame_needed = 1, uses_anonymous_args = 0
 397              		@ link register save eliminated.
 398 0000 80B4     		push	{r7}
 399              		.cfi_def_cfa_offset 4
 400              		.cfi_offset 7, -4
 401 0002 85B0     		sub	sp, sp, #20
 402              		.cfi_def_cfa_offset 24
 403 0004 00AF     		add	r7, sp, #0
 404              		.cfi_def_cfa_register 7
 405 0006 0346     		mov	r3, r0
 406 0008 3960     		str	r1, [r7]
 407 000a FB71     		strb	r3, [r7, #7]
 408 000c 1346     		mov	r3, r2	@ movhi
 409 000e BB80     		strh	r3, [r7, #4]	@ movhi
 240:Generated_Source\PSoC5/CySpc.c ****     cystatus status = CYRET_STARTED;
 410              		.loc 1 240 0
 411 0010 0723     		movs	r3, #7
 412 0012 FB60     		str	r3, [r7, #12]
 241:Generated_Source\PSoC5/CySpc.c ****     uint16 i;
 242:Generated_Source\PSoC5/CySpc.c **** 
 243:Generated_Source\PSoC5/CySpc.c ****     /* Make sure the SPC is ready to accept command */
 244:Generated_Source\PSoC5/CySpc.c ****     if(CY_SPC_IDLE)
 413              		.loc 1 244 0
 414 0014 1A4B     		ldr	r3, .L37
 415 0016 1B78     		ldrb	r3, [r3]
 416 0018 DBB2     		uxtb	r3, r3
 417 001a 03F00203 		and	r3, r3, #2
 418 001e 002B     		cmp	r3, #0
 419 0020 26D0     		beq	.L30
 245:Generated_Source\PSoC5/CySpc.c ****     {
 246:Generated_Source\PSoC5/CySpc.c ****         CY_SPC_CPU_DATA_REG = CY_SPC_KEY_ONE;
 420              		.loc 1 246 0
 421 0022 184B     		ldr	r3, .L37+4
 422 0024 B622     		movs	r2, #182
 423 0026 1A70     		strb	r2, [r3]
 247:Generated_Source\PSoC5/CySpc.c ****         CY_SPC_CPU_DATA_REG = CY_SPC_KEY_TWO(CY_SPC_CMD_LD_ROW);
 424              		.loc 1 247 0
 425 0028 164B     		ldr	r3, .L37+4
 426 002a D522     		movs	r2, #213
 427 002c 1A70     		strb	r2, [r3]
 248:Generated_Source\PSoC5/CySpc.c ****         CY_SPC_CPU_DATA_REG = CY_SPC_CMD_LD_ROW;
 428              		.loc 1 248 0
ARM GAS  C:\Users\subra\AppData\Local\Temp\cckfOUaB.s 			page 13


 429 002e 154B     		ldr	r3, .L37+4
 430 0030 0222     		movs	r2, #2
 431 0032 1A70     		strb	r2, [r3]
 249:Generated_Source\PSoC5/CySpc.c **** 
 250:Generated_Source\PSoC5/CySpc.c ****         /* Make sure the command was accepted */
 251:Generated_Source\PSoC5/CySpc.c ****         if(CY_SPC_BUSY)
 432              		.loc 1 251 0
 433 0034 124B     		ldr	r3, .L37
 434 0036 1B78     		ldrb	r3, [r3]
 435 0038 DBB2     		uxtb	r3, r3
 436 003a 03F00203 		and	r3, r3, #2
 437 003e 002B     		cmp	r3, #0
 438 0040 13D1     		bne	.L31
 252:Generated_Source\PSoC5/CySpc.c ****         {
 253:Generated_Source\PSoC5/CySpc.c ****             CY_SPC_CPU_DATA_REG = array;
 439              		.loc 1 253 0
 440 0042 104A     		ldr	r2, .L37+4
 441 0044 FB79     		ldrb	r3, [r7, #7]
 442 0046 1370     		strb	r3, [r2]
 254:Generated_Source\PSoC5/CySpc.c **** 
 255:Generated_Source\PSoC5/CySpc.c ****             for(i = 0u; i < size; i++)
 443              		.loc 1 255 0
 444 0048 0023     		movs	r3, #0
 445 004a 7B81     		strh	r3, [r7, #10]	@ movhi
 446 004c 08E0     		b	.L32
 447              	.L33:
 256:Generated_Source\PSoC5/CySpc.c ****             {
 257:Generated_Source\PSoC5/CySpc.c ****                 CY_SPC_CPU_DATA_REG = buffer[i];
 448              		.loc 1 257 0 discriminator 3
 449 004e 0D49     		ldr	r1, .L37+4
 450 0050 7B89     		ldrh	r3, [r7, #10]
 451 0052 3A68     		ldr	r2, [r7]
 452 0054 1344     		add	r3, r3, r2
 453 0056 1B78     		ldrb	r3, [r3]	@ zero_extendqisi2
 454 0058 0B70     		strb	r3, [r1]
 255:Generated_Source\PSoC5/CySpc.c ****             {
 455              		.loc 1 255 0 discriminator 3
 456 005a 7B89     		ldrh	r3, [r7, #10]
 457 005c 0133     		adds	r3, r3, #1
 458 005e 7B81     		strh	r3, [r7, #10]	@ movhi
 459              	.L32:
 255:Generated_Source\PSoC5/CySpc.c ****             {
 460              		.loc 1 255 0 is_stmt 0 discriminator 1
 461 0060 7A89     		ldrh	r2, [r7, #10]
 462 0062 BB88     		ldrh	r3, [r7, #4]
 463 0064 9A42     		cmp	r2, r3
 464 0066 F2D3     		bcc	.L33
 465 0068 04E0     		b	.L35
 466              	.L31:
 258:Generated_Source\PSoC5/CySpc.c ****             }
 259:Generated_Source\PSoC5/CySpc.c ****         }
 260:Generated_Source\PSoC5/CySpc.c ****         else
 261:Generated_Source\PSoC5/CySpc.c ****         {
 262:Generated_Source\PSoC5/CySpc.c ****             status = CYRET_CANCELED;
 467              		.loc 1 262 0 is_stmt 1
 468 006a 0923     		movs	r3, #9
 469 006c FB60     		str	r3, [r7, #12]
ARM GAS  C:\Users\subra\AppData\Local\Temp\cckfOUaB.s 			page 14


 470 006e 01E0     		b	.L35
 471              	.L30:
 263:Generated_Source\PSoC5/CySpc.c ****         }
 264:Generated_Source\PSoC5/CySpc.c ****     }
 265:Generated_Source\PSoC5/CySpc.c ****     else
 266:Generated_Source\PSoC5/CySpc.c ****     {
 267:Generated_Source\PSoC5/CySpc.c ****         status = CYRET_LOCKED;
 472              		.loc 1 267 0
 473 0070 0423     		movs	r3, #4
 474 0072 FB60     		str	r3, [r7, #12]
 475              	.L35:
 268:Generated_Source\PSoC5/CySpc.c ****     }
 269:Generated_Source\PSoC5/CySpc.c **** 
 270:Generated_Source\PSoC5/CySpc.c ****     return(status);
 476              		.loc 1 270 0
 477 0074 FB68     		ldr	r3, [r7, #12]
 271:Generated_Source\PSoC5/CySpc.c **** }
 478              		.loc 1 271 0
 479 0076 1846     		mov	r0, r3
 480 0078 1437     		adds	r7, r7, #20
 481              		.cfi_def_cfa_offset 4
 482 007a BD46     		mov	sp, r7
 483              		.cfi_def_cfa_register 13
 484              		@ sp needed
 485 007c 80BC     		pop	{r7}
 486              		.cfi_restore 7
 487              		.cfi_def_cfa_offset 0
 488 007e 7047     		bx	lr
 489              	.L38:
 490              		.align	2
 491              	.L37:
 492 0080 22470040 		.word	1073760034
 493 0084 20470040 		.word	1073760032
 494              		.cfi_endproc
 495              	.LFE4:
 496              		.size	CySpcLoadRow, .-CySpcLoadRow
 497              		.section	.text.CySpcLoadRowFull,"ax",%progbits
 498              		.align	2
 499              		.global	CySpcLoadRowFull
 500              		.thumb
 501              		.thumb_func
 502              		.type	CySpcLoadRowFull, %function
 503              	CySpcLoadRowFull:
 504              	.LFB5:
 272:Generated_Source\PSoC5/CySpc.c **** 
 273:Generated_Source\PSoC5/CySpc.c **** 
 274:Generated_Source\PSoC5/CySpc.c **** /*******************************************************************************
 275:Generated_Source\PSoC5/CySpc.c **** * Function Name: CySpcLoadRowFull
 276:Generated_Source\PSoC5/CySpc.c **** ****************************************************************************//**
 277:Generated_Source\PSoC5/CySpc.c **** *  Loads a row of data into the row latch of a Flash/EEPROM array.
 278:Generated_Source\PSoC5/CySpc.c **** *
 279:Generated_Source\PSoC5/CySpc.c **** *  The only data that are going to be changed should be passed. The function
 280:Generated_Source\PSoC5/CySpc.c **** *  will handle unmodified data preservation based on DWR settings and input
 281:Generated_Source\PSoC5/CySpc.c **** *  parameters.
 282:Generated_Source\PSoC5/CySpc.c **** *
 283:Generated_Source\PSoC5/CySpc.c **** *  \param uint8 array:
 284:Generated_Source\PSoC5/CySpc.c **** *   Id of the array.
ARM GAS  C:\Users\subra\AppData\Local\Temp\cckfOUaB.s 			page 15


 285:Generated_Source\PSoC5/CySpc.c **** *
 286:Generated_Source\PSoC5/CySpc.c **** *  \param uint16 row:
 287:Generated_Source\PSoC5/CySpc.c **** *   Flash row number to be loaded.
 288:Generated_Source\PSoC5/CySpc.c **** *
 289:Generated_Source\PSoC5/CySpc.c **** *  \param uint8* buffer:
 290:Generated_Source\PSoC5/CySpc.c **** *   Data to be loaded to the row latch
 291:Generated_Source\PSoC5/CySpc.c **** *
 292:Generated_Source\PSoC5/CySpc.c **** *  \param uint8 size:
 293:Generated_Source\PSoC5/CySpc.c **** *   The number of data bytes that the SPC expects to be written. Depends on the
 294:Generated_Source\PSoC5/CySpc.c **** *   type of the array and, if the array is Flash, whether ECC is being enabled
 295:Generated_Source\PSoC5/CySpc.c **** *   or not. There are following values: flash row latch size with ECC enabled,
 296:Generated_Source\PSoC5/CySpc.c **** *   flash row latch size with ECC disabled and EEPROM row latch size.
 297:Generated_Source\PSoC5/CySpc.c **** *
 298:Generated_Source\PSoC5/CySpc.c **** * \return
 299:Generated_Source\PSoC5/CySpc.c **** *  CYRET_STARTED
 300:Generated_Source\PSoC5/CySpc.c **** *  CYRET_CANCELED
 301:Generated_Source\PSoC5/CySpc.c **** *  CYRET_LOCKED
 302:Generated_Source\PSoC5/CySpc.c **** *
 303:Generated_Source\PSoC5/CySpc.c **** *******************************************************************************/
 304:Generated_Source\PSoC5/CySpc.c **** cystatus CySpcLoadRowFull(uint8 array, uint16 row, const uint8 buffer[], uint16 size)\
 305:Generated_Source\PSoC5/CySpc.c **** 
 306:Generated_Source\PSoC5/CySpc.c **** {
 505              		.loc 1 306 0
 506              		.cfi_startproc
 507              		@ args = 0, pretend = 0, frame = 32
 508              		@ frame_needed = 1, uses_anonymous_args = 0
 509              		@ link register save eliminated.
 510 0000 80B4     		push	{r7}
 511              		.cfi_def_cfa_offset 4
 512              		.cfi_offset 7, -4
 513 0002 89B0     		sub	sp, sp, #36
 514              		.cfi_def_cfa_offset 40
 515 0004 00AF     		add	r7, sp, #0
 516              		.cfi_def_cfa_register 7
 517 0006 BA60     		str	r2, [r7, #8]
 518 0008 1A46     		mov	r2, r3
 519 000a 0346     		mov	r3, r0
 520 000c FB73     		strb	r3, [r7, #15]
 521 000e 0B46     		mov	r3, r1	@ movhi
 522 0010 BB81     		strh	r3, [r7, #12]	@ movhi
 523 0012 1346     		mov	r3, r2	@ movhi
 524 0014 FB80     		strh	r3, [r7, #6]	@ movhi
 307:Generated_Source\PSoC5/CySpc.c ****     cystatus status = CYRET_STARTED;
 525              		.loc 1 307 0
 526 0016 0723     		movs	r3, #7
 527 0018 FB61     		str	r3, [r7, #28]
 308:Generated_Source\PSoC5/CySpc.c ****     uint16 i;
 309:Generated_Source\PSoC5/CySpc.c **** 
 310:Generated_Source\PSoC5/CySpc.c ****     #if (CYDEV_ECC_ENABLE == 0)
 311:Generated_Source\PSoC5/CySpc.c ****         uint32 offset;
 312:Generated_Source\PSoC5/CySpc.c ****     #endif /* (CYDEV_ECC_ENABLE == 0) */
 313:Generated_Source\PSoC5/CySpc.c **** 
 314:Generated_Source\PSoC5/CySpc.c ****     /* Make sure the SPC is ready to accept command */
 315:Generated_Source\PSoC5/CySpc.c ****     if(CY_SPC_IDLE)
 528              		.loc 1 315 0
 529 001a 2A4B     		ldr	r3, .L49
 530 001c 1B78     		ldrb	r3, [r3]
ARM GAS  C:\Users\subra\AppData\Local\Temp\cckfOUaB.s 			page 16


 531 001e DBB2     		uxtb	r3, r3
 532 0020 03F00203 		and	r3, r3, #2
 533 0024 002B     		cmp	r3, #0
 534 0026 45D0     		beq	.L40
 316:Generated_Source\PSoC5/CySpc.c ****     {
 317:Generated_Source\PSoC5/CySpc.c ****         CY_SPC_CPU_DATA_REG = CY_SPC_KEY_ONE;
 535              		.loc 1 317 0
 536 0028 274B     		ldr	r3, .L49+4
 537 002a B622     		movs	r2, #182
 538 002c 1A70     		strb	r2, [r3]
 318:Generated_Source\PSoC5/CySpc.c ****         CY_SPC_CPU_DATA_REG = CY_SPC_KEY_TWO(CY_SPC_CMD_LD_ROW);
 539              		.loc 1 318 0
 540 002e 264B     		ldr	r3, .L49+4
 541 0030 D522     		movs	r2, #213
 542 0032 1A70     		strb	r2, [r3]
 319:Generated_Source\PSoC5/CySpc.c ****         CY_SPC_CPU_DATA_REG = CY_SPC_CMD_LD_ROW;
 543              		.loc 1 319 0
 544 0034 244B     		ldr	r3, .L49+4
 545 0036 0222     		movs	r2, #2
 546 0038 1A70     		strb	r2, [r3]
 320:Generated_Source\PSoC5/CySpc.c **** 
 321:Generated_Source\PSoC5/CySpc.c ****         /* Make sure the command was accepted */
 322:Generated_Source\PSoC5/CySpc.c ****         if(CY_SPC_BUSY)
 547              		.loc 1 322 0
 548 003a 224B     		ldr	r3, .L49
 549 003c 1B78     		ldrb	r3, [r3]
 550 003e DBB2     		uxtb	r3, r3
 551 0040 03F00203 		and	r3, r3, #2
 552 0044 002B     		cmp	r3, #0
 553 0046 32D1     		bne	.L41
 323:Generated_Source\PSoC5/CySpc.c ****         {
 324:Generated_Source\PSoC5/CySpc.c ****             CY_SPC_CPU_DATA_REG = array;
 554              		.loc 1 324 0
 555 0048 1F4A     		ldr	r2, .L49+4
 556 004a FB7B     		ldrb	r3, [r7, #15]
 557 004c 1370     		strb	r3, [r2]
 325:Generated_Source\PSoC5/CySpc.c **** 
 326:Generated_Source\PSoC5/CySpc.c ****             /*******************************************************************
 327:Generated_Source\PSoC5/CySpc.c ****             * If "Enable Error Correcting Code (ECC)" and "Store Configuration
 328:Generated_Source\PSoC5/CySpc.c ****             * Data in ECC" DWR options are disabled, ECC section is available
 329:Generated_Source\PSoC5/CySpc.c ****             * for user data.
 330:Generated_Source\PSoC5/CySpc.c ****             *******************************************************************/
 331:Generated_Source\PSoC5/CySpc.c ****             #if ((CYDEV_ECC_ENABLE == 0u) && (CYDEV_CONFIGURATION_ECC == 0u))
 332:Generated_Source\PSoC5/CySpc.c **** 
 333:Generated_Source\PSoC5/CySpc.c ****                 /*******************************************************************
 334:Generated_Source\PSoC5/CySpc.c ****                 * If size parameter equals size of the ECC row and selected array
 335:Generated_Source\PSoC5/CySpc.c ****                 * identification corresponds to the flash array (but not to EEPROM
 336:Generated_Source\PSoC5/CySpc.c ****                 * array) then data are going to be written to the ECC section.
 337:Generated_Source\PSoC5/CySpc.c ****                 * In this case flash data must be preserved. The flash data copied
 338:Generated_Source\PSoC5/CySpc.c ****                 * from flash data section to the SPC data register.
 339:Generated_Source\PSoC5/CySpc.c ****                 *******************************************************************/
 340:Generated_Source\PSoC5/CySpc.c ****                 if ((size == CYDEV_ECC_ROW_SIZE) && (array <= CY_SPC_LAST_FLASH_ARRAYID))
 341:Generated_Source\PSoC5/CySpc.c ****                 {
 342:Generated_Source\PSoC5/CySpc.c ****                     offset = CYDEV_FLS_BASE +
 343:Generated_Source\PSoC5/CySpc.c ****                              ((uint32) array * CYDEV_FLS_SECTOR_SIZE) +
 344:Generated_Source\PSoC5/CySpc.c ****                              ((uint32)   row * CYDEV_FLS_ROW_SIZE   );
 345:Generated_Source\PSoC5/CySpc.c **** 
ARM GAS  C:\Users\subra\AppData\Local\Temp\cckfOUaB.s 			page 17


 346:Generated_Source\PSoC5/CySpc.c ****                     for (i = 0u; i < CYDEV_FLS_ROW_SIZE; i++)
 347:Generated_Source\PSoC5/CySpc.c ****                     {
 348:Generated_Source\PSoC5/CySpc.c ****                         CY_SPC_CPU_DATA_REG = CY_GET_XTND_REG8((void CYFAR *)(offset + i));
 349:Generated_Source\PSoC5/CySpc.c ****                     }
 350:Generated_Source\PSoC5/CySpc.c ****                 }
 351:Generated_Source\PSoC5/CySpc.c **** 
 352:Generated_Source\PSoC5/CySpc.c ****             #endif /* ((CYDEV_ECC_ENABLE == 0u) && (CYDEV_CONFIGURATION_ECC == 0u)) */
 353:Generated_Source\PSoC5/CySpc.c **** 
 354:Generated_Source\PSoC5/CySpc.c **** 
 355:Generated_Source\PSoC5/CySpc.c ****             for(i = 0u; i < size; i++)
 558              		.loc 1 355 0
 559 004e 0023     		movs	r3, #0
 560 0050 7B83     		strh	r3, [r7, #26]	@ movhi
 561 0052 08E0     		b	.L42
 562              	.L43:
 356:Generated_Source\PSoC5/CySpc.c ****             {
 357:Generated_Source\PSoC5/CySpc.c ****                 CY_SPC_CPU_DATA_REG = buffer[i];
 563              		.loc 1 357 0 discriminator 3
 564 0054 1C49     		ldr	r1, .L49+4
 565 0056 7B8B     		ldrh	r3, [r7, #26]
 566 0058 BA68     		ldr	r2, [r7, #8]
 567 005a 1344     		add	r3, r3, r2
 568 005c 1B78     		ldrb	r3, [r3]	@ zero_extendqisi2
 569 005e 0B70     		strb	r3, [r1]
 355:Generated_Source\PSoC5/CySpc.c ****             {
 570              		.loc 1 355 0 discriminator 3
 571 0060 7B8B     		ldrh	r3, [r7, #26]
 572 0062 0133     		adds	r3, r3, #1
 573 0064 7B83     		strh	r3, [r7, #26]	@ movhi
 574              	.L42:
 355:Generated_Source\PSoC5/CySpc.c ****             {
 575              		.loc 1 355 0 is_stmt 0 discriminator 1
 576 0066 7A8B     		ldrh	r2, [r7, #26]
 577 0068 FB88     		ldrh	r3, [r7, #6]
 578 006a 9A42     		cmp	r2, r3
 579 006c F2D3     		bcc	.L43
 358:Generated_Source\PSoC5/CySpc.c ****             }
 359:Generated_Source\PSoC5/CySpc.c **** 
 360:Generated_Source\PSoC5/CySpc.c **** 
 361:Generated_Source\PSoC5/CySpc.c ****             /*******************************************************************
 362:Generated_Source\PSoC5/CySpc.c ****             * If "Enable Error Correcting Code (ECC)" DWR option is disabled,
 363:Generated_Source\PSoC5/CySpc.c ****             * ECC section can be used for storing device configuration data
 364:Generated_Source\PSoC5/CySpc.c ****             * ("Store Configuration Data in ECC" DWR option is enabled) or for
 365:Generated_Source\PSoC5/CySpc.c ****             * storing user data in the ECC section ("Store Configuration Data in
 366:Generated_Source\PSoC5/CySpc.c ****             * ECC" DWR option is enabled). In both cases, the data in the ECC
 367:Generated_Source\PSoC5/CySpc.c ****             * section must be preserved if flash data is written.
 368:Generated_Source\PSoC5/CySpc.c ****             *******************************************************************/
 369:Generated_Source\PSoC5/CySpc.c ****             #if (CYDEV_ECC_ENABLE == 0)
 370:Generated_Source\PSoC5/CySpc.c **** 
 371:Generated_Source\PSoC5/CySpc.c **** 
 372:Generated_Source\PSoC5/CySpc.c ****                 /*******************************************************************
 373:Generated_Source\PSoC5/CySpc.c ****                 * If size parameter equals size of the flash row and selected array
 374:Generated_Source\PSoC5/CySpc.c ****                 * identification corresponds to the flash array (but not to EEPROM
 375:Generated_Source\PSoC5/CySpc.c ****                 * array) then data are going to be written to the flash data
 376:Generated_Source\PSoC5/CySpc.c ****                 * section. In this case, ECC section data must be preserved.
 377:Generated_Source\PSoC5/CySpc.c ****                 * The ECC section data copied from ECC section to the SPC data
 378:Generated_Source\PSoC5/CySpc.c ****                 * register.
ARM GAS  C:\Users\subra\AppData\Local\Temp\cckfOUaB.s 			page 18


 379:Generated_Source\PSoC5/CySpc.c ****                 *******************************************************************/
 380:Generated_Source\PSoC5/CySpc.c ****                 if ((size == CYDEV_FLS_ROW_SIZE) && (array <= CY_SPC_LAST_FLASH_ARRAYID))
 580              		.loc 1 380 0 is_stmt 1
 581 006e FB88     		ldrh	r3, [r7, #6]
 582 0070 B3F5807F 		cmp	r3, #256
 583 0074 20D1     		bne	.L47
 584              		.loc 1 380 0 is_stmt 0 discriminator 1
 585 0076 FB7B     		ldrb	r3, [r7, #15]	@ zero_extendqisi2
 586 0078 3F2B     		cmp	r3, #63
 587 007a 1DD8     		bhi	.L47
 381:Generated_Source\PSoC5/CySpc.c ****                 {
 382:Generated_Source\PSoC5/CySpc.c ****                     offset = CYDEV_ECC_BASE +
 383:Generated_Source\PSoC5/CySpc.c ****                             ((uint32) array * CYDEV_ECC_SECTOR_SIZE) +
 588              		.loc 1 383 0 is_stmt 1
 589 007c FB7B     		ldrb	r3, [r7, #15]	@ zero_extendqisi2
 590 007e 03F51033 		add	r3, r3, #147456
 591 0082 1A02     		lsls	r2, r3, #8
 384:Generated_Source\PSoC5/CySpc.c ****                             ((uint32) row   * CYDEV_ECC_ROW_SIZE   );
 592              		.loc 1 384 0
 593 0084 BB89     		ldrh	r3, [r7, #12]
 383:Generated_Source\PSoC5/CySpc.c ****                             ((uint32) row   * CYDEV_ECC_ROW_SIZE   );
 594              		.loc 1 383 0
 595 0086 1344     		add	r3, r3, r2
 382:Generated_Source\PSoC5/CySpc.c ****                             ((uint32) array * CYDEV_ECC_SECTOR_SIZE) +
 596              		.loc 1 382 0
 597 0088 5B01     		lsls	r3, r3, #5
 598 008a 7B61     		str	r3, [r7, #20]
 385:Generated_Source\PSoC5/CySpc.c **** 
 386:Generated_Source\PSoC5/CySpc.c ****                     for (i = 0u; i < CYDEV_ECC_ROW_SIZE; i++)
 599              		.loc 1 386 0
 600 008c 0023     		movs	r3, #0
 601 008e 7B83     		strh	r3, [r7, #26]	@ movhi
 602 0090 09E0     		b	.L45
 603              	.L46:
 387:Generated_Source\PSoC5/CySpc.c ****                     {
 388:Generated_Source\PSoC5/CySpc.c ****                         CY_SPC_CPU_DATA_REG = CY_GET_XTND_REG8((void CYFAR *)(offset + i));
 604              		.loc 1 388 0 discriminator 3
 605 0092 0D49     		ldr	r1, .L49+4
 606 0094 7A8B     		ldrh	r2, [r7, #26]
 607 0096 7B69     		ldr	r3, [r7, #20]
 608 0098 1344     		add	r3, r3, r2
 609 009a 1B78     		ldrb	r3, [r3]
 610 009c DBB2     		uxtb	r3, r3
 611 009e 0B70     		strb	r3, [r1]
 386:Generated_Source\PSoC5/CySpc.c ****                     {
 612              		.loc 1 386 0 discriminator 3
 613 00a0 7B8B     		ldrh	r3, [r7, #26]
 614 00a2 0133     		adds	r3, r3, #1
 615 00a4 7B83     		strh	r3, [r7, #26]	@ movhi
 616              	.L45:
 386:Generated_Source\PSoC5/CySpc.c ****                     {
 617              		.loc 1 386 0 is_stmt 0 discriminator 1
 618 00a6 7B8B     		ldrh	r3, [r7, #26]
 619 00a8 1F2B     		cmp	r3, #31
 620 00aa F2D9     		bls	.L46
 621 00ac 04E0     		b	.L47
 622              	.L41:
ARM GAS  C:\Users\subra\AppData\Local\Temp\cckfOUaB.s 			page 19


 389:Generated_Source\PSoC5/CySpc.c ****                     }
 390:Generated_Source\PSoC5/CySpc.c ****                 }
 391:Generated_Source\PSoC5/CySpc.c **** 
 392:Generated_Source\PSoC5/CySpc.c ****             #else
 393:Generated_Source\PSoC5/CySpc.c **** 
 394:Generated_Source\PSoC5/CySpc.c ****                 if(0u != row)
 395:Generated_Source\PSoC5/CySpc.c ****                 {
 396:Generated_Source\PSoC5/CySpc.c ****                     /* To remove unreferenced local variable warning */
 397:Generated_Source\PSoC5/CySpc.c ****                 }
 398:Generated_Source\PSoC5/CySpc.c **** 
 399:Generated_Source\PSoC5/CySpc.c ****             #endif /* (CYDEV_ECC_ENABLE == 0) */
 400:Generated_Source\PSoC5/CySpc.c ****         }
 401:Generated_Source\PSoC5/CySpc.c ****         else
 402:Generated_Source\PSoC5/CySpc.c ****         {
 403:Generated_Source\PSoC5/CySpc.c ****             status = CYRET_CANCELED;
 623              		.loc 1 403 0 is_stmt 1
 624 00ae 0923     		movs	r3, #9
 625 00b0 FB61     		str	r3, [r7, #28]
 626 00b2 01E0     		b	.L47
 627              	.L40:
 404:Generated_Source\PSoC5/CySpc.c ****         }
 405:Generated_Source\PSoC5/CySpc.c ****     }
 406:Generated_Source\PSoC5/CySpc.c ****     else
 407:Generated_Source\PSoC5/CySpc.c ****     {
 408:Generated_Source\PSoC5/CySpc.c ****         status = CYRET_LOCKED;
 628              		.loc 1 408 0
 629 00b4 0423     		movs	r3, #4
 630 00b6 FB61     		str	r3, [r7, #28]
 631              	.L47:
 409:Generated_Source\PSoC5/CySpc.c ****     }
 410:Generated_Source\PSoC5/CySpc.c **** 
 411:Generated_Source\PSoC5/CySpc.c ****     return(status);
 632              		.loc 1 411 0
 633 00b8 FB69     		ldr	r3, [r7, #28]
 412:Generated_Source\PSoC5/CySpc.c **** }
 634              		.loc 1 412 0
 635 00ba 1846     		mov	r0, r3
 636 00bc 2437     		adds	r7, r7, #36
 637              		.cfi_def_cfa_offset 4
 638 00be BD46     		mov	sp, r7
 639              		.cfi_def_cfa_register 13
 640              		@ sp needed
 641 00c0 80BC     		pop	{r7}
 642              		.cfi_restore 7
 643              		.cfi_def_cfa_offset 0
 644 00c2 7047     		bx	lr
 645              	.L50:
 646              		.align	2
 647              	.L49:
 648 00c4 22470040 		.word	1073760034
 649 00c8 20470040 		.word	1073760032
 650              		.cfi_endproc
 651              	.LFE5:
 652              		.size	CySpcLoadRowFull, .-CySpcLoadRowFull
 653              		.section	.text.CySpcWriteRow,"ax",%progbits
 654              		.align	2
 655              		.global	CySpcWriteRow
ARM GAS  C:\Users\subra\AppData\Local\Temp\cckfOUaB.s 			page 20


 656              		.thumb
 657              		.thumb_func
 658              		.type	CySpcWriteRow, %function
 659              	CySpcWriteRow:
 660              	.LFB6:
 413:Generated_Source\PSoC5/CySpc.c **** 
 414:Generated_Source\PSoC5/CySpc.c **** 
 415:Generated_Source\PSoC5/CySpc.c **** /*******************************************************************************
 416:Generated_Source\PSoC5/CySpc.c **** * Function Name: CySpcWriteRow
 417:Generated_Source\PSoC5/CySpc.c **** ****************************************************************************//**
 418:Generated_Source\PSoC5/CySpc.c **** *  Erases then programs a row in Flash/EEPROM with data in row latch.
 419:Generated_Source\PSoC5/CySpc.c **** *
 420:Generated_Source\PSoC5/CySpc.c **** *  \param uint8 array:
 421:Generated_Source\PSoC5/CySpc.c **** *   Id of the array.
 422:Generated_Source\PSoC5/CySpc.c **** *
 423:Generated_Source\PSoC5/CySpc.c **** *  \param uint16 address:
 424:Generated_Source\PSoC5/CySpc.c **** *   flash/eeprom addrress
 425:Generated_Source\PSoC5/CySpc.c **** *
 426:Generated_Source\PSoC5/CySpc.c **** *  \param uint8 tempPolarity:
 427:Generated_Source\PSoC5/CySpc.c **** *   temperature polarity.
 428:Generated_Source\PSoC5/CySpc.c **** *   \param 1: the Temp Magnitude is interpreted as a positive value
 429:Generated_Source\PSoC5/CySpc.c **** *   \param 0: the Temp Magnitude is interpreted as a negative value
 430:Generated_Source\PSoC5/CySpc.c **** *
 431:Generated_Source\PSoC5/CySpc.c **** *  \param uint8 tempMagnitude:
 432:Generated_Source\PSoC5/CySpc.c **** *   temperature magnitude.
 433:Generated_Source\PSoC5/CySpc.c **** *
 434:Generated_Source\PSoC5/CySpc.c **** * \return
 435:Generated_Source\PSoC5/CySpc.c **** *  CYRET_STARTED
 436:Generated_Source\PSoC5/CySpc.c **** *  CYRET_CANCELED
 437:Generated_Source\PSoC5/CySpc.c **** *  CYRET_LOCKED
 438:Generated_Source\PSoC5/CySpc.c **** *
 439:Generated_Source\PSoC5/CySpc.c **** *******************************************************************************/
 440:Generated_Source\PSoC5/CySpc.c **** cystatus CySpcWriteRow(uint8 array, uint16 address, uint8 tempPolarity, uint8 tempMagnitude)\
 441:Generated_Source\PSoC5/CySpc.c **** 
 442:Generated_Source\PSoC5/CySpc.c **** {
 661              		.loc 1 442 0
 662              		.cfi_startproc
 663              		@ args = 0, pretend = 0, frame = 16
 664              		@ frame_needed = 1, uses_anonymous_args = 0
 665              		@ link register save eliminated.
 666 0000 90B4     		push	{r4, r7}
 667              		.cfi_def_cfa_offset 8
 668              		.cfi_offset 4, -8
 669              		.cfi_offset 7, -4
 670 0002 84B0     		sub	sp, sp, #16
 671              		.cfi_def_cfa_offset 24
 672 0004 00AF     		add	r7, sp, #0
 673              		.cfi_def_cfa_register 7
 674 0006 0446     		mov	r4, r0
 675 0008 0846     		mov	r0, r1
 676 000a 1146     		mov	r1, r2
 677 000c 1A46     		mov	r2, r3
 678 000e 2346     		mov	r3, r4
 679 0010 FB71     		strb	r3, [r7, #7]
 680 0012 0346     		mov	r3, r0	@ movhi
 681 0014 BB80     		strh	r3, [r7, #4]	@ movhi
 682 0016 0B46     		mov	r3, r1
ARM GAS  C:\Users\subra\AppData\Local\Temp\cckfOUaB.s 			page 21


 683 0018 BB71     		strb	r3, [r7, #6]
 684 001a 1346     		mov	r3, r2
 685 001c FB70     		strb	r3, [r7, #3]
 443:Generated_Source\PSoC5/CySpc.c ****     cystatus status = CYRET_STARTED;
 686              		.loc 1 443 0
 687 001e 0723     		movs	r3, #7
 688 0020 FB60     		str	r3, [r7, #12]
 444:Generated_Source\PSoC5/CySpc.c **** 
 445:Generated_Source\PSoC5/CySpc.c ****     /* Make sure the SPC is ready to accept command */
 446:Generated_Source\PSoC5/CySpc.c ****     if(CY_SPC_IDLE)
 689              		.loc 1 446 0
 690 0022 1B4B     		ldr	r3, .L57
 691 0024 1B78     		ldrb	r3, [r3]
 692 0026 DBB2     		uxtb	r3, r3
 693 0028 03F00203 		and	r3, r3, #2
 694 002c 002B     		cmp	r3, #0
 695 002e 26D0     		beq	.L52
 447:Generated_Source\PSoC5/CySpc.c ****     {
 448:Generated_Source\PSoC5/CySpc.c ****         CY_SPC_CPU_DATA_REG = CY_SPC_KEY_ONE;
 696              		.loc 1 448 0
 697 0030 184B     		ldr	r3, .L57+4
 698 0032 B622     		movs	r2, #182
 699 0034 1A70     		strb	r2, [r3]
 449:Generated_Source\PSoC5/CySpc.c ****         CY_SPC_CPU_DATA_REG = CY_SPC_KEY_TWO(CY_SPC_CMD_WR_ROW);
 700              		.loc 1 449 0
 701 0036 174B     		ldr	r3, .L57+4
 702 0038 D822     		movs	r2, #216
 703 003a 1A70     		strb	r2, [r3]
 450:Generated_Source\PSoC5/CySpc.c ****         CY_SPC_CPU_DATA_REG = CY_SPC_CMD_WR_ROW;
 704              		.loc 1 450 0
 705 003c 154B     		ldr	r3, .L57+4
 706 003e 0522     		movs	r2, #5
 707 0040 1A70     		strb	r2, [r3]
 451:Generated_Source\PSoC5/CySpc.c **** 
 452:Generated_Source\PSoC5/CySpc.c ****         /* Make sure the command was accepted */
 453:Generated_Source\PSoC5/CySpc.c ****         if(CY_SPC_BUSY)
 708              		.loc 1 453 0
 709 0042 134B     		ldr	r3, .L57
 710 0044 1B78     		ldrb	r3, [r3]
 711 0046 DBB2     		uxtb	r3, r3
 712 0048 03F00203 		and	r3, r3, #2
 713 004c 002B     		cmp	r3, #0
 714 004e 13D1     		bne	.L53
 454:Generated_Source\PSoC5/CySpc.c ****         {
 455:Generated_Source\PSoC5/CySpc.c ****             CY_SPC_CPU_DATA_REG = array;
 715              		.loc 1 455 0
 716 0050 104A     		ldr	r2, .L57+4
 717 0052 FB79     		ldrb	r3, [r7, #7]
 718 0054 1370     		strb	r3, [r2]
 456:Generated_Source\PSoC5/CySpc.c ****             CY_SPC_CPU_DATA_REG = HI8(address);
 719              		.loc 1 456 0
 720 0056 0F4A     		ldr	r2, .L57+4
 721 0058 BB88     		ldrh	r3, [r7, #4]
 722 005a 1B0A     		lsrs	r3, r3, #8
 723 005c 9BB2     		uxth	r3, r3
 724 005e DBB2     		uxtb	r3, r3
 725 0060 1370     		strb	r3, [r2]
ARM GAS  C:\Users\subra\AppData\Local\Temp\cckfOUaB.s 			page 22


 457:Generated_Source\PSoC5/CySpc.c ****             CY_SPC_CPU_DATA_REG = LO8(address);
 726              		.loc 1 457 0
 727 0062 0C4B     		ldr	r3, .L57+4
 728 0064 BA88     		ldrh	r2, [r7, #4]	@ movhi
 729 0066 D2B2     		uxtb	r2, r2
 730 0068 1A70     		strb	r2, [r3]
 458:Generated_Source\PSoC5/CySpc.c ****             CY_SPC_CPU_DATA_REG = tempPolarity;
 731              		.loc 1 458 0
 732 006a 0A4A     		ldr	r2, .L57+4
 733 006c BB79     		ldrb	r3, [r7, #6]
 734 006e 1370     		strb	r3, [r2]
 459:Generated_Source\PSoC5/CySpc.c ****             CY_SPC_CPU_DATA_REG = tempMagnitude;
 735              		.loc 1 459 0
 736 0070 084A     		ldr	r2, .L57+4
 737 0072 FB78     		ldrb	r3, [r7, #3]
 738 0074 1370     		strb	r3, [r2]
 739 0076 04E0     		b	.L55
 740              	.L53:
 460:Generated_Source\PSoC5/CySpc.c ****         }
 461:Generated_Source\PSoC5/CySpc.c ****         else
 462:Generated_Source\PSoC5/CySpc.c ****         {
 463:Generated_Source\PSoC5/CySpc.c ****             status = CYRET_CANCELED;
 741              		.loc 1 463 0
 742 0078 0923     		movs	r3, #9
 743 007a FB60     		str	r3, [r7, #12]
 744 007c 01E0     		b	.L55
 745              	.L52:
 464:Generated_Source\PSoC5/CySpc.c ****         }
 465:Generated_Source\PSoC5/CySpc.c ****     }
 466:Generated_Source\PSoC5/CySpc.c ****     else
 467:Generated_Source\PSoC5/CySpc.c ****     {
 468:Generated_Source\PSoC5/CySpc.c ****         status = CYRET_LOCKED;
 746              		.loc 1 468 0
 747 007e 0423     		movs	r3, #4
 748 0080 FB60     		str	r3, [r7, #12]
 749              	.L55:
 469:Generated_Source\PSoC5/CySpc.c ****     }
 470:Generated_Source\PSoC5/CySpc.c **** 
 471:Generated_Source\PSoC5/CySpc.c ****     return(status);
 750              		.loc 1 471 0
 751 0082 FB68     		ldr	r3, [r7, #12]
 472:Generated_Source\PSoC5/CySpc.c **** }
 752              		.loc 1 472 0
 753 0084 1846     		mov	r0, r3
 754 0086 1037     		adds	r7, r7, #16
 755              		.cfi_def_cfa_offset 8
 756 0088 BD46     		mov	sp, r7
 757              		.cfi_def_cfa_register 13
 758              		@ sp needed
 759 008a 90BC     		pop	{r4, r7}
 760              		.cfi_restore 7
 761              		.cfi_restore 4
 762              		.cfi_def_cfa_offset 0
 763 008c 7047     		bx	lr
 764              	.L58:
 765 008e 00BF     		.align	2
 766              	.L57:
ARM GAS  C:\Users\subra\AppData\Local\Temp\cckfOUaB.s 			page 23


 767 0090 22470040 		.word	1073760034
 768 0094 20470040 		.word	1073760032
 769              		.cfi_endproc
 770              	.LFE6:
 771              		.size	CySpcWriteRow, .-CySpcWriteRow
 772              		.section	.text.CySpcEraseSector,"ax",%progbits
 773              		.align	2
 774              		.global	CySpcEraseSector
 775              		.thumb
 776              		.thumb_func
 777              		.type	CySpcEraseSector, %function
 778              	CySpcEraseSector:
 779              	.LFB7:
 473:Generated_Source\PSoC5/CySpc.c **** 
 474:Generated_Source\PSoC5/CySpc.c **** 
 475:Generated_Source\PSoC5/CySpc.c **** /*******************************************************************************
 476:Generated_Source\PSoC5/CySpc.c **** * Function Name: CySpcEraseSector
 477:Generated_Source\PSoC5/CySpc.c **** ****************************************************************************//**
 478:Generated_Source\PSoC5/CySpc.c **** *  Erases all data in the addressed sector (block of 64 rows).
 479:Generated_Source\PSoC5/CySpc.c **** *
 480:Generated_Source\PSoC5/CySpc.c **** *  \param uint8 array:
 481:Generated_Source\PSoC5/CySpc.c **** *   Id of the array.
 482:Generated_Source\PSoC5/CySpc.c **** *
 483:Generated_Source\PSoC5/CySpc.c **** *  \param uint8 sectorNumber:
 484:Generated_Source\PSoC5/CySpc.c **** *   Zero based sector number within Flash/EEPROM array
 485:Generated_Source\PSoC5/CySpc.c **** *
 486:Generated_Source\PSoC5/CySpc.c **** * \return
 487:Generated_Source\PSoC5/CySpc.c **** *  CYRET_STARTED
 488:Generated_Source\PSoC5/CySpc.c **** *  CYRET_CANCELED
 489:Generated_Source\PSoC5/CySpc.c **** *  CYRET_LOCKED
 490:Generated_Source\PSoC5/CySpc.c **** *
 491:Generated_Source\PSoC5/CySpc.c **** *******************************************************************************/
 492:Generated_Source\PSoC5/CySpc.c **** cystatus CySpcEraseSector(uint8 array, uint8 sectorNumber)
 493:Generated_Source\PSoC5/CySpc.c **** {
 780              		.loc 1 493 0
 781              		.cfi_startproc
 782              		@ args = 0, pretend = 0, frame = 16
 783              		@ frame_needed = 1, uses_anonymous_args = 0
 784              		@ link register save eliminated.
 785 0000 80B4     		push	{r7}
 786              		.cfi_def_cfa_offset 4
 787              		.cfi_offset 7, -4
 788 0002 85B0     		sub	sp, sp, #20
 789              		.cfi_def_cfa_offset 24
 790 0004 00AF     		add	r7, sp, #0
 791              		.cfi_def_cfa_register 7
 792 0006 0346     		mov	r3, r0
 793 0008 0A46     		mov	r2, r1
 794 000a FB71     		strb	r3, [r7, #7]
 795 000c 1346     		mov	r3, r2
 796 000e BB71     		strb	r3, [r7, #6]
 494:Generated_Source\PSoC5/CySpc.c ****     cystatus status = CYRET_STARTED;
 797              		.loc 1 494 0
 798 0010 0723     		movs	r3, #7
 799 0012 FB60     		str	r3, [r7, #12]
 495:Generated_Source\PSoC5/CySpc.c **** 
 496:Generated_Source\PSoC5/CySpc.c ****     /* Make sure the SPC is ready to accept command */
ARM GAS  C:\Users\subra\AppData\Local\Temp\cckfOUaB.s 			page 24


 497:Generated_Source\PSoC5/CySpc.c ****     if(CY_SPC_IDLE)
 800              		.loc 1 497 0
 801 0014 144B     		ldr	r3, .L65
 802 0016 1B78     		ldrb	r3, [r3]
 803 0018 DBB2     		uxtb	r3, r3
 804 001a 03F00203 		and	r3, r3, #2
 805 001e 002B     		cmp	r3, #0
 806 0020 19D0     		beq	.L60
 498:Generated_Source\PSoC5/CySpc.c ****     {
 499:Generated_Source\PSoC5/CySpc.c ****         CY_SPC_CPU_DATA_REG = CY_SPC_KEY_ONE;
 807              		.loc 1 499 0
 808 0022 124B     		ldr	r3, .L65+4
 809 0024 B622     		movs	r2, #182
 810 0026 1A70     		strb	r2, [r3]
 500:Generated_Source\PSoC5/CySpc.c ****         CY_SPC_CPU_DATA_REG = CY_SPC_KEY_TWO(CY_SPC_CMD_ER_SECTOR);
 811              		.loc 1 500 0
 812 0028 104B     		ldr	r3, .L65+4
 813 002a DB22     		movs	r2, #219
 814 002c 1A70     		strb	r2, [r3]
 501:Generated_Source\PSoC5/CySpc.c ****         CY_SPC_CPU_DATA_REG = CY_SPC_CMD_ER_SECTOR;
 815              		.loc 1 501 0
 816 002e 0F4B     		ldr	r3, .L65+4
 817 0030 0822     		movs	r2, #8
 818 0032 1A70     		strb	r2, [r3]
 502:Generated_Source\PSoC5/CySpc.c **** 
 503:Generated_Source\PSoC5/CySpc.c ****         /* Make sure the command was accepted */
 504:Generated_Source\PSoC5/CySpc.c ****         if(CY_SPC_BUSY)
 819              		.loc 1 504 0
 820 0034 0C4B     		ldr	r3, .L65
 821 0036 1B78     		ldrb	r3, [r3]
 822 0038 DBB2     		uxtb	r3, r3
 823 003a 03F00203 		and	r3, r3, #2
 824 003e 002B     		cmp	r3, #0
 825 0040 06D1     		bne	.L61
 505:Generated_Source\PSoC5/CySpc.c ****         {
 506:Generated_Source\PSoC5/CySpc.c ****             CY_SPC_CPU_DATA_REG = array;
 826              		.loc 1 506 0
 827 0042 0A4A     		ldr	r2, .L65+4
 828 0044 FB79     		ldrb	r3, [r7, #7]
 829 0046 1370     		strb	r3, [r2]
 507:Generated_Source\PSoC5/CySpc.c ****             CY_SPC_CPU_DATA_REG = sectorNumber;
 830              		.loc 1 507 0
 831 0048 084A     		ldr	r2, .L65+4
 832 004a BB79     		ldrb	r3, [r7, #6]
 833 004c 1370     		strb	r3, [r2]
 834 004e 04E0     		b	.L63
 835              	.L61:
 508:Generated_Source\PSoC5/CySpc.c ****         }
 509:Generated_Source\PSoC5/CySpc.c ****         else
 510:Generated_Source\PSoC5/CySpc.c ****         {
 511:Generated_Source\PSoC5/CySpc.c ****             status = CYRET_CANCELED;
 836              		.loc 1 511 0
 837 0050 0923     		movs	r3, #9
 838 0052 FB60     		str	r3, [r7, #12]
 839 0054 01E0     		b	.L63
 840              	.L60:
 512:Generated_Source\PSoC5/CySpc.c ****         }
ARM GAS  C:\Users\subra\AppData\Local\Temp\cckfOUaB.s 			page 25


 513:Generated_Source\PSoC5/CySpc.c ****     }
 514:Generated_Source\PSoC5/CySpc.c ****     else
 515:Generated_Source\PSoC5/CySpc.c ****     {
 516:Generated_Source\PSoC5/CySpc.c ****         status = CYRET_LOCKED;
 841              		.loc 1 516 0
 842 0056 0423     		movs	r3, #4
 843 0058 FB60     		str	r3, [r7, #12]
 844              	.L63:
 517:Generated_Source\PSoC5/CySpc.c ****     }
 518:Generated_Source\PSoC5/CySpc.c **** 
 519:Generated_Source\PSoC5/CySpc.c ****     return(status);
 845              		.loc 1 519 0
 846 005a FB68     		ldr	r3, [r7, #12]
 520:Generated_Source\PSoC5/CySpc.c **** }
 847              		.loc 1 520 0
 848 005c 1846     		mov	r0, r3
 849 005e 1437     		adds	r7, r7, #20
 850              		.cfi_def_cfa_offset 4
 851 0060 BD46     		mov	sp, r7
 852              		.cfi_def_cfa_register 13
 853              		@ sp needed
 854 0062 80BC     		pop	{r7}
 855              		.cfi_restore 7
 856              		.cfi_def_cfa_offset 0
 857 0064 7047     		bx	lr
 858              	.L66:
 859 0066 00BF     		.align	2
 860              	.L65:
 861 0068 22470040 		.word	1073760034
 862 006c 20470040 		.word	1073760032
 863              		.cfi_endproc
 864              	.LFE7:
 865              		.size	CySpcEraseSector, .-CySpcEraseSector
 866              		.section	.text.CySpcEraseRow,"ax",%progbits
 867              		.align	2
 868              		.global	CySpcEraseRow
 869              		.thumb
 870              		.thumb_func
 871              		.type	CySpcEraseRow, %function
 872              	CySpcEraseRow:
 873              	.LFB8:
 521:Generated_Source\PSoC5/CySpc.c **** 
 522:Generated_Source\PSoC5/CySpc.c **** 
 523:Generated_Source\PSoC5/CySpc.c **** /*******************************************************************************
 524:Generated_Source\PSoC5/CySpc.c **** * Function Name: CySpcEraseRow
 525:Generated_Source\PSoC5/CySpc.c **** ****************************************************************************//**
 526:Generated_Source\PSoC5/CySpc.c **** *  Erases a row in Flash.
 527:Generated_Source\PSoC5/CySpc.c **** *
 528:Generated_Source\PSoC5/CySpc.c **** *  \param uint8 array:
 529:Generated_Source\PSoC5/CySpc.c **** *   Id of the array.
 530:Generated_Source\PSoC5/CySpc.c **** *
 531:Generated_Source\PSoC5/CySpc.c **** *  \param uint16 address:
 532:Generated_Source\PSoC5/CySpc.c **** *   Flash address
 533:Generated_Source\PSoC5/CySpc.c **** *
 534:Generated_Source\PSoC5/CySpc.c **** *  \param uint8 tempPolarity:
 535:Generated_Source\PSoC5/CySpc.c **** *   temperature polarity.
 536:Generated_Source\PSoC5/CySpc.c **** *   \param 1: the Temp Magnitude is interpreted as a positive value
ARM GAS  C:\Users\subra\AppData\Local\Temp\cckfOUaB.s 			page 26


 537:Generated_Source\PSoC5/CySpc.c **** *   \param 0: the Temp Magnitude is interpreted as a negative value
 538:Generated_Source\PSoC5/CySpc.c **** *
 539:Generated_Source\PSoC5/CySpc.c **** *  \param uint8 tempMagnitude:
 540:Generated_Source\PSoC5/CySpc.c **** *   temperature magnitude.
 541:Generated_Source\PSoC5/CySpc.c **** *
 542:Generated_Source\PSoC5/CySpc.c **** * \return
 543:Generated_Source\PSoC5/CySpc.c **** *  CYRET_STARTED
 544:Generated_Source\PSoC5/CySpc.c **** *  CYRET_CANCELED
 545:Generated_Source\PSoC5/CySpc.c **** *  CYRET_LOCKED
 546:Generated_Source\PSoC5/CySpc.c **** *
 547:Generated_Source\PSoC5/CySpc.c **** *******************************************************************************/
 548:Generated_Source\PSoC5/CySpc.c **** cystatus CySpcEraseRow(uint8 array, uint16 address, uint8 tempPolarity, uint8 tempMagnitude)\
 549:Generated_Source\PSoC5/CySpc.c **** 
 550:Generated_Source\PSoC5/CySpc.c **** {
 874              		.loc 1 550 0
 875              		.cfi_startproc
 876              		@ args = 0, pretend = 0, frame = 16
 877              		@ frame_needed = 1, uses_anonymous_args = 0
 878              		@ link register save eliminated.
 879 0000 90B4     		push	{r4, r7}
 880              		.cfi_def_cfa_offset 8
 881              		.cfi_offset 4, -8
 882              		.cfi_offset 7, -4
 883 0002 84B0     		sub	sp, sp, #16
 884              		.cfi_def_cfa_offset 24
 885 0004 00AF     		add	r7, sp, #0
 886              		.cfi_def_cfa_register 7
 887 0006 0446     		mov	r4, r0
 888 0008 0846     		mov	r0, r1
 889 000a 1146     		mov	r1, r2
 890 000c 1A46     		mov	r2, r3
 891 000e 2346     		mov	r3, r4
 892 0010 FB71     		strb	r3, [r7, #7]
 893 0012 0346     		mov	r3, r0	@ movhi
 894 0014 BB80     		strh	r3, [r7, #4]	@ movhi
 895 0016 0B46     		mov	r3, r1
 896 0018 BB71     		strb	r3, [r7, #6]
 897 001a 1346     		mov	r3, r2
 898 001c FB70     		strb	r3, [r7, #3]
 551:Generated_Source\PSoC5/CySpc.c ****     cystatus status = CYRET_STARTED;
 899              		.loc 1 551 0
 900 001e 0723     		movs	r3, #7
 901 0020 FB60     		str	r3, [r7, #12]
 552:Generated_Source\PSoC5/CySpc.c **** 
 553:Generated_Source\PSoC5/CySpc.c ****     /* Make sure the SPC is ready to accept command */
 554:Generated_Source\PSoC5/CySpc.c ****     if(CY_SPC_IDLE)
 902              		.loc 1 554 0
 903 0022 1B4B     		ldr	r3, .L73
 904 0024 1B78     		ldrb	r3, [r3]
 905 0026 DBB2     		uxtb	r3, r3
 906 0028 03F00203 		and	r3, r3, #2
 907 002c 002B     		cmp	r3, #0
 908 002e 26D0     		beq	.L68
 555:Generated_Source\PSoC5/CySpc.c ****     {
 556:Generated_Source\PSoC5/CySpc.c ****         CY_SPC_CPU_DATA_REG = CY_SPC_KEY_ONE;
 909              		.loc 1 556 0
 910 0030 184B     		ldr	r3, .L73+4
ARM GAS  C:\Users\subra\AppData\Local\Temp\cckfOUaB.s 			page 27


 911 0032 B622     		movs	r2, #182
 912 0034 1A70     		strb	r2, [r3]
 557:Generated_Source\PSoC5/CySpc.c ****         CY_SPC_CPU_DATA_REG = CY_SPC_KEY_TWO(CY_SPC_CMD_ER_ROW);
 913              		.loc 1 557 0
 914 0036 174B     		ldr	r3, .L73+4
 915 0038 E622     		movs	r2, #230
 916 003a 1A70     		strb	r2, [r3]
 558:Generated_Source\PSoC5/CySpc.c ****         CY_SPC_CPU_DATA_REG = CY_SPC_CMD_ER_ROW;
 917              		.loc 1 558 0
 918 003c 154B     		ldr	r3, .L73+4
 919 003e 1322     		movs	r2, #19
 920 0040 1A70     		strb	r2, [r3]
 559:Generated_Source\PSoC5/CySpc.c **** 
 560:Generated_Source\PSoC5/CySpc.c ****         /* Make sure the command was accepted */
 561:Generated_Source\PSoC5/CySpc.c ****         if(CY_SPC_BUSY)
 921              		.loc 1 561 0
 922 0042 134B     		ldr	r3, .L73
 923 0044 1B78     		ldrb	r3, [r3]
 924 0046 DBB2     		uxtb	r3, r3
 925 0048 03F00203 		and	r3, r3, #2
 926 004c 002B     		cmp	r3, #0
 927 004e 13D1     		bne	.L69
 562:Generated_Source\PSoC5/CySpc.c ****         {
 563:Generated_Source\PSoC5/CySpc.c ****             CY_SPC_CPU_DATA_REG = array;
 928              		.loc 1 563 0
 929 0050 104A     		ldr	r2, .L73+4
 930 0052 FB79     		ldrb	r3, [r7, #7]
 931 0054 1370     		strb	r3, [r2]
 564:Generated_Source\PSoC5/CySpc.c ****             CY_SPC_CPU_DATA_REG = HI8(address);
 932              		.loc 1 564 0
 933 0056 0F4A     		ldr	r2, .L73+4
 934 0058 BB88     		ldrh	r3, [r7, #4]
 935 005a 1B0A     		lsrs	r3, r3, #8
 936 005c 9BB2     		uxth	r3, r3
 937 005e DBB2     		uxtb	r3, r3
 938 0060 1370     		strb	r3, [r2]
 565:Generated_Source\PSoC5/CySpc.c ****             CY_SPC_CPU_DATA_REG = LO8(address);
 939              		.loc 1 565 0
 940 0062 0C4B     		ldr	r3, .L73+4
 941 0064 BA88     		ldrh	r2, [r7, #4]	@ movhi
 942 0066 D2B2     		uxtb	r2, r2
 943 0068 1A70     		strb	r2, [r3]
 566:Generated_Source\PSoC5/CySpc.c ****             CY_SPC_CPU_DATA_REG = tempPolarity;
 944              		.loc 1 566 0
 945 006a 0A4A     		ldr	r2, .L73+4
 946 006c BB79     		ldrb	r3, [r7, #6]
 947 006e 1370     		strb	r3, [r2]
 567:Generated_Source\PSoC5/CySpc.c ****             CY_SPC_CPU_DATA_REG = tempMagnitude;
 948              		.loc 1 567 0
 949 0070 084A     		ldr	r2, .L73+4
 950 0072 FB78     		ldrb	r3, [r7, #3]
 951 0074 1370     		strb	r3, [r2]
 952 0076 04E0     		b	.L71
 953              	.L69:
 568:Generated_Source\PSoC5/CySpc.c ****         }
 569:Generated_Source\PSoC5/CySpc.c ****         else
 570:Generated_Source\PSoC5/CySpc.c ****         {
ARM GAS  C:\Users\subra\AppData\Local\Temp\cckfOUaB.s 			page 28


 571:Generated_Source\PSoC5/CySpc.c ****             status = CYRET_CANCELED;
 954              		.loc 1 571 0
 955 0078 0923     		movs	r3, #9
 956 007a FB60     		str	r3, [r7, #12]
 957 007c 01E0     		b	.L71
 958              	.L68:
 572:Generated_Source\PSoC5/CySpc.c ****         }
 573:Generated_Source\PSoC5/CySpc.c ****     }
 574:Generated_Source\PSoC5/CySpc.c ****     else
 575:Generated_Source\PSoC5/CySpc.c ****     {
 576:Generated_Source\PSoC5/CySpc.c ****         status = CYRET_LOCKED;
 959              		.loc 1 576 0
 960 007e 0423     		movs	r3, #4
 961 0080 FB60     		str	r3, [r7, #12]
 962              	.L71:
 577:Generated_Source\PSoC5/CySpc.c ****     }
 578:Generated_Source\PSoC5/CySpc.c **** 
 579:Generated_Source\PSoC5/CySpc.c ****     return(status);
 963              		.loc 1 579 0
 964 0082 FB68     		ldr	r3, [r7, #12]
 580:Generated_Source\PSoC5/CySpc.c **** }
 965              		.loc 1 580 0
 966 0084 1846     		mov	r0, r3
 967 0086 1037     		adds	r7, r7, #16
 968              		.cfi_def_cfa_offset 8
 969 0088 BD46     		mov	sp, r7
 970              		.cfi_def_cfa_register 13
 971              		@ sp needed
 972 008a 90BC     		pop	{r4, r7}
 973              		.cfi_restore 7
 974              		.cfi_restore 4
 975              		.cfi_def_cfa_offset 0
 976 008c 7047     		bx	lr
 977              	.L74:
 978 008e 00BF     		.align	2
 979              	.L73:
 980 0090 22470040 		.word	1073760034
 981 0094 20470040 		.word	1073760032
 982              		.cfi_endproc
 983              	.LFE8:
 984              		.size	CySpcEraseRow, .-CySpcEraseRow
 985              		.section	.text.CySpcGetTemp,"ax",%progbits
 986              		.align	2
 987              		.global	CySpcGetTemp
 988              		.thumb
 989              		.thumb_func
 990              		.type	CySpcGetTemp, %function
 991              	CySpcGetTemp:
 992              	.LFB9:
 581:Generated_Source\PSoC5/CySpc.c **** 
 582:Generated_Source\PSoC5/CySpc.c **** 
 583:Generated_Source\PSoC5/CySpc.c **** /*******************************************************************************
 584:Generated_Source\PSoC5/CySpc.c **** * Function Name: CySpcGetTemp
 585:Generated_Source\PSoC5/CySpc.c **** ****************************************************************************//**
 586:Generated_Source\PSoC5/CySpc.c **** *  Returns the internal die temperature
 587:Generated_Source\PSoC5/CySpc.c **** *
 588:Generated_Source\PSoC5/CySpc.c **** *  \param uint8 numSamples:
ARM GAS  C:\Users\subra\AppData\Local\Temp\cckfOUaB.s 			page 29


 589:Generated_Source\PSoC5/CySpc.c **** *   Number of samples. Valid values are 1-5, resulting in 2 - 32 samples
 590:Generated_Source\PSoC5/CySpc.c **** *   respectively.
 591:Generated_Source\PSoC5/CySpc.c **** *
 592:Generated_Source\PSoC5/CySpc.c **** * \param uint16 timerPeriod:
 593:Generated_Source\PSoC5/CySpc.c **** *   Number of ADC ACLK cycles. A valid 14 bit value is accepted, higher 2 bits
 594:Generated_Source\PSoC5/CySpc.c **** *   of 16 bit values are ignored.
 595:Generated_Source\PSoC5/CySpc.c **** *
 596:Generated_Source\PSoC5/CySpc.c **** * \param uint8 clkDivSelect:
 597:Generated_Source\PSoC5/CySpc.c **** *   ADC ACLK clock divide value. Valid values are 2 - 225.
 598:Generated_Source\PSoC5/CySpc.c **** *
 599:Generated_Source\PSoC5/CySpc.c **** * \return
 600:Generated_Source\PSoC5/CySpc.c **** *  CYRET_STARTED
 601:Generated_Source\PSoC5/CySpc.c **** *  CYRET_CANCELED
 602:Generated_Source\PSoC5/CySpc.c **** *  CYRET_LOCKED
 603:Generated_Source\PSoC5/CySpc.c **** *
 604:Generated_Source\PSoC5/CySpc.c **** *******************************************************************************/
 605:Generated_Source\PSoC5/CySpc.c **** cystatus CySpcGetTemp(uint8 numSamples)
 606:Generated_Source\PSoC5/CySpc.c **** {
 993              		.loc 1 606 0
 994              		.cfi_startproc
 995              		@ args = 0, pretend = 0, frame = 16
 996              		@ frame_needed = 1, uses_anonymous_args = 0
 997              		@ link register save eliminated.
 998 0000 80B4     		push	{r7}
 999              		.cfi_def_cfa_offset 4
 1000              		.cfi_offset 7, -4
 1001 0002 85B0     		sub	sp, sp, #20
 1002              		.cfi_def_cfa_offset 24
 1003 0004 00AF     		add	r7, sp, #0
 1004              		.cfi_def_cfa_register 7
 1005 0006 0346     		mov	r3, r0
 1006 0008 FB71     		strb	r3, [r7, #7]
 607:Generated_Source\PSoC5/CySpc.c ****     cystatus status = CYRET_STARTED;
 1007              		.loc 1 607 0
 1008 000a 0723     		movs	r3, #7
 1009 000c FB60     		str	r3, [r7, #12]
 608:Generated_Source\PSoC5/CySpc.c **** 
 609:Generated_Source\PSoC5/CySpc.c ****     /* Make sure the SPC is ready to accept command */
 610:Generated_Source\PSoC5/CySpc.c ****     if(CY_SPC_IDLE)
 1010              		.loc 1 610 0
 1011 000e 134B     		ldr	r3, .L81
 1012 0010 1B78     		ldrb	r3, [r3]
 1013 0012 DBB2     		uxtb	r3, r3
 1014 0014 03F00203 		and	r3, r3, #2
 1015 0018 002B     		cmp	r3, #0
 1016 001a 16D0     		beq	.L76
 611:Generated_Source\PSoC5/CySpc.c ****     {
 612:Generated_Source\PSoC5/CySpc.c ****         CY_SPC_CPU_DATA_REG = CY_SPC_KEY_ONE;
 1017              		.loc 1 612 0
 1018 001c 104B     		ldr	r3, .L81+4
 1019 001e B622     		movs	r2, #182
 1020 0020 1A70     		strb	r2, [r3]
 613:Generated_Source\PSoC5/CySpc.c ****         CY_SPC_CPU_DATA_REG = CY_SPC_KEY_TWO(CY_SPC_CMD_GET_TEMP);
 1021              		.loc 1 613 0
 1022 0022 0F4B     		ldr	r3, .L81+4
 1023 0024 E122     		movs	r2, #225
 1024 0026 1A70     		strb	r2, [r3]
ARM GAS  C:\Users\subra\AppData\Local\Temp\cckfOUaB.s 			page 30


 614:Generated_Source\PSoC5/CySpc.c ****         CY_SPC_CPU_DATA_REG = CY_SPC_CMD_GET_TEMP;
 1025              		.loc 1 614 0
 1026 0028 0D4B     		ldr	r3, .L81+4
 1027 002a 0E22     		movs	r2, #14
 1028 002c 1A70     		strb	r2, [r3]
 615:Generated_Source\PSoC5/CySpc.c **** 
 616:Generated_Source\PSoC5/CySpc.c ****         /* Make sure the command was accepted */
 617:Generated_Source\PSoC5/CySpc.c ****         if(CY_SPC_BUSY)
 1029              		.loc 1 617 0
 1030 002e 0B4B     		ldr	r3, .L81
 1031 0030 1B78     		ldrb	r3, [r3]
 1032 0032 DBB2     		uxtb	r3, r3
 1033 0034 03F00203 		and	r3, r3, #2
 1034 0038 002B     		cmp	r3, #0
 1035 003a 03D1     		bne	.L77
 618:Generated_Source\PSoC5/CySpc.c ****         {
 619:Generated_Source\PSoC5/CySpc.c ****             CY_SPC_CPU_DATA_REG = numSamples;
 1036              		.loc 1 619 0
 1037 003c 084A     		ldr	r2, .L81+4
 1038 003e FB79     		ldrb	r3, [r7, #7]
 1039 0040 1370     		strb	r3, [r2]
 1040 0042 04E0     		b	.L79
 1041              	.L77:
 620:Generated_Source\PSoC5/CySpc.c ****         }
 621:Generated_Source\PSoC5/CySpc.c ****         else
 622:Generated_Source\PSoC5/CySpc.c ****         {
 623:Generated_Source\PSoC5/CySpc.c ****             status = CYRET_CANCELED;
 1042              		.loc 1 623 0
 1043 0044 0923     		movs	r3, #9
 1044 0046 FB60     		str	r3, [r7, #12]
 1045 0048 01E0     		b	.L79
 1046              	.L76:
 624:Generated_Source\PSoC5/CySpc.c ****         }
 625:Generated_Source\PSoC5/CySpc.c ****     }
 626:Generated_Source\PSoC5/CySpc.c ****     else
 627:Generated_Source\PSoC5/CySpc.c ****     {
 628:Generated_Source\PSoC5/CySpc.c ****         status = CYRET_LOCKED;
 1047              		.loc 1 628 0
 1048 004a 0423     		movs	r3, #4
 1049 004c FB60     		str	r3, [r7, #12]
 1050              	.L79:
 629:Generated_Source\PSoC5/CySpc.c ****     }
 630:Generated_Source\PSoC5/CySpc.c **** 
 631:Generated_Source\PSoC5/CySpc.c ****     return(status);
 1051              		.loc 1 631 0
 1052 004e FB68     		ldr	r3, [r7, #12]
 632:Generated_Source\PSoC5/CySpc.c **** }
 1053              		.loc 1 632 0
 1054 0050 1846     		mov	r0, r3
 1055 0052 1437     		adds	r7, r7, #20
 1056              		.cfi_def_cfa_offset 4
 1057 0054 BD46     		mov	sp, r7
 1058              		.cfi_def_cfa_register 13
 1059              		@ sp needed
 1060 0056 80BC     		pop	{r7}
 1061              		.cfi_restore 7
 1062              		.cfi_def_cfa_offset 0
ARM GAS  C:\Users\subra\AppData\Local\Temp\cckfOUaB.s 			page 31


 1063 0058 7047     		bx	lr
 1064              	.L82:
 1065 005a 00BF     		.align	2
 1066              	.L81:
 1067 005c 22470040 		.word	1073760034
 1068 0060 20470040 		.word	1073760032
 1069              		.cfi_endproc
 1070              	.LFE9:
 1071              		.size	CySpcGetTemp, .-CySpcGetTemp
 1072              		.section	.text.CySpcLock,"ax",%progbits
 1073              		.align	2
 1074              		.global	CySpcLock
 1075              		.thumb
 1076              		.thumb_func
 1077              		.type	CySpcLock, %function
 1078              	CySpcLock:
 1079              	.LFB10:
 633:Generated_Source\PSoC5/CySpc.c **** 
 634:Generated_Source\PSoC5/CySpc.c **** 
 635:Generated_Source\PSoC5/CySpc.c **** /*******************************************************************************
 636:Generated_Source\PSoC5/CySpc.c **** * Function Name: CySpcLock
 637:Generated_Source\PSoC5/CySpc.c **** ****************************************************************************//**
 638:Generated_Source\PSoC5/CySpc.c **** *  Locks the SPC so it can not be used by someone else:
 639:Generated_Source\PSoC5/CySpc.c **** *   - Saves wait-pipeline enable state and enable pipeline (PSoC5)
 640:Generated_Source\PSoC5/CySpc.c **** *
 641:Generated_Source\PSoC5/CySpc.c **** * \return
 642:Generated_Source\PSoC5/CySpc.c **** *  CYRET_SUCCESS - if the resource was free.
 643:Generated_Source\PSoC5/CySpc.c **** *  CYRET_LOCKED  - if the SPC is in use.
 644:Generated_Source\PSoC5/CySpc.c **** *
 645:Generated_Source\PSoC5/CySpc.c **** *******************************************************************************/
 646:Generated_Source\PSoC5/CySpc.c **** cystatus CySpcLock(void)
 647:Generated_Source\PSoC5/CySpc.c **** {
 1080              		.loc 1 647 0
 1081              		.cfi_startproc
 1082              		@ args = 0, pretend = 0, frame = 8
 1083              		@ frame_needed = 1, uses_anonymous_args = 0
 1084 0000 80B5     		push	{r7, lr}
 1085              		.cfi_def_cfa_offset 8
 1086              		.cfi_offset 7, -8
 1087              		.cfi_offset 14, -4
 1088 0002 82B0     		sub	sp, sp, #8
 1089              		.cfi_def_cfa_offset 16
 1090 0004 00AF     		add	r7, sp, #0
 1091              		.cfi_def_cfa_register 7
 648:Generated_Source\PSoC5/CySpc.c ****     cystatus status = CYRET_LOCKED;
 1092              		.loc 1 648 0
 1093 0006 0423     		movs	r3, #4
 1094 0008 7B60     		str	r3, [r7, #4]
 649:Generated_Source\PSoC5/CySpc.c ****     uint8 interruptState;
 650:Generated_Source\PSoC5/CySpc.c **** 
 651:Generated_Source\PSoC5/CySpc.c ****     /* Enter critical section */
 652:Generated_Source\PSoC5/CySpc.c ****     interruptState = CyEnterCriticalSection();
 1095              		.loc 1 652 0
 1096 000a FFF7FEFF 		bl	CyEnterCriticalSection
 1097 000e 0346     		mov	r3, r0
 1098 0010 FB70     		strb	r3, [r7, #3]
 653:Generated_Source\PSoC5/CySpc.c **** 
ARM GAS  C:\Users\subra\AppData\Local\Temp\cckfOUaB.s 			page 32


 654:Generated_Source\PSoC5/CySpc.c ****     if(CY_SPC_UNLOCKED == SpcLockState)
 1099              		.loc 1 654 0
 1100 0012 124B     		ldr	r3, .L86
 1101 0014 1B78     		ldrb	r3, [r3]	@ zero_extendqisi2
 1102 0016 002B     		cmp	r3, #0
 1103 0018 16D1     		bne	.L84
 655:Generated_Source\PSoC5/CySpc.c ****     {
 656:Generated_Source\PSoC5/CySpc.c ****         SpcLockState = CY_SPC_LOCKED;
 1104              		.loc 1 656 0
 1105 001a 104B     		ldr	r3, .L86
 1106 001c 0122     		movs	r2, #1
 1107 001e 1A70     		strb	r2, [r3]
 657:Generated_Source\PSoC5/CySpc.c ****         status = CYRET_SUCCESS;
 1108              		.loc 1 657 0
 1109 0020 0023     		movs	r3, #0
 1110 0022 7B60     		str	r3, [r7, #4]
 658:Generated_Source\PSoC5/CySpc.c **** 
 659:Generated_Source\PSoC5/CySpc.c ****         #if(CY_PSOC5)
 660:Generated_Source\PSoC5/CySpc.c **** 
 661:Generated_Source\PSoC5/CySpc.c ****             if(0u != (CY_SPC_CPU_WAITPIPE_REG & CY_SPC_CPU_WAITPIPE_BYPASS))
 1111              		.loc 1 661 0
 1112 0024 0E4B     		ldr	r3, .L86+4
 1113 0026 1B68     		ldr	r3, [r3]
 1114 0028 03F00103 		and	r3, r3, #1
 1115 002c 002B     		cmp	r3, #0
 1116 002e 0BD0     		beq	.L84
 662:Generated_Source\PSoC5/CySpc.c ****             {
 663:Generated_Source\PSoC5/CySpc.c ****                 /* Enable pipeline registers */
 664:Generated_Source\PSoC5/CySpc.c ****                 CY_SPC_CPU_WAITPIPE_REG &= ((uint32)(~CY_SPC_CPU_WAITPIPE_BYPASS));
 1117              		.loc 1 664 0
 1118 0030 0B4A     		ldr	r2, .L86+4
 1119 0032 0B4B     		ldr	r3, .L86+4
 1120 0034 1B68     		ldr	r3, [r3]
 1121 0036 23F00103 		bic	r3, r3, #1
 1122 003a 1360     		str	r3, [r2]
 665:Generated_Source\PSoC5/CySpc.c **** 
 666:Generated_Source\PSoC5/CySpc.c ****                 /* At least 2 NOP instructions are recommended */
 667:Generated_Source\PSoC5/CySpc.c ****                 CY_NOP;
 1123              		.loc 1 667 0
 1124              		.syntax unified
 1125              	@ 667 "Generated_Source\PSoC5\CySpc.c" 1
 1126 003c 00BF     		NOP
 1127              	
 1128              	@ 0 "" 2
 668:Generated_Source\PSoC5/CySpc.c ****                 CY_NOP;
 1129              		.loc 1 668 0
 1130              	@ 668 "Generated_Source\PSoC5\CySpc.c" 1
 1131 003e 00BF     		NOP
 1132              	
 1133              	@ 0 "" 2
 669:Generated_Source\PSoC5/CySpc.c ****                 CY_NOP;
 1134              		.loc 1 669 0
 1135              	@ 669 "Generated_Source\PSoC5\CySpc.c" 1
 1136 0040 00BF     		NOP
 1137              	
 1138              	@ 0 "" 2
 670:Generated_Source\PSoC5/CySpc.c **** 
ARM GAS  C:\Users\subra\AppData\Local\Temp\cckfOUaB.s 			page 33


 671:Generated_Source\PSoC5/CySpc.c ****                 spcWaitPipeBypass = CY_SPC_CPU_WAITPIPE_BYPASS;
 1139              		.loc 1 671 0
 1140              		.thumb
 1141              		.syntax unified
 1142 0042 084B     		ldr	r3, .L86+8
 1143 0044 0122     		movs	r2, #1
 1144 0046 1A60     		str	r2, [r3]
 1145              	.L84:
 672:Generated_Source\PSoC5/CySpc.c ****             }
 673:Generated_Source\PSoC5/CySpc.c **** 
 674:Generated_Source\PSoC5/CySpc.c ****         #endif  /* (CY_PSOC5) */
 675:Generated_Source\PSoC5/CySpc.c ****     }
 676:Generated_Source\PSoC5/CySpc.c **** 
 677:Generated_Source\PSoC5/CySpc.c ****     /* Exit critical section */
 678:Generated_Source\PSoC5/CySpc.c ****     CyExitCriticalSection(interruptState);
 1146              		.loc 1 678 0
 1147 0048 FB78     		ldrb	r3, [r7, #3]	@ zero_extendqisi2
 1148 004a 1846     		mov	r0, r3
 1149 004c FFF7FEFF 		bl	CyExitCriticalSection
 679:Generated_Source\PSoC5/CySpc.c **** 
 680:Generated_Source\PSoC5/CySpc.c ****     return(status);
 1150              		.loc 1 680 0
 1151 0050 7B68     		ldr	r3, [r7, #4]
 681:Generated_Source\PSoC5/CySpc.c **** }
 1152              		.loc 1 681 0
 1153 0052 1846     		mov	r0, r3
 1154 0054 0837     		adds	r7, r7, #8
 1155              		.cfi_def_cfa_offset 8
 1156 0056 BD46     		mov	sp, r7
 1157              		.cfi_def_cfa_register 13
 1158              		@ sp needed
 1159 0058 80BD     		pop	{r7, pc}
 1160              	.L87:
 1161 005a 00BF     		.align	2
 1162              	.L86:
 1163 005c 00000000 		.word	SpcLockState
 1164 0060 04000840 		.word	1074266116
 1165 0064 04000000 		.word	spcWaitPipeBypass
 1166              		.cfi_endproc
 1167              	.LFE10:
 1168              		.size	CySpcLock, .-CySpcLock
 1169              		.section	.text.CySpcUnlock,"ax",%progbits
 1170              		.align	2
 1171              		.global	CySpcUnlock
 1172              		.thumb
 1173              		.thumb_func
 1174              		.type	CySpcUnlock, %function
 1175              	CySpcUnlock:
 1176              	.LFB11:
 682:Generated_Source\PSoC5/CySpc.c **** 
 683:Generated_Source\PSoC5/CySpc.c **** 
 684:Generated_Source\PSoC5/CySpc.c **** /*******************************************************************************
 685:Generated_Source\PSoC5/CySpc.c **** * Function Name: CySpcUnlock
 686:Generated_Source\PSoC5/CySpc.c **** ****************************************************************************//**
 687:Generated_Source\PSoC5/CySpc.c **** *  Unlocks the SPC so it can be used by someone else:
 688:Generated_Source\PSoC5/CySpc.c **** *   - Restores wait-pipeline enable state (PSoC5)
 689:Generated_Source\PSoC5/CySpc.c **** *
ARM GAS  C:\Users\subra\AppData\Local\Temp\cckfOUaB.s 			page 34


 690:Generated_Source\PSoC5/CySpc.c **** *******************************************************************************/
 691:Generated_Source\PSoC5/CySpc.c **** void CySpcUnlock(void)
 692:Generated_Source\PSoC5/CySpc.c **** {
 1177              		.loc 1 692 0
 1178              		.cfi_startproc
 1179              		@ args = 0, pretend = 0, frame = 8
 1180              		@ frame_needed = 1, uses_anonymous_args = 0
 1181 0000 80B5     		push	{r7, lr}
 1182              		.cfi_def_cfa_offset 8
 1183              		.cfi_offset 7, -8
 1184              		.cfi_offset 14, -4
 1185 0002 82B0     		sub	sp, sp, #8
 1186              		.cfi_def_cfa_offset 16
 1187 0004 00AF     		add	r7, sp, #0
 1188              		.cfi_def_cfa_register 7
 693:Generated_Source\PSoC5/CySpc.c ****     uint8 interruptState;
 694:Generated_Source\PSoC5/CySpc.c **** 
 695:Generated_Source\PSoC5/CySpc.c ****     /* Enter critical section */
 696:Generated_Source\PSoC5/CySpc.c ****     interruptState = CyEnterCriticalSection();
 1189              		.loc 1 696 0
 1190 0006 FFF7FEFF 		bl	CyEnterCriticalSection
 1191 000a 0346     		mov	r3, r0
 1192 000c FB71     		strb	r3, [r7, #7]
 697:Generated_Source\PSoC5/CySpc.c **** 
 698:Generated_Source\PSoC5/CySpc.c ****     /* Release the SPC object */
 699:Generated_Source\PSoC5/CySpc.c ****     SpcLockState = CY_SPC_UNLOCKED;
 1193              		.loc 1 699 0
 1194 000e 0D4B     		ldr	r3, .L90
 1195 0010 0022     		movs	r2, #0
 1196 0012 1A70     		strb	r2, [r3]
 700:Generated_Source\PSoC5/CySpc.c **** 
 701:Generated_Source\PSoC5/CySpc.c ****     #if(CY_PSOC5)
 702:Generated_Source\PSoC5/CySpc.c **** 
 703:Generated_Source\PSoC5/CySpc.c ****         if(CY_SPC_CPU_WAITPIPE_BYPASS == spcWaitPipeBypass)
 1197              		.loc 1 703 0
 1198 0014 0C4B     		ldr	r3, .L90+4
 1199 0016 1B68     		ldr	r3, [r3]
 1200 0018 012B     		cmp	r3, #1
 1201 001a 0BD1     		bne	.L89
 704:Generated_Source\PSoC5/CySpc.c ****         {
 705:Generated_Source\PSoC5/CySpc.c ****             /* Force to bypass pipeline registers */
 706:Generated_Source\PSoC5/CySpc.c ****             CY_SPC_CPU_WAITPIPE_REG |= CY_SPC_CPU_WAITPIPE_BYPASS;
 1202              		.loc 1 706 0
 1203 001c 0B4A     		ldr	r2, .L90+8
 1204 001e 0B4B     		ldr	r3, .L90+8
 1205 0020 1B68     		ldr	r3, [r3]
 1206 0022 43F00103 		orr	r3, r3, #1
 1207 0026 1360     		str	r3, [r2]
 707:Generated_Source\PSoC5/CySpc.c **** 
 708:Generated_Source\PSoC5/CySpc.c ****             /* At least 2 NOP instructions are recommended */
 709:Generated_Source\PSoC5/CySpc.c ****             CY_NOP;
 1208              		.loc 1 709 0
 1209              		.syntax unified
 1210              	@ 709 "Generated_Source\PSoC5\CySpc.c" 1
 1211 0028 00BF     		NOP
 1212              	
 1213              	@ 0 "" 2
ARM GAS  C:\Users\subra\AppData\Local\Temp\cckfOUaB.s 			page 35


 710:Generated_Source\PSoC5/CySpc.c ****             CY_NOP;
 1214              		.loc 1 710 0
 1215              	@ 710 "Generated_Source\PSoC5\CySpc.c" 1
 1216 002a 00BF     		NOP
 1217              	
 1218              	@ 0 "" 2
 711:Generated_Source\PSoC5/CySpc.c ****             CY_NOP;
 1219              		.loc 1 711 0
 1220              	@ 711 "Generated_Source\PSoC5\CySpc.c" 1
 1221 002c 00BF     		NOP
 1222              	
 1223              	@ 0 "" 2
 712:Generated_Source\PSoC5/CySpc.c **** 
 713:Generated_Source\PSoC5/CySpc.c ****             spcWaitPipeBypass = 0u;
 1224              		.loc 1 713 0
 1225              		.thumb
 1226              		.syntax unified
 1227 002e 064B     		ldr	r3, .L90+4
 1228 0030 0022     		movs	r2, #0
 1229 0032 1A60     		str	r2, [r3]
 1230              	.L89:
 714:Generated_Source\PSoC5/CySpc.c ****         }
 715:Generated_Source\PSoC5/CySpc.c **** 
 716:Generated_Source\PSoC5/CySpc.c ****     #endif  /* (CY_PSOC5) */
 717:Generated_Source\PSoC5/CySpc.c **** 
 718:Generated_Source\PSoC5/CySpc.c ****     /* Exit critical section */
 719:Generated_Source\PSoC5/CySpc.c ****     CyExitCriticalSection(interruptState);
 1231              		.loc 1 719 0
 1232 0034 FB79     		ldrb	r3, [r7, #7]	@ zero_extendqisi2
 1233 0036 1846     		mov	r0, r3
 1234 0038 FFF7FEFF 		bl	CyExitCriticalSection
 720:Generated_Source\PSoC5/CySpc.c **** }
 1235              		.loc 1 720 0
 1236 003c 00BF     		nop
 1237 003e 0837     		adds	r7, r7, #8
 1238              		.cfi_def_cfa_offset 8
 1239 0040 BD46     		mov	sp, r7
 1240              		.cfi_def_cfa_register 13
 1241              		@ sp needed
 1242 0042 80BD     		pop	{r7, pc}
 1243              	.L91:
 1244              		.align	2
 1245              	.L90:
 1246 0044 00000000 		.word	SpcLockState
 1247 0048 04000000 		.word	spcWaitPipeBypass
 1248 004c 04000840 		.word	1074266116
 1249              		.cfi_endproc
 1250              	.LFE11:
 1251              		.size	CySpcUnlock, .-CySpcUnlock
 1252              		.section	.text.CySpcGetAlgorithm,"ax",%progbits
 1253              		.align	2
 1254              		.global	CySpcGetAlgorithm
 1255              		.thumb
 1256              		.thumb_func
 1257              		.type	CySpcGetAlgorithm, %function
 1258              	CySpcGetAlgorithm:
 1259              	.LFB12:
ARM GAS  C:\Users\subra\AppData\Local\Temp\cckfOUaB.s 			page 36


 721:Generated_Source\PSoC5/CySpc.c **** 
 722:Generated_Source\PSoC5/CySpc.c **** 
 723:Generated_Source\PSoC5/CySpc.c **** /*******************************************************************************
 724:Generated_Source\PSoC5/CySpc.c **** * Function Name: CySpcGetAlgorithm
 725:Generated_Source\PSoC5/CySpc.c **** ****************************************************************************//**
 726:Generated_Source\PSoC5/CySpc.c **** *  Downloads SPC algorithm from SPC SROM into SRAM.
 727:Generated_Source\PSoC5/CySpc.c **** *
 728:Generated_Source\PSoC5/CySpc.c **** * \return
 729:Generated_Source\PSoC5/CySpc.c **** *  CYRET_STARTED
 730:Generated_Source\PSoC5/CySpc.c **** *  CYRET_LOCKED
 731:Generated_Source\PSoC5/CySpc.c **** *
 732:Generated_Source\PSoC5/CySpc.c **** *******************************************************************************/
 733:Generated_Source\PSoC5/CySpc.c **** cystatus CySpcGetAlgorithm(void)
 734:Generated_Source\PSoC5/CySpc.c **** {
 1260              		.loc 1 734 0
 1261              		.cfi_startproc
 1262              		@ args = 0, pretend = 0, frame = 8
 1263              		@ frame_needed = 1, uses_anonymous_args = 0
 1264              		@ link register save eliminated.
 1265 0000 80B4     		push	{r7}
 1266              		.cfi_def_cfa_offset 4
 1267              		.cfi_offset 7, -4
 1268 0002 83B0     		sub	sp, sp, #12
 1269              		.cfi_def_cfa_offset 16
 1270 0004 00AF     		add	r7, sp, #0
 1271              		.cfi_def_cfa_register 7
 735:Generated_Source\PSoC5/CySpc.c ****     cystatus status = CYRET_STARTED;
 1272              		.loc 1 735 0
 1273 0006 0723     		movs	r3, #7
 1274 0008 7B60     		str	r3, [r7, #4]
 736:Generated_Source\PSoC5/CySpc.c **** 
 737:Generated_Source\PSoC5/CySpc.c ****     /* Make sure the SPC is ready to accept command */
 738:Generated_Source\PSoC5/CySpc.c ****     if(CY_SPC_IDLE)
 1275              		.loc 1 738 0
 1276 000a 0C4B     		ldr	r3, .L96
 1277 000c 1B78     		ldrb	r3, [r3]
 1278 000e DBB2     		uxtb	r3, r3
 1279 0010 03F00203 		and	r3, r3, #2
 1280 0014 002B     		cmp	r3, #0
 1281 0016 09D0     		beq	.L93
 739:Generated_Source\PSoC5/CySpc.c ****     {
 740:Generated_Source\PSoC5/CySpc.c ****         CY_SPC_CPU_DATA_REG = CY_SPC_KEY_ONE;
 1282              		.loc 1 740 0
 1283 0018 094B     		ldr	r3, .L96+4
 1284 001a B622     		movs	r2, #182
 1285 001c 1A70     		strb	r2, [r3]
 741:Generated_Source\PSoC5/CySpc.c ****         CY_SPC_CPU_DATA_REG = CY_SPC_KEY_TWO(CY_SPC_CMD_DWNLD_ALGORITHM);
 1286              		.loc 1 741 0
 1287 001e 084B     		ldr	r3, .L96+4
 1288 0020 E022     		movs	r2, #224
 1289 0022 1A70     		strb	r2, [r3]
 742:Generated_Source\PSoC5/CySpc.c ****         CY_SPC_CPU_DATA_REG = CY_SPC_CMD_DWNLD_ALGORITHM;
 1290              		.loc 1 742 0
 1291 0024 064B     		ldr	r3, .L96+4
 1292 0026 0D22     		movs	r2, #13
 1293 0028 1A70     		strb	r2, [r3]
 1294 002a 01E0     		b	.L94
ARM GAS  C:\Users\subra\AppData\Local\Temp\cckfOUaB.s 			page 37


 1295              	.L93:
 743:Generated_Source\PSoC5/CySpc.c ****     }
 744:Generated_Source\PSoC5/CySpc.c ****     else
 745:Generated_Source\PSoC5/CySpc.c ****     {
 746:Generated_Source\PSoC5/CySpc.c ****         status = CYRET_LOCKED;
 1296              		.loc 1 746 0
 1297 002c 0423     		movs	r3, #4
 1298 002e 7B60     		str	r3, [r7, #4]
 1299              	.L94:
 747:Generated_Source\PSoC5/CySpc.c ****     }
 748:Generated_Source\PSoC5/CySpc.c **** 
 749:Generated_Source\PSoC5/CySpc.c ****     return(status);
 1300              		.loc 1 749 0
 1301 0030 7B68     		ldr	r3, [r7, #4]
 750:Generated_Source\PSoC5/CySpc.c **** }
 1302              		.loc 1 750 0
 1303 0032 1846     		mov	r0, r3
 1304 0034 0C37     		adds	r7, r7, #12
 1305              		.cfi_def_cfa_offset 4
 1306 0036 BD46     		mov	sp, r7
 1307              		.cfi_def_cfa_register 13
 1308              		@ sp needed
 1309 0038 80BC     		pop	{r7}
 1310              		.cfi_restore 7
 1311              		.cfi_def_cfa_offset 0
 1312 003a 7047     		bx	lr
 1313              	.L97:
 1314              		.align	2
 1315              	.L96:
 1316 003c 22470040 		.word	1073760034
 1317 0040 20470040 		.word	1073760032
 1318              		.cfi_endproc
 1319              	.LFE12:
 1320              		.size	CySpcGetAlgorithm, .-CySpcGetAlgorithm
 1321              		.text
 1322              	.Letext0:
 1323              		.file 2 "Generated_Source\\PSoC5\\cytypes.h"
 1324              		.section	.debug_info,"",%progbits
 1325              	.Ldebug_info0:
 1326 0000 BC040000 		.4byte	0x4bc
 1327 0004 0400     		.2byte	0x4
 1328 0006 00000000 		.4byte	.Ldebug_abbrev0
 1329 000a 04       		.byte	0x4
 1330 000b 01       		.uleb128 0x1
 1331 000c 22000000 		.4byte	.LASF45
 1332 0010 0C       		.byte	0xc
 1333 0011 93010000 		.4byte	.LASF46
 1334 0015 5D020000 		.4byte	.LASF47
 1335 0019 00000000 		.4byte	.Ldebug_ranges0+0
 1336 001d 00000000 		.4byte	0
 1337 0021 00000000 		.4byte	.Ldebug_line0
 1338 0025 02       		.uleb128 0x2
 1339 0026 01       		.byte	0x1
 1340 0027 06       		.byte	0x6
 1341 0028 FC020000 		.4byte	.LASF0
 1342 002c 02       		.uleb128 0x2
 1343 002d 01       		.byte	0x1
ARM GAS  C:\Users\subra\AppData\Local\Temp\cckfOUaB.s 			page 38


 1344 002e 08       		.byte	0x8
 1345 002f 59010000 		.4byte	.LASF1
 1346 0033 02       		.uleb128 0x2
 1347 0034 02       		.byte	0x2
 1348 0035 05       		.byte	0x5
 1349 0036 C2020000 		.4byte	.LASF2
 1350 003a 02       		.uleb128 0x2
 1351 003b 02       		.byte	0x2
 1352 003c 07       		.byte	0x7
 1353 003d DA000000 		.4byte	.LASF3
 1354 0041 02       		.uleb128 0x2
 1355 0042 04       		.byte	0x4
 1356 0043 05       		.byte	0x5
 1357 0044 E7020000 		.4byte	.LASF4
 1358 0048 02       		.uleb128 0x2
 1359 0049 04       		.byte	0x4
 1360 004a 07       		.byte	0x7
 1361 004b 21010000 		.4byte	.LASF5
 1362 004f 02       		.uleb128 0x2
 1363 0050 08       		.byte	0x8
 1364 0051 05       		.byte	0x5
 1365 0052 31020000 		.4byte	.LASF6
 1366 0056 02       		.uleb128 0x2
 1367 0057 08       		.byte	0x8
 1368 0058 07       		.byte	0x7
 1369 0059 C7010000 		.4byte	.LASF7
 1370 005d 03       		.uleb128 0x3
 1371 005e 04       		.byte	0x4
 1372 005f 05       		.byte	0x5
 1373 0060 696E7400 		.ascii	"int\000"
 1374 0064 02       		.uleb128 0x2
 1375 0065 04       		.byte	0x4
 1376 0066 07       		.byte	0x7
 1377 0067 B2010000 		.4byte	.LASF8
 1378 006b 04       		.uleb128 0x4
 1379 006c 33010000 		.4byte	.LASF9
 1380 0070 02       		.byte	0x2
 1381 0071 E401     		.2byte	0x1e4
 1382 0073 2C000000 		.4byte	0x2c
 1383 0077 04       		.uleb128 0x4
 1384 0078 7B010000 		.4byte	.LASF10
 1385 007c 02       		.byte	0x2
 1386 007d E501     		.2byte	0x1e5
 1387 007f 3A000000 		.4byte	0x3a
 1388 0083 04       		.uleb128 0x4
 1389 0084 8C010000 		.4byte	.LASF11
 1390 0088 02       		.byte	0x2
 1391 0089 E601     		.2byte	0x1e6
 1392 008b 48000000 		.4byte	0x48
 1393 008f 02       		.uleb128 0x2
 1394 0090 04       		.byte	0x4
 1395 0091 04       		.byte	0x4
 1396 0092 02010000 		.4byte	.LASF12
 1397 0096 02       		.uleb128 0x2
 1398 0097 08       		.byte	0x8
 1399 0098 04       		.byte	0x4
 1400 0099 67010000 		.4byte	.LASF13
ARM GAS  C:\Users\subra\AppData\Local\Temp\cckfOUaB.s 			page 39


 1401 009d 02       		.uleb128 0x2
 1402 009e 01       		.byte	0x1
 1403 009f 08       		.byte	0x8
 1404 00a0 3F020000 		.4byte	.LASF14
 1405 00a4 04       		.uleb128 0x4
 1406 00a5 13000000 		.4byte	.LASF15
 1407 00a9 02       		.byte	0x2
 1408 00aa 8602     		.2byte	0x286
 1409 00ac 48000000 		.4byte	0x48
 1410 00b0 04       		.uleb128 0x4
 1411 00b1 0D010000 		.4byte	.LASF16
 1412 00b5 02       		.byte	0x2
 1413 00b6 8E02     		.2byte	0x28e
 1414 00b8 BC000000 		.4byte	0xbc
 1415 00bc 05       		.uleb128 0x5
 1416 00bd 6B000000 		.4byte	0x6b
 1417 00c1 04       		.uleb128 0x4
 1418 00c2 1C000000 		.4byte	.LASF17
 1419 00c6 02       		.byte	0x2
 1420 00c7 9002     		.2byte	0x290
 1421 00c9 CD000000 		.4byte	0xcd
 1422 00cd 05       		.uleb128 0x5
 1423 00ce 83000000 		.4byte	0x83
 1424 00d2 02       		.uleb128 0x2
 1425 00d3 08       		.byte	0x8
 1426 00d4 04       		.byte	0x4
 1427 00d5 F0020000 		.4byte	.LASF18
 1428 00d9 02       		.uleb128 0x2
 1429 00da 04       		.byte	0x4
 1430 00db 07       		.byte	0x7
 1431 00dc 0B020000 		.4byte	.LASF19
 1432 00e0 06       		.uleb128 0x6
 1433 00e1 B0000000 		.4byte	.LASF20
 1434 00e5 01       		.byte	0x1
 1435 00e6 47       		.byte	0x47
 1436 00e7 00000000 		.4byte	.LFB0
 1437 00eb 48000000 		.4byte	.LFE0-.LFB0
 1438 00ef 01       		.uleb128 0x1
 1439 00f0 9C       		.byte	0x9c
 1440 00f1 04010000 		.4byte	0x104
 1441 00f5 07       		.uleb128 0x7
 1442 00f6 12010000 		.4byte	.LASF22
 1443 00fa 01       		.byte	0x1
 1444 00fb 4A       		.byte	0x4a
 1445 00fc 6B000000 		.4byte	0x6b
 1446 0100 02       		.uleb128 0x2
 1447 0101 91       		.byte	0x91
 1448 0102 77       		.sleb128 -9
 1449 0103 00       		.byte	0
 1450 0104 06       		.uleb128 0x6
 1451 0105 D0000000 		.4byte	.LASF21
 1452 0109 01       		.byte	0x1
 1453 010a 5A       		.byte	0x5a
 1454 010b 00000000 		.4byte	.LFB1
 1455 010f 48000000 		.4byte	.LFE1-.LFB1
 1456 0113 01       		.uleb128 0x1
 1457 0114 9C       		.byte	0x9c
ARM GAS  C:\Users\subra\AppData\Local\Temp\cckfOUaB.s 			page 40


 1458 0115 28010000 		.4byte	0x128
 1459 0119 07       		.uleb128 0x7
 1460 011a 12010000 		.4byte	.LASF22
 1461 011e 01       		.byte	0x1
 1462 011f 5D       		.byte	0x5d
 1463 0120 6B000000 		.4byte	0x6b
 1464 0124 02       		.uleb128 0x2
 1465 0125 91       		.byte	0x91
 1466 0126 77       		.sleb128 -9
 1467 0127 00       		.byte	0
 1468 0128 08       		.uleb128 0x8
 1469 0129 ED000000 		.4byte	.LASF25
 1470 012d 01       		.byte	0x1
 1471 012e 77       		.byte	0x77
 1472 012f 6B000000 		.4byte	0x6b
 1473 0133 00000000 		.4byte	.LFB2
 1474 0137 54000000 		.4byte	.LFE2-.LFB2
 1475 013b 01       		.uleb128 0x1
 1476 013c 9C       		.byte	0x9c
 1477 013d 6A010000 		.4byte	0x16a
 1478 0141 09       		.uleb128 0x9
 1479 0142 C9000000 		.4byte	.LASF23
 1480 0146 01       		.byte	0x1
 1481 0147 77       		.byte	0x77
 1482 0148 6A010000 		.4byte	0x16a
 1483 014c 02       		.uleb128 0x2
 1484 014d 91       		.byte	0x91
 1485 014e 6C       		.sleb128 -20
 1486 014f 09       		.uleb128 0x9
 1487 0150 08010000 		.4byte	.LASF24
 1488 0154 01       		.byte	0x1
 1489 0155 77       		.byte	0x77
 1490 0156 6B000000 		.4byte	0x6b
 1491 015a 02       		.uleb128 0x2
 1492 015b 91       		.byte	0x91
 1493 015c 6B       		.sleb128 -21
 1494 015d 0A       		.uleb128 0xa
 1495 015e 6900     		.ascii	"i\000"
 1496 0160 01       		.byte	0x1
 1497 0161 79       		.byte	0x79
 1498 0162 6B000000 		.4byte	0x6b
 1499 0166 02       		.uleb128 0x2
 1500 0167 91       		.byte	0x91
 1501 0168 77       		.sleb128 -9
 1502 0169 00       		.byte	0
 1503 016a 0B       		.uleb128 0xb
 1504 016b 04       		.byte	0x4
 1505 016c 6B000000 		.4byte	0x6b
 1506 0170 0C       		.uleb128 0xc
 1507 0171 00000000 		.4byte	.LASF26
 1508 0175 01       		.byte	0x1
 1509 0176 A0       		.byte	0xa0
 1510 0177 A4000000 		.4byte	0xa4
 1511 017b 00000000 		.4byte	.LFB3
 1512 017f D0000000 		.4byte	.LFE3-.LFB3
 1513 0183 01       		.uleb128 0x1
 1514 0184 9C       		.byte	0x9c
ARM GAS  C:\Users\subra\AppData\Local\Temp\cckfOUaB.s 			page 41


 1515 0185 DC010000 		.4byte	0x1dc
 1516 0189 09       		.uleb128 0x9
 1517 018a 53010000 		.4byte	.LASF27
 1518 018e 01       		.byte	0x1
 1519 018f A0       		.byte	0xa0
 1520 0190 6B000000 		.4byte	0x6b
 1521 0194 02       		.uleb128 0x2
 1522 0195 91       		.byte	0x91
 1523 0196 6F       		.sleb128 -17
 1524 0197 09       		.uleb128 0x9
 1525 0198 BF010000 		.4byte	.LASF28
 1526 019c 01       		.byte	0x1
 1527 019d A0       		.byte	0xa0
 1528 019e 77000000 		.4byte	0x77
 1529 01a2 02       		.uleb128 0x2
 1530 01a3 91       		.byte	0x91
 1531 01a4 6C       		.sleb128 -20
 1532 01a5 09       		.uleb128 0x9
 1533 01a6 C9000000 		.4byte	.LASF23
 1534 01aa 01       		.byte	0x1
 1535 01ab A0       		.byte	0xa0
 1536 01ac DC010000 		.4byte	0x1dc
 1537 01b0 02       		.uleb128 0x2
 1538 01b1 91       		.byte	0x91
 1539 01b2 68       		.sleb128 -24
 1540 01b3 09       		.uleb128 0x9
 1541 01b4 08010000 		.4byte	.LASF24
 1542 01b8 01       		.byte	0x1
 1543 01b9 A0       		.byte	0xa0
 1544 01ba 6B000000 		.4byte	0x6b
 1545 01be 02       		.uleb128 0x2
 1546 01bf 91       		.byte	0x91
 1547 01c0 6E       		.sleb128 -18
 1548 01c1 07       		.uleb128 0x7
 1549 01c2 FB000000 		.4byte	.LASF29
 1550 01c6 01       		.byte	0x1
 1551 01c7 A3       		.byte	0xa3
 1552 01c8 A4000000 		.4byte	0xa4
 1553 01cc 02       		.uleb128 0x2
 1554 01cd 91       		.byte	0x91
 1555 01ce 74       		.sleb128 -12
 1556 01cf 0A       		.uleb128 0xa
 1557 01d0 6900     		.ascii	"i\000"
 1558 01d2 01       		.byte	0x1
 1559 01d3 A4       		.byte	0xa4
 1560 01d4 6B000000 		.4byte	0x6b
 1561 01d8 02       		.uleb128 0x2
 1562 01d9 91       		.byte	0x91
 1563 01da 73       		.sleb128 -13
 1564 01db 00       		.byte	0
 1565 01dc 0B       		.uleb128 0xb
 1566 01dd 04       		.byte	0x4
 1567 01de E2010000 		.4byte	0x1e2
 1568 01e2 0D       		.uleb128 0xd
 1569 01e3 6B000000 		.4byte	0x6b
 1570 01e7 0C       		.uleb128 0xc
 1571 01e8 FE010000 		.4byte	.LASF30
ARM GAS  C:\Users\subra\AppData\Local\Temp\cckfOUaB.s 			page 42


 1572 01ec 01       		.byte	0x1
 1573 01ed EE       		.byte	0xee
 1574 01ee A4000000 		.4byte	0xa4
 1575 01f2 00000000 		.4byte	.LFB4
 1576 01f6 88000000 		.4byte	.LFE4-.LFB4
 1577 01fa 01       		.uleb128 0x1
 1578 01fb 9C       		.byte	0x9c
 1579 01fc 45020000 		.4byte	0x245
 1580 0200 09       		.uleb128 0x9
 1581 0201 53010000 		.4byte	.LASF27
 1582 0205 01       		.byte	0x1
 1583 0206 EE       		.byte	0xee
 1584 0207 6B000000 		.4byte	0x6b
 1585 020b 02       		.uleb128 0x2
 1586 020c 91       		.byte	0x91
 1587 020d 6F       		.sleb128 -17
 1588 020e 09       		.uleb128 0x9
 1589 020f C9000000 		.4byte	.LASF23
 1590 0213 01       		.byte	0x1
 1591 0214 EE       		.byte	0xee
 1592 0215 DC010000 		.4byte	0x1dc
 1593 0219 02       		.uleb128 0x2
 1594 021a 91       		.byte	0x91
 1595 021b 68       		.sleb128 -24
 1596 021c 09       		.uleb128 0x9
 1597 021d 08010000 		.4byte	.LASF24
 1598 0221 01       		.byte	0x1
 1599 0222 EE       		.byte	0xee
 1600 0223 77000000 		.4byte	0x77
 1601 0227 02       		.uleb128 0x2
 1602 0228 91       		.byte	0x91
 1603 0229 6C       		.sleb128 -20
 1604 022a 07       		.uleb128 0x7
 1605 022b FB000000 		.4byte	.LASF29
 1606 022f 01       		.byte	0x1
 1607 0230 F0       		.byte	0xf0
 1608 0231 A4000000 		.4byte	0xa4
 1609 0235 02       		.uleb128 0x2
 1610 0236 91       		.byte	0x91
 1611 0237 74       		.sleb128 -12
 1612 0238 0A       		.uleb128 0xa
 1613 0239 6900     		.ascii	"i\000"
 1614 023b 01       		.byte	0x1
 1615 023c F1       		.byte	0xf1
 1616 023d 77000000 		.4byte	0x77
 1617 0241 02       		.uleb128 0x2
 1618 0242 91       		.byte	0x91
 1619 0243 72       		.sleb128 -14
 1620 0244 00       		.byte	0
 1621 0245 0E       		.uleb128 0xe
 1622 0246 08030000 		.4byte	.LASF31
 1623 024a 01       		.byte	0x1
 1624 024b 3001     		.2byte	0x130
 1625 024d A4000000 		.4byte	0xa4
 1626 0251 00000000 		.4byte	.LFB5
 1627 0255 CC000000 		.4byte	.LFE5-.LFB5
 1628 0259 01       		.uleb128 0x1
ARM GAS  C:\Users\subra\AppData\Local\Temp\cckfOUaB.s 			page 43


 1629 025a 9C       		.byte	0x9c
 1630 025b C7020000 		.4byte	0x2c7
 1631 025f 0F       		.uleb128 0xf
 1632 0260 53010000 		.4byte	.LASF27
 1633 0264 01       		.byte	0x1
 1634 0265 3001     		.2byte	0x130
 1635 0267 6B000000 		.4byte	0x6b
 1636 026b 02       		.uleb128 0x2
 1637 026c 91       		.byte	0x91
 1638 026d 67       		.sleb128 -25
 1639 026e 10       		.uleb128 0x10
 1640 026f 726F7700 		.ascii	"row\000"
 1641 0273 01       		.byte	0x1
 1642 0274 3001     		.2byte	0x130
 1643 0276 77000000 		.4byte	0x77
 1644 027a 02       		.uleb128 0x2
 1645 027b 91       		.byte	0x91
 1646 027c 64       		.sleb128 -28
 1647 027d 0F       		.uleb128 0xf
 1648 027e C9000000 		.4byte	.LASF23
 1649 0282 01       		.byte	0x1
 1650 0283 3001     		.2byte	0x130
 1651 0285 DC010000 		.4byte	0x1dc
 1652 0289 02       		.uleb128 0x2
 1653 028a 91       		.byte	0x91
 1654 028b 60       		.sleb128 -32
 1655 028c 0F       		.uleb128 0xf
 1656 028d 08010000 		.4byte	.LASF24
 1657 0291 01       		.byte	0x1
 1658 0292 3001     		.2byte	0x130
 1659 0294 77000000 		.4byte	0x77
 1660 0298 02       		.uleb128 0x2
 1661 0299 91       		.byte	0x91
 1662 029a 5E       		.sleb128 -34
 1663 029b 11       		.uleb128 0x11
 1664 029c FB000000 		.4byte	.LASF29
 1665 02a0 01       		.byte	0x1
 1666 02a1 3301     		.2byte	0x133
 1667 02a3 A4000000 		.4byte	0xa4
 1668 02a7 02       		.uleb128 0x2
 1669 02a8 91       		.byte	0x91
 1670 02a9 74       		.sleb128 -12
 1671 02aa 12       		.uleb128 0x12
 1672 02ab 6900     		.ascii	"i\000"
 1673 02ad 01       		.byte	0x1
 1674 02ae 3401     		.2byte	0x134
 1675 02b0 77000000 		.4byte	0x77
 1676 02b4 02       		.uleb128 0x2
 1677 02b5 91       		.byte	0x91
 1678 02b6 72       		.sleb128 -14
 1679 02b7 11       		.uleb128 0x11
 1680 02b8 56020000 		.4byte	.LASF32
 1681 02bc 01       		.byte	0x1
 1682 02bd 3701     		.2byte	0x137
 1683 02bf 83000000 		.4byte	0x83
 1684 02c3 02       		.uleb128 0x2
 1685 02c4 91       		.byte	0x91
ARM GAS  C:\Users\subra\AppData\Local\Temp\cckfOUaB.s 			page 44


 1686 02c5 6C       		.sleb128 -20
 1687 02c6 00       		.byte	0
 1688 02c7 0E       		.uleb128 0xe
 1689 02c8 BB000000 		.4byte	.LASF33
 1690 02cc 01       		.byte	0x1
 1691 02cd B801     		.2byte	0x1b8
 1692 02cf A4000000 		.4byte	0xa4
 1693 02d3 00000000 		.4byte	.LFB6
 1694 02d7 98000000 		.4byte	.LFE6-.LFB6
 1695 02db 01       		.uleb128 0x1
 1696 02dc 9C       		.byte	0x9c
 1697 02dd 2D030000 		.4byte	0x32d
 1698 02e1 0F       		.uleb128 0xf
 1699 02e2 53010000 		.4byte	.LASF27
 1700 02e6 01       		.byte	0x1
 1701 02e7 B801     		.2byte	0x1b8
 1702 02e9 6B000000 		.4byte	0x6b
 1703 02ed 02       		.uleb128 0x2
 1704 02ee 91       		.byte	0x91
 1705 02ef 6F       		.sleb128 -17
 1706 02f0 0F       		.uleb128 0xf
 1707 02f1 BF010000 		.4byte	.LASF28
 1708 02f5 01       		.byte	0x1
 1709 02f6 B801     		.2byte	0x1b8
 1710 02f8 77000000 		.4byte	0x77
 1711 02fc 02       		.uleb128 0x2
 1712 02fd 91       		.byte	0x91
 1713 02fe 6C       		.sleb128 -20
 1714 02ff 0F       		.uleb128 0xf
 1715 0300 46010000 		.4byte	.LASF34
 1716 0304 01       		.byte	0x1
 1717 0305 B801     		.2byte	0x1b8
 1718 0307 6B000000 		.4byte	0x6b
 1719 030b 02       		.uleb128 0x2
 1720 030c 91       		.byte	0x91
 1721 030d 6E       		.sleb128 -18
 1722 030e 0F       		.uleb128 0xf
 1723 030f DE010000 		.4byte	.LASF35
 1724 0313 01       		.byte	0x1
 1725 0314 B801     		.2byte	0x1b8
 1726 0316 6B000000 		.4byte	0x6b
 1727 031a 02       		.uleb128 0x2
 1728 031b 91       		.byte	0x91
 1729 031c 6B       		.sleb128 -21
 1730 031d 11       		.uleb128 0x11
 1731 031e FB000000 		.4byte	.LASF29
 1732 0322 01       		.byte	0x1
 1733 0323 BB01     		.2byte	0x1bb
 1734 0325 A4000000 		.4byte	0xa4
 1735 0329 02       		.uleb128 0x2
 1736 032a 91       		.byte	0x91
 1737 032b 74       		.sleb128 -12
 1738 032c 00       		.byte	0
 1739 032d 0E       		.uleb128 0xe
 1740 032e 20020000 		.4byte	.LASF36
 1741 0332 01       		.byte	0x1
 1742 0333 EC01     		.2byte	0x1ec
ARM GAS  C:\Users\subra\AppData\Local\Temp\cckfOUaB.s 			page 45


 1743 0335 A4000000 		.4byte	0xa4
 1744 0339 00000000 		.4byte	.LFB7
 1745 033d 70000000 		.4byte	.LFE7-.LFB7
 1746 0341 01       		.uleb128 0x1
 1747 0342 9C       		.byte	0x9c
 1748 0343 75030000 		.4byte	0x375
 1749 0347 0F       		.uleb128 0xf
 1750 0348 53010000 		.4byte	.LASF27
 1751 034c 01       		.byte	0x1
 1752 034d EC01     		.2byte	0x1ec
 1753 034f 6B000000 		.4byte	0x6b
 1754 0353 02       		.uleb128 0x2
 1755 0354 91       		.byte	0x91
 1756 0355 6F       		.sleb128 -17
 1757 0356 0F       		.uleb128 0xf
 1758 0357 DA020000 		.4byte	.LASF37
 1759 035b 01       		.byte	0x1
 1760 035c EC01     		.2byte	0x1ec
 1761 035e 6B000000 		.4byte	0x6b
 1762 0362 02       		.uleb128 0x2
 1763 0363 91       		.byte	0x91
 1764 0364 6E       		.sleb128 -18
 1765 0365 11       		.uleb128 0x11
 1766 0366 FB000000 		.4byte	.LASF29
 1767 036a 01       		.byte	0x1
 1768 036b EE01     		.2byte	0x1ee
 1769 036d A4000000 		.4byte	0xa4
 1770 0371 02       		.uleb128 0x2
 1771 0372 91       		.byte	0x91
 1772 0373 74       		.sleb128 -12
 1773 0374 00       		.byte	0
 1774 0375 0E       		.uleb128 0xe
 1775 0376 CC020000 		.4byte	.LASF38
 1776 037a 01       		.byte	0x1
 1777 037b 2402     		.2byte	0x224
 1778 037d A4000000 		.4byte	0xa4
 1779 0381 00000000 		.4byte	.LFB8
 1780 0385 98000000 		.4byte	.LFE8-.LFB8
 1781 0389 01       		.uleb128 0x1
 1782 038a 9C       		.byte	0x9c
 1783 038b DB030000 		.4byte	0x3db
 1784 038f 0F       		.uleb128 0xf
 1785 0390 53010000 		.4byte	.LASF27
 1786 0394 01       		.byte	0x1
 1787 0395 2402     		.2byte	0x224
 1788 0397 6B000000 		.4byte	0x6b
 1789 039b 02       		.uleb128 0x2
 1790 039c 91       		.byte	0x91
 1791 039d 6F       		.sleb128 -17
 1792 039e 0F       		.uleb128 0xf
 1793 039f BF010000 		.4byte	.LASF28
 1794 03a3 01       		.byte	0x1
 1795 03a4 2402     		.2byte	0x224
 1796 03a6 77000000 		.4byte	0x77
 1797 03aa 02       		.uleb128 0x2
 1798 03ab 91       		.byte	0x91
 1799 03ac 6C       		.sleb128 -20
ARM GAS  C:\Users\subra\AppData\Local\Temp\cckfOUaB.s 			page 46


 1800 03ad 0F       		.uleb128 0xf
 1801 03ae 46010000 		.4byte	.LASF34
 1802 03b2 01       		.byte	0x1
 1803 03b3 2402     		.2byte	0x224
 1804 03b5 6B000000 		.4byte	0x6b
 1805 03b9 02       		.uleb128 0x2
 1806 03ba 91       		.byte	0x91
 1807 03bb 6E       		.sleb128 -18
 1808 03bc 0F       		.uleb128 0xf
 1809 03bd DE010000 		.4byte	.LASF35
 1810 03c1 01       		.byte	0x1
 1811 03c2 2402     		.2byte	0x224
 1812 03c4 6B000000 		.4byte	0x6b
 1813 03c8 02       		.uleb128 0x2
 1814 03c9 91       		.byte	0x91
 1815 03ca 6B       		.sleb128 -21
 1816 03cb 11       		.uleb128 0x11
 1817 03cc FB000000 		.4byte	.LASF29
 1818 03d0 01       		.byte	0x1
 1819 03d1 2702     		.2byte	0x227
 1820 03d3 A4000000 		.4byte	0xa4
 1821 03d7 02       		.uleb128 0x2
 1822 03d8 91       		.byte	0x91
 1823 03d9 74       		.sleb128 -12
 1824 03da 00       		.byte	0
 1825 03db 0E       		.uleb128 0xe
 1826 03dc 6E010000 		.4byte	.LASF39
 1827 03e0 01       		.byte	0x1
 1828 03e1 5D02     		.2byte	0x25d
 1829 03e3 A4000000 		.4byte	0xa4
 1830 03e7 00000000 		.4byte	.LFB9
 1831 03eb 64000000 		.4byte	.LFE9-.LFB9
 1832 03ef 01       		.uleb128 0x1
 1833 03f0 9C       		.byte	0x9c
 1834 03f1 14040000 		.4byte	0x414
 1835 03f5 0F       		.uleb128 0xf
 1836 03f6 19030000 		.4byte	.LASF40
 1837 03fa 01       		.byte	0x1
 1838 03fb 5D02     		.2byte	0x25d
 1839 03fd 6B000000 		.4byte	0x6b
 1840 0401 02       		.uleb128 0x2
 1841 0402 91       		.byte	0x91
 1842 0403 6F       		.sleb128 -17
 1843 0404 11       		.uleb128 0x11
 1844 0405 FB000000 		.4byte	.LASF29
 1845 0409 01       		.byte	0x1
 1846 040a 5F02     		.2byte	0x25f
 1847 040c A4000000 		.4byte	0xa4
 1848 0410 02       		.uleb128 0x2
 1849 0411 91       		.byte	0x91
 1850 0412 74       		.sleb128 -12
 1851 0413 00       		.byte	0
 1852 0414 13       		.uleb128 0x13
 1853 0415 82010000 		.4byte	.LASF41
 1854 0419 01       		.byte	0x1
 1855 041a 8602     		.2byte	0x286
 1856 041c A4000000 		.4byte	0xa4
ARM GAS  C:\Users\subra\AppData\Local\Temp\cckfOUaB.s 			page 47


 1857 0420 00000000 		.4byte	.LFB10
 1858 0424 68000000 		.4byte	.LFE10-.LFB10
 1859 0428 01       		.uleb128 0x1
 1860 0429 9C       		.byte	0x9c
 1861 042a 4D040000 		.4byte	0x44d
 1862 042e 11       		.uleb128 0x11
 1863 042f FB000000 		.4byte	.LASF29
 1864 0433 01       		.byte	0x1
 1865 0434 8802     		.2byte	0x288
 1866 0436 A4000000 		.4byte	0xa4
 1867 043a 02       		.uleb128 0x2
 1868 043b 91       		.byte	0x91
 1869 043c 74       		.sleb128 -12
 1870 043d 11       		.uleb128 0x11
 1871 043e 12010000 		.4byte	.LASF22
 1872 0442 01       		.byte	0x1
 1873 0443 8902     		.2byte	0x289
 1874 0445 6B000000 		.4byte	0x6b
 1875 0449 02       		.uleb128 0x2
 1876 044a 91       		.byte	0x91
 1877 044b 73       		.sleb128 -13
 1878 044c 00       		.byte	0
 1879 044d 14       		.uleb128 0x14
 1880 044e 14020000 		.4byte	.LASF42
 1881 0452 01       		.byte	0x1
 1882 0453 B302     		.2byte	0x2b3
 1883 0455 00000000 		.4byte	.LFB11
 1884 0459 50000000 		.4byte	.LFE11-.LFB11
 1885 045d 01       		.uleb128 0x1
 1886 045e 9C       		.byte	0x9c
 1887 045f 73040000 		.4byte	0x473
 1888 0463 11       		.uleb128 0x11
 1889 0464 12010000 		.4byte	.LASF22
 1890 0468 01       		.byte	0x1
 1891 0469 B502     		.2byte	0x2b5
 1892 046b 6B000000 		.4byte	0x6b
 1893 046f 02       		.uleb128 0x2
 1894 0470 91       		.byte	0x91
 1895 0471 77       		.sleb128 -9
 1896 0472 00       		.byte	0
 1897 0473 0E       		.uleb128 0xe
 1898 0474 44020000 		.4byte	.LASF43
 1899 0478 01       		.byte	0x1
 1900 0479 DD02     		.2byte	0x2dd
 1901 047b A4000000 		.4byte	0xa4
 1902 047f 00000000 		.4byte	.LFB12
 1903 0483 44000000 		.4byte	.LFE12-.LFB12
 1904 0487 01       		.uleb128 0x1
 1905 0488 9C       		.byte	0x9c
 1906 0489 9D040000 		.4byte	0x49d
 1907 048d 11       		.uleb128 0x11
 1908 048e FB000000 		.4byte	.LASF29
 1909 0492 01       		.byte	0x1
 1910 0493 DF02     		.2byte	0x2df
 1911 0495 A4000000 		.4byte	0xa4
 1912 0499 02       		.uleb128 0x2
 1913 049a 91       		.byte	0x91
ARM GAS  C:\Users\subra\AppData\Local\Temp\cckfOUaB.s 			page 48


 1914 049b 74       		.sleb128 -12
 1915 049c 00       		.byte	0
 1916 049d 07       		.uleb128 0x7
 1917 049e EC010000 		.4byte	.LASF44
 1918 04a2 01       		.byte	0x1
 1919 04a3 3C       		.byte	0x3c
 1920 04a4 83000000 		.4byte	0x83
 1921 04a8 05       		.uleb128 0x5
 1922 04a9 03       		.byte	0x3
 1923 04aa 04000000 		.4byte	spcWaitPipeBypass
 1924 04ae 15       		.uleb128 0x15
 1925 04af 39010000 		.4byte	.LASF48
 1926 04b3 01       		.byte	0x1
 1927 04b4 30       		.byte	0x30
 1928 04b5 6B000000 		.4byte	0x6b
 1929 04b9 05       		.uleb128 0x5
 1930 04ba 03       		.byte	0x3
 1931 04bb 00000000 		.4byte	SpcLockState
 1932 04bf 00       		.byte	0
 1933              		.section	.debug_abbrev,"",%progbits
 1934              	.Ldebug_abbrev0:
 1935 0000 01       		.uleb128 0x1
 1936 0001 11       		.uleb128 0x11
 1937 0002 01       		.byte	0x1
 1938 0003 25       		.uleb128 0x25
 1939 0004 0E       		.uleb128 0xe
 1940 0005 13       		.uleb128 0x13
 1941 0006 0B       		.uleb128 0xb
 1942 0007 03       		.uleb128 0x3
 1943 0008 0E       		.uleb128 0xe
 1944 0009 1B       		.uleb128 0x1b
 1945 000a 0E       		.uleb128 0xe
 1946 000b 55       		.uleb128 0x55
 1947 000c 17       		.uleb128 0x17
 1948 000d 11       		.uleb128 0x11
 1949 000e 01       		.uleb128 0x1
 1950 000f 10       		.uleb128 0x10
 1951 0010 17       		.uleb128 0x17
 1952 0011 00       		.byte	0
 1953 0012 00       		.byte	0
 1954 0013 02       		.uleb128 0x2
 1955 0014 24       		.uleb128 0x24
 1956 0015 00       		.byte	0
 1957 0016 0B       		.uleb128 0xb
 1958 0017 0B       		.uleb128 0xb
 1959 0018 3E       		.uleb128 0x3e
 1960 0019 0B       		.uleb128 0xb
 1961 001a 03       		.uleb128 0x3
 1962 001b 0E       		.uleb128 0xe
 1963 001c 00       		.byte	0
 1964 001d 00       		.byte	0
 1965 001e 03       		.uleb128 0x3
 1966 001f 24       		.uleb128 0x24
 1967 0020 00       		.byte	0
 1968 0021 0B       		.uleb128 0xb
 1969 0022 0B       		.uleb128 0xb
 1970 0023 3E       		.uleb128 0x3e
ARM GAS  C:\Users\subra\AppData\Local\Temp\cckfOUaB.s 			page 49


 1971 0024 0B       		.uleb128 0xb
 1972 0025 03       		.uleb128 0x3
 1973 0026 08       		.uleb128 0x8
 1974 0027 00       		.byte	0
 1975 0028 00       		.byte	0
 1976 0029 04       		.uleb128 0x4
 1977 002a 16       		.uleb128 0x16
 1978 002b 00       		.byte	0
 1979 002c 03       		.uleb128 0x3
 1980 002d 0E       		.uleb128 0xe
 1981 002e 3A       		.uleb128 0x3a
 1982 002f 0B       		.uleb128 0xb
 1983 0030 3B       		.uleb128 0x3b
 1984 0031 05       		.uleb128 0x5
 1985 0032 49       		.uleb128 0x49
 1986 0033 13       		.uleb128 0x13
 1987 0034 00       		.byte	0
 1988 0035 00       		.byte	0
 1989 0036 05       		.uleb128 0x5
 1990 0037 35       		.uleb128 0x35
 1991 0038 00       		.byte	0
 1992 0039 49       		.uleb128 0x49
 1993 003a 13       		.uleb128 0x13
 1994 003b 00       		.byte	0
 1995 003c 00       		.byte	0
 1996 003d 06       		.uleb128 0x6
 1997 003e 2E       		.uleb128 0x2e
 1998 003f 01       		.byte	0x1
 1999 0040 3F       		.uleb128 0x3f
 2000 0041 19       		.uleb128 0x19
 2001 0042 03       		.uleb128 0x3
 2002 0043 0E       		.uleb128 0xe
 2003 0044 3A       		.uleb128 0x3a
 2004 0045 0B       		.uleb128 0xb
 2005 0046 3B       		.uleb128 0x3b
 2006 0047 0B       		.uleb128 0xb
 2007 0048 27       		.uleb128 0x27
 2008 0049 19       		.uleb128 0x19
 2009 004a 11       		.uleb128 0x11
 2010 004b 01       		.uleb128 0x1
 2011 004c 12       		.uleb128 0x12
 2012 004d 06       		.uleb128 0x6
 2013 004e 40       		.uleb128 0x40
 2014 004f 18       		.uleb128 0x18
 2015 0050 9642     		.uleb128 0x2116
 2016 0052 19       		.uleb128 0x19
 2017 0053 01       		.uleb128 0x1
 2018 0054 13       		.uleb128 0x13
 2019 0055 00       		.byte	0
 2020 0056 00       		.byte	0
 2021 0057 07       		.uleb128 0x7
 2022 0058 34       		.uleb128 0x34
 2023 0059 00       		.byte	0
 2024 005a 03       		.uleb128 0x3
 2025 005b 0E       		.uleb128 0xe
 2026 005c 3A       		.uleb128 0x3a
 2027 005d 0B       		.uleb128 0xb
ARM GAS  C:\Users\subra\AppData\Local\Temp\cckfOUaB.s 			page 50


 2028 005e 3B       		.uleb128 0x3b
 2029 005f 0B       		.uleb128 0xb
 2030 0060 49       		.uleb128 0x49
 2031 0061 13       		.uleb128 0x13
 2032 0062 02       		.uleb128 0x2
 2033 0063 18       		.uleb128 0x18
 2034 0064 00       		.byte	0
 2035 0065 00       		.byte	0
 2036 0066 08       		.uleb128 0x8
 2037 0067 2E       		.uleb128 0x2e
 2038 0068 01       		.byte	0x1
 2039 0069 3F       		.uleb128 0x3f
 2040 006a 19       		.uleb128 0x19
 2041 006b 03       		.uleb128 0x3
 2042 006c 0E       		.uleb128 0xe
 2043 006d 3A       		.uleb128 0x3a
 2044 006e 0B       		.uleb128 0xb
 2045 006f 3B       		.uleb128 0x3b
 2046 0070 0B       		.uleb128 0xb
 2047 0071 27       		.uleb128 0x27
 2048 0072 19       		.uleb128 0x19
 2049 0073 49       		.uleb128 0x49
 2050 0074 13       		.uleb128 0x13
 2051 0075 11       		.uleb128 0x11
 2052 0076 01       		.uleb128 0x1
 2053 0077 12       		.uleb128 0x12
 2054 0078 06       		.uleb128 0x6
 2055 0079 40       		.uleb128 0x40
 2056 007a 18       		.uleb128 0x18
 2057 007b 9642     		.uleb128 0x2116
 2058 007d 19       		.uleb128 0x19
 2059 007e 01       		.uleb128 0x1
 2060 007f 13       		.uleb128 0x13
 2061 0080 00       		.byte	0
 2062 0081 00       		.byte	0
 2063 0082 09       		.uleb128 0x9
 2064 0083 05       		.uleb128 0x5
 2065 0084 00       		.byte	0
 2066 0085 03       		.uleb128 0x3
 2067 0086 0E       		.uleb128 0xe
 2068 0087 3A       		.uleb128 0x3a
 2069 0088 0B       		.uleb128 0xb
 2070 0089 3B       		.uleb128 0x3b
 2071 008a 0B       		.uleb128 0xb
 2072 008b 49       		.uleb128 0x49
 2073 008c 13       		.uleb128 0x13
 2074 008d 02       		.uleb128 0x2
 2075 008e 18       		.uleb128 0x18
 2076 008f 00       		.byte	0
 2077 0090 00       		.byte	0
 2078 0091 0A       		.uleb128 0xa
 2079 0092 34       		.uleb128 0x34
 2080 0093 00       		.byte	0
 2081 0094 03       		.uleb128 0x3
 2082 0095 08       		.uleb128 0x8
 2083 0096 3A       		.uleb128 0x3a
 2084 0097 0B       		.uleb128 0xb
ARM GAS  C:\Users\subra\AppData\Local\Temp\cckfOUaB.s 			page 51


 2085 0098 3B       		.uleb128 0x3b
 2086 0099 0B       		.uleb128 0xb
 2087 009a 49       		.uleb128 0x49
 2088 009b 13       		.uleb128 0x13
 2089 009c 02       		.uleb128 0x2
 2090 009d 18       		.uleb128 0x18
 2091 009e 00       		.byte	0
 2092 009f 00       		.byte	0
 2093 00a0 0B       		.uleb128 0xb
 2094 00a1 0F       		.uleb128 0xf
 2095 00a2 00       		.byte	0
 2096 00a3 0B       		.uleb128 0xb
 2097 00a4 0B       		.uleb128 0xb
 2098 00a5 49       		.uleb128 0x49
 2099 00a6 13       		.uleb128 0x13
 2100 00a7 00       		.byte	0
 2101 00a8 00       		.byte	0
 2102 00a9 0C       		.uleb128 0xc
 2103 00aa 2E       		.uleb128 0x2e
 2104 00ab 01       		.byte	0x1
 2105 00ac 3F       		.uleb128 0x3f
 2106 00ad 19       		.uleb128 0x19
 2107 00ae 03       		.uleb128 0x3
 2108 00af 0E       		.uleb128 0xe
 2109 00b0 3A       		.uleb128 0x3a
 2110 00b1 0B       		.uleb128 0xb
 2111 00b2 3B       		.uleb128 0x3b
 2112 00b3 0B       		.uleb128 0xb
 2113 00b4 27       		.uleb128 0x27
 2114 00b5 19       		.uleb128 0x19
 2115 00b6 49       		.uleb128 0x49
 2116 00b7 13       		.uleb128 0x13
 2117 00b8 11       		.uleb128 0x11
 2118 00b9 01       		.uleb128 0x1
 2119 00ba 12       		.uleb128 0x12
 2120 00bb 06       		.uleb128 0x6
 2121 00bc 40       		.uleb128 0x40
 2122 00bd 18       		.uleb128 0x18
 2123 00be 9742     		.uleb128 0x2117
 2124 00c0 19       		.uleb128 0x19
 2125 00c1 01       		.uleb128 0x1
 2126 00c2 13       		.uleb128 0x13
 2127 00c3 00       		.byte	0
 2128 00c4 00       		.byte	0
 2129 00c5 0D       		.uleb128 0xd
 2130 00c6 26       		.uleb128 0x26
 2131 00c7 00       		.byte	0
 2132 00c8 49       		.uleb128 0x49
 2133 00c9 13       		.uleb128 0x13
 2134 00ca 00       		.byte	0
 2135 00cb 00       		.byte	0
 2136 00cc 0E       		.uleb128 0xe
 2137 00cd 2E       		.uleb128 0x2e
 2138 00ce 01       		.byte	0x1
 2139 00cf 3F       		.uleb128 0x3f
 2140 00d0 19       		.uleb128 0x19
 2141 00d1 03       		.uleb128 0x3
ARM GAS  C:\Users\subra\AppData\Local\Temp\cckfOUaB.s 			page 52


 2142 00d2 0E       		.uleb128 0xe
 2143 00d3 3A       		.uleb128 0x3a
 2144 00d4 0B       		.uleb128 0xb
 2145 00d5 3B       		.uleb128 0x3b
 2146 00d6 05       		.uleb128 0x5
 2147 00d7 27       		.uleb128 0x27
 2148 00d8 19       		.uleb128 0x19
 2149 00d9 49       		.uleb128 0x49
 2150 00da 13       		.uleb128 0x13
 2151 00db 11       		.uleb128 0x11
 2152 00dc 01       		.uleb128 0x1
 2153 00dd 12       		.uleb128 0x12
 2154 00de 06       		.uleb128 0x6
 2155 00df 40       		.uleb128 0x40
 2156 00e0 18       		.uleb128 0x18
 2157 00e1 9742     		.uleb128 0x2117
 2158 00e3 19       		.uleb128 0x19
 2159 00e4 01       		.uleb128 0x1
 2160 00e5 13       		.uleb128 0x13
 2161 00e6 00       		.byte	0
 2162 00e7 00       		.byte	0
 2163 00e8 0F       		.uleb128 0xf
 2164 00e9 05       		.uleb128 0x5
 2165 00ea 00       		.byte	0
 2166 00eb 03       		.uleb128 0x3
 2167 00ec 0E       		.uleb128 0xe
 2168 00ed 3A       		.uleb128 0x3a
 2169 00ee 0B       		.uleb128 0xb
 2170 00ef 3B       		.uleb128 0x3b
 2171 00f0 05       		.uleb128 0x5
 2172 00f1 49       		.uleb128 0x49
 2173 00f2 13       		.uleb128 0x13
 2174 00f3 02       		.uleb128 0x2
 2175 00f4 18       		.uleb128 0x18
 2176 00f5 00       		.byte	0
 2177 00f6 00       		.byte	0
 2178 00f7 10       		.uleb128 0x10
 2179 00f8 05       		.uleb128 0x5
 2180 00f9 00       		.byte	0
 2181 00fa 03       		.uleb128 0x3
 2182 00fb 08       		.uleb128 0x8
 2183 00fc 3A       		.uleb128 0x3a
 2184 00fd 0B       		.uleb128 0xb
 2185 00fe 3B       		.uleb128 0x3b
 2186 00ff 05       		.uleb128 0x5
 2187 0100 49       		.uleb128 0x49
 2188 0101 13       		.uleb128 0x13
 2189 0102 02       		.uleb128 0x2
 2190 0103 18       		.uleb128 0x18
 2191 0104 00       		.byte	0
 2192 0105 00       		.byte	0
 2193 0106 11       		.uleb128 0x11
 2194 0107 34       		.uleb128 0x34
 2195 0108 00       		.byte	0
 2196 0109 03       		.uleb128 0x3
 2197 010a 0E       		.uleb128 0xe
 2198 010b 3A       		.uleb128 0x3a
ARM GAS  C:\Users\subra\AppData\Local\Temp\cckfOUaB.s 			page 53


 2199 010c 0B       		.uleb128 0xb
 2200 010d 3B       		.uleb128 0x3b
 2201 010e 05       		.uleb128 0x5
 2202 010f 49       		.uleb128 0x49
 2203 0110 13       		.uleb128 0x13
 2204 0111 02       		.uleb128 0x2
 2205 0112 18       		.uleb128 0x18
 2206 0113 00       		.byte	0
 2207 0114 00       		.byte	0
 2208 0115 12       		.uleb128 0x12
 2209 0116 34       		.uleb128 0x34
 2210 0117 00       		.byte	0
 2211 0118 03       		.uleb128 0x3
 2212 0119 08       		.uleb128 0x8
 2213 011a 3A       		.uleb128 0x3a
 2214 011b 0B       		.uleb128 0xb
 2215 011c 3B       		.uleb128 0x3b
 2216 011d 05       		.uleb128 0x5
 2217 011e 49       		.uleb128 0x49
 2218 011f 13       		.uleb128 0x13
 2219 0120 02       		.uleb128 0x2
 2220 0121 18       		.uleb128 0x18
 2221 0122 00       		.byte	0
 2222 0123 00       		.byte	0
 2223 0124 13       		.uleb128 0x13
 2224 0125 2E       		.uleb128 0x2e
 2225 0126 01       		.byte	0x1
 2226 0127 3F       		.uleb128 0x3f
 2227 0128 19       		.uleb128 0x19
 2228 0129 03       		.uleb128 0x3
 2229 012a 0E       		.uleb128 0xe
 2230 012b 3A       		.uleb128 0x3a
 2231 012c 0B       		.uleb128 0xb
 2232 012d 3B       		.uleb128 0x3b
 2233 012e 05       		.uleb128 0x5
 2234 012f 27       		.uleb128 0x27
 2235 0130 19       		.uleb128 0x19
 2236 0131 49       		.uleb128 0x49
 2237 0132 13       		.uleb128 0x13
 2238 0133 11       		.uleb128 0x11
 2239 0134 01       		.uleb128 0x1
 2240 0135 12       		.uleb128 0x12
 2241 0136 06       		.uleb128 0x6
 2242 0137 40       		.uleb128 0x40
 2243 0138 18       		.uleb128 0x18
 2244 0139 9642     		.uleb128 0x2116
 2245 013b 19       		.uleb128 0x19
 2246 013c 01       		.uleb128 0x1
 2247 013d 13       		.uleb128 0x13
 2248 013e 00       		.byte	0
 2249 013f 00       		.byte	0
 2250 0140 14       		.uleb128 0x14
 2251 0141 2E       		.uleb128 0x2e
 2252 0142 01       		.byte	0x1
 2253 0143 3F       		.uleb128 0x3f
 2254 0144 19       		.uleb128 0x19
 2255 0145 03       		.uleb128 0x3
ARM GAS  C:\Users\subra\AppData\Local\Temp\cckfOUaB.s 			page 54


 2256 0146 0E       		.uleb128 0xe
 2257 0147 3A       		.uleb128 0x3a
 2258 0148 0B       		.uleb128 0xb
 2259 0149 3B       		.uleb128 0x3b
 2260 014a 05       		.uleb128 0x5
 2261 014b 27       		.uleb128 0x27
 2262 014c 19       		.uleb128 0x19
 2263 014d 11       		.uleb128 0x11
 2264 014e 01       		.uleb128 0x1
 2265 014f 12       		.uleb128 0x12
 2266 0150 06       		.uleb128 0x6
 2267 0151 40       		.uleb128 0x40
 2268 0152 18       		.uleb128 0x18
 2269 0153 9642     		.uleb128 0x2116
 2270 0155 19       		.uleb128 0x19
 2271 0156 01       		.uleb128 0x1
 2272 0157 13       		.uleb128 0x13
 2273 0158 00       		.byte	0
 2274 0159 00       		.byte	0
 2275 015a 15       		.uleb128 0x15
 2276 015b 34       		.uleb128 0x34
 2277 015c 00       		.byte	0
 2278 015d 03       		.uleb128 0x3
 2279 015e 0E       		.uleb128 0xe
 2280 015f 3A       		.uleb128 0x3a
 2281 0160 0B       		.uleb128 0xb
 2282 0161 3B       		.uleb128 0x3b
 2283 0162 0B       		.uleb128 0xb
 2284 0163 49       		.uleb128 0x49
 2285 0164 13       		.uleb128 0x13
 2286 0165 3F       		.uleb128 0x3f
 2287 0166 19       		.uleb128 0x19
 2288 0167 02       		.uleb128 0x2
 2289 0168 18       		.uleb128 0x18
 2290 0169 00       		.byte	0
 2291 016a 00       		.byte	0
 2292 016b 00       		.byte	0
 2293              		.section	.debug_aranges,"",%progbits
 2294 0000 7C000000 		.4byte	0x7c
 2295 0004 0200     		.2byte	0x2
 2296 0006 00000000 		.4byte	.Ldebug_info0
 2297 000a 04       		.byte	0x4
 2298 000b 00       		.byte	0
 2299 000c 0000     		.2byte	0
 2300 000e 0000     		.2byte	0
 2301 0010 00000000 		.4byte	.LFB0
 2302 0014 48000000 		.4byte	.LFE0-.LFB0
 2303 0018 00000000 		.4byte	.LFB1
 2304 001c 48000000 		.4byte	.LFE1-.LFB1
 2305 0020 00000000 		.4byte	.LFB2
 2306 0024 54000000 		.4byte	.LFE2-.LFB2
 2307 0028 00000000 		.4byte	.LFB3
 2308 002c D0000000 		.4byte	.LFE3-.LFB3
 2309 0030 00000000 		.4byte	.LFB4
 2310 0034 88000000 		.4byte	.LFE4-.LFB4
 2311 0038 00000000 		.4byte	.LFB5
 2312 003c CC000000 		.4byte	.LFE5-.LFB5
ARM GAS  C:\Users\subra\AppData\Local\Temp\cckfOUaB.s 			page 55


 2313 0040 00000000 		.4byte	.LFB6
 2314 0044 98000000 		.4byte	.LFE6-.LFB6
 2315 0048 00000000 		.4byte	.LFB7
 2316 004c 70000000 		.4byte	.LFE7-.LFB7
 2317 0050 00000000 		.4byte	.LFB8
 2318 0054 98000000 		.4byte	.LFE8-.LFB8
 2319 0058 00000000 		.4byte	.LFB9
 2320 005c 64000000 		.4byte	.LFE9-.LFB9
 2321 0060 00000000 		.4byte	.LFB10
 2322 0064 68000000 		.4byte	.LFE10-.LFB10
 2323 0068 00000000 		.4byte	.LFB11
 2324 006c 50000000 		.4byte	.LFE11-.LFB11
 2325 0070 00000000 		.4byte	.LFB12
 2326 0074 44000000 		.4byte	.LFE12-.LFB12
 2327 0078 00000000 		.4byte	0
 2328 007c 00000000 		.4byte	0
 2329              		.section	.debug_ranges,"",%progbits
 2330              	.Ldebug_ranges0:
 2331 0000 00000000 		.4byte	.LFB0
 2332 0004 48000000 		.4byte	.LFE0
 2333 0008 00000000 		.4byte	.LFB1
 2334 000c 48000000 		.4byte	.LFE1
 2335 0010 00000000 		.4byte	.LFB2
 2336 0014 54000000 		.4byte	.LFE2
 2337 0018 00000000 		.4byte	.LFB3
 2338 001c D0000000 		.4byte	.LFE3
 2339 0020 00000000 		.4byte	.LFB4
 2340 0024 88000000 		.4byte	.LFE4
 2341 0028 00000000 		.4byte	.LFB5
 2342 002c CC000000 		.4byte	.LFE5
 2343 0030 00000000 		.4byte	.LFB6
 2344 0034 98000000 		.4byte	.LFE6
 2345 0038 00000000 		.4byte	.LFB7
 2346 003c 70000000 		.4byte	.LFE7
 2347 0040 00000000 		.4byte	.LFB8
 2348 0044 98000000 		.4byte	.LFE8
 2349 0048 00000000 		.4byte	.LFB9
 2350 004c 64000000 		.4byte	.LFE9
 2351 0050 00000000 		.4byte	.LFB10
 2352 0054 68000000 		.4byte	.LFE10
 2353 0058 00000000 		.4byte	.LFB11
 2354 005c 50000000 		.4byte	.LFE11
 2355 0060 00000000 		.4byte	.LFB12
 2356 0064 44000000 		.4byte	.LFE12
 2357 0068 00000000 		.4byte	0
 2358 006c 00000000 		.4byte	0
 2359              		.section	.debug_line,"",%progbits
 2360              	.Ldebug_line0:
 2361 0000 2D020000 		.section	.debug_str,"MS",%progbits,1
 2361      02004200 
 2361      00000201 
 2361      FB0E0D00 
 2361      01010101 
 2362              	.LASF26:
 2363 0000 43795370 		.ascii	"CySpcLoadMultiByte\000"
 2363      634C6F61 
 2363      644D756C 
ARM GAS  C:\Users\subra\AppData\Local\Temp\cckfOUaB.s 			page 56


 2363      74694279 
 2363      746500
 2364              	.LASF15:
 2365 0013 63797374 		.ascii	"cystatus\000"
 2365      61747573 
 2365      00
 2366              	.LASF17:
 2367 001c 72656733 		.ascii	"reg32\000"
 2367      3200
 2368              	.LASF45:
 2369 0022 474E5520 		.ascii	"GNU C11 5.4.1 20160609 (release) [ARM/embedded-5-br"
 2369      43313120 
 2369      352E342E 
 2369      31203230 
 2369      31363036 
 2370 0055 616E6368 		.ascii	"anch revision 237715] -mcpu=cortex-m3 -mthumb -g -O"
 2370      20726576 
 2370      6973696F 
 2370      6E203233 
 2370      37373135 
 2371 0088 30202D66 		.ascii	"0 -ffunction-sections -ffat-lto-objects\000"
 2371      66756E63 
 2371      74696F6E 
 2371      2D736563 
 2371      74696F6E 
 2372              	.LASF20:
 2373 00b0 43795370 		.ascii	"CySpcStart\000"
 2373      63537461 
 2373      727400
 2374              	.LASF33:
 2375 00bb 43795370 		.ascii	"CySpcWriteRow\000"
 2375      63577269 
 2375      7465526F 
 2375      7700
 2376              	.LASF23:
 2377 00c9 62756666 		.ascii	"buffer\000"
 2377      657200
 2378              	.LASF21:
 2379 00d0 43795370 		.ascii	"CySpcStop\000"
 2379      6353746F 
 2379      7000
 2380              	.LASF3:
 2381 00da 73686F72 		.ascii	"short unsigned int\000"
 2381      7420756E 
 2381      7369676E 
 2381      65642069 
 2381      6E7400
 2382              	.LASF25:
 2383 00ed 43795370 		.ascii	"CySpcReadData\000"
 2383      63526561 
 2383      64446174 
 2383      6100
 2384              	.LASF29:
 2385 00fb 73746174 		.ascii	"status\000"
 2385      757300
 2386              	.LASF12:
 2387 0102 666C6F61 		.ascii	"float\000"
ARM GAS  C:\Users\subra\AppData\Local\Temp\cckfOUaB.s 			page 57


 2387      7400
 2388              	.LASF24:
 2389 0108 73697A65 		.ascii	"size\000"
 2389      00
 2390              	.LASF16:
 2391 010d 72656738 		.ascii	"reg8\000"
 2391      00
 2392              	.LASF22:
 2393 0112 696E7465 		.ascii	"interruptState\000"
 2393      72727570 
 2393      74537461 
 2393      746500
 2394              	.LASF5:
 2395 0121 6C6F6E67 		.ascii	"long unsigned int\000"
 2395      20756E73 
 2395      69676E65 
 2395      6420696E 
 2395      7400
 2396              	.LASF9:
 2397 0133 75696E74 		.ascii	"uint8\000"
 2397      3800
 2398              	.LASF48:
 2399 0139 5370634C 		.ascii	"SpcLockState\000"
 2399      6F636B53 
 2399      74617465 
 2399      00
 2400              	.LASF34:
 2401 0146 74656D70 		.ascii	"tempPolarity\000"
 2401      506F6C61 
 2401      72697479 
 2401      00
 2402              	.LASF27:
 2403 0153 61727261 		.ascii	"array\000"
 2403      7900
 2404              	.LASF1:
 2405 0159 756E7369 		.ascii	"unsigned char\000"
 2405      676E6564 
 2405      20636861 
 2405      7200
 2406              	.LASF13:
 2407 0167 646F7562 		.ascii	"double\000"
 2407      6C6500
 2408              	.LASF39:
 2409 016e 43795370 		.ascii	"CySpcGetTemp\000"
 2409      63476574 
 2409      54656D70 
 2409      00
 2410              	.LASF10:
 2411 017b 75696E74 		.ascii	"uint16\000"
 2411      313600
 2412              	.LASF41:
 2413 0182 43795370 		.ascii	"CySpcLock\000"
 2413      634C6F63 
 2413      6B00
 2414              	.LASF11:
 2415 018c 75696E74 		.ascii	"uint32\000"
 2415      333200
ARM GAS  C:\Users\subra\AppData\Local\Temp\cckfOUaB.s 			page 58


 2416              	.LASF46:
 2417 0193 47656E65 		.ascii	"Generated_Source\\PSoC5\\CySpc.c\000"
 2417      72617465 
 2417      645F536F 
 2417      75726365 
 2417      5C50536F 
 2418              	.LASF8:
 2419 01b2 756E7369 		.ascii	"unsigned int\000"
 2419      676E6564 
 2419      20696E74 
 2419      00
 2420              	.LASF28:
 2421 01bf 61646472 		.ascii	"address\000"
 2421      65737300 
 2422              	.LASF7:
 2423 01c7 6C6F6E67 		.ascii	"long long unsigned int\000"
 2423      206C6F6E 
 2423      6720756E 
 2423      7369676E 
 2423      65642069 
 2424              	.LASF35:
 2425 01de 74656D70 		.ascii	"tempMagnitude\000"
 2425      4D61676E 
 2425      69747564 
 2425      6500
 2426              	.LASF44:
 2427 01ec 73706357 		.ascii	"spcWaitPipeBypass\000"
 2427      61697450 
 2427      69706542 
 2427      79706173 
 2427      7300
 2428              	.LASF30:
 2429 01fe 43795370 		.ascii	"CySpcLoadRow\000"
 2429      634C6F61 
 2429      64526F77 
 2429      00
 2430              	.LASF19:
 2431 020b 73697A65 		.ascii	"sizetype\000"
 2431      74797065 
 2431      00
 2432              	.LASF42:
 2433 0214 43795370 		.ascii	"CySpcUnlock\000"
 2433      63556E6C 
 2433      6F636B00 
 2434              	.LASF36:
 2435 0220 43795370 		.ascii	"CySpcEraseSector\000"
 2435      63457261 
 2435      73655365 
 2435      63746F72 
 2435      00
 2436              	.LASF6:
 2437 0231 6C6F6E67 		.ascii	"long long int\000"
 2437      206C6F6E 
 2437      6720696E 
 2437      7400
 2438              	.LASF14:
 2439 023f 63686172 		.ascii	"char\000"
ARM GAS  C:\Users\subra\AppData\Local\Temp\cckfOUaB.s 			page 59


 2439      00
 2440              	.LASF43:
 2441 0244 43795370 		.ascii	"CySpcGetAlgorithm\000"
 2441      63476574 
 2441      416C676F 
 2441      72697468 
 2441      6D00
 2442              	.LASF32:
 2443 0256 6F666673 		.ascii	"offset\000"
 2443      657400
 2444              	.LASF47:
 2445 025d 443A5C50 		.ascii	"D:\\Projects\\NS\\Firmware\\NeruoStim\\PSOC6\\blink"
 2445      726F6A65 
 2445      6374735C 
 2445      4E535C46 
 2445      69726D77 
 2446 028a 795F6C65 		.ascii	"y_led\\blinky_led\\CE195352_PSoC_5LP_Blinking_LED01"
 2446      645C626C 
 2446      696E6B79 
 2446      5F6C6564 
 2446      5C434531 
 2447 02bb 2E637964 		.ascii	".cydsn\000"
 2447      736E00
 2448              	.LASF2:
 2449 02c2 73686F72 		.ascii	"short int\000"
 2449      7420696E 
 2449      7400
 2450              	.LASF38:
 2451 02cc 43795370 		.ascii	"CySpcEraseRow\000"
 2451      63457261 
 2451      7365526F 
 2451      7700
 2452              	.LASF37:
 2453 02da 73656374 		.ascii	"sectorNumber\000"
 2453      6F724E75 
 2453      6D626572 
 2453      00
 2454              	.LASF4:
 2455 02e7 6C6F6E67 		.ascii	"long int\000"
 2455      20696E74 
 2455      00
 2456              	.LASF18:
 2457 02f0 6C6F6E67 		.ascii	"long double\000"
 2457      20646F75 
 2457      626C6500 
 2458              	.LASF0:
 2459 02fc 7369676E 		.ascii	"signed char\000"
 2459      65642063 
 2459      68617200 
 2460              	.LASF31:
 2461 0308 43795370 		.ascii	"CySpcLoadRowFull\000"
 2461      634C6F61 
 2461      64526F77 
 2461      46756C6C 
 2461      00
 2462              	.LASF40:
 2463 0319 6E756D53 		.ascii	"numSamples\000"
ARM GAS  C:\Users\subra\AppData\Local\Temp\cckfOUaB.s 			page 60


 2463      616D706C 
 2463      657300
 2464              		.ident	"GCC: (GNU Tools for ARM Embedded Processors) 5.4.1 20160609 (release) [ARM/embedded-5-bran
